000A:8000 3F DF        romb
000A:8002 3E F0 80 00  sm    (0080),r0
000A:8006 21 1E        move  r14,r1
000A:8008 A0 11        ibt   r0,#0011
000A:800A 3D 4E        cmode
000A:800C A2 00        ibt   r2,#0000
000A:800E F4 0F 0F     iwt   r4,#0F0F
000A:8011 EF           getb
000A:8012 50           add   r0
000A:8013 50           add   r0
000A:8014 50           add   r0
000A:8015 16 50        add   r0
000A:8017 94           link  #04
000A:8018 FF B3 81     iwt   r15,#81B3
000A:801B EF           getb
000A:801C 04           rol
000A:801D C6           or    r6
000A:801E 16 74        and   r4
000A:8020 EF           getb
000A:8021 50           add   r0
000A:8022 50           add   r0
000A:8023 50           add   r0
000A:8024 17 50        add   r0
000A:8026 94           link  #04
000A:8027 FF B3 81     iwt   r15,#81B3
000A:802A EF           getb
000A:802B 04           rol
000A:802C C7           or    r7
000A:802D 17 74        and   r4
000A:802F EF           getb
000A:8030 50           add   r0
000A:8031 50           add   r0
000A:8032 50           add   r0
000A:8033 18 50        add   r0
000A:8035 94           link  #04
000A:8036 FF B3 81     iwt   r15,#81B3
000A:8039 EF           getb
000A:803A 04           rol
000A:803B C8           or    r8
000A:803C 18 74        and   r4
000A:803E EF           getb
000A:803F 19 74        and   r4
000A:8041 60           sub   r0
000A:8042 A1 00        ibt   r1,#0000
000A:8044 AC 40        ibt   r12,#0040
000A:8046 02           cache
000A:8047 2F 1D        move  r13,r15
000A:8049 31           stw   (r1)
000A:804A D1           inc   r1
000A:804B 3C           loop
000A:804C D1           inc   r1
000A:804D E1           dec   r1
000A:804E 94           link  #04
000A:804F FF B3 81     iwt   r15,#81B3
000A:8052 EF           getb
000A:8053 AA 05        ibt   r10,#0005
000A:8055 03           lsr
000A:8056 03           lsr
000A:8057 FF 16 81     iwt   r15,#8116
000A:805A 03           lsr
000A:805B 08 06        bne   8063
000A:805D 03           lsr
000A:805E 94           link  #04
000A:805F FF B3 81     iwt   r15,#81B3
000A:8062 EF           getb
000A:8063 20 14        move  r4,r0
000A:8065 15 3D 41     ldb   (r1)
000A:8068 0D 1B        bcs   8085
000A:806A E1           dec   r1
000A:806B 3D 41        ldb   (r1)
000A:806D 3F 65        cmp   r5
000A:806F 09 FA        beq   806B
000A:8071 E1           dec   r1
000A:8072 D1           inc   r1
000A:8073 2F 1D        move  r13,r15
000A:8075 B5 3D 31     stb   (r1)
000A:8078 3C           loop
000A:8079 E1           dec   r1
000A:807A 0A 16        bpl   8092
000A:807C 3D 01        nop
000A:807E 05 6C        bra   80EC
000A:8080 D1           inc   r1
000A:8081 71           and   r1
000A:8082 05 0B        bra   808F
000A:8084 60           sub   r0
000A:8085 0B FA        bmi   8081
000A:8087 3D 41        ldb   (r1)
000A:8089 3F 65        cmp   r5
000A:808B 09 F8        beq   8085
000A:808D E1           dec   r1
000A:808E D1           inc   r1
000A:808F 21 5C        add   r12
000A:8091 3D 31        stb   (r1)
000A:8093 24 10        move  r0,r4
000A:8095 AC 00        ibt   r12,#0000
000A:8097 A4 01        ibt   r4,#0001
000A:8099 05 11        bra   80AC
000A:809B EA           dec   r10
000A:809C EA           dec   r10
000A:809D 08 06        bne   80A5
000A:809F 03           lsr
000A:80A0 94           link  #04
000A:80A1 FF B3 81     iwt   r15,#81B3
000A:80A4 EF           getb
000A:80A5 0C 02        bcc   80A9
000A:80A7 2C C4        or    r4
000A:80A9 24 54        add   r4
000A:80AB EA           dec   r10
000A:80AC 08 06        bne   80B4
000A:80AE 03           lsr
000A:80AF 94           link  #04
000A:80B0 FF B3 81     iwt   r15,#81B3
000A:80B3 EF           getb
000A:80B4 0D E6        bcs   809C
000A:80B6 2C C4        or    r4
000A:80B8 29 B9        moves r9,r9
000A:80BA 0A 6C        bpl   8128
000A:80BC EA           dec   r10
000A:80BD 08 06        bne   80C5
000A:80BF 03           lsr
000A:80C0 94           link  #04
000A:80C1 FF B3 81     iwt   r15,#81B3
000A:80C4 EF           getb
000A:80C5 0D 94        bcs   805B
000A:80C7 EA           dec   r10
000A:80C8 08 06        bne   80D0
000A:80CA 03           lsr
000A:80CB 94           link  #04
000A:80CC FF B3 81     iwt   r15,#81B3
000A:80CF EF           getb
000A:80D0 0D 55        bcs   8127
000A:80D2 20 14        move  r4,r0
000A:80D4 2F 1D        move  r13,r15
000A:80D6 15 3D 41     ldb   (r1)
000A:80D9 E1           dec   r1
000A:80DA 0B 0F        bmi   80EB
000A:80DC 3D 41        ldb   (r1)
000A:80DE 3F 65        cmp   r5
000A:80E0 09 F8        beq   80DA
000A:80E2 E1           dec   r1
000A:80E3 3C           loop
000A:80E4 D1           inc   r1
000A:80E5 24 10        move  r0,r4
000A:80E7 05 AD        bra   8096
000A:80E9 AC 14        ibt   r12,#0014
000A:80EB D1           inc   r1
000A:80EC FC 80 00     iwt   r12,#0080
000A:80EF 2F 1D        move  r13,r15
000A:80F1 3D 41        ldb   (r1)
000A:80F3 4E           color
000A:80F4 3C           loop
000A:80F5 4C           plot
000A:80F6 D2           inc   r2
000A:80F7 B2 3F 63     cmp   r3
000A:80FA 0C 18        bcc   8114
000A:80FC E1           dec   r1
000A:80FD 3D 4C        rpix
000A:80FF 00           stop
000A:8100 01           nop

000A:8101 15 4D        swap
000A:8103 25 3E 7F     and   #0F
000A:8106 2F 1D        move  r13,r15
000A:8108 B5 3D 31     stb   (r1)
000A:810B 3C           loop
000A:810C E1           dec   r1
000A:810D 0A 87        bpl   8096
000A:810F AC 00        ibt   r12,#0000
000A:8111 05 D7        bra   80EA
000A:8113 20 24 10     move  r0,r4
000A:8116 29 04        rol
000A:8118 EA           dec   r10
000A:8119 08 06        bne   8121
000A:811B 03           lsr
000A:811C 94           link  #04
000A:811D FF B3 81     iwt   r15,#81B3
000A:8120 EF           getb
000A:8121 29 97        ror
000A:8123 FF 96 80     iwt   r15,#8096
000A:8126 AC EA        ibt   r12,#FFEA
000A:8128 08 06        bne   8130
000A:812A 03           lsr
000A:812B 94           link  #04
000A:812C FF B3 81     iwt   r15,#81B3
000A:812F EF           getb
000A:8130 0D 1A        bcs   814C
000A:8132 EA           dec   r10
000A:8133 08 05        bne   813A
000A:8135 03           lsr
000A:8136 93           link  #03
000A:8137 05 7A        bra   81B3
000A:8139 EF           getb
000A:813A 0D 29        bcs   8165
000A:813C EA           dec   r10
000A:813D 08 05        bne   8144
000A:813F 03           lsr
000A:8140 93           link  #03
000A:8141 05 70        bra   81B3
000A:8143 EF           getb
000A:8144 0D BB        bcs   8101
000A:8146 B6           from  r6
000A:8147 15           to    r5
000A:8148 3E           alt2
000A:8149 05 BB        bra   8106
000A:814B 7F           and   r15
000A:814C 08 05        bne   8153
000A:814E 03           lsr
000A:814F 93           link  #03
000A:8150 05 61        bra   81B3
000A:8152 EF           getb
000A:8153 0D 1F        bcs   8174
000A:8155 EA           dec   r10
000A:8156 08 05        bne   815D
000A:8158 03           lsr
000A:8159 93           link  #03
000A:815A 05 57        bra   81B3
000A:815C EF           getb
000A:815D 0D A2        bcs   8101
000A:815F B8           from  r8
000A:8160 15           to    r5
000A:8161 3E           alt2
000A:8162 05 A2        bra   8106
000A:8164 7F           and   r15
000A:8165 08 05        bne   816C
000A:8167 03           lsr
000A:8168 93           link  #03
000A:8169 05 48        bra   81B3
000A:816B EF           getb
000A:816C 0D 93        bcs   8101
000A:816E B7           from  r7
000A:816F 15           to    r5
000A:8170 3E           alt2
000A:8171 05 93        bra   8106
000A:8173 7F           and   r15
000A:8174 08 05        bne   817B
000A:8176 03           lsr
000A:8177 93           link  #03
000A:8178 05 39        bra   81B3
000A:817A EF           getb
000A:817B 0D 08        bcs   8185
000A:817D B9 15 3E 7F  and   #0F
000A:8181 FF 07 81     iwt   r15,#8107
000A:8184 2F A5 00     ibt   r5,#0000
000A:8187 EA           dec   r10
000A:8188 08 05        bne   818F
000A:818A 03           lsr
000A:818B 93           link  #03
000A:818C 05 25        bra   81B3
000A:818E EF           getb
000A:818F 25 04        rol
000A:8191 EA           dec   r10
000A:8192 08 05        bne   8199
000A:8194 03           lsr
000A:8195 93           link  #03
000A:8196 05 1B        bra   81B3
000A:8198 EF           getb
000A:8199 25 04        rol
000A:819B EA           dec   r10
000A:819C 08 05        bne   81A3
000A:819E 03           lsr
000A:819F 93           link  #03
000A:81A0 05 11        bra   81B3
000A:81A2 EF           getb
000A:81A3 25 04        rol
000A:81A5 EA           dec   r10
000A:81A6 08 05        bne   81AD
000A:81A8 03           lsr
000A:81A9 93           link  #03
000A:81AA 05 07        bra   81B3
000A:81AC EF           getb
000A:81AD 25 04        rol
000A:81AF FF 07 81     iwt   r15,#8107
000A:81B2 2F DE        inc   r14
000A:81B4 08 0F        bne   81C5
000A:81B6 AA 08        ibt   r10,#0008
000A:81B8 3D FA 80 00  lm    r10,(0080)
000A:81BC DA           inc   r10
000A:81BD BA 90        sbk
000A:81BF BA 3F DF     romb
000A:81C2 AE 00        ibt   r14,#0000
000A:81C4 AA 08        ibt   r10,#0008
000A:81C6 2B 1F        move  r15,r11
000A:81C8 03           lsr
000A:81C9 22 3E 68     sub   #08
000A:81CC 23 3E 68     sub   #08
000A:81CF A0 0A        ibt   r0,#000A
000A:81D1 3F DF        romb
000A:81D3 FE 0E 86     iwt   r14,#860E
000A:81D6 EF           getb
000A:81D7 3E A0 10     sms   (0020),r0
000A:81DA 1A 4D        swap
000A:81DC F9 D1 00     iwt   r9,#00D1
000A:81DF 3D A0 01     lms   r0,(0002)
000A:81E2 11 3E 68     sub   #08
000A:81E5 F0 00 22     iwt   r0,#2200
000A:81E8 3D A8 03     lms   r8,(0006)
000A:81EB 58           add   r8
000A:81EC 58           add   r8
000A:81ED 18 40        ldw   (r0)
000A:81EF 3E A8 11     sms   (0022),r8
000A:81F2 02           cache
000A:81F3 3D A0 00     lms   r0,(0000)
000A:81F6 3E A0 12     sms   (0024),r0
000A:81F9 AB 60        ibt   r11,#0060
000A:81FB 5B           add   r11
000A:81FC FB C0 01     iwt   r11,#01C0
000A:81FF 6B           sub   r11
000A:8200 0C 0C        bcc   820E
000A:8202 01           nop
000A:8203 A0 80        ibt   r0,#FF80
000A:8205 3E A0 12     sms   (0024),r0
000A:8208 FF FD 82     iwt   r15,#82FD
000A:820B 3D A0 10     lms   r0,(0020)
000A:820E FB 14 35     iwt   r11,#3514
000A:8211 FD D0 00     iwt   r13,#00D0
000A:8214 BD 61        sub   r1
000A:8216 0A 0B        bpl   8223
000A:8218 16 4F        not
000A:821A D6           inc   r6
000A:821B B8 3D 9F     lmult
000A:821E 2A 64        sub   r4
000A:8220 05 20        bra   8242
000A:8222 DE           inc   r14
000A:8223 20 1C        move  r12,r0
000A:8225 BD 6C        sub   r12
000A:8227 0A 04        bpl   822D
000A:8229 DC           inc   r12
000A:822A 2D 1C        move  r12,r13
000A:822C DC           inc   r12
000A:822D 29 6C        sub   r12
000A:822F F0 26 FF     iwt   r0,#FF26
000A:8232 2F 1D        move  r13,r15
000A:8234 3B           stw   (r11)
000A:8235 EB           dec   r11
000A:8236 EB           dec   r11
000A:8237 3C           loop
000A:8238 D0           inc   r0
000A:8239 08 07        bne   8242
000A:823B DE           inc   r14
000A:823C FF FD 82     iwt   r15,#82FD
000A:823F 3D A0 10     lms   r0,(0020)
000A:8242 3D A6 02     lms   r6,(0004)
000A:8245 2E 17        move  r7,r14
000A:8247 B9 1C 62     sub   r2
000A:824A DC           inc   r12
000A:824B 2F 1D        move  r13,r15
000A:824D 2A 68        sub   r8
000A:824F 0B 1F        bmi   8270
000A:8251 BA C0        hib
000A:8253 1E 57        add   r7
000A:8255 EF           getb
000A:8256 4D           swap
000A:8257 9F           fmult
000A:8258 D0           inc   r0
000A:8259 03           lsr
000A:825A 20 15        move  r5,r0
000A:825C 69           sub   r9
000A:825D 3E 68        sub   #08
000A:825F 3B           stw   (r11)
000A:8260 EB           dec   r11
000A:8261 EB           dec   r11
000A:8262 3C           loop
000A:8263 E9           dec   r9
000A:8264 0A 07        bpl   826D
000A:8266 01           nop
000A:8267 FF FD 82     iwt   r15,#82FD
000A:826A 3D A0 10     lms   r0,(0020)
000A:826D 05 1A        bra   8289
000A:826F B2 B9 4F     not
000A:8272 3E 68        sub   #08
000A:8274 29 6C        sub   r12
000A:8276 2F 1D        move  r13,r15
000A:8278 3B           stw   (r11)
000A:8279 EB           dec   r11
000A:827A EB           dec   r11
000A:827B 3C           loop
000A:827C D0           inc   r0
000A:827D 08 07        bne   8286
000A:827F 01           nop
000A:8280 FF FD 82     iwt   r15,#82FD
000A:8283 3D A0 10     lms   r0,(0020)
000A:8286 A5 00        ibt   r5,#0000
000A:8288 B2 63        sub   r3
000A:828A 20 1D        move  r13,r0
000A:828C 0A 03        bpl   8291
000A:828E 01           nop
000A:828F 4F           not
000A:8290 D0           inc   r0
000A:8291 20 1C        move  r12,r0
000A:8293 FE 6F 86     iwt   r14,#866F
000A:8296 A0 22        ibt   r0,#0022
000A:8298 3F 6C        cmp   r12
000A:829A 0D 03        bcs   829F
000A:829C BC 20 1C     move  r12,r0
000A:829F 69           sub   r9
000A:82A0 0C 04        bcc   82A6
000A:82A2 DC           inc   r12
000A:82A3 29 1C        move  r12,r9
000A:82A5 DC           inc   r12
000A:82A6 2E 5C        add   r12
000A:82A8 14 EF        getb
000A:82AA 25 64        sub   r4
000A:82AC AA FF        ibt   r10,#FFFF
000A:82AE 2D BD        moves r13,r13
000A:82B0 0A 0D        bpl   82BF
000A:82B2 EE           dec   r14
000A:82B3 DE           inc   r14
000A:82B4 A0 23        ibt   r0,#0023
000A:82B6 1C 6C        sub   r12
000A:82B8 08 24        bne   82DE
000A:82BA DE           inc   r14
000A:82BB EE           dec   r14
000A:82BC 05 20        bra   82DE
000A:82BE DC           inc   r12
000A:82BF 2F 1D        move  r13,r15
000A:82C1 EF           getb
000A:82C2 EE           dec   r14
000A:82C3 55           add   r5
000A:82C4 0A 03        bpl   82C9
000A:82C6 01           nop
000A:82C7 2A 10        move  r0,r10
000A:82C9 69           sub   r9
000A:82CA 3E 68        sub   #08
000A:82CC 3B           stw   (r11)
000A:82CD EB           dec   r11
000A:82CE EB           dec   r11
000A:82CF 3C           loop
000A:82D0 E9           dec   r9
000A:82D1 0B 29        bmi   82FC
000A:82D3 DE           inc   r14
000A:82D4 AC 23        ibt   r12,#0023
000A:82D6 BC 69        sub   r9
000A:82D8 0C 04        bcc   82DE
000A:82DA DC           inc   r12
000A:82DB 29 1C        move  r12,r9
000A:82DD DC           inc   r12
000A:82DE 2F 1D        move  r13,r15
000A:82E0 EF           getb
000A:82E1 DE           inc   r14
000A:82E2 55           add   r5
000A:82E3 0A 03        bpl   82E8
000A:82E5 01           nop
000A:82E6 2A 10        move  r0,r10
000A:82E8 69           sub   r9
000A:82E9 3E 68        sub   #08
000A:82EB 3B           stw   (r11)
000A:82EC EB           dec   r11
000A:82ED EB           dec   r11
000A:82EE 3C           loop
000A:82EF E9           dec   r9
000A:82F0 0B 0A        bmi   82FC
000A:82F2 D9           inc   r9
000A:82F3 29 1C        move  r12,r9
000A:82F5 2F 1D        move  r13,r15
000A:82F7 D0           inc   r0
000A:82F8 3B           stw   (r11)
000A:82F9 EB           dec   r11
000A:82FA 3C           loop
000A:82FB EB           dec   r11
000A:82FC 3D A0 10     lms   r0,(0020)
000A:82FF 4D           swap
000A:8300 3D A6 03     lms   r6,(0006)
000A:8303 1C 9F        fmult
000A:8305 F7 16 35     iwt   r7,#3516
000A:8308 3D A0 01     lms   r0,(0002)
000A:830B 3E 68        sub   #08
000A:830D 20 19        move  r9,r0
000A:830F 57           add   r7
000A:8310 11 59        add   r9
000A:8312 3D A0 04     lms   r0,(0008)
000A:8315 12 4D        swap
000A:8317 3D A0 06     lms   r0,(000C)
000A:831A 3D A6 11     lms   r6,(0022)
000A:831D 3D 9F        lmult
000A:831F 9E           lob
000A:8320 4D           swap
000A:8321 24 C0        hib
000A:8323 13 C4        or    r4
000A:8325 3D A0 05     lms   r0,(000A)
000A:8328 3D A6 02     lms   r6,(0004)
000A:832B 3D 9F        lmult
000A:832D 24 16        move  r6,r4
000A:832F FB 18 AC     iwt   r11,#AC18
000A:8332 F0 80 00     iwt   r0,#0080
000A:8335 3D A5 12     lms   r5,(0024)
000A:8338 15 65        sub   r5
000A:833A 25 18        move  r8,r5
000A:833C A0 08        ibt   r0,#0008
000A:833E 3F DF        romb
000A:8340 29 1A        move  r10,r9
000A:8342 F4 D2 00     iwt   r4,#00D2
000A:8345 2F 1D        move  r13,r15
000A:8347 20 BA        moves r0,r10
000A:8349 0B 15        bmi   8360
000A:834B 64           sub   r4
000A:834C 0D 0C        bcs   835A
000A:834E B2 C0        hib
000A:8350 50           add   r0
000A:8351 1E 5B        add   r11
000A:8353 EF           getb
000A:8354 DE           inc   r14
000A:8355 3D EF        getbh
000A:8357 9F           fmult
000A:8358 55           add   r5
000A:8359 31           stw   (r1)
000A:835A 22 53        add   r3
000A:835C E1           dec   r1
000A:835D E1           dec   r1
000A:835E 3C           loop
000A:835F EA           dec   r10
000A:8360 3D A0 07     lms   r0,(000E)
000A:8363 4D           swap
000A:8364 3D A6 02     lms   r6,(0004)
000A:8367 9F           fmult
000A:8368 12 3F 50     adc   #00
000A:836B 3D A0 08     lms   r0,(0010)
000A:836E 4D           swap
000A:836F 3D A6 03     lms   r6,(0006)
000A:8372 9F           fmult
000A:8373 3F 50        adc   #00
000A:8375 3E A0 08     sms   (0010),r0
000A:8378 59           add   r9
000A:8379 20 11        move  r1,r0
000A:837B 64           sub   r4
000A:837C 0D 08        bcs   8386
000A:837E 60           sub   r0
000A:837F B7 51        add   r1
000A:8381 51           add   r1
000A:8382 40           ldw   (r0)
000A:8383 68           sub   r8
000A:8384 4F           not
000A:8385 D0           inc   r0
000A:8386 52           add   r2
000A:8387 3E A0 07     sms   (000E),r0
000A:838A F0 E4 85     iwt   r0,#85E4
000A:838D 3E A0 10     sms   (0020),r0

000A:8390 94           link  #04
000A:8391 FF F2 84     iwt   r15,#84F2
000A:8394 02           cache
000A:8395 F1 00 0F     iwt   r1,#0F00
000A:8398 F2 38 1D     iwt   r2,#1D38
000A:839B F3 D6 1C     iwt   r3,#1CD6
000A:839E F0 37 1D     iwt   r0,#1D37
000A:83A1 3D A4 09     lms   r4,(0012)
000A:83A4 54           add   r4
000A:83A5 3D 40        ldb   (r0)
000A:83A7 50           add   r0
000A:83A8 14 50        add   r0
000A:83AA 3D FA 94 00  lm    r10,(0094)
000A:83AE AC 18        ibt   r12,#0018
000A:83B0 3D F0 9C 00  lm    r0,(009C)
000A:83B4 1B 3E 58     add   #08
000A:83B7 02           cache
000A:83B8 FD BC 83     iwt   r13,#83BC
000A:83BB 24 3E 64     sub   #04
000A:83BE 0A 04        bpl   83C4
000A:83C0 B1 A4 5C     ibt   r4,#005C
000A:83C3 B1 54        add   r4
000A:83C5 3D 40        ldb   (r0)
000A:83C7 3E 6E        sub   #0E
000A:83C9 0C 35        bcc   8400
000A:83CB B2 54        add   r4
000A:83CD 40           ldw   (r0)
000A:83CE 3E 60        sub   #00
000A:83D0 09 2E        beq   8400
000A:83D2 B3 54        add   r4
000A:83D4 1E 40        ldw   (r0)
000A:83D6 2E 6A        sub   r10
000A:83D8 D0           inc   r0
000A:83D9 D0           inc   r0
000A:83DA 40           ldw   (r0)
000A:83DB 6B           sub   r11
000A:83DC 65           sub   r5
000A:83DD 0D 21        bcs   8400
000A:83DF 55           add   r5
000A:83E0 20 19        move  r9,r0
000A:83E2 50           add   r0
000A:83E3 56           add   r6
000A:83E4 40           ldw   (r0)
000A:83E5 59           add   r9
000A:83E6 3E 59        add   #09
000A:83E8 18 9E        lob
000A:83EA B7 59        add   r9
000A:83EC 59           add   r9
000A:83ED 19 40        ldw   (r0)
000A:83EF F0 80 00     iwt   r0,#0080
000A:83F2 69           sub   r9
000A:83F3 6E           sub   r14
000A:83F4 20 1E        move  r14,r0
000A:83F6 0A 03        bpl   83FB
000A:83F8 01           nop
000A:83F9 4F           not
000A:83FA D0           inc   r0
000A:83FB 50           add   r0
000A:83FC 68           sub   r8
000A:83FD 0C 13        bcc   8412
000A:83FF 01           nop
000A:8400 3C           loop
000A:8401 24 3D A0 09  lms   r0,(0012)
000A:8405 F1 36 1D     iwt   r1,#1D36
000A:8408 11 51        add   r1
000A:840A 60           sub   r0
000A:840B 3D 31        stb   (r1)
000A:840D 05 22        bra   8431
000A:840F 3D A0 00     lms   r0,(0000)
000A:8412 3D A1 09     lms   r1,(0012)
000A:8415 F0 76 1C     iwt   r0,#1C76
000A:8418 51           add   r1
000A:8419 2E 4F        not
000A:841B DE           inc   r14
000A:841C BE 30        stw   (r0)
000A:841E F0 37 1D     iwt   r0,#1D37
000A:8421 12 51        add   r1
000A:8423 B4 03        lsr
000A:8425 03           lsr
000A:8426 3D 32        stb   (r2)
000A:8428 F0 36 1D     iwt   r0,#1D36
000A:842B 51           add   r1
000A:842C D4           inc   r4
000A:842D B4 3D 30     stb   (r0)
000A:8430 3D A0 00     lms   r0,(0000)
000A:8433 3D FA 94 00  lm    r10,(0094)
000A:8437 1A 5A        add   r10
000A:8439 3D A9 09     lms   r9,(0012)
000A:843C F0 20 17     iwt   r0,#1720
000A:843F 59           add   r9
000A:8440 40           ldw   (r0)
000A:8441 3D A9 01     lms   r9,(0002)
000A:8444 59           add   r9
000A:8445 3D F9 9C 00  lm    r9,(009C)
000A:8449 19 59        add   r9
000A:844B 3D AC 02     lms   r12,(0004)
000A:844E 3D AD 03     lms   r13,(0006)
000A:8451 A0 0A        ibt   r0,#000A
000A:8453 3F DF        romb
000A:8455 3D AE 10     lms   r14,(0020)
000A:8458 A2 00        ibt   r2,#0000
000A:845A 94           link  #04
000A:845B FF BB 84     iwt   r15,#84BB
000A:845E EF           getb
000A:845F 3E 72        and   #02
000A:8461 09 02        beq   8465
000A:8463 01           nop
000A:8464 D2           inc   r2
000A:8465 22 52        add   r2
000A:8467 94           link  #04
000A:8468 FF BB 84     iwt   r15,#84BB
000A:846B EF           getb
000A:846C 3E 72        and   #02
000A:846E 09 02        beq   8472
000A:8470 01           nop
000A:8471 D2           inc   r2
000A:8472 22 52        add   r2
000A:8474 94           link  #04
000A:8475 FF BB 84     iwt   r15,#84BB
000A:8478 EF           getb
000A:8479 3E 72        and   #02
000A:847B 09 02        beq   847F
000A:847D 01           nop
000A:847E D2           inc   r2
000A:847F 22 52        add   r2
000A:8481 94           link  #04
000A:8482 FF BB 84     iwt   r15,#84BB
000A:8485 EF           getb
000A:8486 3E 72        and   #02
000A:8488 09 02        beq   848C
000A:848A 01           nop
000A:848B D2           inc   r2
000A:848C 22 52        add   r2
000A:848E 94           link  #04
000A:848F FF BB 84     iwt   r15,#84BB
000A:8492 EF           getb
000A:8493 3E 72        and   #02
000A:8495 09 02        beq   8499
000A:8497 01           nop
000A:8498 D2           inc   r2
000A:8499 3D A0 01     lms   r0,(0002)
000A:849C 3E A0 10     sms   (0020),r0
000A:849F 22 52        add   r2
000A:84A1 FD 00 01     iwt   r13,#0100
000A:84A4 94           link  #04
000A:84A5 FF BB 84     iwt   r15,#84BB
000A:84A8 EF           getb
000A:84A9 3E 73        and   #03
000A:84AB 09 02        beq   84AF
000A:84AD 01           nop
000A:84AE D2           inc   r2
000A:84AF F0 60 18     iwt   r0,#1860
000A:84B2 3D A1 09     lms   r1,(0012)
000A:84B5 51           add   r1
000A:84B6 B2 30        stw   (r0)
000A:84B8 60           sub   r0
000A:84B9 00           stop
000A:84BA 01           nop

000A:84BB DE           inc   r14
000A:84BC 4D           swap
000A:84BD 2C 16        move  r6,r12
000A:84BF 9F           fmult
000A:84C0 18 5A        add   r10
000A:84C2 EF           getb
000A:84C3 DE           inc   r14
000A:84C4 4D           swap
000A:84C5 2D 16        move  r6,r13
000A:84C7 9F           fmult
000A:84C8 59           add   r9
000A:84C9 20 17        move  r7,r0
000A:84CB 3D F6 9C 00  lm    r6,(009C)
000A:84CF 66           sub   r6
000A:84D0 3E 68        sub   #08
000A:84D2 F6 D2 00     iwt   r6,#00D2
000A:84D5 3F 66        cmp   r6
000A:84D7 0D 13        bcs   84EC
000A:84D9 B8 F6 16 35  iwt   r6,#3516
000A:84DD 50           add   r0
000A:84DE 56           add   r6
000A:84DF 16 40        ldw   (r0)
000A:84E1 F0 80 00     iwt   r0,#0080
000A:84E4 66           sub   r6
000A:84E5 3D A6 12     lms   r6,(0024)
000A:84E8 66           sub   r6
000A:84E9 58           add   r8
000A:84EA 20 18        move  r8,r0
000A:84EC 27 10        move  r0,r7
000A:84EE FF 96 D0     iwt   r15,#D096
000A:84F1 17 F0 FF 00  iwt   r0,#00FF
000A:84F5 3E AB 30     sms   (0060),r11
000A:84F8 20 1B        move  r11,r0
000A:84FA A0 0A        ibt   r0,#000A
000A:84FC 3F DF        romb
000A:84FE FE F0 85     iwt   r14,#85F0
000A:8501 3D A0 0C     lms   r0,(0018)
000A:8504 3E 60        sub   #00
000A:8506 09 03        beq   850B
000A:8508 2E 3E 5A     add   #0A
000A:850B 3D A1 0A     lms   r1,(0014)
000A:850E 3D A0 0B     lms   r0,(0016)
000A:8511 12 3E 68     sub   #08
000A:8514 F5 D2 00     iwt   r5,#00D2
000A:8517 F6 72 33     iwt   r6,#3372
000A:851A F7 16 35     iwt   r7,#3516
000A:851D F3 80 00     iwt   r3,#0080
000A:8520 AA 00        ibt   r10,#0000
000A:8522 AC 05        ibt   r12,#0005
000A:8524 FD 28 85     iwt   r13,#8528
000A:8527 2A 5A        add   r10
000A:8529 3F EF        getbs
000A:852B DE           inc   r14
000A:852C 14 51        add   r1
000A:852E 3F EF        getbs
000A:8530 DE           inc   r14
000A:8531 52           add   r2
000A:8532 65           sub   r5
000A:8533 0D 1D        bcs   8552
000A:8535 55           add   r5
000A:8536 20 19        move  r9,r0
000A:8538 50           add   r0
000A:8539 56           add   r6
000A:853A 40           ldw   (r0)
000A:853B 59           add   r9
000A:853C 3E 59        add   #09
000A:853E 18 7B        and   r11
000A:8540 B7 59        add   r9
000A:8542 59           add   r9
000A:8543 40           ldw   (r0)
000A:8544 B3 60        sub   r0
000A:8546 64           sub   r4
000A:8547 0A 03        bpl   854C
000A:8549 01           nop
000A:854A 4F           not
000A:854B D0           inc   r0
000A:854C 50           add   r0
000A:854D 68           sub   r8
000A:854E 0D 02        bcs   8552
000A:8550 01           nop
000A:8551 DA           inc   r10
000A:8552 3C           loop
000A:8553 2A 3E AA 0A  sms   (0014),r10
000A:8557 BA 03        lsr
000A:8559 0C 50        bcc   85AB
000A:855B 60           sub   r0
000A:855C 20 11        move  r1,r0
000A:855E E9           dec   r9
000A:855F 0B 21        bmi   8582
000A:8561 B1 3E 5A     add   #0A
000A:8564 0B 1C        bmi   8582
000A:8566 B9 59        add   r9
000A:8568 56           add   r6
000A:8569 40           ldw   (r0)
000A:856A 59           add   r9
000A:856B 3E 59        add   #09
000A:856D 18 7B        and   r11
000A:856F B7 59        add   r9
000A:8571 59           add   r9
000A:8572 40           ldw   (r0)
000A:8573 B3 60        sub   r0
000A:8575 64           sub   r4
000A:8576 20 12        move  r2,r0
000A:8578 0A 03        bpl   857D
000A:857A 01           nop
000A:857B 4F           not
000A:857C D0           inc   r0
000A:857D 50           add   r0
000A:857E 68           sub   r8
000A:857F 0C DD        bcc   855E
000A:8581 E1           dec   r1
000A:8582 3E A1 0B     sms   (0016),r1
000A:8585 B9 3E 52     add   #02
000A:8588 3F 65        cmp   r5
000A:858A 0D 09        bcs   8595
000A:858C B8 B0 50     add   r0
000A:858F 56           add   r6
000A:8590 40           ldw   (r0)
000A:8591 59           add   r9
000A:8592 3E 59        add   #09
000A:8594 7B           and   r11
000A:8595 68           sub   r8
000A:8596 03           lsr
000A:8597 A3 04        ibt   r3,#0004
000A:8599 3F 63        cmp   r3
000A:859B 0C 03        bcc   85A0
000A:859D 01           nop
000A:859E 23 10        move  r0,r3
000A:85A0 22 B2        moves r2,r2
000A:85A2 0A 03        bpl   85A7
000A:85A4 01           nop
000A:85A5 3E 55        add   #05
000A:85A7 50           add   r0
000A:85A8 3E A0 0C     sms   (0018),r0
000A:85AB F0 04 86     iwt   r0,#8604
000A:85AE 6E           sub   r14
000A:85AF 0C 2E        bcc   85DF
000A:85B1 1E 5E        add   r14
000A:85B3 3D A0 0A     lms   r0,(0014)
000A:85B6 3E A0 0D     sms   (001A),r0
000A:85B9 3D A0 0B     lms   r0,(0016)
000A:85BC 3E A0 0E     sms   (001C),r0
000A:85BF 3D A0 0C     lms   r0,(0018)
000A:85C2 3E A0 0F     sms   (001E),r0
000A:85C5 3D A0 E6     lms   r0,(01CC)
000A:85C8 3E 60        sub   #00
000A:85CA 09 07        beq   85D3
000A:85CC 60           sub   r0
000A:85CD 3E A0 0A     sms   (0014),r0
000A:85D0 05 0D        bra   85DF
000A:85D2 01           nop
000A:85D3 3D F1 80 16  lm    r1,(1680)
000A:85D7 3D F0 82 16  lm    r0,(1682)
000A:85DB FF 12 85     iwt   r15,#8512
000A:85DE 12 3D AB 30  lms   r11,(0060)
000A:85E2 9B           jmp   r11
000A:85E3 01           nop

000A:85E4 EA           dec   r10
000A:85E5 C0           hib
000A:85E6 0E C0        bvc   85A8
000A:85E8 E0           dec   r0
000A:85E9 F0 18 F0     iwt   r0,#F018
000A:85EC 00           stop
000A:85ED B0 00        stop
000A:85EF 00           stop
000A:85F0 02           cache
000A:85F1 04           rol
000A:85F2 0E 04        bvc   85F8
000A:85F4 02           cache
000A:85F5 14           to    r4
000A:85F6 0E 14        bvc   860C
000A:85F8 08 20        bne   861A
000A:85FA 02           cache
000A:85FB 12           to    r2
000A:85FC 0E 12        bvc   8610
000A:85FE 02           cache
000A:85FF 14           to    r4
000A:8600 0E 14        bvc   8616
000A:8602 08 20        bne   8624
000A:8604 02           cache
000A:8605 02           cache
000A:8606 0E 02        bvc   860A
000A:8608 02           cache
000A:8609 0A 0E        bpl   8619
000A:860B 0A 08        bpl   8615
000A:860D 10 60        sub   r0
000A:860F 00           stop
000A:8610 16 1F 26 2C+ stw   (r1)
000A:8615 36           stw   (r6)
000A:8616 3A           stw   (r10)
000A:8617 3D 41        ldb   (r1)
000A:8619 44           ldw   (r4)
000A:861A 47           ldw   (r7)
000A:861B 4A           ldw   (r10)
000A:861C 4D           swap
000A:861D 4F           not
000A:861E 52           add   r2
000A:861F 54           add   r4
000A:8620 56           add   r6
000A:8621 58           add   r8
000A:8622 5B           add   r11
000A:8623 5C           add   r12
000A:8624 5E           add   r14
000A:8625 60           sub   r0
000A:8626 62           sub   r2
000A:8627 63           sub   r3
000A:8628 65           sub   r5
000A:8629 66           sub   r6
000A:862A 68           sub   r8
000A:862B 69           sub   r9
000A:862C 6B           sub   r11
000A:862D 6C           sub   r12
000A:862E 6D           sub   r13
000A:862F 6E           sub   r14
000A:8630 6F           sub   r15
000A:8631 71           and   r1
000A:8632 72           and   r2
000A:8633 73           and   r3
000A:8634 74           and   r4
000A:8635 74           and   r4
000A:8636 75           and   r5
000A:8637 76           and   r6
000A:8638 77           and   r7
000A:8639 78           and   r8
000A:863A 78           and   r8
000A:863B 79           and   r9
000A:863C 7A           and   r10
000A:863D 7A           and   r10
000A:863E 7B           and   r11
000A:863F 7B           and   r11
000A:8640 7C           and   r12
000A:8641 7C           and   r12
000A:8642 7D           and   r13
000A:8643 7D           and   r13
000A:8644 7E           and   r14
000A:8645 7E           and   r14
000A:8646 7E           and   r14
000A:8647 7E           and   r14
000A:8648 7F           and   r15
000A:8649 7F           and   r15
000A:864A 7F           and   r15
000A:864B 7F           and   r15
000A:864C 7F           and   r15
000A:864D 7F           and   r15
000A:864E 7F           and   r15
000A:864F 7F           and   r15
000A:8650 7F           and   r15
000A:8651 7F           and   r15
000A:8652 7E           and   r14
000A:8653 7E           and   r14
000A:8654 7D           and   r13
000A:8655 7C           and   r12
000A:8656 7B           and   r11
000A:8657 7A           and   r10
000A:8658 79           and   r9
000A:8659 78           and   r8
000A:865A 76           and   r6
000A:865B 74           and   r4
000A:865C 73           and   r3
000A:865D 71           and   r1
000A:865E 6E           sub   r14
000A:865F 6C           sub   r12
000A:8660 69           sub   r9
000A:8661 66           sub   r6
000A:8662 63           sub   r3
000A:8663 60           sub   r0
000A:8664 5C           add   r12
000A:8665 58           add   r8
000A:8666 54           add   r4
000A:8667 4F           not
000A:8668 4A           ldw   (r10)
000A:8669 44           ldw   (r4)
000A:866A 3D 36        stb   (r6)
000A:866C 2C 1F        move  r15,r12
000A:866E 00           stop
000A:866F 00           stop
000A:8670 00           stop
000A:8671 00           stop
000A:8672 00           stop
000A:8673 01           nop
000A:8674 02           cache
000A:8675 03           lsr
000A:8676 04           rol
000A:8677 06 08        bge   8681
000A:8679 0A 0C        bpl   8687
000A:867B 0E 10        bvc   868D
000A:867D 13 16 19 1C+ stw   (r0)
000A:8686 34           stw   (r4)
000A:8687 39           stw   (r9)
000A:8688 3E 43        ???
000A:868A 48           ldw   (r8)
000A:868B 4E           color
000A:868C 54           add   r4
000A:868D 5A           add   r10
000A:868E 60           sub   r0
000A:868F 66           sub   r6
000A:8690 6C           sub   r12
000A:8691 73           and   r3
000A:8692 7A           and   r10
000A:8693 A0 0A        ibt   r0,#000A
000A:8695 3F DF        romb
000A:8697 3E A5 02     sms   (0004),r5
000A:869A 24 3E 68     sub   #08
000A:869D F5 D1 00     iwt   r5,#00D1
000A:86A0 F9 14 35     iwt   r9,#3514
000A:86A3 F7 B8 36     iwt   r7,#36B8
000A:86A6 02           cache
000A:86A7 B5 1C 64     sub   r4
000A:86AA 0A 09        bpl   86B5
000A:86AC BC 4F        not
000A:86AE D0           inc   r0
000A:86AF 15 55        add   r5
000A:86B1 05 1B        bra   86CE
000A:86B3 21 1E        move  r14,r1
000A:86B5 65           sub   r5
000A:86B6 0C 05        bcc   86BD
000A:86B8 DC           inc   r12
000A:86B9 FF 4A 87     iwt   r15,#874A
000A:86BC D5           inc   r5
000A:86BD 25 6C        sub   r12
000A:86BF B7 6C        sub   r12
000A:86C1 17 6C        sub   r12
000A:86C3 F0 26 FF     iwt   r0,#FF26
000A:86C6 2F 1D        move  r13,r15
000A:86C8 39           stw   (r9)
000A:86C9 E9           dec   r9
000A:86CA E9           dec   r9
000A:86CB 3C           loop
000A:86CC D0           inc   r0
000A:86CD 21 1E        move  r14,r1
000A:86CF D1           inc   r1
000A:86D0 FA 00 22     iwt   r10,#2200
000A:86D3 23 16        move  r6,r3
000A:86D5 14 EF        getb
000A:86D7 22 1E        move  r14,r2
000A:86D9 D2           inc   r2
000A:86DA 18 EF        getb
000A:86DC B8 64        sub   r4
000A:86DE 4D           swap
000A:86DF 9F           fmult
000A:86E0 3D 54        adc   r4
000A:86E2 2C B0        moves r12,r0
000A:86E4 09 63        beq   8749
000A:86E6 50           add   r0
000A:86E7 5A           add   r10
000A:86E8 16 40        ldw   (r0)
000A:86EA B4 4D        swap
000A:86EC 9F           fmult
000A:86ED 14 3F 50     adc   #00
000A:86F0 B8 4D        swap
000A:86F2 9F           fmult
000A:86F3 18 3F 50     adc   #00
000A:86F6 23 16        move  r6,r3
000A:86F8 AA 00        ibt   r10,#0000
000A:86FA 2A 1B        move  r11,r10
000A:86FC B5 6C        sub   r12
000A:86FE D0           inc   r0
000A:86FF 0A 02        bpl   8703
000A:8701 1C 5C        add   r12
000A:8703 2F 1D        move  r13,r15
000A:8705 F0 B1 00     iwt   r0,#00B1
000A:8708 65           sub   r5
000A:8709 0B 36        bmi   8741
000A:870B BA C0        hib
000A:870D 50           add   r0
000A:870E 1E 51        add   r1
000A:8710 3F EF        getbs
000A:8712 DE           inc   r14
000A:8713 3E A0 00     sms   (0000),r0
000A:8716 13 EF        getb
000A:8718 BB C0        hib
000A:871A 50           add   r0
000A:871B 1E 52        add   r2
000A:871D 3F EF        getbs
000A:871F DE           inc   r14
000A:8720 3E A0 01     sms   (0002),r0
000A:8723 EF           getb
000A:8724 63           sub   r3
000A:8725 4D           swap
000A:8726 9F           fmult
000A:8727 3D 53        adc   r3
000A:8729 65           sub   r5
000A:872A 3E 68        sub   #08
000A:872C 39           stw   (r9)
000A:872D 3D A3 00     lms   r3,(0000)
000A:8730 3D A0 01     lms   r0,(0002)
000A:8733 63           sub   r3
000A:8734 4D           swap
000A:8735 9F           fmult
000A:8736 3D 53        adc   r3
000A:8738 3D A3 02     lms   r3,(0004)
000A:873B 53           add   r3
000A:873C 37           stw   (r7)
000A:873D E9           dec   r9
000A:873E E9           dec   r9
000A:873F E7           dec   r7
000A:8740 E7           dec   r7
000A:8741 2A 54        add   r4
000A:8743 2B 58        add   r8
000A:8745 3C           loop
000A:8746 E5           dec   r5
000A:8747 0B 16        bmi   875F
000A:8749 D5           inc   r5
000A:874A F0 D2 00     iwt   r0,#00D2
000A:874D 65           sub   r5
000A:874E 0A 02        bpl   8752
000A:8750 15 55        add   r5
000A:8752 25 1C        move  r12,r5
000A:8754 B5 4F        not
000A:8756 3E 67        sub   #07
000A:8758 2F 1D        move  r13,r15
000A:875A 39           stw   (r9)
000A:875B E9           dec   r9
000A:875C E9           dec   r9
000A:875D 3C           loop
000A:875E D0           inc   r0
000A:875F 94           link  #04
000A:8760 FF F2 84     iwt   r15,#84F2
000A:8763 02           cache
000A:8764 00           stop
000A:8765 01           nop
000A:8766 3B           stw   (r11)
000A:8767 00           stop
000A:8768 1F 00        stop
000A:876A 2B 00        stop
000A:876C 34           stw   (r4)
000A:876D 00           stop
000A:876E 3B           stw   (r11)
000A:876F 00           stop
000A:8770 42           ldw   (r2)
000A:8771 00           stop
000A:8772 47           ldw   (r7)
000A:8773 00           stop
000A:8774 4B           ldw   (r11)
000A:8775 00           stop
000A:8776 4F           not
000A:8777 00           stop
000A:8778 53           add   r3
000A:8779 00           stop
000A:877A 56           add   r6
000A:877B 00           stop
000A:877C 59           add   r9
000A:877D 00           stop
000A:877E 5B           add   r11
000A:877F 00           stop
000A:8780 5D           add   r13
000A:8781 00           stop
000A:8782 5F           add   r15
000A:8783 00           stop
000A:8784 60           sub   r0
000A:8785 00           stop
000A:8786 61           sub   r1
000A:8787 00           stop
000A:8788 62           sub   r2
000A:8789 00           stop
000A:878A 63           sub   r3
000A:878B 00           stop
000A:878C 63           sub   r3
000A:878D 00           stop
000A:878E 63           sub   r3
000A:878F 00           stop
000A:8790 63           sub   r3
000A:8791 00           stop
000A:8792 63           sub   r3
000A:8793 00           stop
000A:8794 63           sub   r3
000A:8795 00           stop
000A:8796 63           sub   r3
000A:8797 00           stop
000A:8798 63           sub   r3
000A:8799 00           stop
000A:879A 62           sub   r2
000A:879B 00           stop
000A:879C 62           sub   r2
000A:879D 00           stop
000A:879E 61           sub   r1
000A:879F 00           stop
000A:87A0 61           sub   r1
000A:87A1 00           stop
000A:87A2 60           sub   r0
000A:87A3 00           stop
000A:87A4 60           sub   r0
000A:87A5 00           stop
000A:87A6 5F           add   r15
000A:87A7 00           stop
000A:87A8 5E           add   r14
000A:87A9 00           stop
000A:87AA 5D           add   r13
000A:87AB 00           stop
000A:87AC 5C           add   r12
000A:87AD 00           stop
000A:87AE 5B           add   r11
000A:87AF 00           stop
000A:87B0 5A           add   r10
000A:87B1 00           stop
000A:87B2 59           add   r9
000A:87B3 00           stop
000A:87B4 57           add   r7
000A:87B5 00           stop
000A:87B6 56           add   r6
000A:87B7 00           stop
000A:87B8 55           add   r5
000A:87B9 00           stop
000A:87BA 53           add   r3
000A:87BB 00           stop
000A:87BC 51           add   r1
000A:87BD 00           stop
000A:87BE 4F           not
000A:87BF 00           stop
000A:87C0 4E           color
000A:87C1 00           stop
000A:87C2 4B           ldw   (r11)
000A:87C3 00           stop
000A:87C4 49           ldw   (r9)
000A:87C5 00           stop
000A:87C6 47           ldw   (r7)
000A:87C7 00           stop
000A:87C8 44           ldw   (r4)
000A:87C9 00           stop
000A:87CA 42           ldw   (r2)
000A:87CB 00           stop
000A:87CC 3F 00        ???
000A:87CE 3B           stw   (r11)
000A:87CF 00           stop
000A:87D0 38           stw   (r8)
000A:87D1 00           stop
000A:87D2 34           stw   (r4)
000A:87D3 00           stop
000A:87D4 30           stw   (r0)
000A:87D5 00           stop
000A:87D6 2B 00        stop
000A:87D8 25 00        stop
000A:87DA 1F 00        stop
000A:87DC 16 2E 00     stop
000A:87DF 3C           loop
000A:87E0 00           stop
000A:87E1 3E 00        ???
000A:87E3 3E 00        ???
000A:87E5 3E 00        ???
000A:87E7 3E 00        ???
000A:87E9 3E 00        ???
000A:87EB 3E 00        ???
000A:87ED 3E 00        ???
000A:87EF 3E 00        ???
000A:87F1 3E 00        ???
000A:87F3 3E 00        ???
000A:87F5 3E 00        ???
000A:87F7 3E 00        ???
000A:87F9 3E 00        ???
000A:87FB 3E 00        ???
000A:87FD 3E 00        ???
000A:87FF 3E 00        ???
000A:8801 3E 00        ???
000A:8803 3E 00        ???
000A:8805 3E 00        ???
000A:8807 3E 00        ???
000A:8809 3E 00        ???
000A:880B 3E 00        ???
000A:880D 3E 00        ???
000A:880F 3E 00        ???
000A:8811 3E 00        ???
000A:8813 3E 00        ???
000A:8815 3E 00        ???
000A:8817 3E 00        ???
000A:8819 3E 00        ???
000A:881B 3E 00        ???
000A:881D 3E 00        ???
000A:881F 3E 00        ???
000A:8821 3E 00        ???
000A:8823 3E 00        ???
000A:8825 3E 00        ???
000A:8827 3E 00        ???
000A:8829 3E 00        ???
000A:882B 3E 00        ???
000A:882D 3E 00        ???
000A:882F 3E 00        ???
000A:8831 3E 00        ???
000A:8833 3E 00        ???
000A:8835 3E 00        ???
000A:8837 3E 00        ???
000A:8839 3C           loop
000A:883A 3E 00        ???
000A:883C 5C           add   r12
000A:883D 00           stop
000A:883E 5E           add   r14
000A:883F 00           stop
000A:8840 5E           add   r14
000A:8841 00           stop
000A:8842 5E           add   r14
000A:8843 00           stop
000A:8844 5E           add   r14
000A:8845 00           stop
000A:8846 5E           add   r14
000A:8847 00           stop
000A:8848 5E           add   r14
000A:8849 00           stop
000A:884A 5E           add   r14
000A:884B 00           stop
000A:884C 5E           add   r14
000A:884D 00           stop
000A:884E 5E           add   r14
000A:884F 00           stop
000A:8850 5E           add   r14
000A:8851 00           stop
000A:8852 5E           add   r14
000A:8853 00           stop
000A:8854 5E           add   r14
000A:8855 00           stop
000A:8856 5E           add   r14
000A:8857 00           stop
000A:8858 5E           add   r14
000A:8859 00           stop
000A:885A 5E           add   r14
000A:885B 00           stop
000A:885C 5E           add   r14
000A:885D 00           stop
000A:885E 5E           add   r14
000A:885F 00           stop
000A:8860 5E           add   r14
000A:8861 00           stop
000A:8862 5E           add   r14
000A:8863 00           stop
000A:8864 5E           add   r14
000A:8865 00           stop
000A:8866 5E           add   r14
000A:8867 00           stop
000A:8868 5E           add   r14
000A:8869 00           stop
000A:886A 5E           add   r14
000A:886B 00           stop
000A:886C 5E           add   r14
000A:886D 00           stop
000A:886E 5E           add   r14
000A:886F 00           stop
000A:8870 5E           add   r14
000A:8871 00           stop
000A:8872 5E           add   r14
000A:8873 00           stop
000A:8874 5E           add   r14
000A:8875 00           stop
000A:8876 5E           add   r14
000A:8877 00           stop
000A:8878 5E           add   r14
000A:8879 00           stop
000A:887A 5E           add   r14
000A:887B 00           stop
000A:887C 5E           add   r14
000A:887D 00           stop
000A:887E 5E           add   r14
000A:887F 00           stop
000A:8880 5E           add   r14
000A:8881 00           stop
000A:8882 5E           add   r14
000A:8883 00           stop
000A:8884 5E           add   r14
000A:8885 00           stop
000A:8886 5E           add   r14
000A:8887 00           stop
000A:8888 5E           add   r14
000A:8889 00           stop
000A:888A 5E           add   r14
000A:888B 00           stop
000A:888C 5E           add   r14
000A:888D 00           stop
000A:888E 5E           add   r14
000A:888F 00           stop
000A:8890 5E           add   r14
000A:8891 00           stop
000A:8892 5E           add   r14
000A:8893 00           stop
000A:8894 5E           add   r14
000A:8895 00           stop
000A:8896 5E           add   r14
000A:8897 00           stop
000A:8898 5E           add   r14
000A:8899 00           stop
000A:889A 5E           add   r14
000A:889B 00           stop
000A:889C 5E           add   r14
000A:889D 00           stop
000A:889E 5E           add   r14
000A:889F 00           stop
000A:88A0 5E           add   r14
000A:88A1 00           stop
000A:88A2 5E           add   r14
000A:88A3 00           stop
000A:88A4 5E           add   r14
000A:88A5 00           stop
000A:88A6 5E           add   r14
000A:88A7 00           stop
000A:88A8 5E           add   r14
000A:88A9 00           stop
000A:88AA 5E           add   r14
000A:88AB 00           stop
000A:88AC 5E           add   r14
000A:88AD 00           stop
000A:88AE 5E           add   r14
000A:88AF 00           stop
000A:88B0 5E           add   r14
000A:88B1 00           stop
000A:88B2 5E           add   r14
000A:88B3 00           stop
000A:88B4 5E           add   r14
000A:88B5 00           stop
000A:88B6 5C           add   r12
000A:88B7 5E           add   r14
000A:88B8 00           stop
000A:88B9 7C           and   r12
000A:88BA 00           stop
000A:88BB 7E           and   r14
000A:88BC 00           stop
000A:88BD 7E           and   r14
000A:88BE 00           stop
000A:88BF 7E           and   r14
000A:88C0 00           stop
000A:88C1 7E           and   r14
000A:88C2 00           stop
000A:88C3 7E           and   r14
000A:88C4 00           stop
000A:88C5 7E           and   r14
000A:88C6 00           stop
000A:88C7 7E           and   r14
000A:88C8 00           stop
000A:88C9 7E           and   r14
000A:88CA 00           stop
000A:88CB 7E           and   r14
000A:88CC 00           stop
000A:88CD 7E           and   r14
000A:88CE 00           stop
000A:88CF 7E           and   r14
000A:88D0 00           stop
000A:88D1 7E           and   r14
000A:88D2 00           stop
000A:88D3 7E           and   r14
000A:88D4 00           stop
000A:88D5 7E           and   r14
000A:88D6 00           stop
000A:88D7 7E           and   r14
000A:88D8 00           stop
000A:88D9 7E           and   r14
000A:88DA 00           stop
000A:88DB 7E           and   r14
000A:88DC 00           stop
000A:88DD 7E           and   r14
000A:88DE 00           stop
000A:88DF 7E           and   r14
000A:88E0 00           stop
000A:88E1 7E           and   r14
000A:88E2 00           stop
000A:88E3 7E           and   r14
000A:88E4 00           stop
000A:88E5 7E           and   r14
000A:88E6 00           stop
000A:88E7 7E           and   r14
000A:88E8 00           stop
000A:88E9 7E           and   r14
000A:88EA 00           stop
000A:88EB 7E           and   r14
000A:88EC 00           stop
000A:88ED 7E           and   r14
000A:88EE 00           stop
000A:88EF 7E           and   r14
000A:88F0 00           stop
000A:88F1 7E           and   r14
000A:88F2 00           stop
000A:88F3 7E           and   r14
000A:88F4 00           stop
000A:88F5 7E           and   r14
000A:88F6 00           stop
000A:88F7 7E           and   r14
000A:88F8 00           stop
000A:88F9 7E           and   r14
000A:88FA 00           stop
000A:88FB 7E           and   r14
000A:88FC 00           stop
000A:88FD 7E           and   r14
000A:88FE 00           stop
000A:88FF 7E           and   r14
000A:8900 00           stop
000A:8901 7E           and   r14
000A:8902 00           stop
000A:8903 7E           and   r14
000A:8904 00           stop
000A:8905 7E           and   r14
000A:8906 00           stop
000A:8907 7E           and   r14
000A:8908 00           stop
000A:8909 7E           and   r14
000A:890A 00           stop
000A:890B 7E           and   r14
000A:890C 00           stop
000A:890D 7E           and   r14
000A:890E 00           stop
000A:890F 7E           and   r14
000A:8910 00           stop
000A:8911 7E           and   r14
000A:8912 00           stop
000A:8913 7E           and   r14
000A:8914 00           stop
000A:8915 7E           and   r14
000A:8916 00           stop
000A:8917 7E           and   r14
000A:8918 00           stop
000A:8919 7E           and   r14
000A:891A 00           stop
000A:891B 7E           and   r14
000A:891C 00           stop
000A:891D 7E           and   r14
000A:891E 00           stop
000A:891F 7E           and   r14
000A:8920 00           stop
000A:8921 7E           and   r14
000A:8922 00           stop
000A:8923 7E           and   r14
000A:8924 00           stop
000A:8925 7E           and   r14
000A:8926 00           stop
000A:8927 7E           and   r14
000A:8928 00           stop
000A:8929 7E           and   r14
000A:892A 00           stop
000A:892B 7E           and   r14
000A:892C 00           stop
000A:892D 7E           and   r14
000A:892E 00           stop
000A:892F 7E           and   r14
000A:8930 00           stop
000A:8931 7E           and   r14
000A:8932 00           stop
000A:8933 7E           and   r14
000A:8934 00           stop
000A:8935 7E           and   r14
000A:8936 00           stop
000A:8937 7E           and   r14
000A:8938 00           stop
000A:8939 7E           and   r14
000A:893A 00           stop
000A:893B 7E           and   r14
000A:893C 00           stop
000A:893D 7E           and   r14
000A:893E 00           stop
000A:893F 7E           and   r14
000A:8940 00           stop
000A:8941 7E           and   r14
000A:8942 00           stop
000A:8943 7E           and   r14
000A:8944 00           stop
000A:8945 7E           and   r14
000A:8946 00           stop
000A:8947 7E           and   r14
000A:8948 00           stop
000A:8949 7E           and   r14
000A:894A 00           stop
000A:894B 7E           and   r14
000A:894C 00           stop
000A:894D 7E           and   r14
000A:894E 00           stop
000A:894F 7E           and   r14
000A:8950 00           stop
000A:8951 7E           and   r14
000A:8952 00           stop
000A:8953 7E           and   r14
000A:8954 00           stop
000A:8955 7E           and   r14
000A:8956 00           stop
000A:8957 7E           and   r14
000A:8958 00           stop
000A:8959 7E           and   r14
000A:895A 00           stop
000A:895B 7E           and   r14
000A:895C 00           stop
000A:895D 7E           and   r14
000A:895E 00           stop
000A:895F 7E           and   r14
000A:8960 00           stop
000A:8961 7E           and   r14
000A:8962 00           stop
000A:8963 7E           and   r14
000A:8964 00           stop
000A:8965 7E           and   r14
000A:8966 00           stop
000A:8967 7E           and   r14
000A:8968 00           stop
000A:8969 7E           and   r14
000A:896A 00           stop
000A:896B 7E           and   r14
000A:896C 00           stop
000A:896D 7E           and   r14
000A:896E 00           stop
000A:896F 7E           and   r14
000A:8970 00           stop
000A:8971 7E           and   r14
000A:8972 00           stop
000A:8973 7C           and   r12
000A:8974 F0 38 8A     iwt   r0,#8A38
000A:8977 05 04        bra   897D
000A:8979 01           nop
000A:897A F0 44 8A     iwt   r0,#8A44
000A:897D 3E A0 10     sms   (0020),r0
000A:8980 3E A2 00     sms   (0000),r2
000A:8983 3E A2 12     sms   (0024),r2
000A:8986 3E A3 01     sms   (0002),r3
000A:8989 3E A5 02     sms   (0004),r5
000A:898C 3E A7 03     sms   (0006),r7
000A:898F A0 0A        ibt   r0,#000A
000A:8991 3F DF        romb
000A:8993 FE 50 8A     iwt   r14,#8A50
000A:8996 EF           getb
000A:8997 1A 4D        swap
000A:8999 23 3E 68     sub   #08
000A:899C F0 00 22     iwt   r0,#2200
000A:899F 57           add   r7
000A:89A0 57           add   r7
000A:89A1 18 40        ldw   (r0)
000A:89A3 F9 D1 00     iwt   r9,#00D1
000A:89A6 02           cache
000A:89A7 A0 60        ibt   r0,#0060
000A:89A9 52           add   r2
000A:89AA FB C0 01     iwt   r11,#01C0
000A:89AD 6B           sub   r11
000A:89AE 0C 07        bcc   89B7
000A:89B0 01           nop
000A:89B1 A2 80        ibt   r2,#FF80
000A:89B3 FF 24 8A     iwt   r15,#8A24
000A:89B6 01           nop
000A:89B7 FB 14 35     iwt   r11,#3514
000A:89BA FD D0 00     iwt   r13,#00D0
000A:89BD BD 63        sub   r3
000A:89BF 0A 14        bpl   89D5
000A:89C1 16 4F        not
000A:89C3 D6           inc   r6
000A:89C4 B8 3D 9F     lmult
000A:89C7 3F 50        adc   #00
000A:89C9 09 03        beq   89CE
000A:89CB 01           nop
000A:89CC 2A 14        move  r4,r10
000A:89CE 2A 64        sub   r4
000A:89D0 29 1C        move  r12,r9
000A:89D2 05 1F        bra   89F3
000A:89D4 DE           inc   r14
000A:89D5 20 1C        move  r12,r0
000A:89D7 BD 6C        sub   r12
000A:89D9 0A 04        bpl   89DF
000A:89DB DC           inc   r12
000A:89DC 2D 1C        move  r12,r13
000A:89DE DC           inc   r12
000A:89DF 29 6C        sub   r12
000A:89E1 F0 26 FF     iwt   r0,#FF26
000A:89E4 2F 1D        move  r13,r15
000A:89E6 3B           stw   (r11)
000A:89E7 EB           dec   r11
000A:89E8 EB           dec   r11
000A:89E9 3C           loop
000A:89EA D0           inc   r0
000A:89EB 2C B9        moves r12,r9
000A:89ED 0A 04        bpl   89F3
000A:89EF DE           inc   r14
000A:89F0 FF 24 8A     iwt   r15,#8A24
000A:89F3 25 16        move  r6,r5
000A:89F5 2E 17        move  r7,r14
000A:89F7 DC           inc   r12
000A:89F8 2F 1D        move  r13,r15
000A:89FA 2A 68        sub   r8
000A:89FC 0B 1B        bmi   8A19
000A:89FE BA C0        hib
000A:8A00 1E 57        add   r7
000A:8A02 F5 00 01     iwt   r5,#0100
000A:8A05 61           sub   r1
000A:8A06 0D 03        bcs   8A0B
000A:8A08 01           nop
000A:8A09 25 55        add   r5
000A:8A0B EF           getb
000A:8A0C 4D           swap
000A:8A0D 9F           fmult
000A:8A0E 6C           sub   r12
000A:8A0F 3E 68        sub   #08
000A:8A11 55           add   r5
000A:8A12 3B           stw   (r11)
000A:8A13 EB           dec   r11
000A:8A14 3C           loop
000A:8A15 EB           dec   r11
000A:8A16 FF 24 8A     iwt   r15,#8A24
000A:8A19 BC 4F        not
000A:8A1B 3E 67        sub   #07
000A:8A1D 2F 1D        move  r13,r15
000A:8A1F 3B           stw   (r11)
000A:8A20 EB           dec   r11
000A:8A21 EB           dec   r11
000A:8A22 3C           loop
000A:8A23 D0           inc   r0
000A:8A24 F0 80 00     iwt   r0,#0080
000A:8A27 62           sub   r2
000A:8A28 FB 16 35     iwt   r11,#3516
000A:8A2B FC D2 00     iwt   r12,#00D2
000A:8A2E 2F 1D        move  r13,r15
000A:8A30 3B           stw   (r11)
000A:8A31 DB           inc   r11
000A:8A32 3C           loop
000A:8A33 DB           inc   r11
000A:8A34 FF 90 83     iwt   r15,#8390
000A:8A37 01           nop
000A:8A38 C1           or    r1
000A:8A39 C0           hib
000A:8A3A 3F C0        ???
000A:8A3C D6           inc   r6
000A:8A3D F0 2A F0     iwt   r0,#F02A
000A:8A40 00           stop
000A:8A41 81           mult  r1
000A:8A42 00           stop
000A:8A43 0E C1        bvc   8A06
000A:8A45 C0           hib
000A:8A46 3F C0        ???
000A:8A48 D6           inc   r6
000A:8A49 F0 2A F0     iwt   r0,#F02A
000A:8A4C 00           stop
000A:8A4D 81           mult  r1
000A:8A4E 00           stop
000A:8A4F 0A 7F        bpl   8AD0
000A:8A51 00           stop
000A:8A52 17 20 27 2D+ stw   (r2)
000A:8A57 36           stw   (r6)
000A:8A58 3A           stw   (r10)
000A:8A59 3E 41        ???
000A:8A5B 45           ldw   (r5)
000A:8A5C 48           ldw   (r8)
000A:8A5D 4B           ldw   (r11)
000A:8A5E 4D           swap
000A:8A5F 50           add   r0
000A:8A60 52           add   r2
000A:8A61 55           add   r5
000A:8A62 57           add   r7
000A:8A63 59           add   r9
000A:8A64 5B           add   r11
000A:8A65 5D           add   r13
000A:8A66 5F           add   r15
000A:8A67 60           sub   r0
000A:8A68 62           sub   r2
000A:8A69 64           sub   r4
000A:8A6A 65           sub   r5
000A:8A6B 67           sub   r7
000A:8A6C 68           sub   r8
000A:8A6D 6A           sub   r10
000A:8A6E 6B           sub   r11
000A:8A6F 6C           sub   r12
000A:8A70 6D           sub   r13
000A:8A71 6F           sub   r15
000A:8A72 70           merge
000A:8A73 71           and   r1
000A:8A74 72           and   r2
000A:8A75 73           and   r3
000A:8A76 74           and   r4
000A:8A77 75           and   r5
000A:8A78 75           and   r5
000A:8A79 76           and   r6
000A:8A7A 77           and   r7
000A:8A7B 78           and   r8
000A:8A7C 78           and   r8
000A:8A7D 79           and   r9
000A:8A7E 7A           and   r10
000A:8A7F 7A           and   r10
000A:8A80 7B           and   r11
000A:8A81 7B           and   r11
000A:8A82 7C           and   r12
000A:8A83 7C           and   r12
000A:8A84 7D           and   r13
000A:8A85 7D           and   r13
000A:8A86 7D           and   r13
000A:8A87 7E           and   r14
000A:8A88 7E           and   r14
000A:8A89 7E           and   r14
000A:8A8A 7E           and   r14
000A:8A8B 7F           and   r15
000A:8A8C 7F           and   r15
000A:8A8D 7F           and   r15
000A:8A8E 7F           and   r15
000A:8A8F 7F           and   r15
000A:8A90 7F           and   r15
000A:8A91 7F           and   r15
000A:8A92 7F           and   r15
000A:8A93 7F           and   r15
000A:8A94 7F           and   r15
000A:8A95 7F           and   r15
000A:8A96 7E           and   r14
000A:8A97 7E           and   r14
000A:8A98 7E           and   r14
000A:8A99 7E           and   r14
000A:8A9A 7D           and   r13
000A:8A9B 7D           and   r13
000A:8A9C 7D           and   r13
000A:8A9D 7C           and   r12
000A:8A9E 7C           and   r12
000A:8A9F 7B           and   r11
000A:8AA0 7B           and   r11
000A:8AA1 7A           and   r10
000A:8AA2 7A           and   r10
000A:8AA3 79           and   r9
000A:8AA4 78           and   r8
000A:8AA5 78           and   r8
000A:8AA6 77           and   r7
000A:8AA7 76           and   r6
000A:8AA8 75           and   r5
000A:8AA9 75           and   r5
000A:8AAA 74           and   r4
000A:8AAB 73           and   r3
000A:8AAC 72           and   r2
000A:8AAD 71           and   r1
000A:8AAE 70           merge
000A:8AAF 6F           sub   r15
000A:8AB0 6D           sub   r13
000A:8AB1 6C           sub   r12
000A:8AB2 6B           sub   r11
000A:8AB3 6A           sub   r10
000A:8AB4 68           sub   r8
000A:8AB5 67           sub   r7
000A:8AB6 65           sub   r5
000A:8AB7 64           sub   r4
000A:8AB8 62           sub   r2
000A:8AB9 60           sub   r0
000A:8ABA 5F           add   r15
000A:8ABB 5D           add   r13
000A:8ABC 5B           add   r11
000A:8ABD 59           add   r9
000A:8ABE 57           add   r7
000A:8ABF 55           add   r5
000A:8AC0 52           add   r2
000A:8AC1 50           add   r0
000A:8AC2 4D           swap
000A:8AC3 4B           ldw   (r11)
000A:8AC4 48           ldw   (r8)
000A:8AC5 45           ldw   (r5)
000A:8AC6 41           ldw   (r1)
000A:8AC7 3E 3A        ???
000A:8AC9 36           stw   (r6)
000A:8ACA 32           stw   (r2)
000A:8ACB 2D 27 20 17  move  r7,r0
000A:8ACF 00           stop
000A:8AD0 94           link  #04
000A:8AD1 FF 5E 8B     iwt   r15,#8B5E
000A:8AD4 02           cache
000A:8AD5 F1 00 0F     iwt   r1,#0F00
000A:8AD8 F2 38 1D     iwt   r2,#1D38
000A:8ADB F3 D6 1C     iwt   r3,#1CD6
000A:8ADE F0 37 1D     iwt   r0,#1D37
000A:8AE1 3D A4 09     lms   r4,(0012)
000A:8AE4 54           add   r4
000A:8AE5 3D 40        ldb   (r0)
000A:8AE7 50           add   r0
000A:8AE8 14 50        add   r0
000A:8AEA 3D FA 94 00  lm    r10,(0094)
000A:8AEE AC 18        ibt   r12,#0018
000A:8AF0 3D F0 9C 00  lm    r0,(009C)
000A:8AF4 1B 3E 58     add   #08
000A:8AF7 02           cache
000A:8AF8 FD FC 8A     iwt   r13,#8AFC
000A:8AFB 24 3E 64     sub   #04
000A:8AFE 0A 04        bpl   8B04
000A:8B00 B1 A4 5C     ibt   r4,#005C
000A:8B03 B1 54        add   r4
000A:8B05 3D 40        ldb   (r0)
000A:8B07 3E 6E        sub   #0E
000A:8B09 0C 33        bcc   8B3E
000A:8B0B B2 54        add   r4
000A:8B0D 40           ldw   (r0)
000A:8B0E 3E 60        sub   #00
000A:8B10 09 2C        beq   8B3E
000A:8B12 B3 54        add   r4
000A:8B14 1E 40        ldw   (r0)
000A:8B16 2E 6A        sub   r10
000A:8B18 D0           inc   r0
000A:8B19 D0           inc   r0
000A:8B1A 40           ldw   (r0)
000A:8B1B 6B           sub   r11
000A:8B1C 65           sub   r5
000A:8B1D 0D 28        bcs   8B47
000A:8B1F 55           add   r5
000A:8B20 20 19        move  r9,r0
000A:8B22 50           add   r0
000A:8B23 56           add   r6
000A:8B24 40           ldw   (r0)
000A:8B25 59           add   r9
000A:8B26 3E 59        add   #09
000A:8B28 18 9E        lob
000A:8B2A B7 59        add   r9
000A:8B2C 59           add   r9
000A:8B2D 19 40        ldw   (r0)
000A:8B2F F0 80 00     iwt   r0,#0080
000A:8B32 69           sub   r9
000A:8B33 6E           sub   r14
000A:8B34 0A 03        bpl   8B39
000A:8B36 01           nop
000A:8B37 4F           not
000A:8B38 D0           inc   r0
000A:8B39 50           add   r0
000A:8B3A 68           sub   r8
000A:8B3B 0D 0A        bcs   8B47
000A:8B3D 01           nop
000A:8B3E 3C           loop
000A:8B3F 24 3D A1 09  lms   r1,(0012)
000A:8B43 14           to    r4
000A:8B44 05 0F        bra   8B55
000A:8B46 60           sub   r0
000A:8B47 3D A1 09     lms   r1,(0012)
000A:8B4A F0 37 1D     iwt   r0,#1D37
000A:8B4D 12 51        add   r1
000A:8B4F B4 03        lsr
000A:8B51 03           lsr
000A:8B52 3D 32        stb   (r2)
000A:8B54 D4           inc   r4
000A:8B55 F0 36 1D     iwt   r0,#1D36
000A:8B58 51           add   r1
000A:8B59 B4 3D 30     stb   (r0)
000A:8B5C 00           stop
000A:8B5D 01           nop
000A:8B5E A0 FF        ibt   r0,#FFFF
000A:8B60 3E AB 30     sms   (0060),r11
000A:8B63 20 1B        move  r11,r0
000A:8B65 A0 0A        ibt   r0,#000A
000A:8B67 3F DF        romb
000A:8B69 FE F0 85     iwt   r14,#85F0
000A:8B6C 3D A0 0C     lms   r0,(0018)
000A:8B6F 3E 60        sub   #00
000A:8B71 09 03        beq   8B76
000A:8B73 2E 3E 5A     add   #0A
000A:8B76 3D A1 0A     lms   r1,(0014)
000A:8B79 3D A0 0B     lms   r0,(0016)
000A:8B7C 12 3E 68     sub   #08
000A:8B7F F5 D2 00     iwt   r5,#00D2
000A:8B82 F6 72 33     iwt   r6,#3372
000A:8B85 F7 16 35     iwt   r7,#3516
000A:8B88 F3 80 00     iwt   r3,#0080
000A:8B8B AA 00        ibt   r10,#0000
000A:8B8D AC 05        ibt   r12,#0005
000A:8B8F FD 93 8B     iwt   r13,#8B93
000A:8B92 2A 5A        add   r10
000A:8B94 3F EF        getbs
000A:8B96 DE           inc   r14
000A:8B97 14 51        add   r1
000A:8B99 3F EF        getbs
000A:8B9B DE           inc   r14
000A:8B9C 52           add   r2
000A:8B9D 20 19        move  r9,r0
000A:8B9F 65           sub   r5
000A:8BA0 0D 1A        bcs   8BBC
000A:8BA2 55           add   r5
000A:8BA3 50           add   r0
000A:8BA4 56           add   r6
000A:8BA5 40           ldw   (r0)
000A:8BA6 59           add   r9
000A:8BA7 3E 59        add   #09
000A:8BA9 18 7B        and   r11
000A:8BAB B7 59        add   r9
000A:8BAD 59           add   r9
000A:8BAE 40           ldw   (r0)
000A:8BAF B3 60        sub   r0
000A:8BB1 64           sub   r4
000A:8BB2 0A 03        bpl   8BB7
000A:8BB4 01           nop
000A:8BB5 4F           not
000A:8BB6 D0           inc   r0
000A:8BB7 50           add   r0
000A:8BB8 68           sub   r8
000A:8BB9 0C 02        bcc   8BBD
000A:8BBB 01           nop
000A:8BBC DA           inc   r10
000A:8BBD 3C           loop
000A:8BBE 2A 3E AA 0A  sms   (0014),r10
000A:8BC2 BA 03        lsr
000A:8BC4 0C 57        bcc   8C1D
000A:8BC6 60           sub   r0
000A:8BC7 20 11        move  r1,r0
000A:8BC9 E9           dec   r9
000A:8BCA 0B 28        bmi   8BF4
000A:8BCC B1 3E 5A     add   #0A
000A:8BCF 0B 23        bmi   8BF4
000A:8BD1 B9 65        sub   r5
000A:8BD3 0C 04        bcc   8BD9
000A:8BD5 55           add   r5
000A:8BD6 05 F1        bra   8BC9
000A:8BD8 E1           dec   r1
000A:8BD9 50           add   r0
000A:8BDA 56           add   r6
000A:8BDB 40           ldw   (r0)
000A:8BDC 59           add   r9
000A:8BDD 3E 59        add   #09
000A:8BDF 18 7B        and   r11
000A:8BE1 B7 59        add   r9
000A:8BE3 59           add   r9
000A:8BE4 40           ldw   (r0)
000A:8BE5 B3 60        sub   r0
000A:8BE7 64           sub   r4
000A:8BE8 20 12        move  r2,r0
000A:8BEA 0A 03        bpl   8BEF
000A:8BEC 01           nop
000A:8BED 4F           not
000A:8BEE D0           inc   r0
000A:8BEF 50           add   r0
000A:8BF0 68           sub   r8
000A:8BF1 0D D6        bcs   8BC9
000A:8BF3 E1           dec   r1
000A:8BF4 3E A1 0B     sms   (0016),r1
000A:8BF7 B9 3E 52     add   #02
000A:8BFA 3F 65        cmp   r5
000A:8BFC 0D 09        bcs   8C07
000A:8BFE B8 B0 50     add   r0
000A:8C01 56           add   r6
000A:8C02 40           ldw   (r0)
000A:8C03 59           add   r9
000A:8C04 3E 59        add   #09
000A:8C06 7B           and   r11
000A:8C07 68           sub   r8
000A:8C08 03           lsr
000A:8C09 A3 04        ibt   r3,#0004
000A:8C0B 3F 63        cmp   r3
000A:8C0D 0C 03        bcc   8C12
000A:8C0F 01           nop
000A:8C10 23 10        move  r0,r3
000A:8C12 22 B2        moves r2,r2
000A:8C14 0A 03        bpl   8C19
000A:8C16 01           nop
000A:8C17 3E 55        add   #05
000A:8C19 50           add   r0
000A:8C1A 3E A0 0C     sms   (0018),r0
000A:8C1D F0 04 86     iwt   r0,#8604
000A:8C20 6E           sub   r14
000A:8C21 0C 20        bcc   8C43
000A:8C23 1E 5E        add   r14
000A:8C25 3D A0 0A     lms   r0,(0014)
000A:8C28 3E A0 0D     sms   (001A),r0
000A:8C2B 3D A0 0B     lms   r0,(0016)
000A:8C2E 3E A0 0E     sms   (001C),r0
000A:8C31 3D A0 0C     lms   r0,(0018)
000A:8C34 3E A0 0F     sms   (001E),r0
000A:8C37 3D F1 80 16  lm    r1,(1680)
000A:8C3B 3D F0 82 16  lm    r0,(1682)
000A:8C3F FF 7D 8B     iwt   r15,#8B7D
000A:8C42 12 3D AB 30  lms   r11,(0060)
000A:8C46 9B           jmp   r11
000A:8C47 01           nop
000A:8C48 A0 0A        ibt   r0,#000A
000A:8C4A 3F DF        romb
000A:8C4C AB 00        ibt   r11,#0000
000A:8C4E AC 18        ibt   r12,#0018
000A:8C50 02           cache
000A:8C51 2F 1D        move  r13,r15
000A:8C53 AA 00        ibt   r10,#0000
000A:8C55 F0 00 0F     iwt   r0,#0F00
000A:8C58 5B           add   r11
000A:8C59 40           ldw   (r0)
000A:8C5A 3E 6E        sub   #0E
000A:8C5C 0C 16        bcc   8C74
000A:8C5E 01           nop
000A:8C5F F0 38 1D     iwt   r0,#1D38
000A:8C62 5B           add   r11
000A:8C63 40           ldw   (r0)
000A:8C64 3E 60        sub   #00
000A:8C66 08 0C        bne   8C74
000A:8C68 01           nop
000A:8C69 F0 A2 0F     iwt   r0,#0FA2
000A:8C6C 5B           add   r11
000A:8C6D 40           ldw   (r0)
000A:8C6E A1 1F        ibt   r1,#001F
000A:8C70 71           and   r1
000A:8C71 08 05        bne   8C78
000A:8C73 50           add   r0
000A:8C74 FF 7F 8D     iwt   r15,#8D7F
000A:8C77 DB           inc   r11
000A:8C78 A3 04        ibt   r3,#0004
000A:8C7A F2 0B CF     iwt   r2,#CF0B
000A:8C7D A1 38        ibt   r1,#0038
000A:8C7F 61           sub   r1
000A:8C80 0C 05        bcc   8C87
000A:8C82 51           add   r1
000A:8C83 A3 01        ibt   r3,#0001
000A:8C85 E2           dec   r2
000A:8C86 E2           dec   r2
000A:8C87 FE CA CE     iwt   r14,#CECA
000A:8C8A 1E 5E        add   r14
000A:8C8C EF           getb
000A:8C8D 50           add   r0
000A:8C8E 1E 52        add   r2
000A:8C90 F0 80 16     iwt   r0,#1680
000A:8C93 5B           add   r11
000A:8C94 11 40        ldw   (r0)
000A:8C96 F0 82 16     iwt   r0,#1682
000A:8C99 5B           add   r11
000A:8C9A 40           ldw   (r0)
000A:8C9B 12 3E 68     sub   #08
000A:8C9E F5 D2 00     iwt   r5,#00D2
000A:8CA1 F6 72 33     iwt   r6,#3372
000A:8CA4 F7 16 35     iwt   r7,#3516
000A:8CA7 3E AC 2C     sms   (0058),r12
000A:8CAA 3E AD 2D     sms   (005A),r13
000A:8CAD 23 1C        move  r12,r3
000A:8CAF F3 80 00     iwt   r3,#0080
000A:8CB2 FD B6 8C     iwt   r13,#8CB6
000A:8CB5 2A 5A        add   r10
000A:8CB7 3F EF        getbs
000A:8CB9 DE           inc   r14
000A:8CBA 14 51        add   r1
000A:8CBC 3F EF        getbs
000A:8CBE DE           inc   r14
000A:8CBF 52           add   r2
000A:8CC0 20 19        move  r9,r0
000A:8CC2 65           sub   r5
000A:8CC3 0D 1A        bcs   8CDF
000A:8CC5 55           add   r5
000A:8CC6 50           add   r0
000A:8CC7 56           add   r6
000A:8CC8 40           ldw   (r0)
000A:8CC9 59           add   r9
000A:8CCA 3E 59        add   #09
000A:8CCC 18 9E        lob
000A:8CCE B7 59        add   r9
000A:8CD0 59           add   r9
000A:8CD1 40           ldw   (r0)
000A:8CD2 B3 60        sub   r0
000A:8CD4 64           sub   r4
000A:8CD5 0A 03        bpl   8CDA
000A:8CD7 01           nop
000A:8CD8 4F           not
000A:8CD9 D0           inc   r0
000A:8CDA 50           add   r0
000A:8CDB 68           sub   r8
000A:8CDC 0C 02        bcc   8CE0
000A:8CDE 01           nop
000A:8CDF DA           inc   r10
000A:8CE0 3C           loop
000A:8CE1 2A 3D AC 2C  lms   r12,(0058)
000A:8CE5 3D AD 2D     lms   r13,(005A)
000A:8CE8 BA 03        lsr
000A:8CEA 0C 44        bcc   8D30
000A:8CEC 60           sub   r0
000A:8CED 20 11        move  r1,r0
000A:8CEF BA 3E 72     and   #02
000A:8CF2 09 0A        beq   8CFE
000A:8CF4 B9 95        sex
000A:8CF6 0B 06        bmi   8CFE
000A:8CF8 2A 3F 71     bic   #01
000A:8CFB 05 34        bra   8D31
000A:8CFD BA E9        dec   r9
000A:8CFF 0B 28        bmi   8D29
000A:8D01 B1 3E 5A     add   #0A
000A:8D04 0B 23        bmi   8D29
000A:8D06 B9 65        sub   r5
000A:8D08 0C 04        bcc   8D0E
000A:8D0A 55           add   r5
000A:8D0B 05 F1        bra   8CFE
000A:8D0D E1           dec   r1
000A:8D0E 50           add   r0
000A:8D0F 56           add   r6
000A:8D10 40           ldw   (r0)
000A:8D11 59           add   r9
000A:8D12 3E 59        add   #09
000A:8D14 18 9E        lob
000A:8D16 B7 59        add   r9
000A:8D18 59           add   r9
000A:8D19 40           ldw   (r0)
000A:8D1A B3 60        sub   r0
000A:8D1C 64           sub   r4
000A:8D1D 20 12        move  r2,r0
000A:8D1F 0A 03        bpl   8D24
000A:8D21 01           nop
000A:8D22 4F           not
000A:8D23 D0           inc   r0
000A:8D24 50           add   r0
000A:8D25 68           sub   r8
000A:8D26 0D D6        bcs   8CFE
000A:8D28 E1           dec   r1
000A:8D29 F0 82 11     iwt   r0,#1182
000A:8D2C 5B           add   r11
000A:8D2D 40           ldw   (r0)
000A:8D2E 51           add   r1
000A:8D2F 90           sbk
000A:8D30 BA 3E 7C     and   #0C
000A:8D33 09 32        beq   8D67
000A:8D35 B4 95        sex
000A:8D37 A4 01        ibt   r4,#0001
000A:8D39 0A 03        bpl   8D3E
000A:8D3B 01           nop
000A:8D3C A4 FF        ibt   r4,#FFFF
000A:8D3E F0 E2 10     iwt   r0,#10E2
000A:8D41 5B           add   r11
000A:8D42 40           ldw   (r0)
000A:8D43 54           add   r4
000A:8D44 90           sbk
000A:8D45 F0 E0 15     iwt   r0,#15E0
000A:8D48 5B           add   r11
000A:8D49 40           ldw   (r0)
000A:8D4A 12 3D C4     xor   r4
000A:8D4D 0A 04        bpl   8D53
000A:8D4F 01           nop
000A:8D50 4F           not
000A:8D51 D0           inc   r0
000A:8D52 90           sbk
000A:8D53 F0 20 12     iwt   r0,#1220
000A:8D56 5B           add   r11
000A:8D57 40           ldw   (r0)
000A:8D58 12 3D C4     xor   r4
000A:8D5B 0A 04        bpl   8D61
000A:8D5D D4           inc   r4
000A:8D5E 4F           not
000A:8D5F D0           inc   r0
000A:8D60 90           sbk
000A:8D61 F0 00 14     iwt   r0,#1400
000A:8D64 5B           add   r11
000A:8D65 B4 30        stw   (r0)
000A:8D67 BA 3E 72     and   #02
000A:8D6A 09 12        beq   8D7E
000A:8D6C 01           nop
000A:8D6D F0 22 12     iwt   r0,#1222
000A:8D70 5B           add   r11
000A:8D71 40           ldw   (r0)
000A:8D72 3E 60        sub   #00
000A:8D74 0A 08        bpl   8D7E
000A:8D76 12 60        sub   r0
000A:8D78 F0 22 12     iwt   r0,#1222
000A:8D7B 5B           add   r11
000A:8D7C B2 30        stw   (r0)
000A:8D7E DB           inc   r11
000A:8D7F F0 5F 18     iwt   r0,#185F
000A:8D82 5B           add   r11
000A:8D83 BA 30        stw   (r0)
000A:8D85 DB           inc   r11
000A:8D86 DB           inc   r11
000A:8D87 3C           loop
000A:8D88 DB           inc   r11
000A:8D89 00           stop
000A:8D8A 01           nop
000A:8D8B 3F DF        romb
000A:8D8D 2E 1E        move  r14,r14
000A:8D8F F1 C6 49     iwt   r1,#49C6
000A:8D92 1C 3D 41     ldb   (r1)
000A:8D95 D1           inc   r1
000A:8D96 02           cache
000A:8D97 2F 1D        move  r13,r15
000A:8D99 3D 41        ldb   (r1)
000A:8D9B 12 95        sex
000A:8D9D 3F EF        getbs
000A:8D9F 62           sub   r2
000A:8DA0 09 09        beq   8DAB
000A:8DA2 DE           inc   r14
000A:8DA3 96           asr
000A:8DA4 96           asr
000A:8DA5 96           asr
000A:8DA6 96           asr
000A:8DA7 08 02        bne   8DAB
000A:8DA9 01           nop
000A:8DAA D0           inc   r0
000A:8DAB 52           add   r2
000A:8DAC 3D 31        stb   (r1)
000A:8DAE D1           inc   r1
000A:8DAF 3D 41        ldb   (r1)
000A:8DB1 12 95        sex
000A:8DB3 3F EF        getbs
000A:8DB5 62           sub   r2
000A:8DB6 09 09        beq   8DC1
000A:8DB8 DE           inc   r14
000A:8DB9 96           asr
000A:8DBA 96           asr
000A:8DBB 96           asr
000A:8DBC 96           asr
000A:8DBD 08 02        bne   8DC1
000A:8DBF 01           nop
000A:8DC0 D0           inc   r0
000A:8DC1 52           add   r2
000A:8DC2 3D 31        stb   (r1)
000A:8DC4 3C           loop
000A:8DC5 D1           inc   r1
000A:8DC6 00           stop
000A:8DC7 01           nop
000A:8DC8 3E A1 00     sms   (0000),r1
000A:8DCB 3E A2 01     sms   (0002),r2
000A:8DCE 94           link  #04
000A:8DCF FF FC 8E     iwt   r15,#8EFC
000A:8DD2 01           nop
000A:8DD3 21 13        move  r3,r1
000A:8DD5 3D A4 02     lms   r4,(0004)
000A:8DD8 B4 15 84     mult  r4
000A:8DDB 3D A1 00     lms   r1,(0000)
000A:8DDE B1 16 81     mult  r1
000A:8DE1 3D A2 01     lms   r2,(0002)
000A:8DE4 B2 82        mult  r2
000A:8DE6 56           add   r6
000A:8DE7 65           sub   r5
000A:8DE8 0C 26        bcc   8E10
000A:8DEA 01           nop
000A:8DEB A0 08        ibt   r0,#0008
000A:8DED 3F DF        romb
000A:8DEF F0 18 AE     iwt   r0,#AE18
000A:8DF2 1E 53        add   r3
000A:8DF4 EF           getb
000A:8DF5 84           mult  r4
000A:8DF6 50           add   r0
000A:8DF7 50           add   r0
000A:8DF8 C0           hib
000A:8DF9 95           sex
000A:8DFA 11 4F        not
000A:8DFC D1           inc   r1
000A:8DFD 3E A1 00     sms   (0000),r1
000A:8E00 A0 40        ibt   r0,#0040
000A:8E02 1E 5E        add   r14
000A:8E04 EF           getb
000A:8E05 84           mult  r4
000A:8E06 50           add   r0
000A:8E07 50           add   r0
000A:8E08 C0           hib
000A:8E09 95           sex
000A:8E0A 12 4F        not
000A:8E0C D2           inc   r2
000A:8E0D 3E A2 01     sms   (0002),r2
000A:8E10 A0 7F        ibt   r0,#007F
000A:8E12 3D C3        xor   r3
000A:8E14 D0           inc   r0
000A:8E15 9E           lob
000A:8E16 3E 58        add   #08
000A:8E18 03           lsr
000A:8E19 03           lsr
000A:8E1A 03           lsr
000A:8E1B 03           lsr
000A:8E1C 3E A0 02     sms   (0004),r0
000A:8E1F 20 14        move  r4,r0
000A:8E21 50           add   r0
000A:8E22 F3 C7 49     iwt   r3,#49C7
000A:8E25 13 53        add   r3
000A:8E27 B1 3D 33     stb   (r3)
000A:8E2A D3           inc   r3
000A:8E2B B2 3D 33     stb   (r3)
000A:8E2E B4 3E 62     sub   #02
000A:8E31 3E 7F        and   #0F
000A:8E33 50           add   r0
000A:8E34 F3 C7 49     iwt   r3,#49C7
000A:8E37 13 53        add   r3
000A:8E39 3D 43        ldb   (r3)
000A:8E3B 95           sex
000A:8E3C 11 61        sub   r1
000A:8E3E D3           inc   r3
000A:8E3F 3D 43        ldb   (r3)
000A:8E41 95           sex
000A:8E42 12 62        sub   r2
000A:8E44 94           link  #04
000A:8E45 FF DE 8E     iwt   r15,#8EDE
000A:8E48 01           nop
000A:8E49 3D A0 02     lms   r0,(0004)
000A:8E4C E0           dec   r0
000A:8E4D 3E 7F        and   #0F
000A:8E4F 50           add   r0
000A:8E50 F4 C7 49     iwt   r4,#49C7
000A:8E53 14 54        add   r4
000A:8E55 3D 44        ldb   (r4)
000A:8E57 20 16        move  r6,r0
000A:8E59 3D A1 00     lms   r1,(0000)
000A:8E5C 61           sub   r1
000A:8E5D 15 83        mult  r3
000A:8E5F D4           inc   r4
000A:8E60 3D 44        ldb   (r4)
000A:8E62 20 17        move  r7,r0
000A:8E64 3D A1 01     lms   r1,(0002)
000A:8E67 61           sub   r1
000A:8E68 82           mult  r2
000A:8E69 B5 60        sub   r0
000A:8E6B 50           add   r0
000A:8E6C 50           add   r0
000A:8E6D C0           hib
000A:8E6E 20 15        move  r5,r0
000A:8E70 82           mult  r2
000A:8E71 50           add   r0
000A:8E72 50           add   r0
000A:8E73 C0           hib
000A:8E74 57           add   r7
000A:8E75 3D 34        stb   (r4)
000A:8E77 B5 83        mult  r3
000A:8E79 50           add   r0
000A:8E7A 50           add   r0
000A:8E7B C0           hib
000A:8E7C B6 60        sub   r0
000A:8E7E E4           dec   r4
000A:8E7F 3D 34        stb   (r4)
000A:8E81 3D A0 02     lms   r0,(0004)
000A:8E84 3E 52        add   #02
000A:8E86 3E 7F        and   #0F
000A:8E88 50           add   r0
000A:8E89 F3 C7 49     iwt   r3,#49C7
000A:8E8C 13 53        add   r3
000A:8E8E 3D 43        ldb   (r3)
000A:8E90 95           sex
000A:8E91 3D A1 00     lms   r1,(0000)
000A:8E94 11 61        sub   r1
000A:8E96 D3           inc   r3
000A:8E97 3D 43        ldb   (r3)
000A:8E99 95           sex
000A:8E9A 3D A2 01     lms   r2,(0002)
000A:8E9D 12 62        sub   r2
000A:8E9F 94           link  #04
000A:8EA0 FF DE 8E     iwt   r15,#8EDE
000A:8EA3 01           nop
000A:8EA4 3D A0 02     lms   r0,(0004)
000A:8EA7 D0           inc   r0
000A:8EA8 3E 7F        and   #0F
000A:8EAA 50           add   r0
000A:8EAB F4 C7 49     iwt   r4,#49C7
000A:8EAE 14 54        add   r4
000A:8EB0 3D 44        ldb   (r4)
000A:8EB2 20 16        move  r6,r0
000A:8EB4 3D A1 00     lms   r1,(0000)
000A:8EB7 61           sub   r1
000A:8EB8 15 83        mult  r3
000A:8EBA D4           inc   r4
000A:8EBB 3D 44        ldb   (r4)
000A:8EBD 20 17        move  r7,r0
000A:8EBF 3D A1 01     lms   r1,(0002)
000A:8EC2 61           sub   r1
000A:8EC3 82           mult  r2
000A:8EC4 B5 60        sub   r0
000A:8EC6 50           add   r0
000A:8EC7 50           add   r0
000A:8EC8 C0           hib
000A:8EC9 20 15        move  r5,r0
000A:8ECB 82           mult  r2
000A:8ECC 50           add   r0
000A:8ECD 50           add   r0
000A:8ECE C0           hib
000A:8ECF 57           add   r7
000A:8ED0 3D 34        stb   (r4)
000A:8ED2 B5 83        mult  r3
000A:8ED4 50           add   r0
000A:8ED5 50           add   r0
000A:8ED6 C0           hib
000A:8ED7 B6 60        sub   r0
000A:8ED9 E4           dec   r4
000A:8EDA 3D 34        stb   (r4)
000A:8EDC 00           stop
000A:8EDD 01           nop
000A:8EDE 3E AB 31     sms   (0062),r11
000A:8EE1 94           link  #04
000A:8EE2 FF FC 8E     iwt   r15,#8EFC
000A:8EE5 01           nop
000A:8EE6 A0 08        ibt   r0,#0008
000A:8EE8 3F DF        romb
000A:8EEA F0 18 AE     iwt   r0,#AE18
000A:8EED 1E 51        add   r1
000A:8EEF 12 EF        getb
000A:8EF1 A0 40        ibt   r0,#0040
000A:8EF3 1E 5E        add   r14
000A:8EF5 13 EF        getb
000A:8EF7 3D AB 31     lms   r11,(0062)
000A:8EFA 9B           jmp   r11
000A:8EFB 01           nop
000A:8EFC 3E AB 30     sms   (0060),r11
000A:8EFF F0 74 BC     iwt   r0,#BC74
000A:8F02 A8 0B        ibt   r8,#000B
000A:8F04 A5 0A        ibt   r5,#000A
000A:8F06 2F 1B        move  r11,r15
000A:8F08 3D 98        ljmp  r8
000A:8F0A 01           nop
000A:8F0B 3D AB 30     lms   r11,(0060)
000A:8F0E 9B           jmp   r11
000A:8F0F 01           nop
000A:8F10 02           cache
000A:8F11 A0 08        ibt   r0,#0008
000A:8F13 3F DF        romb
000A:8F15 23 9E        lob
000A:8F17 29 9E        lob
000A:8F19 FC D2 00     iwt   r12,#00D2
000A:8F1C 2F 1D        move  r13,r15
000A:8F1E 21 9E        lob
000A:8F20 F0 18 AC     iwt   r0,#AC18
000A:8F23 51           add   r1
000A:8F24 1E 51        add   r1
000A:8F26 EF           getb
000A:8F27 DE           inc   r14
000A:8F28 3D EF        getbh
000A:8F2A 22 16        move  r6,r2
000A:8F2C 3D 9F        lmult
000A:8F2E 24 C0        hib
000A:8F30 9E           lob
000A:8F31 4D           swap
000A:8F32 C4           or    r4
000A:8F33 5A           add   r10
000A:8F34 35           stw   (r5)
000A:8F35 D5           inc   r5
000A:8F36 D5           inc   r5
000A:8F37 21 53        add   r3
000A:8F39 27 9E        lob
000A:8F3B F0 18 AC     iwt   r0,#AC18
000A:8F3E 57           add   r7
000A:8F3F 1E 57        add   r7
000A:8F41 EF           getb
000A:8F42 DE           inc   r14
000A:8F43 3D EF        getbh
000A:8F45 28 16        move  r6,r8
000A:8F47 3D 9F        lmult
000A:8F49 24 C0        hib
000A:8F4B 9E           lob
000A:8F4C 4D           swap
000A:8F4D C4           or    r4
000A:8F4E 5B           add   r11
000A:8F4F 35           stw   (r5)
000A:8F50 27 59        add   r9
000A:8F52 D5           inc   r5
000A:8F53 3C           loop
000A:8F54 D5           inc   r5
000A:8F55 00           stop
000A:8F56 01           nop
000A:8F57 3F DF        romb
000A:8F59 2E 1E        move  r14,r14
000A:8F5B F1 C6 49     iwt   r1,#49C6
000A:8F5E 3D 41        ldb   (r1)
000A:8F60 D1           inc   r1
000A:8F61 20 1C        move  r12,r0
000A:8F63 1B 50        add   r0
000A:8F65 EF           getb
000A:8F66 DE           inc   r14
000A:8F67 4D           swap
000A:8F68 9F           fmult
000A:8F69 3D 31        stb   (r1)
000A:8F6B D1           inc   r1
000A:8F6C EF           getb
000A:8F6D DE           inc   r14
000A:8F6E 4D           swap
000A:8F6F 9F           fmult
000A:8F70 3D 31        stb   (r1)
000A:8F72 D1           inc   r1
000A:8F73 F2 81 FF     iwt   r2,#FF81
000A:8F76 12 52        add   r2
000A:8F78 A3 00        ibt   r3,#0000
000A:8F7A EC           dec   r12
000A:8F7B 02           cache
000A:8F7C 2F 1D        move  r13,r15
000A:8F7E EF           getb
000A:8F7F DE           inc   r14
000A:8F80 4D           swap
000A:8F81 9F           fmult
000A:8F82 3D 31        stb   (r1)
000A:8F84 EF           getb
000A:8F85 4D           swap
000A:8F86 9F           fmult
000A:8F87 14 62        sub   r2
000A:8F89 0A 16        bpl   8FA1
000A:8F8B DE           inc   r14
000A:8F8C B2 63        sub   r3
000A:8F8E 0A 0F        bpl   8F9F
000A:8F90 B1 15 3E 62  sub   #02
000A:8F94 13 3D 45     ldb   (r5)
000A:8F97 B4 4F        not
000A:8F99 D0           inc   r0
000A:8F9A 03           lsr
000A:8F9B 03           lsr
000A:8F9C 53           add   r3
000A:8F9D 3D 35        stb   (r5)
000A:8F9F 22 10        move  r0,r2
000A:8FA1 D1           inc   r1
000A:8FA2 3D 31        stb   (r1)
000A:8FA4 20 13        move  r3,r0
000A:8FA6 3C           loop
000A:8FA7 D1           inc   r1
000A:8FA8 F1 C7 49     iwt   r1,#49C7
000A:8FAB F2 76 4C     iwt   r2,#4C76
000A:8FAE 2B 1C        move  r12,r11
000A:8FB0 2F 1D        move  r13,r15
000A:8FB2 3D 41        ldb   (r1)
000A:8FB4 3D 32        stb   (r2)
000A:8FB6 D1           inc   r1
000A:8FB7 3C           loop
000A:8FB8 D2           inc   r2
000A:8FB9 00           stop
000A:8FBA 01           nop
000A:8FBB F3 76 4C     iwt   r3,#4C76
000A:8FBE F1 C6 49     iwt   r1,#49C6
000A:8FC1 1C 3D 41     ldb   (r1)
000A:8FC4 D1           inc   r1
000A:8FC5 02           cache
000A:8FC6 2F 1D        move  r13,r15
000A:8FC8 3D 41        ldb   (r1)
000A:8FCA 12 95        sex
000A:8FCC 3D 43        ldb   (r3)
000A:8FCE D3           inc   r3
000A:8FCF 95           sex
000A:8FD0 62           sub   r2
000A:8FD1 09 0A        beq   8FDD
000A:8FD3 D3           inc   r3
000A:8FD4 C0           hib
000A:8FD5 95           sex
000A:8FD6 0B 02        bmi   8FDA
000A:8FD8 01           nop
000A:8FD9 D0           inc   r0
000A:8FDA 52           add   r2
000A:8FDB 3D 31        stb   (r1)
000A:8FDD D1           inc   r1
000A:8FDE 3C           loop
000A:8FDF D1           inc   r1
000A:8FE0 00           stop
000A:8FE1 01           nop
000A:8FE2 FA 76 4C     iwt   r10,#4C76
000A:8FE5 F1 C6 49     iwt   r1,#49C6
000A:8FE8 1C 3D 41     ldb   (r1)
000A:8FEB D1           inc   r1
000A:8FEC D1           inc   r1
000A:8FED 13 3D 41     ldb   (r1)
000A:8FF0 E1           dec   r1
000A:8FF1 F2 96 4C     iwt   r2,#4C96
000A:8FF4 02           cache
000A:8FF5 2F 1D        move  r13,r15
000A:8FF7 15 3D 41     ldb   (r1)
000A:8FFA 21 17        move  r7,r1
000A:8FFC D1           inc   r1
000A:8FFD 3D 41        ldb   (r1)
000A:8FFF D1           inc   r1
000A:9000 95           sex
000A:9001 63           sub   r3
000A:9002 3D 9F        lmult
000A:9004 24 C0        hib
000A:9006 9E           lob
000A:9007 4D           swap
000A:9008 C4           or    r4
000A:9009 18 42        ldw   (r2)
000A:900B D2           inc   r2
000A:900C D2           inc   r2
000A:900D 90           sbk
000A:900E 68           sub   r8
000A:900F 20 18        move  r8,r0
000A:9011 55           add   r5
000A:9012 3D 37        stb   (r7)
000A:9014 3D 4A        ldb   (r10)
000A:9016 58           add   r8
000A:9017 3D 3A        stb   (r10)
000A:9019 DA           inc   r10
000A:901A 3C           loop
000A:901B DA           inc   r10
000A:901C 00           stop
000A:901D 01           nop
000A:901E C8           or    r8
000A:901F 14 02        cache
000A:9021 C8           or    r8
000A:9022 38           stw   (r8)
000A:9023 02           cache
000A:9024 80           mult  r0
000A:9025 26 01        nop
000A:9027 9C           jmp   r12
000A:9028 68           sub   r8
000A:9029 08 54        bne   907F
000A:902B 54           add   r4
000A:902C 02           cache
000A:902D 40           ldw   (r0)
000A:902E 64           sub   r4
000A:902F 01           nop
000A:9030 E8           dec   r8
000A:9031 08 05        bne   9038
000A:9033 E0           dec   r0
000A:9034 76           and   r6
000A:9035 05 C0        bra   8FF7
000A:9037 8E           mult  r14
000A:9038 01           nop
000A:9039 A0 0A        ibt   r0,#000A
000A:903B 3F DF        romb
000A:903D FE 1E 90     iwt   r14,#901E
000A:9040 22 3E 68     sub   #08
000A:9043 23 95        sex
000A:9045 24 95        sex
000A:9047 B4 13 63     sub   r3
000A:904A F8 72 33     iwt   r8,#3372
000A:904D F9 16 35     iwt   r9,#3516
000A:9050 02           cache
000A:9051 A7 09        ibt   r7,#0009
000A:9053 EF           getb
000A:9054 DE           inc   r14
000A:9055 3D 83        umult r3
000A:9057 C0           hib
000A:9058 1A 64        sub   r4
000A:905A B2 6A        sub   r10
000A:905C 20 1B        move  r11,r0
000A:905E 50           add   r0
000A:905F 58           add   r8
000A:9060 40           ldw   (r0)
000A:9061 5B           add   r11
000A:9062 3E 59        add   #09
000A:9064 1C 9E        lob
000A:9066 3F EF        getbs
000A:9068 20 1D        move  r13,r0
000A:906A DE           inc   r14
000A:906B 3D 8C        umult r12
000A:906D 50           add   r0
000A:906E C0           hib
000A:906F 50           add   r0
000A:9070 6C           sub   r12
000A:9071 1C 3D 96     div2
000A:9074 B9 5B        add   r11
000A:9076 5B           add   r11
000A:9077 1B 40        ldw   (r0)
000A:9079 F0 80 00     iwt   r0,#0080
000A:907C 6B           sub   r11
000A:907D 5C           add   r12
000A:907E 1B 61        sub   r1
000A:9080 A0 40        ibt   r0,#0040
000A:9082 6D           sub   r13
000A:9083 0D 07        bcs   908C
000A:9085 5D           add   r13
000A:9086 50           add   r0
000A:9087 1D 6D        sub   r13
000A:9089 0C 02        bcc   908D
000A:908B 60           sub   r0
000A:908C BD 3D 86     umult r6
000A:908F 50           add   r0
000A:9090 C0           hib
000A:9091 2A 60        sub   r0
000A:9093 1C EF        getb
000A:9095 DE           inc   r14
000A:9096 2F 1D        move  r13,r15
000A:9098 45           ldw   (r5)
000A:9099 5B           add   r11
000A:909A 90           sbk
000A:909B D5           inc   r5
000A:909C D5           inc   r5
000A:909D 45           ldw   (r5)
000A:909E 6A           sub   r10
000A:909F 25 3E 56     add   #06
000A:90A2 3C           loop
000A:90A3 90           sbk
000A:90A4 E7           dec   r7
000A:90A5 08 AD        bne   9054
000A:90A7 EF           getb
000A:90A8 3D A6 01     lms   r6,(0002)
000A:90AB F0 00 2A     iwt   r0,#2A00
000A:90AE 17 9F        fmult
000A:90B0 A0 58        ibt   r0,#0058
000A:90B2 25 60        sub   r0
000A:90B4 45           ldw   (r5)
000A:90B5 67           sub   r7
000A:90B6 90           sbk
000A:90B7 A0 28        ibt   r0,#0028
000A:90B9 15 55        add   r5
000A:90BB 45           ldw   (r5)
000A:90BC 57           add   r7
000A:90BD A7 10        ibt   r7,#0010
000A:90BF 67           sub   r7
000A:90C0 90           sbk
000A:90C1 3D A0 00     lms   r0,(0000)
000A:90C4 3E 60        sub   #00
000A:90C6 0B 35        bmi   90FD
000A:90C8 01           nop
000A:90C9 A0 30        ibt   r0,#0030
000A:90CB 15 55        add   r5
000A:90CD F0 8F 00     iwt   r0,#008F
000A:90D0 3D 9F        lmult
000A:90D2 F0 80 00     iwt   r0,#0080
000A:90D5 54           add   r4
000A:90D6 1A C0        hib
000A:90D8 B8 52        add   r2
000A:90DA 52           add   r2
000A:90DB 40           ldw   (r0)
000A:90DC 52           add   r2
000A:90DD 3E 59        add   #09
000A:90DF 6A           sub   r10
000A:90E0 1A 3D 96     div2
000A:90E3 B9 52        add   r2
000A:90E5 52           add   r2
000A:90E6 1B 40        ldw   (r0)
000A:90E8 F0 80 00     iwt   r0,#0080
000A:90EB 6B           sub   r11
000A:90EC 61           sub   r1
000A:90ED 1B 5A        add   r10
000A:90EF 3E AB 00     sms   (0000),r11
000A:90F2 AC 04        ibt   r12,#0004
000A:90F4 2F 1D        move  r13,r15
000A:90F6 45           ldw   (r5)
000A:90F7 5B           add   r11
000A:90F8 25 3E 58     add   #08
000A:90FB 3C           loop
000A:90FC 90           sbk
000A:90FD 00           stop
000A:90FE 01           nop
000A:90FF 3F DF        romb
000A:9101 2E 3E 54     add   #04
000A:9104 F1 CB 49     iwt   r1,#49CB
000A:9107 AC 0D        ibt   r12,#000D
000A:9109 F0 00 01     iwt   r0,#0100
000A:910C 67           sub   r7
000A:910D 0B 03        bmi   9112
000A:910F 57           add   r7
000A:9110 27 10        move  r0,r7
000A:9112 20 18        move  r8,r0
000A:9114 B7 03        lsr
000A:9116 03           lsr
000A:9117 03           lsr
000A:9118 17 03        lsr
000A:911A A2 B4        ibt   r2,#FFB4
000A:911C A3 00        ibt   r3,#0000
000A:911E A9 38        ibt   r9,#0038
000A:9120 02           cache
000A:9121 2F 1D        move  r13,r15
000A:9123 EF           getb
000A:9124 DE           inc   r14
000A:9125 4D           swap
000A:9126 28 16        move  r6,r8
000A:9128 9F           fmult
000A:9129 3D 31        stb   (r1)
000A:912B 3F EF        getbs
000A:912D 69           sub   r9
000A:912E 27 16        move  r6,r7
000A:9130 3D 9F        lmult
000A:9132 24 C0        hib
000A:9134 9E           lob
000A:9135 4D           swap
000A:9136 C4           or    r4
000A:9137 59           add   r9
000A:9138 14 62        sub   r2
000A:913A 0A 16        bpl   9152
000A:913C DE           inc   r14
000A:913D B2 63        sub   r3
000A:913F 0A 0F        bpl   9150
000A:9141 B1 15 3E 62  sub   #02
000A:9145 13 3D 45     ldb   (r5)
000A:9148 B4 4F        not
000A:914A D0           inc   r0
000A:914B 03           lsr
000A:914C 03           lsr
000A:914D 53           add   r3
000A:914E 3D 35        stb   (r5)
000A:9150 22 10        move  r0,r2
000A:9152 D1           inc   r1
000A:9153 3D 31        stb   (r1)
000A:9155 20 13        move  r3,r0
000A:9157 3C           loop
000A:9158 D1           inc   r1
000A:9159 FA 00 01     iwt   r10,#0100
000A:915C BA 67        sub   r7
000A:915E 50           add   r0
000A:915F 50           add   r0
000A:9160 6A           sub   r10
000A:9161 0C 03        bcc   9166
000A:9163 5A           add   r10
000A:9164 2A 10        move  r0,r10
000A:9166 20 16        move  r6,r0
000A:9168 F0 00 47     iwt   r0,#4700
000A:916B 9F           fmult
000A:916C A3 38        ibt   r3,#0038
000A:916E 53           add   r3
000A:916F F1 C8 49     iwt   r1,#49C8
000A:9172 3D 31        stb   (r1)
000A:9174 F0 00 08     iwt   r0,#0800
000A:9177 9F           fmult
000A:9178 13 53        add   r3
000A:917A F0 00 01     iwt   r0,#0100
000A:917D 68           sub   r8
000A:917E F6 00 10     iwt   r6,#1000
000A:9181 9F           fmult
000A:9182 53           add   r3
000A:9183 D1           inc   r1
000A:9184 D1           inc   r1
000A:9185 3D 31        stb   (r1)
000A:9187 F2 E6 49     iwt   r2,#49E6
000A:918A 3D 32        stb   (r2)
000A:918C A0 20        ibt   r0,#0020
000A:918E 68           sub   r8
000A:918F 0A 03        bpl   9194
000A:9191 58           add   r8
000A:9192 28 10        move  r0,r8
000A:9194 F6 00 40     iwt   r6,#4000
000A:9197 9F           fmult
000A:9198 E2           dec   r2
000A:9199 3D 32        stb   (r2)
000A:919B 4F           not
000A:919C D0           inc   r0
000A:919D E1           dec   r1
000A:919E 3D 31        stb   (r1)
000A:91A0 00           stop
000A:91A1 01           nop
000A:91A2 22 3E 68     sub   #08
000A:91A5 B2 52        add   r2
000A:91A7 F8 72 33     iwt   r8,#3372
000A:91AA 58           add   r8
000A:91AB 40           ldw   (r0)
000A:91AC 52           add   r2
000A:91AD 3E 59        add   #09
000A:91AF 9E           lob
000A:91B0 20 1C        move  r12,r0
000A:91B2 3D 83        umult r3
000A:91B4 C0           hib
000A:91B5 50           add   r0
000A:91B6 6C           sub   r12
000A:91B7 1C 3D 96     div2
000A:91BA F0 16 35     iwt   r0,#3516
000A:91BD 52           add   r2
000A:91BE 52           add   r2
000A:91BF 1B 40        ldw   (r0)
000A:91C1 F0 80 00     iwt   r0,#0080
000A:91C4 6B           sub   r11
000A:91C5 5C           add   r12
000A:91C6 61           sub   r1
000A:91C7 00           stop
000A:91C8 01           nop
000A:91C9 60           sub   r0
000A:91CA 20 17        move  r7,r0
000A:91CC AC 20        ibt   r12,#0020
000A:91CE FD D2 91     iwt   r13,#91D2
000A:91D1 27 57        add   r7
000A:91D3 24 54        add   r4
000A:91D5 04           rol
000A:91D6 66           sub   r6
000A:91D7 0C 03        bcc   91DC
000A:91D9 56           add   r6
000A:91DA 66           sub   r6
000A:91DB D7           inc   r7
000A:91DC 3C           loop
000A:91DD 27 00        stop
000A:91DF 01           nop
000A:91E0 A0 08        ibt   r0,#0008
000A:91E2 3F DF        romb
000A:91E4 B1 03        lsr
000A:91E6 03           lsr
000A:91E7 03           lsr
000A:91E8 03           lsr
000A:91E9 9E           lob
000A:91EA 17 3D 82     umult r2
000A:91ED B1 3E 7F     and   #0F
000A:91F0 50           add   r0
000A:91F1 3F 88        umult #08
000A:91F3 FE 18 AE     iwt   r14,#AE18
000A:91F6 1E 5E        add   r14
000A:91F8 3F EF        getbs
000A:91FA 50           add   r0
000A:91FB 16 50        add   r0
000A:91FD B7 11 9F     fmult
000A:9200 B5 3D 9F     lmult
000A:9203 24 C0        hib
000A:9205 9E           lob
000A:9206 4D           swap
000A:9207 13 C4        or    r4
000A:9209 A0 40        ibt   r0,#0040
000A:920B 1E 5E        add   r14
000A:920D 3F EF        getbs
000A:920F 50           add   r0
000A:9210 16 50        add   r0
000A:9212 B7 12 9F     fmult
000A:9215 B5 3D 9F     lmult
000A:9218 24 C0        hib
000A:921A 9E           lob
000A:921B 4D           swap
000A:921C 14 C4        or    r4
000A:921E 00           stop
000A:921F 01           nop

; ; sprite clipping table (8 bytes per clipping type)
; DATA_0A9220:         db $08, $00, $08, $00, $06, $00, $06, $00
; DATA_0A9228:         db $08, $00, $08, $00, $07, $00, $0C, $00
; DATA_0A9230:         db $08, $00, $08, $00, $0C, $00, $0C, $00
; DATA_0A9238:         db $08, $00, $FC, $FF, $06, $00, $04, $00
; DATA_0A9240:         db $08, $00, $03, $00, $08, $00, $0C, $00
; DATA_0A9248:         db $08, $00, $08, $00, $00, $00, $18, $00
; DATA_0A9250:         db $08, $00, $04, $00, $06, $00, $0A, $00
; DATA_0A9258:         db $08, $00, $F9, $FF, $10, $00, $16, $00
; DATA_0A9260:         db $08, $00, $00, $00, $06, $00, $0E, $00
; DATA_0A9268:         db $08, $00, $08, $00, $0A, $00, $0A, $00
; DATA_0A9270:         db $08, $00, $08, $00, $07, $00, $07, $00
; DATA_0A9278:         db $08, $00, $10, $00, $0C, $00, $08, $00
; DATA_0A9280:         db $08, $00, $08, $00, $18, $00, $18, $00
; DATA_0A9288:         db $08, $00, $F8, $FF, $06, $00, $12, $00
; DATA_0A9290:         db $08, $00, $04, $00, $06, $00, $0C, $00
; DATA_0A9298:         db $08, $00, $08, $00, $02, $00, $02, $00
; DATA_0A92A0:         db $08, $00, $08, $00, $08, $00, $0C, $00
; DATA_0A92A8:         db $08, $00, $00, $00, $0E, $00, $16, $00
; DATA_0A92B0:         db $08, $00, $08, $00, $0A, $00, $0C, $00
; DATA_0A92B8:         db $08, $00, $08, $00, $20, $00, $20, $00
; DATA_0A92C0:         db $08, $00, $08, $00, $18, $00, $08, $00
; DATA_0A92C8:         db $08, $00, $08, $00, $08, $00, $18, $00
; DATA_0A92D0:         db $08, $00, $04, $00, $06, $00, $0A, $00
; DATA_0A92D8:         db $08, $00, $00, $00, $0C, $00, $0E, $00
; DATA_0A92E0:         db $08, $00, $0E, $00, $06, $00, $0A, $00
; DATA_0A92E8:         db $08, $00, $08, $00, $11, $00, $18, $00
; DATA_0A92F0:         db $08, $00, $08, $00, $18, $00, $18, $00
; DATA_0A92F8:         db $08, $00, $08, $00, $10, $00, $10, $00
; DATA_0A9300:         db $08, $00, $08, $00, $0C, $00, $0C, $00
; DATA_0A9308:         db $08, $00, $08, $00, $04, $00, $04, $00
; DATA_0A9310:         db $08, $00, $09, $00, $08, $00, $0A, $00
; DATA_0A9318:         db $08, $00, $0C, $00, $0C, $00, $0C, $00

; ; some sprite table (bit 8 makes sprites inedible if set)
; DATA_0A9320:         dw $0040, $0060, $0060, $0062
; DATA_0A9328:         dw $0060, $8420, $0262, $8420
; DATA_0A9330:         dw $0060, $8420, $7660, $68A0
; DATA_0A9338:         dw $687A, $0060, $0060, $0060
; DATA_0A9340:         dw $0160, $0060, $0060, $0060
; DATA_0A9348:         dw $0060, $0200, $0560, $4400
; DATA_0A9350:         dw $027F, $0000, $0040, $0040
; DATA_0A9358:         dw $4480, $0042, $4E00, $0460
; DATA_0A9360:         dw $FC20, $0462, $003C, $003C
; DATA_0A9368:         dw $003C, $003C, $0037, $023C
; DATA_0A9370:         dw $003C, $0037, $0037, $0037
; DATA_0A9378:         dw $EC43, $EC40, $E840, $0260
; DATA_0A9380:         dw $4E00, $6C00, $0260, $4E60
; DATA_0A9388:         dw $0044, $0140, $0040, $2400
; DATA_0A9390:         dw $68A0, $0040, $7E00, $7E00
; DATA_0A9398:         dw $6C7A, $0060, $0060, $EC40
; DATA_0A93A0:         dw $0460, $0460, $0060, $4E02
; DATA_0A93A8:         dw $4E02, $0462, $0060, $0660
; DATA_0A93B0:         dw $0060, $00A0, $68A0, $68A0
; DATA_0A93B8:         dw $6C60, $0060, $0060, $0060
; DATA_0A93C0:         dw $0040, $0040, $0060, $0060
; DATA_0A93C8:         dw $BE00, $0060, $0060, $0160
; DATA_0A93D0:         dw $EE00, $0060, $68A0, $FC20
; DATA_0A93D8:         dw $0060, $B46A, $0040, $0040
; DATA_0A93E0:         dw $6860, $F620, $4E00, $7480
; DATA_0A93E8:         dw $0060, $047E, $BE00, $C060
; DATA_0A93F0:         dw $F46A, $F46A, $F46A, $0460
; DATA_0A93F8:         dw $0060, $6CA0, $6CA0, $0060
; DATA_0A9400:         dw $74A9, $6CA9, $6E60, $0067
; DATA_0A9408:         dw $7E00, $6860, $68A0, $68A0
; DATA_0A9410:         dw $F466, $F466, $F466, $6860
; DATA_0A9418:         dw $6860, $6860, $0060, $6860
; DATA_0A9420:         dw $6C20, $6C20, $6CA0, $0060
; DATA_0A9428:         dw $007B, $7E00, $8060, $0060
; DATA_0A9430:         dw $0060, $0060, $0060, $6C00
; DATA_0A9438:         dw $0060, $7C00, $0662, $0060
; DATA_0A9440:         dw $0160, $0060, $3420, $0060
; DATA_0A9448:         dw $B46A, $0460, $0460, $0060
; DATA_0A9450:         dw $0060, $6C00, $F060, $7E00
; DATA_0A9458:         dw $0060, $0060, $04A2, $6EA8
; DATA_0A9460:         dw $0460, $B620, $6861, $0060
; DATA_0A9468:         dw $0060, $0060, $6C60, $6860
; DATA_0A9470:         dw $6C60, $0060, $0060, $0060
; DATA_0A9478:         dw $0060, $B460, $6E6C, $0460
; DATA_0A9480:         dw $0460, $0460, $0460, $0673
; DATA_0A9488:         dw $0460, $0460, $0460, $0460
; DATA_0A9490:         dw $0460, $0460, $0460, $0460
; DATA_0A9498:         dw $0460, $0460, $0460, $0460
; DATA_0A94A0:         dw $0460, $0460, $0460, $0460
; DATA_0A94A8:         dw $0460, $0460, $0460, $0460
; DATA_0A94B0:         dw $0460, $0460, $0060, $0460
; DATA_0A94B8:         dw $0460, $0020, $0060, $0060
; DATA_0A94C0:         dw $007C, $0060, $0060, $4EBA
; DATA_0A94C8:         dw $4EA2, $0060, $0160, $0560
; DATA_0A94D0:         dw $0060, $0420, $0460, $0060
; DATA_0A94D8:         dw $04A2, $0060, $0060, $6E00
; DATA_0A94E0:         dw $6E00, $6C80, $06A0, $06A0
; DATA_0A94E8:         dw $6860, $6C00, $260F, $7482
; DATA_0A94F0:         dw $6C20, $6C00, $7C00, $7C00
; DATA_0A94F8:         dw $6E00, $6E00, $6860, $6860
; DATA_0A9500:         dw $6C20, $0060, $4C2D, $4E20
; DATA_0A9508:         dw $0060, $78AE, $7C82, $7480
; DATA_0A9510:         dw $6CA0, $6E1D, $0462, $6C20
; DATA_0A9518:         dw $6C20, $4C10, $6C6F, $F462
; DATA_0A9520:         dw $0402, $0060, $0060, $0060
; DATA_0A9528:         dw $7E80, $0060, $0060, $066F
; DATA_0A9530:         dw $7C00, $6C20, $6C20, $6C20
; DATA_0A9538:         dw $68A2, $0060, $0062, $6860
; DATA_0A9540:         dw $0462, $0600, $0060, $7E00
; DATA_0A9548:         dw $006F, $043E, $00A0, $0060
; DATA_0A9550:         dw $0062, $7622, $7C8E, $7C00
; DATA_0A9558:         dw $0600, $6C00, $0020, $0020
; DATA_0A9560:         dw $0422, $0062, $0462, $0462
; DATA_0A9568:         dw $7401, $0460, $6CB1, $6CA0
; DATA_0A9570:         dw $06A0, $0400, $4E00, $4E32
; DATA_0A9578:         dw $6E20, $0060, $0060, $6CA0
; DATA_0A9580:         dw $6CA0, $0060, $7E0F, $4E00
; DATA_0A9588:         dw $06A2, $7E80, $7E80, $0460
; DATA_0A9590:         dw $0460, $0460, $0460, $0060
; DATA_0A9598:         dw $04B4, $FE00, $FE00, $7E00
; DATA_0A95A0:         dw $7E00, $7E00, $7E00, $74A0
; DATA_0A95A8:         dw $04B5, $4E20, $4E20, $007C
; DATA_0A95B0:         dw $0060, $0460, $0460, $0460
; DATA_0A95B8:         dw $0460, $0460, $0460, $0460
; DATA_0A95C0:         dw $0460, $0460, $0436, $6C20
; DATA_0A95C8:         dw $0060, $7422, $6E82, $4C00
; DATA_0A95D0:         dw $74A2, $7C2E, $7C2E, $6E00
; DATA_0A95D8:         dw $3440, $3440, $0060, $3060
; DATA_0A95E0:         dw $3060, $0060, $3440, $6E00
; DATA_0A95E8:         dw $6600, $6E00, $4C00, $0620
; DATA_0A95F0:         dw $0620, $6618, $6618, $4E38
; DATA_0A95F8:         dw $4E38, $4E38, $4E38, $4E38
; DATA_0A9600:         dw $C660, $ACA0, $ACA0, $0420
; DATA_0A9608:         dw $0420, $0460, $0461, $0460
; DATA_0A9610:         dw $0420, $0460, $0420, $0420
; DATA_0A9618:         dw $0420, $0420, $0460, $0460
; DATA_0A9620:         dw $0060, $4416, $0060, $0060
; DATA_0A9628:         dw $2600, $0060, $0060, $0060
; DATA_0A9630:         dw $0060, $0060, $0060, $0060
; DATA_0A9638:         dw $0060, $0060, $0060, $0062
; DATA_0A9640:         dw $6C40, $0060, $4C00, $0160
; DATA_0A9648:         dw $6C40, $0060, $0060, $0060
; DATA_0A9650:         dw $0060, $04A0, $4E20, $2600
; DATA_0A9658:         dw $2600, $4E20, $6600, $4E20
; DATA_0A9660:         dw $04A0, $04A0, $0620, $6620
; DATA_0A9668:         dw $F479, $C200, $C200, $C200
; DATA_0A9670:         dw $C200, $C200, $6EA0, $6E20
; DATA_0A9678:         dw $0060, $46A0, $6CA0, $047E
; DATA_0A9680:         dw $0060, $006F, $0400, $0240
; DATA_0A9688:         dw $0060, $0440, $0040, $0660
; DATA_0A9690:         dw $0060, $0660

; ; freespace
; DATA_0A9694:         dw $FFFF, $FFFF
; DATA_0A9698:         dw $FFFF, $FFFF, $FFFF, $FFFF
; DATA_0A96A0:         dw $FFFF, $FFFF, $FFFF, $FFFF
; DATA_0A96A8:         dw $FFFF, $FFFF, $FFFF, $FFFF
; DATA_0A96B0:         dw $FFFF, $FFFF, $FFFF, $FFFF
; DATA_0A96B8:         dw $FFFF, $FFFF, $FFFF, $FFFF
; DATA_0A96C0:         dw $FFFF, $FFFF, $FFFF, $FFFF
; DATA_0A96C8:         dw $FFFF, $FFFF, $FFFF, $FFFF
; DATA_0A96D0:         dw $FFFF, $FFFF, $FFFF, $FFFF
; DATA_0A96D8:         dw $FFFF, $FFFF, $FFFF, $FFFF
; DATA_0A96E0:         dw $FFFF, $FFFF, $FFFF, $FFFF
; DATA_0A96E8:         dw $FFFF, $FFFF, $FFFF, $FFFF
; DATA_0A96F0:         dw $FFFF, $FFFF, $FFFF, $FFFF
; DATA_0A96F8:         dw $FFFF, $FFFF, $FFFF, $FFFF
; DATA_0A9700:         dw $FFFF, $FFFF, $FFFF, $FFFF
; DATA_0A9708:         dw $FFFF, $FFFF, $FFFF, $FFFF
; DATA_0A9710:         dw $FFFF, $FFFF, $FFFF, $FFFF
; DATA_0A9718:         dw $FFFF, $FFFF, $FFFF

; ; sprite table (determines if sprites stay on ledges?)
; DATA_0A971E:         dw $4484, $4008, $2000, $4003
; DATA_0A9726:         dw $4000, $60A0, $2040, $60A0
; DATA_0A972E:         dw $2000, $60A0, $0959, $2021
; DATA_0A9736:         dw $20A0, $2000, $2000, $2000
; DATA_0A973E:         dw $2000, $2000, $4008, $2000
; DATA_0A9746:         dw $2000, $205C, $2000, $0841
; DATA_0A974E:         dw $205E, $2040, $401E, $405C
; DATA_0A9756:         dw $08A5, $405E, $0E81, $2000
; DATA_0A975E:         dw $0801, $4003, $205C, $205C
; DATA_0A9766:         dw $205C, $205C, $205C, $6041
; DATA_0A976E:         dw $2081, $205A, $205C, $205C
; DATA_0A9776:         dw $0040, $4040, $2060, $2000
; DATA_0A977E:         dw $0941, $0941, $2000, $0000
; DATA_0A9786:         dw $2041, $2040, $2041, $0881
; DATA_0A978E:         dw $0040, $4040, $880A, $880A
; DATA_0A9796:         dw $2221, $4000, $4000, $4040
; DATA_0A979E:         dw $2001, $2000, $2000, $0857
; DATA_0A97A6:         dw $0857, $2000, $2040, $A041
; DATA_0A97AE:         dw $A000, $2481, $2681, $2681
; DATA_0A97B6:         dw $0001, $2040, $4008, $2040
; DATA_0A97BE:         dw $4040, $4040, $4000, $2040
; DATA_0A97C6:         dw $8841, $405B, $405B, $4000
; DATA_0A97CE:         dw $0881, $2040, $0000, $0801
; DATA_0A97D6:         dw $4000, $4040, $4040, $4040
; DATA_0A97DE:         dw $203B, $604F, $0E81, $0C01
; DATA_0A97E6:         dw $405B, $2000, $8841, $2000
; DATA_0A97EE:         dw $4040, $4040, $4040, $4000
; DATA_0A97F6:         dw $4001, $080A, $080A, $4001
; DATA_0A97FE:         dw $0843, $0000, $0006, $4040
; DATA_0A9806:         dw $0D41, $0040, $000B, $000B
; DATA_0A980E:         dw $2041, $2041, $2041, $0040
; DATA_0A9816:         dw $0021, $0040, $4040, $4040
; DATA_0A981E:         dw $0020, $0021, $0041, $2000
; DATA_0A9826:         dw $2000, $0941, $2040, $2041
; DATA_0A982E:         dw $2041, $4040, $4040, $0061
; DATA_0A9836:         dw $2016, $0000, $2019, $0000
; DATA_0A983E:         dw $4000, $C000, $0841, $4008
; DATA_0A9846:         dw $404C, $4040, $4040, $4000
; DATA_0A984E:         dw $4000, $0018, $4000, $0D41
; DATA_0A9856:         dw $0040, $4001, $400E, $0801
; DATA_0A985E:         dw $2000, $4041, $2018, $0801
; DATA_0A9866:         dw $0801, $2000, $2000, $2000
; DATA_0A986E:         dw $2000, $2000, $2000, $2000
; DATA_0A9876:         dw $2000, $4040, $2056, $2020
; DATA_0A987E:         dw $2020, $2020, $2020, $2000
; DATA_0A9886:         dw $2020, $2020, $2020, $2020
; DATA_0A988E:         dw $2020, $2020, $2020, $2020
; DATA_0A9896:         dw $2020, $2020, $2020, $2020
; DATA_0A989E:         dw $2020, $2020, $2020, $2020
; DATA_0A98A6:         dw $2020, $2020, $2020, $2020
; DATA_0A98AE:         dw $2020, $2020, $4008, $2020
; DATA_0A98B6:         dw $2020, $2061, $2000, $2000
; DATA_0A98BE:         dw $2000, $2000, $2401, $001F
; DATA_0A98C6:         dw $0003, $4000, $4000, $2000
; DATA_0A98CE:         dw $4000, $0012, $2001, $4000
; DATA_0A98D6:         dw $4011, $4000, $4000, $84A1
; DATA_0A98DE:         dw $8000, $04A0, $0947, $0947
; DATA_0A98E6:         dw $0881, $0858, $0800, $0041
; DATA_0A98EE:         dw $0800, $0841, $0000, $0000
; DATA_0A98F6:         dw $0861, $0861, $3001, $1001
; DATA_0A98FE:         dw $0000, $2001, $0801, $0841
; DATA_0A9906:         dw $2001, $0955, $0943, $0941
; DATA_0A990E:         dw $0801, $2018, $2000, $0941
; DATA_0A9916:         dw $0941, $0C99, $0000, $44A3
; DATA_0A991E:         dw $A043, $4000, $4000, $2000
; DATA_0A9926:         dw $0006, $2000, $2000, $205D
; DATA_0A992E:         dw $0941, $0841, $0941, $0841
; DATA_0A9936:         dw $201C, $2000, $4003, $0000
; DATA_0A993E:         dw $2000, $1149, $2013, $0159
; DATA_0A9946:         dw $0000, $E481, $401C, $4000
; DATA_0A994E:         dw $4000, $8E83, $0895, $0000
; DATA_0A9956:         dw $C000, $0018, $5003, $5003
; DATA_0A995E:         dw $5003, $4000, $2003, $2003
; DATA_0A9966:         dw $0E96, $2000, $401C, $2000
; DATA_0A996E:         dw $2000, $0000, $0C81, $0957
; DATA_0A9976:         dw $0000, $2000, $2000, $0000
; DATA_0A997E:         dw $0000, $4008, $0841, $0E81
; DATA_0A9986:         dw $2083, $0000, $0000, $4000
; DATA_0A998E:         dw $4000, $4000, $4000, $0000
; DATA_0A9996:         dw $4000, $0000, $0000, $8800
; DATA_0A999E:         dw $8800, $8800, $8800, $0000
; DATA_0A99A6:         dw $4000, $0053, $0053, $2000
; DATA_0A99AE:         dw $4001, $2000, $2000, $2000
; DATA_0A99B6:         dw $2000, $2000, $2000, $2000
; DATA_0A99BE:         dw $2000, $2000, $0000, $0000
; DATA_0A99C6:         dw $2000, $0003, $0000, $0800
; DATA_0A99CE:         dw $0003, $0941, $0941, $0941
; DATA_0A99D6:         dw $4000, $4000, $405B, $4000
; DATA_0A99DE:         dw $4000, $2000, $4000, $0041
; DATA_0A99E6:         dw $0841, $8801, $8000, $1858
; DATA_0A99EE:         dw $1858, $0C96, $0E96, $1C96
; DATA_0A99F6:         dw $1E96, $1856, $1800, $1800
; DATA_0A99FE:         dw $0000, $2000, $2000, $0061
; DATA_0A9A06:         dw $0061, $0060, $0061, $2063
; DATA_0A9A0E:         dw $2061, $2061, $2061, $2061
; DATA_0A9A16:         dw $2061, $2061, $2063, $2000
; DATA_0A9A1E:         dw $4000, $0E81, $2000, $2000
; DATA_0A9A26:         dw $1E81, $401B, $401B, $401B
; DATA_0A9A2E:         dw $401B, $401B, $401B, $401B
; DATA_0A9A36:         dw $401B, $401B, $401B, $401B
; DATA_0A9A3E:         dw $2026, $2142, $0E81, $4000
; DATA_0A9A46:         dw $0000, $4000, $4000, $2000
; DATA_0A9A4E:         dw $2000, $0000, $0941, $1841
; DATA_0A9A56:         dw $10A0, $0000, $0841, $0000
; DATA_0A9A5E:         dw $0000, $0000, $E041, $0041
; DATA_0A9A66:         dw $4000, $0C98, $0C98, $0C98
; DATA_0A9A6E:         dw $0C98, $0C98, $0000, $0000
; DATA_0A9A76:         dw $2041, $2499, $201E, $2000
; DATA_0A9A7E:         dw $2000, $0000, $E061, $0441
; DATA_0A9A86:         dw $0000, $0441, $0001, $0441
; DATA_0A9A8E:         dw $0000, $0481, $FFFF, $FFFF
; DATA_0A9A96:         dw $FFFF, $FFFF, $FFFF, $FFFF
; DATA_0A9A9E:         dw $FFFF, $FFFF, $FFFF, $FFFF
; DATA_0A9AA6:         dw $FFFF, $FFFF, $FFFF, $FFFF
; DATA_0A9AAE:         dw $FFFF, $FFFF, $FFFF, $FFFF
; DATA_0A9AB6:         dw $FFFF, $FFFF, $FFFF, $FFFF
; DATA_0A9ABE:         dw $FFFF, $FFFF, $FFFF, $FFFF
; DATA_0A9AC6:         dw $FFFF, $FFFF, $FFFF, $FFFF
; DATA_0A9ACE:         dw $FFFF, $FFFF, $FFFF, $FFFF
; DATA_0A9AD6:         dw $FFFF, $FFFF, $FFFF, $FFFF
; DATA_0A9ADE:         dw $FFFF, $FFFF, $FFFF, $FFFF
; DATA_0A9AE6:         dw $FFFF, $FFFF, $FFFF, $FFFF
; DATA_0A9AEE:         dw $FFFF, $FFFF, $FFFF, $FFFF
; DATA_0A9AF6:         dw $FFFF, $FFFF, $FFFF, $FFFF
; DATA_0A9AFE:         dw $FFFF, $FFFF, $FFFF, $FFFF
; DATA_0A9B06:         dw $FFFF, $FFFF, $FFFF, $FFFF
; DATA_0A9B0E:         dw $FFFF, $FFFF, $FFFF, $FFFF
; DATA_0A9B16:         dw $FFFF, $FFFF, $FFFF

; ; sprite table: feeds into $7040,x
; DATA_0A9B1C:         dw $2009, $2005, $2001, $2005
; DATA_0A9B24:         dw $0804, $0904, $0904, $0904
; DATA_0A9B2C:         dw $0004, $0904, $3055, $0804
; DATA_0A9B34:         dw $8001, $6801, $0002, $0002
; DATA_0A9B3C:         dw $6001, $2001, $2005, $0002
; DATA_0A9B44:         dw $2001, $0800, $2001, $5001
; DATA_0A9B4C:         dw $0904, $0804, $2001, $1005
; DATA_0A9B54:         dw $2115, $2001, $1979, $2801
; DATA_0A9B5C:         dw $3001, $2805, $0804, $0804
; DATA_0A9B64:         dw $0804, $0804, $2005, $0800
; DATA_0A9B6C:         dw $2005, $2005, $2005, $2005
; DATA_0A9B74:         dw $5001, $0002, $2001, $0804
; DATA_0A9B7C:         dw $2951, $0954, $1805, $2855
; DATA_0A9B84:         dw $2801, $1901, $0002, $0954
; DATA_0A9B8C:         dw $0804, $000A, $3155, $3155
; DATA_0A9B94:         dw $2801, $0802, $4005, $0002
; DATA_0A9B9C:         dw $2801, $7001, $0006, $4175
; DATA_0A9BA4:         dw $4175, $3001, $0002, $2001
; DATA_0A9BAC:         dw $3801, $0006, $3005, $3005
; DATA_0A9BB4:         dw $3105, $2005, $2005, $7006
; DATA_0A9BBC:         dw $0002, $0002, $2001, $3801
; DATA_0A9BC4:         dw $3D55, $8809, $6809, $3801
; DATA_0A9BCC:         dw $2801, $0804, $2005, $3001
; DATA_0A9BD4:         dw $0004, $0804, $0002, $0002
; DATA_0A9BDC:         dw $0804, $1801, $3155, $3155
; DATA_0A9BE4:         dw $8809, $0804, $3D51, $0004
; DATA_0A9BEC:         dw $2005, $2005, $2005, $0800
; DATA_0A9BF4:         dw $2005, $2155, $2155, $2005
; DATA_0A9BFC:         dw $4979, $4001, $0804, $6001
; DATA_0A9C04:         dw $0954, $2105, $3145, $3145
; DATA_0A9C0C:         dw $2945, $2945, $2945, $2155
; DATA_0A9C14:         dw $2155, $2155, $0002, $6005
; DATA_0A9C1C:         dw $2145, $2145, $4105, $4001
; DATA_0A9C24:         dw $0006, $0974, $2005, $0800
; DATA_0A9C2C:         dw $0804, $1805, $1805, $2085
; DATA_0A9C34:         dw $2001, $0106, $3001, $8101
; DATA_0A9C3C:         dw $6001, $6001, $1905, $2005
; DATA_0A9C44:         dw $2009, $2005, $2005, $2005
; DATA_0A9C4C:         dw $2005, $0904, $3009, $0950
; DATA_0A9C54:         dw $3901, $2005, $2005, $3955
; DATA_0A9C5C:         dw $5005, $0800, $2005, $3001
; DATA_0A9C64:         dw $3001, $600D, $0801, $2801
; DATA_0A9C6C:         dw $0801, $8001, $0805, $0800
; DATA_0A9C74:         dw $2005, $2005, $3101, $2805
; DATA_0A9C7C:         dw $2805, $2805, $2805, $0006
; DATA_0A9C84:         dw $2805, $0006, $2805, $2805
; DATA_0A9C8C:         dw $2805, $2805, $2805, $2805
; DATA_0A9C94:         dw $2805, $2805, $2805, $2805
; DATA_0A9C9C:         dw $2805, $2805, $2805, $2805
; DATA_0A9CA4:         dw $2805, $2805, $2805, $2805
; DATA_0A9CAC:         dw $2805, $2805, $8005, $2805
; DATA_0A9CB4:         dw $2805, $3805, $2001, $8001
; DATA_0A9CBC:         dw $0006, $0006, $2001, $C975
; DATA_0A9CC4:         dw $2175, $0002, $6801, $1801
; DATA_0A9CCC:         dw $2005, $3802, $4805, $0002
; DATA_0A9CD4:         dw $8005, $0002, $0002, $1375
; DATA_0A9CDC:         dw $0B74, $3375, $3101, $3101
; DATA_0A9CE4:         dw $1805, $0904, $2855, $3151
; DATA_0A9CEC:         dw $4955, $4955, $1975, $1175
; DATA_0A9CF4:         dw $3945, $3945, $1001, $2001
; DATA_0A9CFC:         dw $0900, $1805, $4975, $0974
; DATA_0A9D04:         dw $1805, $3155, $3125, $3125
; DATA_0A9D0C:         dw $3155, $0904, $2005, $4955
; DATA_0A9D14:         dw $4155, $3955, $2005, $3801
; DATA_0A9D1C:         dw $3905, $6001, $C001, $1009
; DATA_0A9D24:         dw $2145, $0801, $0801, $0804
; DATA_0A9D2C:         dw $2175, $2975, $2975, $2975
; DATA_0A9D34:         dw $8801, $1801, $2005, $3805
; DATA_0A9D3C:         dw $2905, $3905, $0904, $3175
; DATA_0A9D44:         dw $1105, $0800, $2005, $0804
; DATA_0A9D4C:         dw $2005, $2101, $3955, $2901
; DATA_0A9D54:         dw $1051, $0904, $2001, $2001
; DATA_0A9D5C:         dw $2001, $0002, $2801, $2801
; DATA_0A9D64:         dw $1079, $3801, $7001, $2101
; DATA_0A9D6C:         dw $000A, $49D1, $1959, $4159
; DATA_0A9D74:         dw $0000, $3801, $0000, $1829
; DATA_0A9D7C:         dw $1825, $2005, $1175, $2979
; DATA_0A9D84:         dw $5802, $2155, $2155, $9002
; DATA_0A9D8C:         dw $4802, $D802, $B002, $0804
; DATA_0A9D94:         dw $4005, $1975, $1971, $2875
; DATA_0A9D9C:         dw $2875, $2875, $2875, $A906
; DATA_0A9DA4:         dw $4005, $1915, $1915, $0006
; DATA_0A9DAC:         dw $2005, $3005, $3005, $3005
; DATA_0A9DB4:         dw $3005, $3005, $3005, $3005
; DATA_0A9DBC:         dw $3005, $3005, $3955, $4955
; DATA_0A9DC4:         dw $2401, $5155, $2151, $1905
; DATA_0A9DCC:         dw $5155, $3925, $3925, $3955
; DATA_0A9DD4:         dw $0904, $0904, $8809, $4001
; DATA_0A9DDC:         dw $4001, $0000, $8901, $0804
; DATA_0A9DE4:         dw $1875, $1855, $3101, $0974
; DATA_0A9DEC:         dw $0974, $3155, $3155, $3155
; DATA_0A9DF4:         dw $3155, $5955, $5959, $595D
; DATA_0A9DFC:         dw $2105, $A801, $1802, $3005
; DATA_0A9E04:         dw $2005, $2005, $4005, $3805
; DATA_0A9E0C:         dw $3E05, $2005, $2005, $2005
; DATA_0A9E14:         dw $2005, $2005, $6805, $1805
; DATA_0A9E1C:         dw $2005, $2975, $0804, $0804
; DATA_0A9E24:         dw $1975, $1805, $1805, $1805
; DATA_0A9E2C:         dw $1805, $1805, $1805, $1805
; DATA_0A9E34:         dw $1805, $1805, $1805, $2005
; DATA_0A9E3C:         dw $2005, $0805, $2959, $6001
; DATA_0A9E44:         dw $4005, $2005, $800D, $1805
; DATA_0A9E4C:         dw $1805, $2005, $1155, $1975
; DATA_0A9E54:         dw $2975, $4155, $2155, $4151
; DATA_0A9E5C:         dw $380E, $200E, $1801, $2155
; DATA_0A9E64:         dw $3005, $3875, $3875, $3875
; DATA_0A9E6C:         dw $3875, $3875, $B006, $3951
; DATA_0A9E74:         dw $1005, $3001, $1805, $0804
; DATA_0A9E7C:         dw $0800, $7101, $0904, $3101
; DATA_0A9E84:         dw $1101, $3101, $2101, $3851
; DATA_0A9E8C:         dw $0100, $3811

; ; freespace
; DATA_0A9E90:         dw $FFFF, $FFFF
; DATA_0A9E94:         dw $FFFF, $FFFF, $FFFF, $FFFF
; DATA_0A9E9C:         dw $FFFF, $FFFF, $FFFF, $FFFF
; DATA_0A9EA4:         dw $FFFF, $FFFF, $FFFF, $FFFF
; DATA_0A9EAC:         dw $FFFF, $FFFF, $FFFF, $FFFF
; DATA_0A9EB4:         dw $FFFF, $FFFF, $FFFF, $FFFF
; DATA_0A9EBC:         dw $FFFF, $FFFF, $FFFF, $FFFF
; DATA_0A9EC4:         dw $FFFF, $FFFF, $FFFF, $FFFF
; DATA_0A9ECC:         dw $FFFF, $FFFF, $FFFF, $FFFF
; DATA_0A9ED4:         dw $FFFF, $FFFF, $FFFF, $FFFF
; DATA_0A9EDC:         dw $FFFF, $FFFF, $FFFF, $FFFF
; DATA_0A9EE4:         dw $FFFF, $FFFF, $FFFF, $FFFF
; DATA_0A9EEC:         dw $FFFF, $FFFF, $FFFF, $FFFF
; DATA_0A9EF4:         dw $FFFF, $FFFF, $FFFF, $FFFF
; DATA_0A9EFC:         dw $FFFF, $FFFF, $FFFF, $FFFF
; DATA_0A9F04:         dw $FFFF, $FFFF, $FFFF, $FFFF
; DATA_0A9F0C:         dw $FFFF, $FFFF, $FFFF, $FFFF
; DATA_0A9F14:         dw $FFFF, $FFFF, $FFFF

; ; sprite table (graphics-related; byte 2 is palette attributes in YXPPCCCT format)
; DATA_0A9F1A:         dw $0805, $0007, $0C02, $0805
; DATA_0A9F22:         dw $0201, $0604, $1202, $0004
; DATA_0A9F2A:         dw $2C07, $0204, $0005, $0002
; DATA_0A9F32:         dw $0C05, $0000, $0000, $0000
; DATA_0A9F3A:         dw $0005, $1C02, $0207, $00FF
; DATA_0A9F42:         dw $02FF, $0A02, $0CFF, $0001
; DATA_0A9F4A:         dw $1202, $0202, $0005, $0805
; DATA_0A9F52:         dw $0205, $0005, $0005, $0006
; DATA_0A9F5A:         dw $0003, $0402, $0005, $0205
; DATA_0A9F62:         dw $0405, $0005, $0005, $0205
; DATA_0A9F6A:         dw $0005, $0005, $0205, $0005
; DATA_0A9F72:         dw $0202, $0E02, $0006, $0C07
; DATA_0A9F7A:         dw $0005, $0005, $0007, $0006
; DATA_0A9F82:         dw $0C06, $0007, $00FF, $0405
; DATA_0A9F8A:         dw $0605, $00FF, $0002, $0002
; DATA_0A9F92:         dw $0C05, $0007, $0202, $0000
; DATA_0A9F9A:         dw $0002, $0002, $00FF, $0205
; DATA_0A9FA2:         dw $0005, $0005, $0005, $0005
; DATA_0A9FAA:         dw $12FF, $00FF, $0002, $0002
; DATA_0A9FB2:         dw $8005, $0004, $0007, $0000
; DATA_0A9FBA:         dw $00FF, $02FF, $0002, $1205
; DATA_0A9FC2:         dw $8202, $0005, $0005, $0005
; DATA_0A9FCA:         dw $0002, $0405, $0205, $0803
; DATA_0A9FD2:         dw $08FF, $0602, $00FF, $00FF
; DATA_0A9FDA:         dw $0802, $0A04, $0005, $0802
; DATA_0A9FE2:         dw $0805, $0005, $0202, $00FF
; DATA_0A9FEA:         dw $0004, $0204, $0404, $0002
; DATA_0A9FF2:         dw $0004, $0402, $0402, $0004
; DATA_0A9FFA:         dw $0204, $0204, $0807, $0005
; DATA_0AA002:         dw $0405, $04FF, $0206, $0206
; DATA_0AA00A:         dw $0002, $0002, $0002, $00FF
; DATA_0AA012:         dw $00FF, $00FF, $0CFF, $0805
; DATA_0AA01A:         dw $02FF, $02FF, $0202, $2007
; DATA_0AA022:         dw $00FF, $0003, $0005, $0202
; DATA_0AA02A:         dw $0405, $0205, $0805, $0005
; DATA_0AA032:         dw $0E05, $00FF, $1204, $0004
; DATA_0AA03A:         dw $0005, $0203, $0204, $0007
; DATA_0AA042:         dw $0806, $0002, $0802, $0202
; DATA_0AA04A:         dw $0A02, $0405, $0005, $0205
; DATA_0AA052:         dw $0401, $0202, $0406, $0003
; DATA_0AA05A:         dw $0001, $0805, $0403, $0007
; DATA_0AA062:         dw $0007, $0006, $0C00, $0C00
; DATA_0AA06A:         dw $0C00, $0CFF, $2C00, $0005
; DATA_0AA072:         dw $00FF, $0204, $00FF, $0002
; DATA_0AA07A:         dw $0002, $0002, $0002, $00FF
; DATA_0AA082:         dw $0002, $00FF, $0002, $0002
; DATA_0AA08A:         dw $0002, $0002, $0002, $0002
; DATA_0AA092:         dw $0002, $0002, $0002, $0002
; DATA_0AA09A:         dw $0002, $0002, $0002, $0002
; DATA_0AA0A2:         dw $0002, $0002, $0002, $0002
; DATA_0AA0AA:         dw $0002, $0002, $0207, $0002
; DATA_0AA0B2:         dw $0002, $1005, $02FF, $0CFF
; DATA_0AA0BA:         dw $00FF, $00FF, $0405, $0005
; DATA_0AA0C2:         dw $0005, $2000, $0005, $0405
; DATA_0AA0CA:         dw $0207, $0005, $0005, $0005
; DATA_0AA0D2:         dw $0606, $00FF, $0C05, $0005
; DATA_0AA0DA:         dw $0C05, $0E05, $0207, $0207
; DATA_0AA0E2:         dw $0006, $0007, $1005, $0005
; DATA_0AA0EA:         dw $0005, $0005, $1005, $1005
; DATA_0AA0F2:         dw $00FF, $00FF, $0007, $0605
; DATA_0AA0FA:         dw $0406, $0002, $0005, $0005
; DATA_0AA102:         dw $0002, $0005, $0005, $0005
; DATA_0AA10A:         dw $0005, $0404, $0206, $0005
; DATA_0AA112:         dw $0005, $0005, $0201, $0005
; DATA_0AA11A:         dw $0006, $0002, $0002, $0007
; DATA_0AA122:         dw $0005, $0007, $0007, $1003
; DATA_0AA12A:         dw $0005, $0005, $0405, $0405
; DATA_0AA132:         dw $0007, $0006, $0805, $0405
; DATA_0AA13A:         dw $0006, $0005, $00FF, $0005
; DATA_0AA142:         dw $0004, $0402, $0004, $0804
; DATA_0AA14A:         dw $0804, $0002, $0001, $1005
; DATA_0AA152:         dw $0002, $0403, $0005, $0405
; DATA_0AA15A:         dw $0805, $00FF, $0402, $0402
; DATA_0AA162:         dw $0003, $1203, $0007, $0806
; DATA_0AA16A:         dw $00FF, $1005, $0005, $0005
; DATA_0AA172:         dw $0005, $0005, $00FF, $1005
; DATA_0AA17A:         dw $1005, $0007, $00FF, $0005
; DATA_0AA182:         dw $0002, $0405, $0405, $0C07
; DATA_0AA18A:         dw $0C07, $0C07, $0C07, $0EFF
; DATA_0AA192:         dw $0002, $1005, $1005, $0005
; DATA_0AA19A:         dw $0005, $0005, $0005, $0005
; DATA_0AA1A2:         dw $0002, $0805, $0005, $00FF
; DATA_0AA1AA:         dw $0004, $0005, $0005, $0005
; DATA_0AA1B2:         dw $0005, $0005, $0005, $0005
; DATA_0AA1BA:         dw $0005, $0005, $0005, $0005
; DATA_0AA1C2:         dw $00FF, $0405, $0005, $2005
; DATA_0AA1CA:         dw $0405, $0205, $0205, $0005
; DATA_0AA1D2:         dw $0004, $0204, $0805, $0005
; DATA_0AA1DA:         dw $0205, $00FF, $0005, $0005
; DATA_0AA1E2:         dw $0005, $0005, $1005, $0004
; DATA_0AA1EA:         dw $0204, $0005, $0205, $0005
; DATA_0AA1F2:         dw $0205, $0005, $0205, $0205
; DATA_0AA1FA:         dw $0005, $0CFF, $0C02, $1005
; DATA_0AA202:         dw $1005, $1005, $1005, $1005
; DATA_0AA20A:         dw $1005, $1005, $1005, $1005
; DATA_0AA212:         dw $1005, $1005, $1005, $0005
; DATA_0AA21A:         dw $0005, $0005, $0205, $0005
; DATA_0AA222:         dw $0005, $0002, $0002, $0402
; DATA_0AA22A:         dw $0402, $0002, $0002, $0402
; DATA_0AA232:         dw $0402, $0202, $0202, $0002
; DATA_0AA23A:         dw $0005, $0005, $0005, $0005
; DATA_0AA242:         dw $3005, $0E05, $0E05, $0006
; DATA_0AA24A:         dw $0006, $0205, $0405, $0005
; DATA_0AA252:         dw $1005, $1005, $0005, $1005
; DATA_0AA25A:         dw $0001, $0001, $0005, $0005
; DATA_0AA262:         dw $0C05, $0004, $0004, $0004
; DATA_0AA26A:         dw $0004, $0004, $0005, $1003
; DATA_0AA272:         dw $0005, $0205, $0004, $0405
; DATA_0AA27A:         dw $0205, $0405, $0406, $0005
; DATA_0AA282:         dw $0406, $0005, $0206, $0004
; DATA_0AA28A:         dw $0005, $0004

; ; freespace
; DATA_0AA28A:         dw $FFFF, $FFFF
; DATA_0AA292:         dw $FFFF, $FFFF, $FFFF, $FFFF
; DATA_0AA29A:         dw $FFFF, $FFFF, $FFFF, $FFFF
; DATA_0AA2A2:         dw $FFFF, $FFFF, $FFFF, $FFFF
; DATA_0AA2AA:         dw $FFFF, $FFFF, $FFFF, $FFFF
; DATA_0AA2B2:         dw $FFFF, $FFFF, $FFFF, $FFFF
; DATA_0AA2BA:         dw $FFFF, $FFFF, $FFFF, $FFFF
; DATA_0AA2C2:         dw $FFFF, $FFFF, $FFFF, $FFFF
; DATA_0AA2CA:         dw $FFFF, $FFFF, $FFFF, $FFFF
; DATA_0AA2D2:         dw $FFFF, $FFFF, $FFFF, $FFFF
; DATA_0AA2DA:         dw $FFFF, $FFFF, $FFFF, $FFFF
; DATA_0AA2E2:         dw $FFFF, $FFFF, $FFFF, $FFFF
; DATA_0AA2EA:         dw $FFFF, $FFFF, $FFFF, $FFFF
; DATA_0AA2F2:         dw $FFFF, $FFFF, $FFFF, $FFFF
; DATA_0AA2FA:         dw $FFFF, $FFFF, $FFFF, $FFFF
; DATA_0AA302:         dw $FFFF, $FFFF, $FFFF, $FFFF
; DATA_0AA30A:         dw $FFFF, $FFFF, $FFFF, $FFFF
; DATA_0AA312:         dw $FFFF, $FFFF, $FFFF

; ; sprite table (sprite gravity)
; ; pairs of bytes
; ; first goes in 7542,x table
; ; second goes in 75E2,x table
; DATA_0AA318:         db $10, $40, $60, $60, $00, $00, $40, $40
; DATA_0AA320:         db $70, $40, $00, $40, $10, $04, $00, $40
; DATA_0AA328:         db $00, $00, $00, $40, $40, $40, $40, $40
; DATA_0AA330:         db $40, $40, $00, $00, $00, $00, $00, $00
; DATA_0AA338:         db $00, $00, $00, $00, $60, $60, $00, $00
; DATA_0AA340:         db $00, $08, $00, $00, $00, $00, $40, $40
; DATA_0AA348:         db $10, $C0, $02, $F8, $40, $40, $00, $00
; DATA_0AA350:         db $2C, $2C, $40, $40, $40, $40, $00, $40
; DATA_0AA358:         db $40, $40, $00, $40, $00, $40, $00, $40
; DATA_0AA360:         db $00, $40, $00, $40, $00, $40, $40, $40
; DATA_0AA368:         db $40, $40, $00, $40, $00, $40, $00, $40
; DATA_0AA370:         db $00, $00, $03, $10, $00, $08, $00, $00
; DATA_0AA378:         db $40, $40, $40, $40, $00, $00, $00, $40
; DATA_0AA380:         db $00, $40, $00, $00, $00, $00, $04, $04
; DATA_0AA388:         db $00, $00, $00, $00, $40, $40, $40, $40
; DATA_0AA390:         db $40, $40, $00, $00, $00, $00, $00, $00
; DATA_0AA398:         db $40, $40, $00, $00, $00, $00, $40, $40
; DATA_0AA3A0:         db $40, $40, $00, $00, $40, $40, $40, $40
; DATA_0AA3A8:         db $00, $00, $40, $40, $40, $40, $00, $00
; DATA_0AA3B0:         db $00, $40, $00, $00, $60, $60, $00, $00
; DATA_0AA3B8:         db $00, $00, $00, $00, $04, $F4, $00, $00
; DATA_0AA3C0:         db $00, $40, $00, $28, $00, $28, $00, $00
; DATA_0AA3C8:         db $05, $00, $00, $00, $00, $00, $40, $40
; DATA_0AA3D0:         db $00, $00, $00, $40, $00, $00, $00, $00
; DATA_0AA3D8:         db $2C, $2C, $40, $40, $40, $40, $40, $40
; DATA_0AA3E0:         db $00, $28, $00, $00, $40, $40, $00, $00
; DATA_0AA3E8:         db $00, $40, $00, $10, $00, $40, $00, $00
; DATA_0AA3F0:         db $60, $40, $40, $40, $40, $40, $60, $40
; DATA_0AA3F8:         db $2C, $2C, $00, $00, $00, $00, $00, $00
; DATA_0AA400:         db $2C, $2C, $00, $00, $00, $40, $00, $40
; DATA_0AA408:         db $40, $40, $40, $40, $40, $40, $00, $00
; DATA_0AA410:         db $00, $00, $00, $00, $00, $00, $00, $00
; DATA_0AA418:         db $00, $2C, $00, $2C, $40, $40, $00, $00
; DATA_0AA420:         db $00, $00, $2C, $2C, $40, $08, $40, $40
; DATA_0AA428:         db $20, $20, $00, $00, $00, $00, $00, $00
; DATA_0AA430:         db $00, $40, $00, $00, $10, $0C, $00, $00
; DATA_0AA438:         db $00, $00, $00, $00, $40, $40, $60, $60
; DATA_0AA440:         db $00, $40, $00, $00, $00, $00, $00, $00
; DATA_0AA448:         db $00, $40, $00, $00, $00, $00, $2C, $2C
; DATA_0AA450:         db $00, $40, $40, $40, $40, $40, $40, $40
; DATA_0AA458:         db $00, $00, $40, $40, $40, $40, $40, $40
; DATA_0AA460:         db $40, $40, $00, $00, $08, $10, $08, $10
; DATA_0AA468:         db $00, $00, $00, $00, $00, $00, $40, $40
; DATA_0AA470:         db $00, $00, $00, $40, $00, $00, $00, $00
; DATA_0AA478:         db $00, $00, $00, $00, $00, $00, $00, $00
; DATA_0AA480:         db $00, $00, $00, $00, $00, $00, $00, $00
; DATA_0AA488:         db $00, $00, $00, $00, $00, $00, $00, $00
; DATA_0AA490:         db $00, $00, $00, $00, $00, $00, $00, $00
; DATA_0AA498:         db $00, $00, $00, $00, $00, $00, $00, $00
; DATA_0AA4A0:         db $00, $00, $00, $00, $00, $00, $00, $00
; DATA_0AA4A8:         db $00, $00, $00, $00, $60, $60, $00, $00
; DATA_0AA4B0:         db $00, $00, $00, $00, $00, $00, $00, $00
; DATA_0AA4B8:         db $00, $00, $00, $00, $40, $40, $40, $40
; DATA_0AA4C0:         db $40, $40, $00, $00, $00, $00, $00, $40
; DATA_0AA4C8:         db $00, $00, $08, $10, $40, $40, $40, $40
; DATA_0AA4D0:         db $40, $40, $00, $00, $00, $20, $00, $00
; DATA_0AA4D8:         db $00, $00, $00, $00, $40, $40, $40, $40
; DATA_0AA4E0:         db $40, $40, $00, $30, $00, $00, $34, $34
; DATA_0AA4E8:         db $10, $00, $40, $40, $10, $80, $00, $00
; DATA_0AA4F0:         db $40, $40, $40, $40, $40, $40, $00, $00
; DATA_0AA4F8:         db $00, $40, $40, $40, $40, $40, $40, $40
; DATA_0AA500:         db $40, $40, $40, $40, $40, $40, $40, $40
; DATA_0AA508:         db $40, $40, $00, $00, $00, $00, $40, $40
; DATA_0AA510:         db $40, $40, $40, $40, $00, $00, $40, $40
; DATA_0AA518:         db $02, $F8, $00, $00, $00, $00, $00, $00
; DATA_0AA520:         db $00, $40, $00, $00, $00, $00, $01, $40
; DATA_0AA528:         db $40, $40, $40, $40, $40, $40, $40, $40
; DATA_0AA530:         db $00, $40, $00, $00, $40, $40, $06, $10
; DATA_0AA538:         db $00, $00, $40, $40, $00, $10, $40, $40
; DATA_0AA540:         db $00, $00, $18, $40, $04, $00, $00, $20
; DATA_0AA548:         db $00, $20, $20, $20, $40, $40, $00, $00
; DATA_0AA550:         db $00, $00, $00, $00, $00, $00, $00, $00
; DATA_0AA558:         db $00, $00, $00, $00, $00, $40, $00, $40
; DATA_0AA560:         db $40, $40, $00, $00, $00, $40, $00, $00
; DATA_0AA568:         db $00, $00, $04, $00, $40, $40, $40, $40
; DATA_0AA570:         db $00, $00, $40, $40, $00, $00, $00, $00
; DATA_0AA578:         db $00, $00, $60, $60, $00, $40, $40, $40
; DATA_0AA580:         db $00, $40, $00, $40, $00, $40, $01, $20
; DATA_0AA588:         db $01, $20, $01, $20, $01, $20, $00, $00
; DATA_0AA590:         db $00, $00, $00, $00, $00, $00, $00, $40
; DATA_0AA598:         db $00, $40, $00, $40, $00, $40, $00, $40
; DATA_0AA5A0:         db $00, $00, $40, $C0, $40, $C0, $00, $00
; DATA_0AA5A8:         db $60, $40, $00, $00, $00, $00, $00, $00
; DATA_0AA5B0:         db $00, $00, $00, $00, $00, $00, $00, $00
; DATA_0AA5B8:         db $00, $00, $00, $00, $00, $00, $10, $00
; DATA_0AA5C0:         db $00, $00, $20, $20, $00, $60, $00, $40
; DATA_0AA5C8:         db $20, $20, $40, $40, $40, $40, $40, $40
; DATA_0AA5D0:         db $00, $40, $00, $40, $00, $28, $00, $00
; DATA_0AA5D8:         db $00, $00, $00, $00, $00, $00, $40, $40
; DATA_0AA5E0:         db $40, $40, $08, $08, $00, $40, $40, $40
; DATA_0AA5E8:         db $40, $40, $40, $40, $40, $40, $40, $40
; DATA_0AA5F0:         db $40, $40, $20, $20, $00, $00, $00, $00
; DATA_0AA5F8:         db $00, $00, $00, $00, $00, $00, $00, $00
; DATA_0AA600:         db $00, $00, $00, $00, $00, $00, $00, $00
; DATA_0AA608:         db $00, $00, $00, $00, $00, $00, $00, $00
; DATA_0AA610:         db $00, $00, $00, $00, $00, $00, $04, $E0
; DATA_0AA618:         db $00, $00, $40, $40, $00, $00, $00, $00
; DATA_0AA620:         db $40, $40, $28, $28, $28, $28, $28, $28
; DATA_0AA628:         db $28, $28, $28, $28, $28, $28, $28, $28
; DATA_0AA630:         db $28, $28, $28, $28, $28, $28, $28, $28
; DATA_0AA638:         db $00, $40, $40, $40, $40, $40, $00, $00
; DATA_0AA640:         db $00, $00, $00, $40, $00, $40, $00, $00
; DATA_0AA648:         db $00, $00, $00, $00, $40, $40, $40, $40
; DATA_0AA650:         db $00, $00, $00, $00, $40, $40, $00, $00
; DATA_0AA658:         db $00, $00, $00, $00, $18, $40, $40, $40
; DATA_0AA660:         db $00, $80, $40, $40, $40, $40, $00, $40
; DATA_0AA668:         db $40, $40, $00, $40, $00, $00, $00, $00
; DATA_0AA670:         db $20, $20, $40, $40, $00, $00, $00, $00
; DATA_0AA678:         db $00, $00, $00, $00, $20, $50, $40, $40
; DATA_0AA680:         db $00, $00, $40, $40, $00, $00, $40, $40
; DATA_0AA688:         db $00, $00, $40, $40

; ; freespace
; DATA_0AA68C:         db $FF, $FF, $FF, $FF, $FF, $FF, $FF, $FF
; DATA_0AA694:         db $FF, $FF, $FF, $FF, $FF, $FF, $FF, $FF
; DATA_0AA69C:         db $FF, $FF, $FF, $FF, $FF, $FF, $FF, $FF
; DATA_0AA6A4:         db $FF, $FF, $FF, $FF, $FF, $FF, $FF, $FF
; DATA_0AA6AC:         db $FF, $FF, $FF, $FF, $FF, $FF, $FF, $FF
; DATA_0AA6B4:         db $FF, $FF, $FF, $FF, $FF, $FF, $FF, $FF
; DATA_0AA6BC:         db $FF, $FF, $FF, $FF, $FF, $FF, $FF, $FF
; DATA_0AA6C4:         db $FF, $FF, $FF, $FF, $FF, $FF, $FF, $FF
; DATA_0AA6CC:         db $FF, $FF, $FF, $FF, $FF, $FF, $FF, $FF
; DATA_0AA6D4:         db $FF, $FF, $FF, $FF, $FF, $FF, $FF, $FF
; DATA_0AA6DC:         db $FF, $FF, $FF, $FF, $FF, $FF, $FF, $FF
; DATA_0AA6E4:         db $FF, $FF, $FF, $FF, $FF, $FF, $FF, $FF
; DATA_0AA6EC:         db $FF, $FF, $FF, $FF, $FF, $FF, $FF, $FF
; DATA_0AA6F4:         db $FF, $FF, $FF, $FF, $FF, $FF, $FF, $FF
; DATA_0AA6FC:         db $FF, $FF, $FF, $FF, $FF, $FF, $FF, $FF
; DATA_0AA704:         db $FF, $FF, $FF, $FF, $FF, $FF, $FF, $FF
; DATA_0AA70C:         db $FF, $FF, $FF, $FF, $FF, $FF, $FF, $FF
; DATA_0AA714:         db $FF, $FF

; ; sprite table (GFX file to use)
; DATA_0AA716:         dw $0000, $0000, $005A, $0000
; DATA_0AA71E:         dw $0000, $0000, $0000, $0000
; DATA_0AA726:         dw $0000, $0000, $004A, $004A
; DATA_0AA72E:         dw $0000, $0000, $0000, $0000
; DATA_0AA736:         dw $0042, $0000, $0000, $0000
; DATA_0AA73E:         dw $0000, $0000, $0061, $0068
; DATA_0AA746:         dw $0000, $0000, $002E, $0048
; DATA_0AA74E:         dw $0000, $002E, $0000, $0031
; DATA_0AA756:         dw $004E, $0000, $0000, $0000
; DATA_0AA75E:         dw $0000, $0000, $0000, $0000
; DATA_0AA766:         dw $0000, $0000, $002F, $002F
; DATA_0AA76E:         dw $0032, $0000, $0045, $0028
; DATA_0AA776:         dw $0028, $0036, $0028, $0028
; DATA_0AA77E:         dw $0042, $0042, $0000, $0046
; DATA_0AA786:         dw $0042, $0000, $004F, $004F
; DATA_0AA78E:         dw $0000, $0000, $0000, $0000
; DATA_0AA796:         dw $0000, $0000, $0000, $0070
; DATA_0AA79E:         dw $0070, $0070, $0000, $0000
; DATA_0AA7A6:         dw $006A, $0000, $0000, $0000
; DATA_0AA7AE:         dw $0036, $0000, $0000, $0000
; DATA_0AA7B6:         dw $0000, $0000, $0000, $006A
; DATA_0AA7BE:         dw $0029, $0000, $0000, $0000
; DATA_0AA7C6:         dw $0000, $0000, $001B, $004E
; DATA_0AA7CE:         dw $0000, $0000, $0000, $0000
; DATA_0AA7D6:         dw $0000, $0000, $0026, $0000
; DATA_0AA7DE:         dw $0000, $0000, $0029, $0000
; DATA_0AA7E6:         dw $0000, $0000, $0000, $0000
; DATA_0AA7EE:         dw $0000, $0000, $0000, $0000
; DATA_0AA7F6:         dw $0035, $0061, $002E, $0000
; DATA_0AA7FE:         dw $0026, $0000, $0045, $0045
; DATA_0AA806:         dw $0031, $0031, $0031, $0000
; DATA_0AA80E:         dw $0000, $0031, $0000, $0000
; DATA_0AA816:         dw $0000, $0000, $0000, $0000
; DATA_0AA81E:         dw $0000, $001E, $0000, $0000
; DATA_0AA826:         dw $0000, $0000, $0000, $0000
; DATA_0AA82E:         dw $0000, $0000, $0067, $0000
; DATA_0AA836:         dw $0042, $0000, $001E, $0000
; DATA_0AA83E:         dw $0000, $0000, $0000, $0000
; DATA_0AA846:         dw $0000, $004F, $0000, $0059
; DATA_0AA84E:         dw $0000, $0000, $0000, $0029
; DATA_0AA856:         dw $0000, $0036, $004B, $004E
; DATA_0AA85E:         dw $004E, $0053, $001B, $001B
; DATA_0AA866:         dw $001B, $001B, $001B, $0000
; DATA_0AA86E:         dw $0000, $0000, $0047, $0000
; DATA_0AA876:         dw $0000, $0000, $0000, $0000
; DATA_0AA87E:         dw $0000, $0000, $0000, $0000
; DATA_0AA886:         dw $0000, $0000, $0000, $0000
; DATA_0AA88E:         dw $0000, $0000, $0000, $0000
; DATA_0AA896:         dw $0000, $0000, $0000, $0000
; DATA_0AA89E:         dw $0000, $0000, $0000, $0000
; DATA_0AA8A6:         dw $0000, $0000, $0000, $0000
; DATA_0AA8AE:         dw $0000, $0000, $0000, $0000
; DATA_0AA8B6:         dw $0000, $0000, $0029, $006F
; DATA_0AA8BE:         dw $006D, $001A, $0000, $0055
; DATA_0AA8C6:         dw $0000, $0049, $0044, $0000
; DATA_0AA8CE:         dw $0000, $0000, $0020, $003E
; DATA_0AA8D6:         dw $003E, $003E, $0022, $0022
; DATA_0AA8DE:         dw $0024, $0000, $0025, $0000
; DATA_0AA8E6:         dw $002A, $002A, $002C, $002D
; DATA_0AA8EE:         dw $0000, $0000, $002F, $002F
; DATA_0AA8F6:         dw $002F, $001F, $0037, $0000
; DATA_0AA8FE:         dw $001F, $0000, $0000, $0000
; DATA_0AA906:         dw $0036, $0000, $0000, $0035
; DATA_0AA90E:         dw $0035, $0000, $0000, $003A
; DATA_0AA916:         dw $0000, $0000, $0000, $003C
; DATA_0AA91E:         dw $0000, $0000, $0000, $0000
; DATA_0AA926:         dw $0029, $0000, $0000, $0000
; DATA_0AA92E:         dw $003F, $003F, $0000, $0030
; DATA_0AA936:         dw $0071, $0041, $0041, $0040
; DATA_0AA93E:         dw $0040, $0000, $004C, $004C
; DATA_0AA946:         dw $004C, $0046, $0000, $0049
; DATA_0AA94E:         dw $0049, $0049, $0000, $0000
; DATA_0AA956:         dw $0000, $0000, $0000, $0000
; DATA_0AA95E:         dw $0027, $006A, $004E, $0000
; DATA_0AA966:         dw $0000, $0052, $0000, $0050
; DATA_0AA96E:         dw $0000, $00AB, $0000, $0051
; DATA_0AA976:         dw $0051, $0000, $0045, $0000
; DATA_0AA97E:         dw $00AD, $0000, $0000, $0020
; DATA_0AA986:         dw $0020, $0020, $0020, $0070
; DATA_0AA98E:         dw $0000, $0055, $0055, $0054
; DATA_0AA996:         dw $0054, $0054, $0054, $0058
; DATA_0AA99E:         dw $0000, $0055, $0055, $0000
; DATA_0AA9A6:         dw $0000, $0057, $0057, $0057
; DATA_0AA9AE:         dw $0057, $0057, $0057, $0057
; DATA_0AA9B6:         dw $0057, $0057, $0056, $002A
; DATA_0AA9BE:         dw $0053, $002B, $0000, $0049
; DATA_0AA9C6:         dw $002B, $0000, $0000, $0039
; DATA_0AA9CE:         dw $002A, $002A, $0000, $0000
; DATA_0AA9D6:         dw $0000, $0000, $002A, $0000
; DATA_0AA9DE:         dw $0025, $0025, $0049, $0047
; DATA_0AA9E6:         dw $0047, $0047, $0047, $0047
; DATA_0AA9EE:         dw $0047, $002B, $002B, $002B
; DATA_0AA9F6:         dw $004F, $005A, $005A, $0000
; DATA_0AA9FE:         dw $0000, $0000, $0000, $0000
; DATA_0AAA06:         dw $0000, $0000, $0000, $0000
; DATA_0AAA0E:         dw $0000, $0000, $0000, $0000
; DATA_0AAA16:         dw $0000, $005D, $005D, $005D
; DATA_0AAA1E:         dw $005E, $0000, $0000, $0000
; DATA_0AAA26:         dw $0000, $0000, $0000, $0000
; DATA_0AAA2E:         dw $0000, $0000, $0000, $0000
; DATA_0AAA36:         dw $005F, $005E, $005D, $0042
; DATA_0AAA3E:         dw $0062, $0000, $0000, $001C
; DATA_0AAA46:         dw $001C, $0000, $0060, $005E
; DATA_0AAA4E:         dw $005E, $0063, $0063, $0063
; DATA_0AAA56:         dw $0065, $0065, $0000, $0060
; DATA_0AAA5E:         dw $0048, $0064, $0064, $0064
; DATA_0AAA66:         dw $0064, $0064, $0066, $0065
; DATA_0AAA6E:         dw $0068, $0067, $0067, $0000
; DATA_0AAA76:         dw $0065, $0000, $0000, $004E
; DATA_0AAA7E:         dw $0000, $004E, $0000, $004E
; DATA_0AAA86:         dw $0000, $004E, $FFFF, $FFFF
; DATA_0AAA8E:         dw $FFFF, $FFFF, $FFFF, $FFFF
; DATA_0AAA96:         dw $FFFF, $FFFF, $FFFF, $FFFF
; DATA_0AAA9E:         dw $FFFF, $FFFF, $FFFF, $FFFF
; DATA_0AAAA6:         dw $FFFF, $FFFF, $FFFF, $FFFF
; DATA_0AAAAE:         dw $FFFF, $FFFF, $FFFF, $FFFF
; DATA_0AAAB6:         dw $FFFF, $FFFF, $FFFF, $FFFF
; DATA_0AAABE:         dw $FFFF, $FFFF, $FFFF, $FFFF
; DATA_0AAAC6:         dw $FFFF, $FFFF, $FFFF, $FFFF
; DATA_0AAACE:         dw $FFFF, $FFFF, $FFFF, $FFFF
; DATA_0AAAD6:         dw $FFFF, $FFFF, $FFFF, $FFFF
; DATA_0AAADE:         dw $FFFF, $FFFF, $FFFF, $FFFF
; DATA_0AAAE6:         dw $FFFF, $FFFF, $FFFF, $FFFF
; DATA_0AAAEE:         dw $FFFF, $FFFF, $FFFF, $FFFF
; DATA_0AAAF6:         dw $FFFF, $FFFF, $FFFF, $FFFF
; DATA_0AAAFE:         dw $FFFF, $FFFF, $FFFF, $FFFF
; DATA_0AAB06:         dw $FFFF, $FFFF, $FFFF, $FFFF
; DATA_0AAB0E:         dw $FFFF, $FFFF, $FFFF

; ; sprite table (which super FX sprite to use when yoshi spits out an enemy)
; DATA_0AAB14:         dw $0000, $0000, $0000, $0000
; DATA_0AAB1C:         dw $0000, $0000, $0000, $0000
; DATA_0AAB24:         dw $0000, $0000, $0000, $014A
; DATA_0AAB2C:         dw $0000, $0000, $0000, $0000
; DATA_0AAB34:         dw $0000, $0000, $0000, $0000
; DATA_0AAB3C:         dw $0000, $0000, $0000, $0000
; DATA_0AAB44:         dw $0000, $0000, $0000, $0000
; DATA_0AAB4C:         dw $0000, $0000, $0164, $0000
; DATA_0AAB54:         dw $00C6, $0000, $0342, $0342
; DATA_0AAB5C:         dw $0342, $0342, $0000, $0000
; DATA_0AAB64:         dw $0000, $8388, $8388, $8388
; DATA_0AAB6C:         dw $0000, $0000, $0000, $0000
; DATA_0AAB74:         dw $0000, $0000, $0000, $0000
; DATA_0AAB7C:         dw $0000, $0000, $0000, $0000
; DATA_0AAB84:         dw $0000, $0000, $0000, $0000
; DATA_0AAB8C:         dw $0000, $0000, $0000, $0000
; DATA_0AAB94:         dw $0000, $0000, $0000, $800C
; DATA_0AAB9C:         dw $800C, $0000, $0000, $0000
; DATA_0AABA4:         dw $0000, $0000, $0000, $0000
; DATA_0AABAC:         dw $0000, $0000, $0000, $0000
; DATA_0AABB4:         dw $0000, $0000, $0000, $0000
; DATA_0AABBC:         dw $0000, $0000, $0000, $0000
; DATA_0AABC4:         dw $0000, $0000, $0000, $00C6
; DATA_0AABCC:         dw $0000, $0000, $0000, $0000
; DATA_0AABD4:         dw $0000, $0000, $0000, $0000
; DATA_0AABDC:         dw $0000, $0000, $0000, $0000
; DATA_0AABE4:         dw $0000, $0000, $0000, $0000
; DATA_0AABEC:         dw $0000, $0000, $0000, $0000
; DATA_0AABF4:         dw $0000, $0000, $0000, $0000
; DATA_0AABFC:         dw $0000, $0000, $0000, $0000
; DATA_0AAC04:         dw $0000, $0000, $0000, $0000
; DATA_0AAC0C:         dw $0000, $0000, $0000, $0000
; DATA_0AAC14:         dw $0000, $0000, $0000, $0000
; DATA_0AAC1C:         dw $0000, $0000, $0000, $0000
; DATA_0AAC24:         dw $0000, $0000, $0000, $0000
; DATA_0AAC2C:         dw $0000, $0000, $0000, $0000
; DATA_0AAC34:         dw $0000, $0000, $0000, $0000
; DATA_0AAC3C:         dw $0000, $0000, $0000, $0000
; DATA_0AAC44:         dw $0000, $0000, $0000, $0000
; DATA_0AAC4C:         dw $0000, $0000, $0000, $0000
; DATA_0AAC54:         dw $0000, $0000, $0000, $00C6
; DATA_0AAC5C:         dw $00C6, $0000, $0000, $0000
; DATA_0AAC64:         dw $0000, $0000, $0000, $0000
; DATA_0AAC6C:         dw $0000, $0000, $0000, $0000
; DATA_0AAC74:         dw $0000, $0000, $0000, $0000
; DATA_0AAC7C:         dw $0000, $0000, $0000, $0000
; DATA_0AAC84:         dw $0000, $0000, $0000, $0000
; DATA_0AAC8C:         dw $0000, $0000, $0000, $0000
; DATA_0AAC94:         dw $0000, $0000, $0000, $0000
; DATA_0AAC9C:         dw $0000, $0000, $0000, $0000
; DATA_0AACA4:         dw $0000, $0000, $0000, $0000
; DATA_0AACAC:         dw $0000, $0000, $0000, $0000
; DATA_0AACB4:         dw $0342, $0000, $0000, $0000
; DATA_0AACBC:         dw $0000, $0000, $0000, $0000
; DATA_0AACC4:         dw $0000, $0000, $0000, $0000
; DATA_0AACCC:         dw $0000, $0000, $0000, $0000
; DATA_0AACD4:         dw $0000, $0000, $0000, $0000
; DATA_0AACDC:         dw $0000, $0000, $0000, $0000
; DATA_0AACE4:         dw $0000, $0000, $0000, $0000
; DATA_0AACEC:         dw $0000, $0000, $0000, $0000
; DATA_0AACF4:         dw $0000, $0000, $0000, $0164
; DATA_0AACFC:         dw $0000, $00C6, $0000, $0000
; DATA_0AAD04:         dw $0000, $0000, $0000, $0000
; DATA_0AAD0C:         dw $0000, $00C6, $0000, $0000
; DATA_0AAD14:         dw $0000, $0000, $0000, $0000
; DATA_0AAD1C:         dw $0000, $0000, $0000, $0000
; DATA_0AAD24:         dw $0000, $0120, $0120, $0120
; DATA_0AAD2C:         dw $0000, $0000, $0000, $0000
; DATA_0AAD34:         dw $0000, $0000, $0000, $0000
; DATA_0AAD3C:         dw $0000, $0000, $0000, $0000
; DATA_0AAD44:         dw $0000, $0000, $00C6, $0000
; DATA_0AAD4C:         dw $0000, $0000, $0000, $0000
; DATA_0AAD54:         dw $0000, $0000, $0000, $0000
; DATA_0AAD5C:         dw $0000, $0000, $0000, $0000
; DATA_0AAD64:         dw $0000, $0000, $0164, $0000
; DATA_0AAD6C:         dw $0000, $0000, $0000, $0000
; DATA_0AAD74:         dw $0000, $0000, $0000, $0048
; DATA_0AAD7C:         dw $0000, $0000, $0000, $0000
; DATA_0AAD84:         dw $0000, $0000, $0000, $0000
; DATA_0AAD8C:         dw $0000, $0000, $0000, $0000
; DATA_0AAD94:         dw $0000, $0000, $0000, $0000
; DATA_0AAD9C:         dw $0000, $0000, $0000, $0000
; DATA_0AADA4:         dw $0000, $0000, $0000, $0000
; DATA_0AADAC:         dw $0000, $0000, $0000, $0000
; DATA_0AADB4:         dw $0000, $0000, $0000, $0000
; DATA_0AADBC:         dw $0000, $0000, $0000, $0000
; DATA_0AADC4:         dw $0000, $004A, $004A, $0000
; DATA_0AADCC:         dw $0000, $0000, $0000, $0000
; DATA_0AADD4:         dw $0000, $0000, $0000, $0000
; DATA_0AADDC:         dw $0000, $0000, $0000, $0000
; DATA_0AADE4:         dw $0000, $0000, $0000, $0000
; DATA_0AADEC:         dw $0000, $0000, $0000, $0000
; DATA_0AADF4:         dw $0000, $0000, $0000, $0000
; DATA_0AADFC:         dw $0000, $0000, $0000, $0000
; DATA_0AAE04:         dw $0000, $0000, $0000, $0000
; DATA_0AAE0C:         dw $0000, $0000, $0000, $0000
; DATA_0AAE14:         dw $0000, $0000, $0000, $0000
; DATA_0AAE1C:         dw $0000, $0000, $0000, $0000
; DATA_0AAE24:         dw $0000, $0000, $0000, $0000
; DATA_0AAE2C:         dw $0000, $0000, $0000, $0000
; DATA_0AAE34:         dw $0000, $0000, $0000, $0000
; DATA_0AAE3C:         dw $0000, $0000, $0000, $0000
; DATA_0AAE44:         dw $0000, $0000, $0122, $0000
; DATA_0AAE4C:         dw $0000, $0000, $0000, $0000
; DATA_0AAE54:         dw $0000, $0000, $0000, $0000
; DATA_0AAE5C:         dw $0000, $0000, $0000, $0000
; DATA_0AAE64:         dw $0000, $0000, $0000, $0000
; DATA_0AAE6C:         dw $0000, $0000, $0000, $0000
; DATA_0AAE74:         dw $0000, $0000, $0000, $0000
; DATA_0AAE7C:         dw $0000, $0000, $0000, $0000
; DATA_0AAE84:         dw $0000, $0000, $FFFF, $FFFF
; DATA_0AAE8C:         dw $FFFF, $FFFF, $FFFF, $FFFF
; DATA_0AAE94:         dw $FFFF, $FFFF, $FFFF, $FFFF
; DATA_0AAE9C:         dw $FFFF, $FFFF, $FFFF, $FFFF
; DATA_0AAEA4:         dw $FFFF, $FFFF, $FFFF, $FFFF
; DATA_0AAEAC:         dw $FFFF, $FFFF, $FFFF, $FFFF
; DATA_0AAEB4:         dw $FFFF, $FFFF, $FFFF, $FFFF
; DATA_0AAEBC:         dw $FFFF, $FFFF, $FFFF, $FFFF
; DATA_0AAEC4:         dw $FFFF, $FFFF, $FFFF, $FFFF
; DATA_0AAECC:         dw $FFFF, $FFFF, $FFFF, $FFFF
; DATA_0AAED4:         dw $FFFF, $FFFF, $FFFF, $FFFF
; DATA_0AAEDC:         dw $FFFF, $FFFF, $FFFF, $FFFF
; DATA_0AAEE4:         dw $FFFF, $FFFF, $FFFF, $FFFF
; DATA_0AAEEC:         dw $FFFF, $FFFF, $FFFF, $FFFF
; DATA_0AAEF4:         dw $FFFF, $FFFF, $FFFF, $FFFF
; DATA_0AAEFC:         dw $FFFF, $FFFF, $FFFF, $FFFF
; DATA_0AAF04:         dw $FFFF, $FFFF, $FFFF, $FFFF
; DATA_0AAF0C:         dw $FFFF, $FFFF, $FFFF

000A:AF12 00           stop
000A:AF13 00           stop
000A:AF14 00           stop
000A:AF15 00           stop
000A:AF16 1C 00        stop
000A:AF18 00           stop
000A:AF19 00           stop
000A:AF1A 00           stop
000A:AF1B 00           stop
000A:AF1C 00           stop
000A:AF1D 00           stop
000A:AF1E 00           stop
000A:AF1F 00           stop
000A:AF20 00           stop
000A:AF21 00           stop
000A:AF22 00           stop
000A:AF23 00           stop
000A:AF24 00           stop
000A:AF25 00           stop
000A:AF26 00           stop
000A:AF27 00           stop
000A:AF28 00           stop
000A:AF29 00           stop
000A:AF2A 00           stop
000A:AF2B 00           stop
000A:AF2C 00           stop
000A:AF2D 00           stop
000A:AF2E 00           stop
000A:AF2F 00           stop
000A:AF30 00           stop
000A:AF31 00           stop
000A:AF32 00           stop
000A:AF33 00           stop
000A:AF34 00           stop
000A:AF35 00           stop
000A:AF36 00           stop
000A:AF37 00           stop
000A:AF38 00           stop
000A:AF39 00           stop
000A:AF3A 00           stop
000A:AF3B 00           stop
000A:AF3C 00           stop
000A:AF3D 00           stop
000A:AF3E 40           ldw   (r0)
000A:AF3F 88           mult  r8
000A:AF40 00           stop
000A:AF41 00           stop
000A:AF42 00           stop
000A:AF43 00           stop
000A:AF44 00           stop
000A:AF45 00           stop
000A:AF46 00           stop
000A:AF47 00           stop
000A:AF48 00           stop
000A:AF49 00           stop
000A:AF4A 00           stop
000A:AF4B 00           stop
000A:AF4C 00           stop
000A:AF4D 00           stop
000A:AF4E 00           stop
000A:AF4F 00           stop
000A:AF50 00           stop
000A:AF51 00           stop
000A:AF52 00           stop
000A:AF53 00           stop
000A:AF54 00           stop
000A:AF55 00           stop
000A:AF56 00           stop
000A:AF57 00           stop
000A:AF58 00           stop
000A:AF59 00           stop
000A:AF5A 00           stop
000A:AF5B 00           stop
000A:AF5C 00           stop
000A:AF5D 00           stop
000A:AF5E 00           stop
000A:AF5F 00           stop
000A:AF60 00           stop
000A:AF61 00           stop
000A:AF62 00           stop
000A:AF63 00           stop
000A:AF64 00           stop
000A:AF65 00           stop
000A:AF66 00           stop
000A:AF67 00           stop
000A:AF68 00           stop
000A:AF69 00           stop
000A:AF6A 00           stop
000A:AF6B 00           stop
000A:AF6C 00           stop
000A:AF6D 00           stop
000A:AF6E 00           stop
000A:AF6F 00           stop
000A:AF70 00           stop
000A:AF71 00           stop
000A:AF72 00           stop
000A:AF73 00           stop
000A:AF74 00           stop
000A:AF75 00           stop
000A:AF76 00           stop
000A:AF77 00           stop
000A:AF78 00           stop
000A:AF79 00           stop
000A:AF7A 00           stop
000A:AF7B 00           stop
000A:AF7C 00           stop
000A:AF7D 00           stop
000A:AF7E 00           stop
000A:AF7F 00           stop
000A:AF80 00           stop
000A:AF81 00           stop
000A:AF82 00           stop
000A:AF83 00           stop
000A:AF84 00           stop
000A:AF85 00           stop
000A:AF86 00           stop
000A:AF87 00           stop
000A:AF88 00           stop
000A:AF89 00           stop
000A:AF8A 00           stop
000A:AF8B 00           stop
000A:AF8C 00           stop
000A:AF8D 00           stop
000A:AF8E 00           stop
000A:AF8F 00           stop
000A:AF90 00           stop
000A:AF91 00           stop
000A:AF92 00           stop
000A:AF93 00           stop
000A:AF94 00           stop
000A:AF95 00           stop
000A:AF96 00           stop
000A:AF97 00           stop
000A:AF98 00           stop
000A:AF99 00           stop
000A:AF9A 00           stop
000A:AF9B 00           stop
000A:AF9C 00           stop
000A:AF9D 00           stop
000A:AF9E 00           stop
000A:AF9F 00           stop
000A:AFA0 00           stop
000A:AFA1 00           stop
000A:AFA2 00           stop
000A:AFA3 00           stop
000A:AFA4 00           stop
000A:AFA5 00           stop
000A:AFA6 00           stop
000A:AFA7 00           stop
000A:AFA8 00           stop
000A:AFA9 00           stop
000A:AFAA 00           stop
000A:AFAB 00           stop
000A:AFAC 00           stop
000A:AFAD 00           stop
000A:AFAE 00           stop
000A:AFAF 00           stop
000A:AFB0 00           stop
000A:AFB1 00           stop
000A:AFB2 00           stop
000A:AFB3 00           stop
000A:AFB4 00           stop
000A:AFB5 00           stop
000A:AFB6 00           stop
000A:AFB7 00           stop
000A:AFB8 00           stop
000A:AFB9 00           stop
000A:AFBA 00           stop
000A:AFBB 00           stop
000A:AFBC 00           stop
000A:AFBD 00           stop
000A:AFBE 00           stop
000A:AFBF 00           stop
000A:AFC0 00           stop
000A:AFC1 00           stop
000A:AFC2 00           stop
000A:AFC3 00           stop
000A:AFC4 00           stop
000A:AFC5 00           stop
000A:AFC6 00           stop
000A:AFC7 00           stop
000A:AFC8 00           stop
000A:AFC9 00           stop
000A:AFCA 00           stop
000A:AFCB 00           stop
000A:AFCC 00           stop
000A:AFCD 00           stop
000A:AFCE 00           stop
000A:AFCF 00           stop
000A:AFD0 00           stop
000A:AFD1 00           stop
000A:AFD2 00           stop
000A:AFD3 00           stop
000A:AFD4 00           stop
000A:AFD5 00           stop
000A:AFD6 00           stop
000A:AFD7 00           stop
000A:AFD8 00           stop
000A:AFD9 00           stop
000A:AFDA 00           stop
000A:AFDB 00           stop
000A:AFDC 00           stop
000A:AFDD 00           stop
000A:AFDE 00           stop
000A:AFDF 00           stop
000A:AFE0 00           stop
000A:AFE1 00           stop
000A:AFE2 00           stop
000A:AFE3 00           stop
000A:AFE4 00           stop
000A:AFE5 00           stop
000A:AFE6 00           stop
000A:AFE7 00           stop
000A:AFE8 00           stop
000A:AFE9 00           stop
000A:AFEA 00           stop
000A:AFEB 00           stop
000A:AFEC 00           stop
000A:AFED 00           stop
000A:AFEE 00           stop
000A:AFEF 00           stop
000A:AFF0 00           stop
000A:AFF1 00           stop
000A:AFF2 00           stop
000A:AFF3 00           stop
000A:AFF4 40           ldw   (r0)
000A:AFF5 00           stop
000A:AFF6 40           ldw   (r0)
000A:AFF7 00           stop
000A:AFF8 40           ldw   (r0)
000A:AFF9 00           stop
000A:AFFA 40           ldw   (r0)
000A:AFFB 00           stop
000A:AFFC FF FF FF     iwt   r15,#FFFF
000A:AFFF FF FF FF     iwt   r15,#FFFF
000A:B002 FF FF FF     iwt   r15,#FFFF
000A:B005 FF FF FF     iwt   r15,#FFFF
000A:B008 FF FF FF     iwt   r15,#FFFF
000A:B00B FF FF FF     iwt   r15,#FFFF
000A:B00E FF FF FF     iwt   r15,#FFFF
000A:B011 FF FF FF     iwt   r15,#FFFF
000A:B014 FF FF FF     iwt   r15,#FFFF
000A:B017 FF FF FF     iwt   r15,#FFFF
000A:B01A FF FF FF     iwt   r15,#FFFF
000A:B01D FF FF FF     iwt   r15,#FFFF
000A:B020 FF FF FF     iwt   r15,#FFFF
000A:B023 FF FF FF     iwt   r15,#FFFF
000A:B026 FF FF FF     iwt   r15,#FFFF
000A:B029 FF FF FF     iwt   r15,#FFFF
000A:B02C FF FF FF     iwt   r15,#FFFF
000A:B02F FF FF FF     iwt   r15,#FFFF
000A:B032 FF FF FF     iwt   r15,#FFFF
000A:B035 FF FF FF     iwt   r15,#FFFF
000A:B038 FF FF FF     iwt   r15,#FFFF
000A:B03B FF FF FF     iwt   r15,#FFFF
000A:B03E FF FF FF     iwt   r15,#FFFF
000A:B041 FF FF FF     iwt   r15,#FFFF
000A:B044 FF FF FF     iwt   r15,#FFFF
000A:B047 FF FF FF     iwt   r15,#FFFF
000A:B04A FF FF FF     iwt   r15,#FFFF
000A:B04D FF FF FF     iwt   r15,#FFFF
000A:B050 FF FF FF     iwt   r15,#FFFF
000A:B053 FF FF FF     iwt   r15,#FFFF
000A:B056 FF FF FF     iwt   r15,#FFFF
000A:B059 FF FF FF     iwt   r15,#FFFF
000A:B05C FF FF FF     iwt   r15,#FFFF
000A:B05F FF FF FF     iwt   r15,#FFFF
000A:B062 FF FF FF     iwt   r15,#FFFF
000A:B065 FF FF FF     iwt   r15,#FFFF
000A:B068 FF FF FF     iwt   r15,#FFFF
000A:B06B FF FF FF     iwt   r15,#FFFF
000A:B06E FF FF FF     iwt   r15,#FFFF
000A:B071 FF FF FF     iwt   r15,#FFFF
000A:B074 FF FF FF     iwt   r15,#FFFF
000A:B077 FF FF FF     iwt   r15,#FFFF
000A:B07A FF FF FF     iwt   r15,#FFFF
000A:B07D FF FF FF     iwt   r15,#FFFF
000A:B080 FF FF FF     iwt   r15,#FFFF
000A:B083 FF FF FF     iwt   r15,#FFFF
000A:B086 FF FF FF     iwt   r15,#FFFF
000A:B089 FF FF FF     iwt   r15,#FFFF
000A:B08C FF FF FF     iwt   r15,#FFFF
000A:B08F FF FF FF     iwt   r15,#FFFF
000A:B092 FF FF FF     iwt   r15,#FFFF
000A:B095 FF FF FF     iwt   r15,#FFFF
000A:B098 FF FF FF     iwt   r15,#FFFF
000A:B09B FF FF FF     iwt   r15,#FFFF
000A:B09E FF FF FF     iwt   r15,#FFFF
000A:B0A1 FF FF FF     iwt   r15,#FFFF
000A:B0A4 FF FF FF     iwt   r15,#FFFF
000A:B0A7 FF FF FF     iwt   r15,#FFFF
000A:B0AA FF FF FF     iwt   r15,#FFFF
000A:B0AD FF FF FF     iwt   r15,#FFFF
000A:B0B0 FF FF FF     iwt   r15,#FFFF
000A:B0B3 FF FF FF     iwt   r15,#FFFF
000A:B0B6 FF FF FF     iwt   r15,#FFFF
000A:B0B9 FF FF FF     iwt   r15,#FFFF
000A:B0BC FF FF FF     iwt   r15,#FFFF
000A:B0BF FF FF FF     iwt   r15,#FFFF
000A:B0C2 FF FF FF     iwt   r15,#FFFF
000A:B0C5 FF FF FF     iwt   r15,#FFFF
000A:B0C8 FF FF FF     iwt   r15,#FFFF
000A:B0CB FF FF FF     iwt   r15,#FFFF
000A:B0CE FF FF FF     iwt   r15,#FFFF
000A:B0D1 FF FF FF     iwt   r15,#FFFF
000A:B0D4 FF FF FF     iwt   r15,#FFFF
000A:B0D7 FF FF FF     iwt   r15,#FFFF
000A:B0DA FF FF FF     iwt   r15,#FFFF
000A:B0DD FF FF FF     iwt   r15,#FFFF
000A:B0E0 FF FF FF     iwt   r15,#FFFF
000A:B0E3 FF FF FF     iwt   r15,#FFFF
000A:B0E6 FF FF FF     iwt   r15,#FFFF
000A:B0E9 FF FF FF     iwt   r15,#FFFF
000A:B0EC FF FF FF     iwt   r15,#FFFF
000A:B0EF FF FF FF     iwt   r15,#FFFF
000A:B0F2 FF FF FF     iwt   r15,#FFFF
000A:B0F5 FF FF FF     iwt   r15,#FFFF
000A:B0F8 FF FF FF     iwt   r15,#FFFF
000A:B0FB FF FF FF     iwt   r15,#FFFF
000A:B0FE FF FF FF     iwt   r15,#FFFF
000A:B101 FF FF FF     iwt   r15,#FFFF
000A:B104 FF FF FF     iwt   r15,#FFFF
000A:B107 FF FF FF     iwt   r15,#FFFF
000A:B10A FF FF FF     iwt   r15,#FFFF
000A:B10D FF FF FF     iwt   r15,#FFFF
000A:B110 FF FF 00     iwt   r15,#00FF
000A:B113 00           stop
000A:B114 00           stop
000A:B115 00           stop
000A:B116 1C 00        stop
000A:B118 00           stop
000A:B119 00           stop
000A:B11A 00           stop
000A:B11B 00           stop
000A:B11C 00           stop
000A:B11D 00           stop
000A:B11E 00           stop
000A:B11F 00           stop
000A:B120 00           stop
000A:B121 00           stop
000A:B122 00           stop
000A:B123 00           stop
000A:B124 00           stop
000A:B125 00           stop
000A:B126 00           stop
000A:B127 00           stop
000A:B128 00           stop
000A:B129 00           stop
000A:B12A 00           stop
000A:B12B 00           stop
000A:B12C 00           stop
000A:B12D 00           stop
000A:B12E 00           stop
000A:B12F 00           stop
000A:B130 00           stop
000A:B131 00           stop
000A:B132 00           stop
000A:B133 00           stop
000A:B134 00           stop
000A:B135 00           stop
000A:B136 00           stop
000A:B137 00           stop
000A:B138 00           stop
000A:B139 00           stop
000A:B13A 00           stop
000A:B13B 00           stop
000A:B13C 00           stop
000A:B13D 00           stop
000A:B13E 00           stop
000A:B13F 00           stop
000A:B140 00           stop
000A:B141 00           stop
000A:B142 00           stop
000A:B143 00           stop
000A:B144 00           stop
000A:B145 00           stop
000A:B146 00           stop
000A:B147 00           stop
000A:B148 00           stop
000A:B149 00           stop
000A:B14A 00           stop
000A:B14B 00           stop
000A:B14C 00           stop
000A:B14D 00           stop
000A:B14E 00           stop
000A:B14F 00           stop
000A:B150 00           stop
000A:B151 00           stop
000A:B152 00           stop
000A:B153 00           stop
000A:B154 00           stop
000A:B155 00           stop
000A:B156 00           stop
000A:B157 00           stop
000A:B158 00           stop
000A:B159 00           stop
000A:B15A 00           stop
000A:B15B 00           stop
000A:B15C 00           stop
000A:B15D 00           stop
000A:B15E 00           stop
000A:B15F 00           stop
000A:B160 00           stop
000A:B161 00           stop
000A:B162 00           stop
000A:B163 00           stop
000A:B164 00           stop
000A:B165 00           stop
000A:B166 00           stop
000A:B167 00           stop
000A:B168 00           stop
000A:B169 00           stop
000A:B16A 00           stop
000A:B16B 00           stop
000A:B16C 00           stop
000A:B16D 00           stop
000A:B16E 00           stop
000A:B16F 00           stop
000A:B170 00           stop
000A:B171 00           stop
000A:B172 00           stop
000A:B173 00           stop
000A:B174 00           stop
000A:B175 00           stop
000A:B176 00           stop
000A:B177 00           stop
000A:B178 00           stop
000A:B179 00           stop
000A:B17A 00           stop
000A:B17B 00           stop
000A:B17C 00           stop
000A:B17D 00           stop
000A:B17E 00           stop
000A:B17F 00           stop
000A:B180 00           stop
000A:B181 00           stop
000A:B182 00           stop
000A:B183 00           stop
000A:B184 00           stop
000A:B185 00           stop
000A:B186 00           stop
000A:B187 00           stop
000A:B188 00           stop
000A:B189 00           stop
000A:B18A 00           stop
000A:B18B 00           stop
000A:B18C 00           stop
000A:B18D 00           stop
000A:B18E 00           stop
000A:B18F 00           stop
000A:B190 00           stop
000A:B191 00           stop
000A:B192 00           stop
000A:B193 00           stop
000A:B194 00           stop
000A:B195 00           stop
000A:B196 00           stop
000A:B197 00           stop
000A:B198 00           stop
000A:B199 00           stop
000A:B19A 00           stop
000A:B19B 00           stop
000A:B19C 00           stop
000A:B19D 00           stop
000A:B19E 00           stop
000A:B19F 00           stop
000A:B1A0 00           stop
000A:B1A1 00           stop
000A:B1A2 00           stop
000A:B1A3 00           stop
000A:B1A4 00           stop
000A:B1A5 00           stop
000A:B1A6 00           stop
000A:B1A7 00           stop
000A:B1A8 00           stop
000A:B1A9 00           stop
000A:B1AA 00           stop
000A:B1AB 00           stop
000A:B1AC 00           stop
000A:B1AD 00           stop
000A:B1AE 00           stop
000A:B1AF 00           stop
000A:B1B0 00           stop
000A:B1B1 00           stop
000A:B1B2 00           stop
000A:B1B3 00           stop
000A:B1B4 00           stop
000A:B1B5 00           stop
000A:B1B6 00           stop
000A:B1B7 00           stop
000A:B1B8 00           stop
000A:B1B9 00           stop
000A:B1BA 00           stop
000A:B1BB 00           stop
000A:B1BC 00           stop
000A:B1BD 00           stop
000A:B1BE 00           stop
000A:B1BF 00           stop
000A:B1C0 00           stop
000A:B1C1 00           stop
000A:B1C2 00           stop
000A:B1C3 00           stop
000A:B1C4 00           stop
000A:B1C5 00           stop
000A:B1C6 00           stop
000A:B1C7 00           stop
000A:B1C8 00           stop
000A:B1C9 00           stop
000A:B1CA 00           stop
000A:B1CB 00           stop
000A:B1CC 01           nop
000A:B1CD 00           stop
000A:B1CE 00           stop
000A:B1CF 00           stop
000A:B1D0 00           stop
000A:B1D1 00           stop
000A:B1D2 00           stop
000A:B1D3 00           stop
000A:B1D4 00           stop
000A:B1D5 00           stop
000A:B1D6 00           stop
000A:B1D7 00           stop
000A:B1D8 00           stop
000A:B1D9 00           stop
000A:B1DA 00           stop
000A:B1DB 00           stop
000A:B1DC 00           stop
000A:B1DD 00           stop
000A:B1DE 00           stop
000A:B1DF 00           stop
000A:B1E0 00           stop
000A:B1E1 00           stop
000A:B1E2 00           stop
000A:B1E3 00           stop
000A:B1E4 00           stop
000A:B1E5 00           stop
000A:B1E6 00           stop
000A:B1E7 00           stop
000A:B1E8 00           stop
000A:B1E9 00           stop
000A:B1EA 00           stop
000A:B1EB 00           stop
000A:B1EC 00           stop
000A:B1ED 00           stop
000A:B1EE 00           stop
000A:B1EF 00           stop
000A:B1F0 00           stop
000A:B1F1 00           stop
000A:B1F2 00           stop
000A:B1F3 00           stop
000A:B1F4 00           stop
000A:B1F5 00           stop
000A:B1F6 00           stop
000A:B1F7 00           stop
000A:B1F8 00           stop
000A:B1F9 00           stop
000A:B1FA 00           stop
000A:B1FB 00           stop
000A:B1FC FF FF FF     iwt   r15,#FFFF
000A:B1FF FF FF FF     iwt   r15,#FFFF
000A:B202 FF FF FF     iwt   r15,#FFFF
000A:B205 FF FF FF     iwt   r15,#FFFF
000A:B208 FF FF FF     iwt   r15,#FFFF
000A:B20B FF FF FF     iwt   r15,#FFFF
000A:B20E FF FF FF     iwt   r15,#FFFF
000A:B211 FF FF FF     iwt   r15,#FFFF
000A:B214 FF FF FF     iwt   r15,#FFFF
000A:B217 FF FF FF     iwt   r15,#FFFF
000A:B21A FF FF FF     iwt   r15,#FFFF
000A:B21D FF FF FF     iwt   r15,#FFFF
000A:B220 FF FF FF     iwt   r15,#FFFF
000A:B223 FF FF FF     iwt   r15,#FFFF
000A:B226 FF FF FF     iwt   r15,#FFFF
000A:B229 FF FF FF     iwt   r15,#FFFF
000A:B22C FF FF FF     iwt   r15,#FFFF
000A:B22F FF FF FF     iwt   r15,#FFFF
000A:B232 FF FF FF     iwt   r15,#FFFF
000A:B235 FF FF FF     iwt   r15,#FFFF
000A:B238 FF FF FF     iwt   r15,#FFFF
000A:B23B FF FF FF     iwt   r15,#FFFF
000A:B23E FF FF FF     iwt   r15,#FFFF
000A:B241 FF FF FF     iwt   r15,#FFFF
000A:B244 FF FF FF     iwt   r15,#FFFF
000A:B247 FF FF FF     iwt   r15,#FFFF
000A:B24A FF FF FF     iwt   r15,#FFFF
000A:B24D FF FF FF     iwt   r15,#FFFF
000A:B250 FF FF FF     iwt   r15,#FFFF
000A:B253 FF FF FF     iwt   r15,#FFFF
000A:B256 FF FF FF     iwt   r15,#FFFF
000A:B259 FF FF FF     iwt   r15,#FFFF
000A:B25C FF FF FF     iwt   r15,#FFFF
000A:B25F FF FF FF     iwt   r15,#FFFF
000A:B262 FF FF FF     iwt   r15,#FFFF
000A:B265 FF FF FF     iwt   r15,#FFFF
000A:B268 FF FF FF     iwt   r15,#FFFF
000A:B26B FF FF FF     iwt   r15,#FFFF
000A:B26E FF FF FF     iwt   r15,#FFFF
000A:B271 FF FF FF     iwt   r15,#FFFF
000A:B274 FF FF FF     iwt   r15,#FFFF
000A:B277 FF FF FF     iwt   r15,#FFFF
000A:B27A FF FF FF     iwt   r15,#FFFF
000A:B27D FF FF FF     iwt   r15,#FFFF
000A:B280 FF FF FF     iwt   r15,#FFFF
000A:B283 FF FF FF     iwt   r15,#FFFF
000A:B286 FF FF FF     iwt   r15,#FFFF
000A:B289 FF FF FF     iwt   r15,#FFFF
000A:B28C FF FF FF     iwt   r15,#FFFF
000A:B28F FF FF FF     iwt   r15,#FFFF
000A:B292 FF FF FF     iwt   r15,#FFFF
000A:B295 FF FF FF     iwt   r15,#FFFF
000A:B298 FF FF FF     iwt   r15,#FFFF
000A:B29B FF FF FF     iwt   r15,#FFFF
000A:B29E FF FF FF     iwt   r15,#FFFF
000A:B2A1 FF FF FF     iwt   r15,#FFFF
000A:B2A4 FF FF FF     iwt   r15,#FFFF
000A:B2A7 FF FF FF     iwt   r15,#FFFF
000A:B2AA FF FF FF     iwt   r15,#FFFF
000A:B2AD FF FF FF     iwt   r15,#FFFF
000A:B2B0 FF FF FF     iwt   r15,#FFFF
000A:B2B3 FF FF FF     iwt   r15,#FFFF
000A:B2B6 FF FF FF     iwt   r15,#FFFF
000A:B2B9 FF FF FF     iwt   r15,#FFFF
000A:B2BC FF FF FF     iwt   r15,#FFFF
000A:B2BF FF FF FF     iwt   r15,#FFFF
000A:B2C2 FF FF FF     iwt   r15,#FFFF
000A:B2C5 FF FF FF     iwt   r15,#FFFF
000A:B2C8 FF FF FF     iwt   r15,#FFFF
000A:B2CB FF FF FF     iwt   r15,#FFFF
000A:B2CE FF FF FF     iwt   r15,#FFFF
000A:B2D1 FF FF FF     iwt   r15,#FFFF
000A:B2D4 FF FF FF     iwt   r15,#FFFF
000A:B2D7 FF FF FF     iwt   r15,#FFFF
000A:B2DA FF FF FF     iwt   r15,#FFFF
000A:B2DD FF FF FF     iwt   r15,#FFFF
000A:B2E0 FF FF FF     iwt   r15,#FFFF
000A:B2E3 FF FF FF     iwt   r15,#FFFF
000A:B2E6 FF FF FF     iwt   r15,#FFFF
000A:B2E9 FF FF FF     iwt   r15,#FFFF
000A:B2EC FF FF FF     iwt   r15,#FFFF
000A:B2EF FF FF FF     iwt   r15,#FFFF
000A:B2F2 FF FF FF     iwt   r15,#FFFF
000A:B2F5 FF FF FF     iwt   r15,#FFFF
000A:B2F8 FF FF FF     iwt   r15,#FFFF
000A:B2FB FF FF FF     iwt   r15,#FFFF
000A:B2FE FF FF FF     iwt   r15,#FFFF
000A:B301 FF FF FF     iwt   r15,#FFFF
000A:B304 FF FF FF     iwt   r15,#FFFF
000A:B307 FF FF FF     iwt   r15,#FFFF
000A:B30A FF FF FF     iwt   r15,#FFFF
000A:B30D FF FF FF     iwt   r15,#FFFF
000A:B310 FF FF 05     iwt   r15,#05FF
000A:B313 10 04        rol
000A:B315 08 04        bne   B31B
000A:B317 08 04        bne   B31D
000A:B319 08 05        bne   B320
000A:B31B 20           with  r0
000A:B31C 05 20        bra   B33E
000A:B31E 05 20        bra   B340
000A:B320 05 10        bra   B332
000A:B322 05 60        bra   B384
000A:B324 05 28        bra   B34E
000A:B326 05 20        bra   B348
000A:B328 05 20        bra   B34A
000A:B32A 04           rol
000A:B32B 08 04        bne   B331
000A:B32D 08 04        bne   B333
000A:B32F 08 04        bne   B335
000A:B331 08 04        bne   B337
000A:B333 08 05        bne   B33A
000A:B335 40           ldw   (r0)
000A:B336 01           nop
000A:B337 20           with  r0
000A:B338 05 40        bra   B37A
000A:B33A 04           rol
000A:B33B 08 04        bne   B341
000A:B33D 08 05        bne   B344
000A:B33F 20 02        cache
000A:B341 00           stop
000A:B342 05 20        bra   B364
000A:B344 05 20        bra   B366
000A:B346 05 38        bra   B380
000A:B348 05 28        bra   B372
000A:B34A 04           rol
000A:B34B 08 04        bne   B351
000A:B34D 08 04        bne   B353
000A:B34F 08 04        bne   B355
000A:B351 08 04        bne   B357
000A:B353 08 05        bne   B35A
000A:B355 38           stw   (r8)
000A:B356 05 28        bra   B380
000A:B358 04           rol
000A:B359 08 04        bne   B35F
000A:B35B 08 04        bne   B361
000A:B35D 08 05        bne   B364
000A:B35F 18           to    r8
000A:B360 05 60        bra   B3C2
000A:B362 05 20        bra   B384
000A:B364 05 20        bra   B386
000A:B366 05 20        bra   B388
000A:B368 04           rol
000A:B369 08 05        bne   B370
000A:B36B 40           ldw   (r0)
000A:B36C 05 40        bra   B3AE
000A:B36E 05 20        bra   B390
000A:B370 05 20        bra   B392
000A:B372 05 10        bra   B384
000A:B374 05 18        bra   B38E
000A:B376 04           rol
000A:B377 08 05        bne   B37E
000A:B379 40           ldw   (r0)
000A:B37A 05 60        bra   B3DC
000A:B37C 05 20        bra   B39E
000A:B37E 04           rol
000A:B37F 08 05        bne   B386
000A:B381 20           with  r0
000A:B382 06 20        bge   B3A4
000A:B384 04           rol
000A:B385 08 05        bne   B38C
000A:B387 50           add   r0
000A:B388 05 08        bra   B392
000A:B38A 05 30        bra   B3BC
000A:B38C 05 38        bra   B3C6
000A:B38E 04           rol
000A:B38F 08 05        bne   B396
000A:B391 30           stw   (r0)
000A:B392 04           rol
000A:B393 08 04        bne   B399
000A:B395 08 04        bne   B39B
000A:B397 08 05        bne   B39E
000A:B399 18           to    r8
000A:B39A 05 30        bra   B3CC
000A:B39C 04           rol
000A:B39D 08 04        bne   B3A3
000A:B39F 08 05        bne   B3A6
000A:B3A1 30           stw   (r0)
000A:B3A2 04           rol
000A:B3A3 08 04        bne   B3A9
000A:B3A5 08 05        bne   B3AC
000A:B3A7 20 04        rol
000A:B3A9 08 04        bne   B3AF
000A:B3AB 08 04        bne   B3B1
000A:B3AD 08 05        bne   B3B4
000A:B3AF 40           ldw   (r0)
000A:B3B0 05 18        bra   B3CA
000A:B3B2 05 20        bra   B3D4
000A:B3B4 06 48        bge   B3FE
000A:B3B6 06 60        bge   B418
000A:B3B8 05 20        bra   B3DA
000A:B3BA 05 60        bra   B41C
000A:B3BC 05 20        bra   B3DE
000A:B3BE 06 40        bge   B400
000A:B3C0 06 40        bge   B402
000A:B3C2 04           rol
000A:B3C3 08 05        bne   B3CA
000A:B3C5 48           ldw   (r8)
000A:B3C6 06 08        bge   B3D0
000A:B3C8 04           rol
000A:B3C9 08 04        bne   B3CF
000A:B3CB 08 04        bne   B3D1
000A:B3CD 08 02        bne   B3D1
000A:B3CF 20 04        rol
000A:B3D1 08 05        bne   B3D8
000A:B3D3 30           stw   (r0)
000A:B3D4 04           rol
000A:B3D5 08 05        bne   B3DC
000A:B3D7 30           stw   (r0)
000A:B3D8 05 20        bra   B3FA
000A:B3DA 05 20        bra   B3FC
000A:B3DC 05 20        bra   B3FE
000A:B3DE 05 20        bra   B400
000A:B3E0 05 18        bra   B3FA
000A:B3E2 05 20        bra   B404
000A:B3E4 04           rol
000A:B3E5 08 05        bne   B3EC
000A:B3E7 20           with  r0
000A:B3E8 05 10        bra   B3FA
000A:B3EA 04           rol
000A:B3EB 08 04        bne   B3F1
000A:B3ED 08 05        bne   B3F4
000A:B3EF 20 04        rol
000A:B3F1 08 05        bne   B3F8
000A:B3F3 50           add   r0
000A:B3F4 81           mult  r1
000A:B3F5 29 81        mult  r1
000A:B3F7 41           ldw   (r1)
000A:B3F8 81           mult  r1
000A:B3F9 61           sub   r1
000A:B3FA 81           mult  r1
000A:B3FB 61           sub   r1
000A:B3FC FF FF FF     iwt   r15,#FFFF
000A:B3FF FF FF FF     iwt   r15,#FFFF
000A:B402 FF FF FF     iwt   r15,#FFFF
000A:B405 FF FF FF     iwt   r15,#FFFF
000A:B408 FF FF FF     iwt   r15,#FFFF
000A:B40B FF FF FF     iwt   r15,#FFFF
000A:B40E FF FF FF     iwt   r15,#FFFF
000A:B411 FF FF FF     iwt   r15,#FFFF
000A:B414 FF FF FF     iwt   r15,#FFFF
000A:B417 FF FF FF     iwt   r15,#FFFF
000A:B41A FF FF FF     iwt   r15,#FFFF
000A:B41D FF FF FF     iwt   r15,#FFFF
000A:B420 FF FF FF     iwt   r15,#FFFF
000A:B423 FF FF FF     iwt   r15,#FFFF
000A:B426 FF FF FF     iwt   r15,#FFFF
000A:B429 FF FF FF     iwt   r15,#FFFF
000A:B42C FF FF FF     iwt   r15,#FFFF
000A:B42F FF FF FF     iwt   r15,#FFFF
000A:B432 FF FF FF     iwt   r15,#FFFF
000A:B435 FF FF FF     iwt   r15,#FFFF
000A:B438 FF FF FF     iwt   r15,#FFFF
000A:B43B FF FF FF     iwt   r15,#FFFF
000A:B43E FF FF FF     iwt   r15,#FFFF
000A:B441 FF FF FF     iwt   r15,#FFFF
000A:B444 FF FF FF     iwt   r15,#FFFF
000A:B447 FF FF FF     iwt   r15,#FFFF
000A:B44A FF FF FF     iwt   r15,#FFFF
000A:B44D FF FF FF     iwt   r15,#FFFF
000A:B450 FF FF FF     iwt   r15,#FFFF
000A:B453 FF FF FF     iwt   r15,#FFFF
000A:B456 FF FF FF     iwt   r15,#FFFF
000A:B459 FF FF FF     iwt   r15,#FFFF
000A:B45C FF FF FF     iwt   r15,#FFFF
000A:B45F FF FF FF     iwt   r15,#FFFF
000A:B462 FF FF FF     iwt   r15,#FFFF
000A:B465 FF FF FF     iwt   r15,#FFFF
000A:B468 FF FF FF     iwt   r15,#FFFF
000A:B46B FF FF FF     iwt   r15,#FFFF
000A:B46E FF FF FF     iwt   r15,#FFFF
000A:B471 FF FF FF     iwt   r15,#FFFF
000A:B474 FF FF FF     iwt   r15,#FFFF
000A:B477 FF FF FF     iwt   r15,#FFFF
000A:B47A FF FF FF     iwt   r15,#FFFF
000A:B47D FF FF FF     iwt   r15,#FFFF
000A:B480 FF FF FF     iwt   r15,#FFFF
000A:B483 FF FF FF     iwt   r15,#FFFF
000A:B486 FF FF FF     iwt   r15,#FFFF
000A:B489 FF FF FF     iwt   r15,#FFFF
000A:B48C FF FF FF     iwt   r15,#FFFF
000A:B48F FF FF FF     iwt   r15,#FFFF
000A:B492 FF FF FF     iwt   r15,#FFFF
000A:B495 FF FF FF     iwt   r15,#FFFF
000A:B498 FF FF FF     iwt   r15,#FFFF
000A:B49B FF FF FF     iwt   r15,#FFFF
000A:B49E FF FF FF     iwt   r15,#FFFF
000A:B4A1 FF FF FF     iwt   r15,#FFFF
000A:B4A4 FF FF FF     iwt   r15,#FFFF
000A:B4A7 FF FF FF     iwt   r15,#FFFF
000A:B4AA FF FF FF     iwt   r15,#FFFF
000A:B4AD FF FF FF     iwt   r15,#FFFF
000A:B4B0 FF FF FF     iwt   r15,#FFFF
000A:B4B3 FF FF FF     iwt   r15,#FFFF
000A:B4B6 FF FF FF     iwt   r15,#FFFF
000A:B4B9 FF FF FF     iwt   r15,#FFFF
000A:B4BC FF FF FF     iwt   r15,#FFFF
000A:B4BF FF FF FF     iwt   r15,#FFFF
000A:B4C2 FF FF FF     iwt   r15,#FFFF
000A:B4C5 FF FF FF     iwt   r15,#FFFF
000A:B4C8 FF FF FF     iwt   r15,#FFFF
000A:B4CB FF FF FF     iwt   r15,#FFFF
000A:B4CE FF FF FF     iwt   r15,#FFFF
000A:B4D1 FF FF FF     iwt   r15,#FFFF
000A:B4D4 FF FF FF     iwt   r15,#FFFF
000A:B4D7 FF FF FF     iwt   r15,#FFFF
000A:B4DA FF FF FF     iwt   r15,#FFFF
000A:B4DD FF FF FF     iwt   r15,#FFFF
000A:B4E0 FF FF FF     iwt   r15,#FFFF
000A:B4E3 FF FF FF     iwt   r15,#FFFF
000A:B4E6 FF FF FF     iwt   r15,#FFFF
000A:B4E9 FF FF FF     iwt   r15,#FFFF
000A:B4EC FF FF FF     iwt   r15,#FFFF
000A:B4EF FF FF FF     iwt   r15,#FFFF
000A:B4F2 FF FF FF     iwt   r15,#FFFF
000A:B4F5 FF FF FF     iwt   r15,#FFFF
000A:B4F8 FF FF FF     iwt   r15,#FFFF
000A:B4FB FF FF FF     iwt   r15,#FFFF
000A:B4FE FF FF FF     iwt   r15,#FFFF
000A:B501 FF FF FF     iwt   r15,#FFFF
000A:B504 FF FF FF     iwt   r15,#FFFF
000A:B507 FF FF FF     iwt   r15,#FFFF
000A:B50A FF FF FF     iwt   r15,#FFFF
000A:B50D FF FF FF     iwt   r15,#FFFF
000A:B510 FF FF 02     iwt   r15,#02FF
000A:B513 16 02        cache
000A:B515 16 FF 16 05  iwt   r15,#0516
000A:B519 00           stop
000A:B51A 02           cache
000A:B51B 06 02        bge   B51F
000A:B51D 00           stop
000A:B51E 06 06        bge   B526
000A:B520 02           cache
000A:B521 06 05        bge   B528
000A:B523 06 02        bge   B527
000A:B525 00           stop
000A:B526 02           cache
000A:B527 06 02        bge   B52B
000A:B529 06 02        bge   B52D
000A:B52B 06 02        bge   B52F
000A:B52D 12 02        cache
000A:B52F 06 02        bge   B533
000A:B531 06 02        bge   B535
000A:B533 06 02        bge   B537
000A:B535 06 02        bge   B539
000A:B537 06 02        bge   B53B
000A:B539 06 02        bge   B53D
000A:B53B 16 04        rol
000A:B53D 06 02        bge   B541
000A:B53F 06 02        bge   B543
000A:B541 06 01        bge   B544
000A:B543 00           stop
000A:B544 00           stop
000A:B545 00           stop
000A:B546 02           cache
000A:B547 06 02        bge   B54B
000A:B549 06 04        bge   B54F
000A:B54B 02           cache
000A:B54C 01           nop
000A:B54D 06 01        bge   B550
000A:B54F 06 01        bge   B552
000A:B551 06 01        bge   B554
000A:B553 06 01        bge   B556
000A:B555 06 01        bge   B558
000A:B557 06 01        bge   B55A
000A:B559 06 01        bge   B55C
000A:B55B 06 01        bge   B55E
000A:B55D 06 01        bge   B560
000A:B55F 06 01        bge   B562
000A:B561 06 00        bge   B563
000A:B563 00           stop
000A:B564 01           nop
000A:B565 04           rol
000A:B566 01           nop
000A:B567 06 01        bge   B56A
000A:B569 06 01        bge   B56C
000A:B56B 06 01        bge   B56E
000A:B56D 06 01        bge   B570
000A:B56F 06 01        bge   B572
000A:B571 02           cache
000A:B572 01           nop
000A:B573 00           stop
000A:B574 01           nop
000A:B575 00           stop
000A:B576 01           nop
000A:B577 06 01        bge   B57A
000A:B579 00           stop
000A:B57A 01           nop
000A:B57B 00           stop
000A:B57C 01           nop
000A:B57D 06 01        bge   B580
000A:B57F 06 01        bge   B582
000A:B581 00           stop
000A:B582 01           nop
000A:B583 00           stop
000A:B584 01           nop
000A:B585 00           stop
000A:B586 01           nop
000A:B587 00           stop
000A:B588 01           nop
000A:B589 06 01        bge   B58C
000A:B58B 06 01        bge   B58E
000A:B58D 00           stop
000A:B58E 06 04        bge   B594
000A:B590 01           nop
000A:B591 06 05        bge   B598
000A:B593 02           cache
000A:B594 05 02        bra   B598
000A:B596 06 06        bge   B59E
000A:B598 01           nop
000A:B599 10 01        nop
000A:B59B 10 01        nop
000A:B59D 04           rol

000A:B59E 01           nop
000A:B59F 00           stop
000A:B5A0 01           nop
000A:B5A1 00           stop
000A:B5A2 01           nop
000A:B5A3 00           stop
000A:B5A4 01           nop
000A:B5A5 06 01        bge   B5A8
000A:B5A7 00           stop
000A:B5A8 01           nop
000A:B5A9 06 01        bge   B5AC
000A:B5AB 06 01        bge   B5AE
000A:B5AD 02           cache
000A:B5AE 01           nop
000A:B5AF 00           stop
000A:B5B0 01           nop
000A:B5B1 00           stop
000A:B5B2 01           nop
000A:B5B3 00           stop
000A:B5B4 01           nop
000A:B5B5 00           stop
000A:B5B6 01           nop
000A:B5B7 00           stop
000A:B5B8 01           nop
000A:B5B9 04           rol
000A:B5BA 06 06        bge   B5C2
000A:B5BC 01           nop
000A:B5BD 04           rol
000A:B5BE 01           nop
000A:B5BF 04           rol
000A:B5C0 01           nop
000A:B5C1 04           rol
000A:B5C2 01           nop
000A:B5C3 00           stop
000A:B5C4 01           nop
000A:B5C5 00           stop
000A:B5C6 00           stop
000A:B5C7 00           stop
000A:B5C8 01           nop
000A:B5C9 04           rol
000A:B5CA 01           nop
000A:B5CB 04           rol
000A:B5CC 01           nop
000A:B5CD 02           cache
000A:B5CE 01           nop
000A:B5CF 00           stop
000A:B5D0 01           nop
000A:B5D1 04           rol
000A:B5D2 01           nop
000A:B5D3 16 01        nop
000A:B5D5 02           cache
000A:B5D6 01           nop
000A:B5D7 00           stop
000A:B5D8 01           nop
000A:B5D9 00           stop
000A:B5DA 01           nop
000A:B5DB 04           rol
000A:B5DC 01           nop
000A:B5DD 00           stop
000A:B5DE FF 16 01     iwt   r15,#0116
000A:B5E1 00           stop
000A:B5E2 01           nop
000A:B5E3 00           stop
000A:B5E4 01           nop
000A:B5E5 0C 00        bcc   B5E7
000A:B5E7 10 02        cache
000A:B5E9 06 02        bge   B5ED
000A:B5EB 00           stop
000A:B5EC 07 00        blt   B5EE
000A:B5EE 01           nop
000A:B5EF 02           cache
000A:B5F0 03           lsr
000A:B5F1 00           stop
000A:B5F2 01           nop
000A:B5F3 04           rol
000A:B5F4 06 08        bge   B5FE
000A:B5F6 06 06        bge   B5FE
000A:B5F8 06 04        bge   B5FE
000A:B5FA 06 00        bge   B5FC
000A:B5FC FF FF FF     iwt   r15,#FFFF
000A:B5FF FF FF FF     iwt   r15,#FFFF
000A:B602 FF FF FF     iwt   r15,#FFFF
000A:B605 FF FF FF     iwt   r15,#FFFF
000A:B608 FF FF FF     iwt   r15,#FFFF
000A:B60B FF FF FF     iwt   r15,#FFFF
000A:B60E FF FF FF     iwt   r15,#FFFF
000A:B611 FF FF FF     iwt   r15,#FFFF
000A:B614 FF FF FF     iwt   r15,#FFFF
000A:B617 FF FF FF     iwt   r15,#FFFF
000A:B61A FF FF FF     iwt   r15,#FFFF
000A:B61D FF FF FF     iwt   r15,#FFFF
000A:B620 FF FF FF     iwt   r15,#FFFF
000A:B623 FF FF FF     iwt   r15,#FFFF
000A:B626 FF FF FF     iwt   r15,#FFFF
000A:B629 FF FF FF     iwt   r15,#FFFF
000A:B62C FF FF FF     iwt   r15,#FFFF
000A:B62F FF FF FF     iwt   r15,#FFFF
000A:B632 FF FF FF     iwt   r15,#FFFF
000A:B635 FF FF FF     iwt   r15,#FFFF
000A:B638 FF FF FF     iwt   r15,#FFFF
000A:B63B FF FF FF     iwt   r15,#FFFF
000A:B63E FF FF FF     iwt   r15,#FFFF
000A:B641 FF FF FF     iwt   r15,#FFFF
000A:B644 FF FF FF     iwt   r15,#FFFF
000A:B647 FF FF FF     iwt   r15,#FFFF
000A:B64A FF FF FF     iwt   r15,#FFFF
000A:B64D FF FF FF     iwt   r15,#FFFF
000A:B650 FF FF FF     iwt   r15,#FFFF
000A:B653 FF FF FF     iwt   r15,#FFFF
000A:B656 FF FF FF     iwt   r15,#FFFF
000A:B659 FF FF FF     iwt   r15,#FFFF
000A:B65C FF FF FF     iwt   r15,#FFFF
000A:B65F FF FF FF     iwt   r15,#FFFF
000A:B662 FF FF FF     iwt   r15,#FFFF
000A:B665 FF FF FF     iwt   r15,#FFFF
000A:B668 FF FF FF     iwt   r15,#FFFF
000A:B66B FF FF FF     iwt   r15,#FFFF
000A:B66E FF FF FF     iwt   r15,#FFFF
000A:B671 FF FF FF     iwt   r15,#FFFF
000A:B674 FF FF FF     iwt   r15,#FFFF
000A:B677 FF FF FF     iwt   r15,#FFFF
000A:B67A FF FF FF     iwt   r15,#FFFF
000A:B67D FF FF FF     iwt   r15,#FFFF
000A:B680 FF FF FF     iwt   r15,#FFFF
000A:B683 FF FF FF     iwt   r15,#FFFF
000A:B686 FF FF FF     iwt   r15,#FFFF
000A:B689 FF FF FF     iwt   r15,#FFFF
000A:B68C FF FF FF     iwt   r15,#FFFF
000A:B68F FF FF FF     iwt   r15,#FFFF
000A:B692 FF FF FF     iwt   r15,#FFFF
000A:B695 FF FF FF     iwt   r15,#FFFF
000A:B698 FF FF FF     iwt   r15,#FFFF
000A:B69B FF FF FF     iwt   r15,#FFFF
000A:B69E FF FF FF     iwt   r15,#FFFF
000A:B6A1 FF FF FF     iwt   r15,#FFFF
000A:B6A4 FF FF FF     iwt   r15,#FFFF
000A:B6A7 FF FF FF     iwt   r15,#FFFF
000A:B6AA FF FF FF     iwt   r15,#FFFF
000A:B6AD FF FF FF     iwt   r15,#FFFF
000A:B6B0 FF FF FF     iwt   r15,#FFFF
000A:B6B3 FF FF FF     iwt   r15,#FFFF
000A:B6B6 FF FF FF     iwt   r15,#FFFF
000A:B6B9 FF FF FF     iwt   r15,#FFFF
000A:B6BC FF FF FF     iwt   r15,#FFFF
000A:B6BF FF FF FF     iwt   r15,#FFFF
000A:B6C2 FF FF FF     iwt   r15,#FFFF
000A:B6C5 FF FF FF     iwt   r15,#FFFF
000A:B6C8 FF FF FF     iwt   r15,#FFFF
000A:B6CB FF FF FF     iwt   r15,#FFFF
000A:B6CE FF FF FF     iwt   r15,#FFFF
000A:B6D1 FF FF FF     iwt   r15,#FFFF
000A:B6D4 FF FF FF     iwt   r15,#FFFF
000A:B6D7 FF FF FF     iwt   r15,#FFFF
000A:B6DA FF FF FF     iwt   r15,#FFFF
000A:B6DD FF FF FF     iwt   r15,#FFFF
000A:B6E0 FF FF FF     iwt   r15,#FFFF
000A:B6E3 FF FF FF     iwt   r15,#FFFF
000A:B6E6 FF FF FF     iwt   r15,#FFFF
000A:B6E9 FF FF FF     iwt   r15,#FFFF
000A:B6EC FF FF FF     iwt   r15,#FFFF
000A:B6EF FF FF FF     iwt   r15,#FFFF
000A:B6F2 FF FF FF     iwt   r15,#FFFF
000A:B6F5 FF FF FF     iwt   r15,#FFFF
000A:B6F8 FF FF FF     iwt   r15,#FFFF
000A:B6FB FF FF FF     iwt   r15,#FFFF
000A:B6FE FF FF FF     iwt   r15,#FFFF
000A:B701 FF FF FF     iwt   r15,#FFFF
000A:B704 FF FF FF     iwt   r15,#FFFF
000A:B707 FF FF FF     iwt   r15,#FFFF
000A:B70A FF FF FF     iwt   r15,#FFFF
000A:B70D FF FF FF     iwt   r15,#FFFF
000A:B710 FF FF 00     iwt   r15,#00FF
000A:B713 00           stop
000A:B714 00           stop
000A:B715 00           stop
000A:B716 00           stop
000A:B717 00           stop
000A:B718 40           ldw   (r0)
000A:B719 40           ldw   (r0)
000A:B71A 00           stop
000A:B71B 00           stop
000A:B71C 06 00        bge   B71E
000A:B71E 00           stop
000A:B71F 00           stop
000A:B720 00           stop
000A:B721 00           stop
000A:B722 00           stop
000A:B723 00           stop
000A:B724 00           stop
000A:B725 00           stop
000A:B726 F8 F8 00     iwt   r8,#00F8
000A:B729 00           stop
000A:B72A 00           stop
000A:B72B 00           stop
000A:B72C 08 20        bne   B74E
000A:B72E 00           stop
000A:B72F 00           stop
000A:B730 02           cache
000A:B731 F8 20 40     iwt   r8,#4020
000A:B734 20 40        ldw   (r0)
000A:B736 08 10        bne   B748
000A:B738 00           stop
000A:B739 00           stop
000A:B73A 20 20 00     stop
000A:B73D 00           stop
000A:B73E 00           stop
000A:B73F 00           stop
000A:B740 02           cache
000A:B741 04           rol
000A:B742 00           stop
000A:B743 00           stop
000A:B744 00           stop
000A:B745 00           stop
000A:B746 00           stop
000A:B747 00           stop
000A:B748 00           stop
000A:B749 00           stop
000A:B74A 00           stop
000A:B74B 00           stop
000A:B74C 08 10        bne   B75E
000A:B74E 00           stop
000A:B74F 00           stop
000A:B750 08 F0        bne   B742
000A:B752 00           stop
000A:B753 00           stop
000A:B754 00           stop
000A:B755 00           stop
000A:B756 00           stop
000A:B757 00           stop
000A:B758 00           stop
000A:B759 00           stop
000A:B75A 00           stop
000A:B75B 00           stop
000A:B75C 00           stop
000A:B75D 00           stop
000A:B75E 00           stop
000A:B75F 00           stop
000A:B760 00           stop
000A:B761 00           stop
000A:B762 00           stop
000A:B763 00           stop
000A:B764 00           stop
000A:B765 00           stop
000A:B766 00           stop
000A:B767 00           stop
000A:B768 00           stop
000A:B769 00           stop
000A:B76A 00           stop
000A:B76B 00           stop
000A:B76C 00           stop
000A:B76D 00           stop
000A:B76E 00           stop
000A:B76F 00           stop
000A:B770 00           stop
000A:B771 00           stop
000A:B772 40           ldw   (r0)
000A:B773 40           ldw   (r0)
000A:B774 40           ldw   (r0)
000A:B775 40           ldw   (r0)
000A:B776 00           stop
000A:B777 00           stop
000A:B778 00           stop
000A:B779 00           stop
000A:B77A 00           stop
000A:B77B 00           stop
000A:B77C 00           stop
000A:B77D 00           stop
000A:B77E 08 04        bne   B784
000A:B780 00           stop
000A:B781 00           stop
000A:B782 00           stop
000A:B783 00           stop
000A:B784 40           ldw   (r0)
000A:B785 40           ldw   (r0)
000A:B786 00           stop
000A:B787 00           stop
000A:B788 00           stop
000A:B789 00           stop
000A:B78A 00           stop
000A:B78B 00           stop
000A:B78C 40           ldw   (r0)
000A:B78D 40           ldw   (r0)
000A:B78E 00           stop
000A:B78F 00           stop
000A:B790 00           stop
000A:B791 00           stop
000A:B792 00           stop
000A:B793 00           stop
000A:B794 00           stop
000A:B795 00           stop
000A:B796 00           stop
000A:B797 00           stop
000A:B798 00           stop
000A:B799 00           stop
000A:B79A 00           stop
000A:B79B 00           stop
000A:B79C 04           rol
000A:B79D 04           rol
000A:B79E 00           stop
000A:B79F 00           stop
000A:B7A0 00           stop
000A:B7A1 00           stop
000A:B7A2 00           stop
000A:B7A3 00           stop
000A:B7A4 00           stop
000A:B7A5 00           stop
000A:B7A6 00           stop
000A:B7A7 00           stop
000A:B7A8 40           ldw   (r0)
000A:B7A9 40           ldw   (r0)
000A:B7AA 40           ldw   (r0)
000A:B7AB 40           ldw   (r0)
000A:B7AC 40           ldw   (r0)
000A:B7AD 40           ldw   (r0)
000A:B7AE 00           stop
000A:B7AF 00           stop
000A:B7B0 00           stop
000A:B7B1 00           stop
000A:B7B2 00           stop
000A:B7B3 00           stop
000A:B7B4 00           stop
000A:B7B5 00           stop
000A:B7B6 00           stop
000A:B7B7 00           stop
000A:B7B8 00           stop
000A:B7B9 00           stop
000A:B7BA 00           stop
000A:B7BB 00           stop
000A:B7BC 00           stop
000A:B7BD 00           stop
000A:B7BE 00           stop
000A:B7BF 00           stop
000A:B7C0 00           stop
000A:B7C1 00           stop
000A:B7C2 00           stop
000A:B7C3 00           stop
000A:B7C4 00           stop
000A:B7C5 00           stop
000A:B7C6 00           stop
000A:B7C7 00           stop
000A:B7C8 04           rol
000A:B7C9 04           rol
000A:B7CA 00           stop
000A:B7CB 00           stop
000A:B7CC 20 20 00     stop
000A:B7CF 00           stop
000A:B7D0 00           stop
000A:B7D1 00           stop
000A:B7D2 00           stop
000A:B7D3 00           stop
000A:B7D4 40           ldw   (r0)
000A:B7D5 40           ldw   (r0)
000A:B7D6 00           stop
000A:B7D7 00           stop
000A:B7D8 00           stop
000A:B7D9 00           stop
000A:B7DA 00           stop
000A:B7DB 00           stop
000A:B7DC 00           stop
000A:B7DD 00           stop
000A:B7DE 00           stop
000A:B7DF 00           stop
000A:B7E0 00           stop
000A:B7E1 00           stop
000A:B7E2 00           stop
000A:B7E3 00           stop
000A:B7E4 40           ldw   (r0)
000A:B7E5 40           ldw   (r0)
000A:B7E6 00           stop
000A:B7E7 00           stop
000A:B7E8 00           stop
000A:B7E9 00           stop
000A:B7EA 06 00        bge   B7EC
000A:B7EC 10 00        stop
000A:B7EE 00           stop
000A:B7EF 00           stop
000A:B7F0 40           ldw   (r0)
000A:B7F1 40           ldw   (r0)
000A:B7F2 00           stop
000A:B7F3 00           stop
000A:B7F4 40           ldw   (r0)
000A:B7F5 40           ldw   (r0)
000A:B7F6 40           ldw   (r0)
000A:B7F7 40           ldw   (r0)
000A:B7F8 40           ldw   (r0)
000A:B7F9 40           ldw   (r0)
000A:B7FA 40           ldw   (r0)
000A:B7FB 40           ldw   (r0)
000A:B7FC FF FF FF     iwt   r15,#FFFF
000A:B7FF FF FF FF     iwt   r15,#FFFF
000A:B802 FF FF FF     iwt   r15,#FFFF
000A:B805 FF FF FF     iwt   r15,#FFFF
000A:B808 FF FF FF     iwt   r15,#FFFF
000A:B80B FF FF FF     iwt   r15,#FFFF
000A:B80E FF FF FF     iwt   r15,#FFFF
000A:B811 FF FF FF     iwt   r15,#FFFF
000A:B814 FF FF FF     iwt   r15,#FFFF
000A:B817 FF FF FF     iwt   r15,#FFFF
000A:B81A FF FF FF     iwt   r15,#FFFF
000A:B81D FF FF FF     iwt   r15,#FFFF
000A:B820 FF FF FF     iwt   r15,#FFFF
000A:B823 FF FF FF     iwt   r15,#FFFF
000A:B826 FF FF FF     iwt   r15,#FFFF
000A:B829 FF FF FF     iwt   r15,#FFFF
000A:B82C FF FF FF     iwt   r15,#FFFF
000A:B82F FF FF FF     iwt   r15,#FFFF
000A:B832 FF FF FF     iwt   r15,#FFFF
000A:B835 FF FF FF     iwt   r15,#FFFF
000A:B838 FF FF FF     iwt   r15,#FFFF
000A:B83B FF FF FF     iwt   r15,#FFFF
000A:B83E FF FF FF     iwt   r15,#FFFF
000A:B841 FF FF FF     iwt   r15,#FFFF
000A:B844 FF FF FF     iwt   r15,#FFFF
000A:B847 FF FF FF     iwt   r15,#FFFF
000A:B84A FF FF FF     iwt   r15,#FFFF
000A:B84D FF FF FF     iwt   r15,#FFFF
000A:B850 FF FF FF     iwt   r15,#FFFF
000A:B853 FF FF FF     iwt   r15,#FFFF
000A:B856 FF FF FF     iwt   r15,#FFFF
000A:B859 FF FF FF     iwt   r15,#FFFF
000A:B85C FF FF FF     iwt   r15,#FFFF
000A:B85F FF FF FF     iwt   r15,#FFFF
000A:B862 FF FF FF     iwt   r15,#FFFF
000A:B865 FF FF FF     iwt   r15,#FFFF
000A:B868 FF FF FF     iwt   r15,#FFFF
000A:B86B FF FF FF     iwt   r15,#FFFF
000A:B86E FF FF FF     iwt   r15,#FFFF
000A:B871 FF FF FF     iwt   r15,#FFFF
000A:B874 FF FF FF     iwt   r15,#FFFF
000A:B877 FF FF FF     iwt   r15,#FFFF
000A:B87A FF FF FF     iwt   r15,#FFFF
000A:B87D FF FF FF     iwt   r15,#FFFF
000A:B880 FF FF FF     iwt   r15,#FFFF
000A:B883 FF FF FF     iwt   r15,#FFFF
000A:B886 FF FF FF     iwt   r15,#FFFF
000A:B889 FF FF FF     iwt   r15,#FFFF
000A:B88C FF FF FF     iwt   r15,#FFFF
000A:B88F FF FF FF     iwt   r15,#FFFF
000A:B892 FF FF FF     iwt   r15,#FFFF
000A:B895 FF FF FF     iwt   r15,#FFFF
000A:B898 FF FF FF     iwt   r15,#FFFF
000A:B89B FF FF FF     iwt   r15,#FFFF
000A:B89E FF FF FF     iwt   r15,#FFFF
000A:B8A1 FF FF FF     iwt   r15,#FFFF
000A:B8A4 FF FF FF     iwt   r15,#FFFF
000A:B8A7 FF FF FF     iwt   r15,#FFFF
000A:B8AA FF FF FF     iwt   r15,#FFFF
000A:B8AD FF FF FF     iwt   r15,#FFFF
000A:B8B0 FF FF FF     iwt   r15,#FFFF
000A:B8B3 FF FF FF     iwt   r15,#FFFF
000A:B8B6 FF FF FF     iwt   r15,#FFFF
000A:B8B9 FF FF FF     iwt   r15,#FFFF
000A:B8BC FF FF FF     iwt   r15,#FFFF
000A:B8BF FF FF FF     iwt   r15,#FFFF
000A:B8C2 FF FF FF     iwt   r15,#FFFF
000A:B8C5 FF FF FF     iwt   r15,#FFFF
000A:B8C8 FF FF FF     iwt   r15,#FFFF
000A:B8CB FF FF FF     iwt   r15,#FFFF
000A:B8CE FF FF FF     iwt   r15,#FFFF
000A:B8D1 FF FF FF     iwt   r15,#FFFF
000A:B8D4 FF FF FF     iwt   r15,#FFFF
000A:B8D7 FF FF FF     iwt   r15,#FFFF
000A:B8DA FF FF FF     iwt   r15,#FFFF
000A:B8DD FF FF FF     iwt   r15,#FFFF
000A:B8E0 FF FF FF     iwt   r15,#FFFF
000A:B8E3 FF FF FF     iwt   r15,#FFFF
000A:B8E6 FF FF FF     iwt   r15,#FFFF
000A:B8E9 FF FF FF     iwt   r15,#FFFF
000A:B8EC FF FF FF     iwt   r15,#FFFF
000A:B8EF FF FF FF     iwt   r15,#FFFF
000A:B8F2 FF FF FF     iwt   r15,#FFFF
000A:B8F5 FF FF FF     iwt   r15,#FFFF
000A:B8F8 FF FF FF     iwt   r15,#FFFF
000A:B8FB FF FF FF     iwt   r15,#FFFF
000A:B8FE FF FF FF     iwt   r15,#FFFF
000A:B901 FF FF FF     iwt   r15,#FFFF
000A:B904 FF FF FF     iwt   r15,#FFFF
000A:B907 FF FF FF     iwt   r15,#FFFF
000A:B90A FF FF FF     iwt   r15,#FFFF
000A:B90D FF FF FF     iwt   r15,#FFFF
000A:B910 FF FF 00     iwt   r15,#00FF
000A:B913 00           stop
000A:B914 00           stop
000A:B915 00           stop
000A:B916 00           stop
000A:B917 00           stop
000A:B918 00           stop
000A:B919 00           stop
000A:B91A 00           stop
000A:B91B 00           stop
000A:B91C 00           stop
000A:B91D 00           stop
000A:B91E 00           stop
000A:B91F 00           stop
000A:B920 00           stop
000A:B921 00           stop
000A:B922 00           stop
000A:B923 00           stop
000A:B924 00           stop
000A:B925 00           stop
000A:B926 00           stop
000A:B927 00           stop
000A:B928 00           stop
000A:B929 00           stop
000A:B92A 00           stop
000A:B92B 00           stop
000A:B92C 48           ldw   (r8)
000A:B92D 00           stop
000A:B92E 00           stop
000A:B92F 00           stop
000A:B930 00           stop
000A:B931 00           stop
000A:B932 00           stop
000A:B933 00           stop
000A:B934 00           stop
000A:B935 00           stop
000A:B936 00           stop
000A:B937 00           stop
000A:B938 00           stop
000A:B939 00           stop
000A:B93A 32           stw   (r2)
000A:B93B 00           stop
000A:B93C 32           stw   (r2)
000A:B93D 00           stop
000A:B93E 00           stop
000A:B93F 00           stop
000A:B940 00           stop
000A:B941 00           stop
000A:B942 45           ldw   (r5)
000A:B943 00           stop
000A:B944 00           stop
000A:B945 00           stop
000A:B946 00           stop
000A:B947 00           stop
000A:B948 00           stop
000A:B949 00           stop
000A:B94A 00           stop
000A:B94B 00           stop
000A:B94C 00           stop
000A:B94D 00           stop
000A:B94E 00           stop
000A:B94F 00           stop
000A:B950 00           stop
000A:B951 00           stop
000A:B952 00           stop
000A:B953 00           stop
000A:B954 00           stop
000A:B955 00           stop
000A:B956 00           stop
000A:B957 00           stop
000A:B958 00           stop
000A:B959 00           stop
000A:B95A 00           stop
000A:B95B 00           stop
000A:B95C 00           stop
000A:B95D 00           stop
000A:B95E 00           stop
000A:B95F 00           stop
000A:B960 00           stop
000A:B961 00           stop
000A:B962 00           stop
000A:B963 00           stop
000A:B964 00           stop
000A:B965 00           stop
000A:B966 00           stop
000A:B967 00           stop
000A:B968 1C 00        stop
000A:B96A 00           stop
000A:B96B 00           stop
000A:B96C 00           stop
000A:B96D 00           stop
000A:B96E 00           stop
000A:B96F 00           stop
000A:B970 00           stop
000A:B971 00           stop
000A:B972 35           stw   (r5)
000A:B973 00           stop
000A:B974 35           stw   (r5)
000A:B975 00           stop
000A:B976 00           stop
000A:B977 00           stop
000A:B978 00           stop
000A:B979 00           stop
000A:B97A 00           stop
000A:B97B 00           stop
000A:B97C 00           stop
000A:B97D 00           stop
000A:B97E 00           stop
000A:B97F 00           stop
000A:B980 00           stop
000A:B981 00           stop
000A:B982 00           stop
000A:B983 00           stop
000A:B984 00           stop
000A:B985 00           stop
000A:B986 41           ldw   (r1)
000A:B987 00           stop
000A:B988 00           stop
000A:B989 00           stop
000A:B98A 00           stop
000A:B98B 00           stop
000A:B98C 37           stw   (r7)
000A:B98D 00           stop
000A:B98E 49           ldw   (r9)
000A:B98F 00           stop
000A:B990 00           stop
000A:B991 00           stop
000A:B992 51           add   r1
000A:B993 00           stop
000A:B994 51           add   r1
000A:B995 00           stop
000A:B996 00           stop
000A:B997 00           stop
000A:B998 00           stop
000A:B999 00           stop
000A:B99A 54           add   r4
000A:B99B 00           stop
000A:B99C 2B 00        stop
000A:B99E 57           add   r7
000A:B99F 00           stop
000A:B9A0 00           stop
000A:B9A1 00           stop
000A:B9A2 56           add   r6
000A:B9A3 00           stop
000A:B9A4 00           stop
000A:B9A5 00           stop
000A:B9A6 58           add   r8
000A:B9A7 00           stop
000A:B9A8 58           add   r8
000A:B9A9 00           stop
000A:B9AA 58           add   r8
000A:B9AB 00           stop
000A:B9AC 00           stop
000A:B9AD 00           stop
000A:B9AE 00           stop
000A:B9AF 00           stop
000A:B9B0 00           stop
000A:B9B1 00           stop
000A:B9B2 00           stop
000A:B9B3 00           stop
000A:B9B4 00           stop
000A:B9B5 00           stop
000A:B9B6 00           stop
000A:B9B7 00           stop
000A:B9B8 4B           ldw   (r11)
000A:B9B9 00           stop
000A:B9BA 00           stop
000A:B9BB 00           stop
000A:B9BC 4B           ldw   (r11)
000A:B9BD 00           stop
000A:B9BE 5D           add   r13
000A:B9BF 00           stop
000A:B9C0 2B 00        stop
000A:B9C2 5D           add   r13
000A:B9C3 00           stop
000A:B9C4 00           stop
000A:B9C5 00           stop
000A:B9C6 00           stop
000A:B9C7 00           stop
000A:B9C8 63           sub   r3
000A:B9C9 00           stop
000A:B9CA 63           sub   r3
000A:B9CB 00           stop
000A:B9CC 45           ldw   (r5)
000A:B9CD 00           stop
000A:B9CE 00           stop
000A:B9CF 00           stop
000A:B9D0 60           sub   r0
000A:B9D1 00           stop
000A:B9D2 00           stop
000A:B9D3 00           stop
000A:B9D4 66           sub   r6
000A:B9D5 00           stop
000A:B9D6 41           ldw   (r1)
000A:B9D7 00           stop
000A:B9D8 41           ldw   (r1)
000A:B9D9 00           stop
000A:B9DA 66           sub   r6
000A:B9DB 00           stop
000A:B9DC 00           stop
000A:B9DD 00           stop
000A:B9DE 00           stop
000A:B9DF 00           stop
000A:B9E0 00           stop
000A:B9E1 00           stop
000A:B9E2 00           stop
000A:B9E3 00           stop
000A:B9E4 00           stop
000A:B9E5 00           stop
000A:B9E6 00           stop
000A:B9E7 00           stop
000A:B9E8 00           stop
000A:B9E9 00           stop
000A:B9EA 00           stop
000A:B9EB 00           stop
000A:B9EC 00           stop
000A:B9ED 00           stop
000A:B9EE 00           stop
000A:B9EF 00           stop
000A:B9F0 00           stop
000A:B9F1 00           stop
000A:B9F2 00           stop
000A:B9F3 00           stop
000A:B9F4 00           stop
000A:B9F5 00           stop
000A:B9F6 00           stop
000A:B9F7 00           stop
000A:B9F8 00           stop
000A:B9F9 00           stop
000A:B9FA 00           stop
000A:B9FB 00           stop
000A:B9FC FF FF FF     iwt   r15,#FFFF
000A:B9FF FF FF FF     iwt   r15,#FFFF
000A:BA02 FF FF FF     iwt   r15,#FFFF
000A:BA05 FF FF FF     iwt   r15,#FFFF
000A:BA08 FF FF FF     iwt   r15,#FFFF
000A:BA0B FF FF FF     iwt   r15,#FFFF
000A:BA0E FF FF FF     iwt   r15,#FFFF
000A:BA11 FF FF FF     iwt   r15,#FFFF
000A:BA14 FF FF FF     iwt   r15,#FFFF
000A:BA17 FF FF FF     iwt   r15,#FFFF
000A:BA1A FF FF FF     iwt   r15,#FFFF
000A:BA1D FF FF FF     iwt   r15,#FFFF
000A:BA20 FF FF FF     iwt   r15,#FFFF
000A:BA23 FF FF FF     iwt   r15,#FFFF
000A:BA26 FF FF FF     iwt   r15,#FFFF
000A:BA29 FF FF FF     iwt   r15,#FFFF
000A:BA2C FF FF FF     iwt   r15,#FFFF
000A:BA2F FF FF FF     iwt   r15,#FFFF
000A:BA32 FF FF FF     iwt   r15,#FFFF
000A:BA35 FF FF FF     iwt   r15,#FFFF
000A:BA38 FF FF FF     iwt   r15,#FFFF
000A:BA3B FF FF FF     iwt   r15,#FFFF
000A:BA3E FF FF FF     iwt   r15,#FFFF
000A:BA41 FF FF FF     iwt   r15,#FFFF
000A:BA44 FF FF FF     iwt   r15,#FFFF
000A:BA47 FF FF FF     iwt   r15,#FFFF
000A:BA4A FF FF FF     iwt   r15,#FFFF
000A:BA4D FF FF FF     iwt   r15,#FFFF
000A:BA50 FF FF FF     iwt   r15,#FFFF
000A:BA53 FF FF FF     iwt   r15,#FFFF
000A:BA56 FF FF FF     iwt   r15,#FFFF
000A:BA59 FF FF FF     iwt   r15,#FFFF
000A:BA5C FF FF FF     iwt   r15,#FFFF
000A:BA5F FF FF FF     iwt   r15,#FFFF
000A:BA62 FF FF FF     iwt   r15,#FFFF
000A:BA65 FF FF FF     iwt   r15,#FFFF
000A:BA68 FF FF FF     iwt   r15,#FFFF
000A:BA6B FF FF FF     iwt   r15,#FFFF
000A:BA6E FF FF FF     iwt   r15,#FFFF
000A:BA71 FF FF FF     iwt   r15,#FFFF
000A:BA74 FF FF FF     iwt   r15,#FFFF
000A:BA77 FF FF FF     iwt   r15,#FFFF
000A:BA7A FF FF FF     iwt   r15,#FFFF
000A:BA7D FF FF FF     iwt   r15,#FFFF
000A:BA80 FF FF FF     iwt   r15,#FFFF
000A:BA83 FF FF FF     iwt   r15,#FFFF
000A:BA86 FF FF FF     iwt   r15,#FFFF
000A:BA89 FF FF FF     iwt   r15,#FFFF
000A:BA8C FF FF FF     iwt   r15,#FFFF
000A:BA8F FF FF FF     iwt   r15,#FFFF
000A:BA92 FF FF FF     iwt   r15,#FFFF
000A:BA95 FF FF FF     iwt   r15,#FFFF
000A:BA98 FF FF FF     iwt   r15,#FFFF
000A:BA9B FF FF FF     iwt   r15,#FFFF
000A:BA9E FF FF FF     iwt   r15,#FFFF
000A:BAA1 FF FF FF     iwt   r15,#FFFF
000A:BAA4 FF FF FF     iwt   r15,#FFFF
000A:BAA7 FF FF FF     iwt   r15,#FFFF
000A:BAAA FF FF FF     iwt   r15,#FFFF
000A:BAAD FF FF FF     iwt   r15,#FFFF
000A:BAB0 FF FF FF     iwt   r15,#FFFF
000A:BAB3 FF FF FF     iwt   r15,#FFFF
000A:BAB6 FF FF FF     iwt   r15,#FFFF
000A:BAB9 FF FF FF     iwt   r15,#FFFF
000A:BABC FF FF FF     iwt   r15,#FFFF
000A:BABF FF FF FF     iwt   r15,#FFFF
000A:BAC2 FF FF FF     iwt   r15,#FFFF
000A:BAC5 FF FF FF     iwt   r15,#FFFF
000A:BAC8 FF FF FF     iwt   r15,#FFFF
000A:BACB FF FF FF     iwt   r15,#FFFF
000A:BACE FF FF FF     iwt   r15,#FFFF
000A:BAD1 FF FF FF     iwt   r15,#FFFF
000A:BAD4 FF FF FF     iwt   r15,#FFFF
000A:BAD7 FF FF FF     iwt   r15,#FFFF
000A:BADA FF FF FF     iwt   r15,#FFFF
000A:BADD FF FF FF     iwt   r15,#FFFF
000A:BAE0 FF FF FF     iwt   r15,#FFFF
000A:BAE3 FF FF FF     iwt   r15,#FFFF
000A:BAE6 FF FF FF     iwt   r15,#FFFF
000A:BAE9 FF FF FF     iwt   r15,#FFFF
000A:BAEC FF FF FF     iwt   r15,#FFFF
000A:BAEF FF FF FF     iwt   r15,#FFFF
000A:BAF2 FF FF FF     iwt   r15,#FFFF
000A:BAF5 FF FF FF     iwt   r15,#FFFF
000A:BAF8 FF FF FF     iwt   r15,#FFFF
000A:BAFB FF FF FF     iwt   r15,#FFFF
000A:BAFE FF FF FF     iwt   r15,#FFFF
000A:BB01 FF FF FF     iwt   r15,#FFFF
000A:BB04 FF FF FF     iwt   r15,#FFFF
000A:BB07 FF FF FF     iwt   r15,#FFFF
000A:BB0A FF FF FF     iwt   r15,#FFFF
000A:BB0D FF FF FF     iwt   r15,#FFFF
000A:BB10 FF FF 00     iwt   r15,#00FF
000A:BB13 00           stop
000A:BB14 00           stop
000A:BB15 02           cache
000A:BB16 00           stop
000A:BB17 00           stop
000A:BB18 04           rol
000A:BB19 08 00        bne   BB1B
000A:BB1B 04           rol
000A:BB1C 08 01        bne   BB1F
000A:BB1E 00           stop
000A:BB1F 00           stop
000A:BB20 00           stop
000A:BB21 04           rol
000A:BB22 08 02        bne   BB26
000A:BB24 04           rol
000A:BB25 08 03        bne   BB2A
000A:BB27 00           stop
000A:BB28 00           stop
000A:BB29 00           stop
000A:BB2A 04           rol
000A:BB2B 08 04        bne   BB31
000A:BB2D 00           stop
000A:BB2E 00           stop
000A:BB2F 00           stop
000A:BB30 04           rol
000A:BB31 08 05        bne   BB38
000A:BB33 00           stop
000A:BB34 00           stop
000A:BB35 00           stop
000A:BB36 04           rol
000A:BB37 08 06        bne   BB3F
000A:BB39 04           rol
000A:BB3A 08 07        bne   BB43
000A:BB3C 00           stop
000A:BB3D 00           stop
000A:BB3E 00           stop
000A:BB3F 04           rol
000A:BB40 08 08        bne   BB4A
000A:BB42 04           rol
000A:BB43 08 09        bne   BB4E
000A:BB45 00           stop
000A:BB46 00           stop
000A:BB47 00           stop
000A:BB48 00           stop
000A:BB49 00           stop
000A:BB4A 00           stop
000A:BB4B 00           stop
000A:BB4C 00           stop
000A:BB4D 00           stop
000A:BB4E 09 00        beq   BB50
000A:BB50 00           stop
000A:BB51 01           nop
000A:BB52 00           stop
000A:BB53 00           stop
000A:BB54 08 00        bne   BB56
000A:BB56 00           stop
000A:BB57 00           stop
000A:BB58 00           stop
000A:BB59 00           stop
000A:BB5A 00           stop
000A:BB5B 01           nop
000A:BB5C 00           stop
000A:BB5D 20 00        stop
000A:BB5F 00           stop
000A:BB60 02           cache
000A:BB61 40           ldw   (r0)
000A:BB62 00           stop
000A:BB63 02           cache
000A:BB64 40           ldw   (r0)
000A:BB65 00           stop
000A:BB66 02           cache
000A:BB67 40           ldw   (r0)
000A:BB68 00           stop
000A:BB69 20 00        stop
000A:BB6B 00           stop
000A:BB6C 01           nop
000A:BB6D 48           ldw   (r8)
000A:BB6E 00           stop
000A:BB6F 00           stop
000A:BB70 48           ldw   (r8)
000A:BB71 00           stop
000A:BB72 00           stop
000A:BB73 48           ldw   (r8)
000A:BB74 00           stop
000A:BB75 00           stop
000A:BB76 48           ldw   (r8)
000A:BB77 00           stop
000A:BB78 00           stop
000A:BB79 48           ldw   (r8)
000A:BB7A 00           stop
000A:BB7B 00           stop
000A:BB7C 48           ldw   (r8)
000A:BB7D 00           stop
000A:BB7E 00           stop
000A:BB7F 48           ldw   (r8)
000A:BB80 00           stop
000A:BB81 00           stop
000A:BB82 48           ldw   (r8)
000A:BB83 00           stop
000A:BB84 00           stop
000A:BB85 48           ldw   (r8)
000A:BB86 00           stop
000A:BB87 00           stop
000A:BB88 48           ldw   (r8)
000A:BB89 00           stop
000A:BB8A 00           stop
000A:BB8B 48           ldw   (r8)
000A:BB8C 00           stop
000A:BB8D 02           cache
000A:BB8E D8           inc   r8
000A:BB8F 00           stop
000A:BB90 00           stop
000A:BB91 00           stop
000A:BB92 00           stop
000A:BB93 04           rol
000A:BB94 00           stop
000A:BB95 0A 04        bpl   BB9B
000A:BB97 00           stop
000A:BB98 0B 04        bmi   BB9E
000A:BB9A 00           stop
000A:BB9B 0C 00        bcc   BB9D
000A:BB9D 00           stop
000A:BB9E 00           stop
000A:BB9F 04           rol
000A:BBA0 00           stop
000A:BBA1 0D 04        bcs   BBA7
000A:BBA3 00           stop
000A:BBA4 0E 04        bvc   BBAA
000A:BBA6 00           stop
000A:BBA7 0F 00        bvs   BBA9
000A:BBA9 00           stop
000A:BBAA 00           stop
000A:BBAB 04           rol
000A:BBAC 00           stop
000A:BBAD 10 00        stop
000A:BBAF 00           stop
000A:BBB0 00           stop
000A:BBB1 04           rol
000A:BBB2 00           stop
000A:BBB3 11 00        stop
000A:BBB5 00           stop
000A:BBB6 00           stop
000A:BBB7 01           nop
000A:BBB8 10 00        stop
000A:BBBA 01           nop
000A:BBBB 00           stop
000A:BBBC 00           stop
000A:BBBD 02           cache
000A:BBBE 00           stop
000A:BBBF 00           stop
000A:BBC0 02           cache
000A:BBC1 08 00        bne   BBC3
000A:BBC3 00           stop
000A:BBC4 00           stop
000A:BBC5 00           stop
000A:BBC6 00           stop
000A:BBC7 00           stop
000A:BBC8 00           stop
000A:BBC9 00           stop
000A:BBCA 00           stop
000A:BBCB 00           stop
000A:BBCC 02           cache
000A:BBCD 00           stop
000A:BBCE 00           stop
000A:BBCF 21 00        stop
000A:BBD1 00           stop
000A:BBD2 24 00        stop
000A:BBD4 06 24        bge   BBFA
000A:BBD6 00           stop
000A:BBD7 07 00        blt   BBD9
000A:BBD9 00           stop
000A:BBDA 00           stop
000A:BBDB 00           stop
000A:BBDC 00           stop
000A:BBDD 00           stop
000A:BBDE 24 00        stop
000A:BBE0 08 24        bne   BC06
000A:BBE2 00           stop
000A:BBE3 09 00        beq   BBE5
000A:BBE5 00           stop
000A:BBE6 00           stop
000A:BBE7 00           stop
000A:BBE8 00           stop
000A:BBE9 00           stop
000A:BBEA 24 00        stop
000A:BBEC 00           stop
000A:BBED 24 00        stop
000A:BBEF 01           nop
000A:BBF0 02           cache
000A:BBF1 00           stop
000A:BBF2 00           stop
000A:BBF3 24 00        stop
000A:BBF5 02           cache
000A:BBF6 24 00        stop
000A:BBF8 03           lsr
000A:BBF9 02           cache
000A:BBFA 00           stop
000A:BBFB 00           stop
000A:BBFC 24 00        stop
000A:BBFE 04           rol
000A:BBFF 00           stop
000A:BC00 00           stop
000A:BC01 00           stop
000A:BC02 24 00        stop
000A:BC04 05 00        bra   BC06
000A:BC06 00           stop
000A:BC07 00           stop
000A:BC08 02           cache
000A:BC09 00           stop
000A:BC0A 00           stop
000A:BC0B 25 00        stop
000A:BC0D 12 02        cache
000A:BC0F 00           stop
000A:BC10 00           stop
000A:BC11 25 00        stop
000A:BC13 13 02        cache
000A:BC15 00           stop
000A:BC16 00           stop
000A:BC17 25 00        stop
000A:BC19 14 02        cache
000A:BC1B 00           stop
000A:BC1C 00           stop
000A:BC1D 25 00        stop
000A:BC1F 15 02        cache
000A:BC21 00           stop
000A:BC22 00           stop
000A:BC23 25 00        stop
000A:BC25 16 02        cache
000A:BC27 00           stop
000A:BC28 00           stop
000A:BC29 25 00        stop
000A:BC2B 17 00        stop
000A:BC2D 48           ldw   (r8)
000A:BC2E 00           stop
000A:BC2F 02           cache
000A:BC30 38           stw   (r8)
000A:BC31 00           stop
000A:BC32 00           stop
000A:BC33 30           stw   (r0)
000A:BC34 00           stop
000A:BC35 02           cache
000A:BC36 18 00        stop
000A:BC38 00           stop
000A:BC39 00           stop
000A:BC3A 00           stop
000A:BC3B 00           stop
000A:BC3C 00           stop
000A:BC3D 00           stop
000A:BC3E 02           cache
000A:BC3F 00           stop
000A:BC40 00           stop
000A:BC41 00           stop
000A:BC42 00           stop
000A:BC43 00           stop
000A:BC44 04           rol
000A:BC45 60           sub   r0
000A:BC46 18 04        rol
000A:BC48 68           sub   r8
000A:BC49 19 20 00     stop
000A:BC4C 00           stop
000A:BC4D 20 00        stop
000A:BC4F 00           stop
000A:BC50 00           stop
000A:BC51 00           stop
000A:BC52 00           stop
000A:BC53 02           cache
000A:BC54 58           add   r8
000A:BC55 00           stop
000A:BC56 04           rol
000A:BC57 C8           or    r8
000A:BC58 1A 00        stop
000A:BC5A 00           stop
000A:BC5B 00           stop
000A:BC5C 02           cache
000A:BC5D 00           stop
000A:BC5E 00           stop
000A:BC5F 02           cache
000A:BC60 00           stop
000A:BC61 00           stop
000A:BC62 20 00        stop
000A:BC64 00           stop
000A:BC65 20 00        stop
000A:BC67 00           stop
000A:BC68 02           cache
000A:BC69 70           merge
000A:BC6A 00           stop
000A:BC6B 00           stop
000A:BC6C 78           and   r8
000A:BC6D 00           stop
000A:BC6E 00           stop
000A:BC6F B0 00        stop
000A:BC71 01           nop
000A:BC72 88           mult  r8
000A:BC73 00           stop
000A:BC74 01           nop
000A:BC75 90           sbk
000A:BC76 00           stop
000A:BC77 00           stop
000A:BC78 00           stop
000A:BC79 00           stop
000A:BC7A 02           cache
000A:BC7B 98           jmp   r8
000A:BC7C 00           stop
000A:BC7D 02           cache
000A:BC7E 00           stop
000A:BC7F 00           stop
000A:BC80 02           cache
000A:BC81 00           stop
000A:BC82 00           stop
000A:BC83 02           cache
000A:BC84 00           stop
000A:BC85 00           stop
000A:BC86 02           cache
000A:BC87 D8           inc   r8
000A:BC88 00           stop
000A:BC89 02           cache
000A:BC8A A0 00        ibt   r0,#0000
000A:BC8C 18 28 00     stop
000A:BC8F 04           rol
000A:BC90 98           jmp   r8
000A:BC91 04           rol
000A:BC92 04           rol
000A:BC93 98           jmp   r8
000A:BC94 05 00        bra   BC96
000A:BC96 98           jmp   r8
000A:BC97 00           stop
000A:BC98 02           cache
000A:BC99 98           jmp   r8
000A:BC9A 00           stop
000A:BC9B 02           cache
000A:BC9C 98           jmp   r8
000A:BC9D 00           stop
000A:BC9E 00           stop
000A:BC9F 00           stop
000A:BCA0 00           stop
000A:BCA1 00           stop
000A:BCA2 00           stop
000A:BCA3 00           stop
000A:BCA4 04           rol
000A:BCA5 00           stop
000A:BCA6 1B 00        stop
000A:BCA8 00           stop
000A:BCA9 00           stop
000A:BCAA 02           cache
000A:BCAB 00           stop
000A:BCAC 00           stop
000A:BCAD 02           cache
000A:BCAE B8 00        stop
000A:BCB0 00           stop
000A:BCB1 80           mult  r0
000A:BCB2 00           stop
000A:BCB3 00           stop
000A:BCB4 A8 00        ibt   r8,#0000
000A:BCB6 02           cache
000A:BCB7 B8 00        stop
000A:BCB9 00           stop
000A:BCBA 00           stop
000A:BCBB 00           stop
000A:BCBC 02           cache
000A:BCBD D0           inc   r0
000A:BCBE 00           stop
000A:BCBF 01           nop
000A:BCC0 C0           hib
000A:BCC1 00           stop
000A:BCC2 02           cache
000A:BCC3 00           stop
000A:BCC4 00           stop
000A:BCC5 18 00        stop
000A:BCC7 00           stop
000A:BCC8 00           stop
000A:BCC9 00           stop
000A:BCCA 00           stop
000A:BCCB 02           cache
000A:BCCC 20 00        stop
000A:BCCE 04           rol
000A:BCCF 20 04        rol
000A:BCD1 04           rol
000A:BCD2 20           with  r0
000A:BCD3 05 00        bra   BCD5
000A:BCD5 00           stop
000A:BCD6 00           stop
000A:BCD7 0C 00        bcc   BCD9
000A:BCD9 04           rol
000A:BCDA 0C 00        bcc   BCDC
000A:BCDC 05 00        bra   BCDE
000A:BCDE 00           stop
000A:BCDF 00           stop
000A:BCE0 01           nop
000A:BCE1 00           stop
000A:BCE2 00           stop
000A:BCE3 00           stop
000A:BCE4 00           stop
000A:BCE5 00           stop
000A:BCE6 02           cache
000A:BCE7 00           stop
000A:BCE8 00           stop
000A:BCE9 02           cache
000A:BCEA 00           stop
000A:BCEB 00           stop
000A:BCEC 00           stop
000A:BCED 00           stop
000A:BCEE 00           stop
000A:BCEF 25 00        stop
000A:BCF1 1C 25 00     stop
000A:BCF4 1D 25 00     stop
000A:BCF7 1E 25 00     stop
000A:BCFA 1F 02        cache
000A:BCFC 58           add   r8
000A:BCFD 00           stop
000A:BCFE 00           stop
000A:BCFF 30           stw   (r0)
000A:BD00 00           stop
000A:BD01 00           stop
000A:BD02 00           stop
000A:BD03 00           stop
000A:BD04 02           cache
000A:BD05 28 00        stop
000A:BD07 00           stop
000A:BD08 00           stop
000A:BD09 00           stop
000A:BD0A C0           hib
000A:BD0B 80           mult  r0
000A:BD0C 2D           with  r13
000A:BD0D 0F 00        bvs   BD0F
000A:BD0F 1F 2D 1E     move  r14,r13
000A:BD12 C0           hib
000A:BD13 80           mult  r0
000A:BD14 2D           with  r13
000A:BD15 0F 00        bvs   BD17
000A:BD17 1F 2D 1C     move  r12,r13
000A:BD1A C0           hib
000A:BD1B 80           mult  r0
000A:BD1C 2D           with  r13
000A:BD1D 0E 00        bvc   BD1F
000A:BD1F 1F 2D 1A     move  r10,r13
000A:BD22 C0           hib
000A:BD23 80           mult  r0
000A:BD24 2D           with  r13
000A:BD25 0E 00        bvc   BD27
000A:BD27 1F 2D 18     move  r8,r13
000A:BD2A C0           hib
000A:BD2B 80           mult  r0
000A:BD2C 2D           with  r13
000A:BD2D 0D 00        bcs   BD2F
000A:BD2F 1F 2D 16     move  r6,r13
000A:BD32 C0           hib
000A:BD33 80           mult  r0
000A:BD34 2D           with  r13
000A:BD35 0D 00        bcs   BD37
000A:BD37 1F 2D 14     move  r4,r13
000A:BD3A C0           hib
000A:BD3B 80           mult  r0
000A:BD3C 2D           with  r13
000A:BD3D 0C 00        bcc   BD3F
000A:BD3F 1F 2D 12     move  r2,r13
000A:BD42 C0           hib
000A:BD43 80           mult  r0
000A:BD44 2D           with  r13
000A:BD45 0C 00        bcc   BD47
000A:BD47 1F 2D 10     move  r0,r13
000A:BD4A C0           hib
000A:BD4B 80           mult  r0
000A:BD4C 2D           with  r13
000A:BD4D 0B 00        bmi   BD4F
000A:BD4F 0F 2D        bvs   BD7E
000A:BD51 0E C0        bvc   BD13
000A:BD53 80           mult  r0
000A:BD54 2D           with  r13
000A:BD55 0B 00        bmi   BD57
000A:BD57 0F 2D        bvs   BD86
000A:BD59 0C C0        bcc   BD1B
000A:BD5B 80           mult  r0
000A:BD5C 2D           with  r13
000A:BD5D 0A 00        bpl   BD5F
000A:BD5F 0F 2D        bvs   BD8E
000A:BD61 0A C0        bpl   BD23
000A:BD63 80           mult  r0
000A:BD64 2D           with  r13
000A:BD65 0A 00        bpl   BD67
000A:BD67 0F 2D        bvs   BD96
000A:BD69 08 C0        bne   BD2B
000A:BD6B 80           mult  r0
000A:BD6C 2D           with  r13
000A:BD6D 09 00        beq   BD6F
000A:BD6F 0F 2D        bvs   BD9E
000A:BD71 06 C0        bge   BD33
000A:BD73 80           mult  r0
000A:BD74 2D           with  r13
000A:BD75 09 00        beq   BD77
000A:BD77 0F 2D        bvs   BDA6
000A:BD79 04           rol
000A:BD7A C0           hib
000A:BD7B 80           mult  r0
000A:BD7C 2D           with  r13
000A:BD7D 08 00        bne   BD7F
000A:BD7F 0F 2D        bvs   BDAE
000A:BD81 02           cache
000A:BD82 C0           hib
000A:BD83 80           mult  r0
000A:BD84 2D           with  r13
000A:BD85 08 00        bne   BD87
000A:BD87 0F 2D        bvs   BDB6
000A:BD89 00           stop
000A:BD8A C0           hib
000A:BD8B 80           mult  r0
000A:BD8C 2D           with  r13
000A:BD8D 07 00        blt   BD8F
000A:BD8F 0F 2D        bvs   BDBE
000A:BD91 0E C0        bvc   BD53
000A:BD93 80           mult  r0
000A:BD94 2D           with  r13
000A:BD95 07 00        blt   BD97
000A:BD97 0F 2D        bvs   BDC6
000A:BD99 0C C0        bcc   BD5B
000A:BD9B 80           mult  r0
000A:BD9C 2D           with  r13
000A:BD9D 06 00        bge   BD9F
000A:BD9F 0F 2D        bvs   BDCE
000A:BDA1 0A C0        bpl   BD63
000A:BDA3 80           mult  r0
000A:BDA4 2D           with  r13
000A:BDA5 06 00        bge   BDA7
000A:BDA7 0F 2D        bvs   BDD6
000A:BDA9 08 C0        bne   BD6B
000A:BDAB 80           mult  r0
000A:BDAC 2D           with  r13
000A:BDAD 05 00        bra   BDAF
000A:BDAF 0F 2D        bvs   BDDE
000A:BDB1 06 C0        bge   BD73
000A:BDB3 80           mult  r0
000A:BDB4 2D           with  r13
000A:BDB5 05 00        bra   BDB7
000A:BDB7 0F 2D        bvs   BDE6
000A:BDB9 04           rol
000A:BDBA C0           hib
000A:BDBB 80           mult  r0
000A:BDBC 2D 04        rol
000A:BDBE 00           stop
000A:BDBF 0F 2D        bvs   BDEE
000A:BDC1 02           cache
000A:BDC2 C0           hib
000A:BDC3 80           mult  r0
000A:BDC4 2D 04        rol
000A:BDC6 00           stop
000A:BDC7 0F 2D        bvs   BDF6
000A:BDC9 00           stop
000A:BDCA C0           hib
000A:BDCB 80           mult  r0
000A:BDCC 2D 03        lsr
000A:BDCE 00           stop
000A:BDCF 0F 2D        bvs   BDFE
000A:BDD1 FE C0 80     iwt   r14,#80C0
000A:BDD4 2D 03        lsr
000A:BDD6 00           stop
000A:BDD7 0F 2D        bvs   BE06
000A:BDD9 FC C0 80     iwt   r12,#80C0
000A:BDDC 2D 02        cache
000A:BDDE 00           stop
000A:BDDF 0F 2D        bvs   BE0E
000A:BDE1 FA C0 80     iwt   r10,#80C0
000A:BDE4 2D 02        cache
000A:BDE6 00           stop
000A:BDE7 0F 2D        bvs   BE16
000A:BDE9 F8 C0 80     iwt   r8,#80C0
000A:BDEC 2D 01        nop
000A:BDEE 00           stop
000A:BDEF 0F 2D        bvs   BE1E
000A:BDF1 F6 C0 80     iwt   r6,#80C0
000A:BDF4 2D 01        nop
000A:BDF6 00           stop
000A:BDF7 0F 2D        bvs   BE26
000A:BDF9 F4 C0 80     iwt   r4,#80C0
000A:BDFC 2D 00        stop
000A:BDFE 00           stop
000A:BDFF 0F 2D        bvs   BE2E
000A:BE01 F2 C0 80     iwt   r2,#80C0
000A:BE04 2D 00        stop
000A:BE06 00           stop
000A:BE07 0F 2D        bvs   BE36
000A:BE09 F0 D3 00     iwt   r0,#00D3
000A:BE0C 40           ldw   (r0)
000A:BE0D 7F           and   r15
000A:BE0E 00           stop
000A:BE0F 0F D3        bvs   BDE4
000A:BE11 00           stop
000A:BE12 D3           inc   r3
000A:BE13 00           stop
000A:BE14 40           ldw   (r0)
000A:BE15 7F           and   r15
000A:BE16 00           stop
000A:BE17 0F D3        bvs   BDEC
000A:BE19 02           cache
000A:BE1A D3           inc   r3
000A:BE1B 01           nop
000A:BE1C 40           ldw   (r0)
000A:BE1D 7F           and   r15
000A:BE1E 00           stop
000A:BE1F 0F D3        bvs   BDF4
000A:BE21 04           rol
000A:BE22 D3           inc   r3
000A:BE23 01           nop
000A:BE24 40           ldw   (r0)
000A:BE25 7F           and   r15
000A:BE26 00           stop
000A:BE27 0F D3        bvs   BDFC
000A:BE29 06 D3        bge   BDFE
000A:BE2B 02           cache
000A:BE2C 40           ldw   (r0)
000A:BE2D 7F           and   r15
000A:BE2E 00           stop
000A:BE2F 0F D3        bvs   BE04
000A:BE31 08 D3        bne   BE06
000A:BE33 02           cache
000A:BE34 40           ldw   (r0)
000A:BE35 7F           and   r15
000A:BE36 00           stop
000A:BE37 0F D3        bvs   BE0C
000A:BE39 0A D3        bpl   BE0E
000A:BE3B 03           lsr
000A:BE3C 40           ldw   (r0)
000A:BE3D 7F           and   r15
000A:BE3E 00           stop
000A:BE3F 0F D3        bvs   BE14
000A:BE41 0C D3        bcc   BE16
000A:BE43 03           lsr
000A:BE44 40           ldw   (r0)
000A:BE45 7F           and   r15
000A:BE46 00           stop
000A:BE47 0F D3        bvs   BE1C
000A:BE49 0E D3        bvc   BE1E
000A:BE4B 04           rol
000A:BE4C 40           ldw   (r0)
000A:BE4D 7F           and   r15
000A:BE4E 00           stop
000A:BE4F 1F D3        inc   r3
000A:BE51 10 D3        inc   r3
000A:BE53 04           rol
000A:BE54 40           ldw   (r0)
000A:BE55 7F           and   r15
000A:BE56 00           stop
000A:BE57 1F D3        inc   r3
000A:BE59 12 D3        inc   r3
000A:BE5B 05 40        bra   BE9D
000A:BE5D 7F           and   r15
000A:BE5E 00           stop
000A:BE5F 1F D3        inc   r3
000A:BE61 14 D3        inc   r3
000A:BE63 05 40        bra   BEA5
000A:BE65 7F           and   r15
000A:BE66 00           stop
000A:BE67 1F D3        inc   r3
000A:BE69 16 D3        inc   r3
000A:BE6B 06 40        bge   BEAD
000A:BE6D 7F           and   r15
000A:BE6E 00           stop
000A:BE6F 1F D3        inc   r3
000A:BE71 18 D3        inc   r3
000A:BE73 06 40        bge   BEB5
000A:BE75 7F           and   r15
000A:BE76 00           stop
000A:BE77 1F D3        inc   r3
000A:BE79 1A D3        inc   r3
000A:BE7B 07 40        blt   BEBD
000A:BE7D 7F           and   r15
000A:BE7E 00           stop
000A:BE7F 1F D3        inc   r3
000A:BE81 1C D3        inc   r3
000A:BE83 07 40        blt   BEC5
000A:BE85 7F           and   r15
000A:BE86 00           stop
000A:BE87 1F D3        inc   r3
000A:BE89 1E D3        inc   r3
000A:BE8B 08 40        bne   BECD
000A:BE8D 7F           and   r15
000A:BE8E 00           stop
000A:BE8F 0F D3        bvs   BE64
000A:BE91 F0 D3 08     iwt   r0,#08D3
000A:BE94 40           ldw   (r0)
000A:BE95 7F           and   r15
000A:BE96 00           stop
000A:BE97 0F D3        bvs   BE6C
000A:BE99 F2 D3 09     iwt   r2,#09D3
000A:BE9C 40           ldw   (r0)
000A:BE9D 7F           and   r15
000A:BE9E 00           stop
000A:BE9F 0F D3        bvs   BE74
000A:BEA1 F4 D3 09     iwt   r4,#09D3
000A:BEA4 40           ldw   (r0)
000A:BEA5 7F           and   r15
000A:BEA6 00           stop
000A:BEA7 0F D3        bvs   BE7C
000A:BEA9 F6 D3 0A     iwt   r6,#0AD3
000A:BEAC 40           ldw   (r0)
000A:BEAD 7F           and   r15
000A:BEAE 00           stop
000A:BEAF 0F D3        bvs   BE84
000A:BEB1 F8 D3 0A     iwt   r8,#0AD3
000A:BEB4 40           ldw   (r0)
000A:BEB5 7F           and   r15
000A:BEB6 00           stop
000A:BEB7 0F D3        bvs   BE8C
000A:BEB9 FA D3 0B     iwt   r10,#0BD3
000A:BEBC 40           ldw   (r0)
000A:BEBD 7F           and   r15
000A:BEBE 00           stop
000A:BEBF 0F D3        bvs   BE94
000A:BEC1 FC D3 0B     iwt   r12,#0BD3
000A:BEC4 40           ldw   (r0)
000A:BEC5 7F           and   r15
000A:BEC6 00           stop
000A:BEC7 0F D3        bvs   BE9C
000A:BEC9 FE D3 0C     iwt   r14,#0CD3
000A:BECC 40           ldw   (r0)
000A:BECD 7F           and   r15
000A:BECE 00           stop
000A:BECF 0F D3        bvs   BEA4
000A:BED1 00           stop
000A:BED2 D3           inc   r3
000A:BED3 0C 40        bcc   BF15
000A:BED5 7F           and   r15
000A:BED6 00           stop
000A:BED7 0F D3        bvs   BEAC
000A:BED9 02           cache
000A:BEDA D3           inc   r3
000A:BEDB 0D 40        bcs   BF1D
000A:BEDD 7F           and   r15
000A:BEDE 00           stop
000A:BEDF 0F D3        bvs   BEB4
000A:BEE1 04           rol
000A:BEE2 D3           inc   r3
000A:BEE3 0D 40        bcs   BF25
000A:BEE5 7F           and   r15
000A:BEE6 00           stop
000A:BEE7 0F D3        bvs   BEBC
000A:BEE9 06 D3        bge   BEBE
000A:BEEB 0E 40        bvc   BF2D
000A:BEED 7F           and   r15
000A:BEEE 00           stop
000A:BEEF 0F D3        bvs   BEC4
000A:BEF1 08 D3        bne   BEC6
000A:BEF3 0E 40        bvc   BF35
000A:BEF5 7F           and   r15
000A:BEF6 00           stop
000A:BEF7 0F D3        bvs   BECC
000A:BEF9 0A D3        bpl   BECE
000A:BEFB 0F 40        bvs   BF3D
000A:BEFD 7F           and   r15
000A:BEFE 00           stop
000A:BEFF 0F D3        bvs   BED4
000A:BF01 0C D3        bcc   BED6
000A:BF03 0F 40        bvs   BF45
000A:BF05 7F           and   r15
000A:BF06 00           stop
000A:BF07 0F D3        bvs   BEDC
000A:BF09 0E C0        bvc   BECB
000A:BF0B 80           mult  r0
000A:BF0C 20           with  r0
000A:BF0D 0F 00        bvs   BF0F
000A:BF0F 0F 20        bvs   BF31
000A:BF11 0F C0        bvs   BED3
000A:BF13 80           mult  r0
000A:BF14 20           with  r0
000A:BF15 0E 00        bvc   BF17
000A:BF17 0F 20        bvs   BF39
000A:BF19 0E C0        bvc   BEDB
000A:BF1B 80           mult  r0
000A:BF1C 20           with  r0
000A:BF1D 0D 00        bcs   BF1F
000A:BF1F 0F 20        bvs   BF41
000A:BF21 0D C0        bcs   BEE3
000A:BF23 80           mult  r0
000A:BF24 20           with  r0
000A:BF25 0C 00        bcc   BF27
000A:BF27 0F 20        bvs   BF49
000A:BF29 0C C0        bcc   BEEB
000A:BF2B 80           mult  r0
000A:BF2C 20           with  r0
000A:BF2D 0B 00        bmi   BF2F
000A:BF2F 0F 20        bvs   BF51
000A:BF31 0B C0        bmi   BEF3
000A:BF33 80           mult  r0
000A:BF34 20           with  r0
000A:BF35 0A 00        bpl   BF37
000A:BF37 0F 20        bvs   BF59
000A:BF39 0A C0        bpl   BEFB
000A:BF3B 80           mult  r0
000A:BF3C 20           with  r0
000A:BF3D 09 00        beq   BF3F
000A:BF3F 0F 20        bvs   BF61
000A:BF41 09 C0        beq   BF03
000A:BF43 80           mult  r0
000A:BF44 20           with  r0
000A:BF45 08 00        bne   BF47
000A:BF47 0F 20        bvs   BF69
000A:BF49 08 C0        bne   BF0B
000A:BF4B 80           mult  r0
000A:BF4C 20           with  r0
000A:BF4D 07 00        blt   BF4F
000A:BF4F 0F 20        bvs   BF71
000A:BF51 07 C0        blt   BF13
000A:BF53 80           mult  r0
000A:BF54 20           with  r0
000A:BF55 06 00        bge   BF57
000A:BF57 0F 20        bvs   BF79
000A:BF59 06 C0        bge   BF1B
000A:BF5B 80           mult  r0
000A:BF5C 20           with  r0
000A:BF5D 05 00        bra   BF5F
000A:BF5F 0F 20        bvs   BF81
000A:BF61 05 C0        bra   BF23
000A:BF63 80           mult  r0
000A:BF64 20 04        rol
000A:BF66 00           stop
000A:BF67 0F 20        bvs   BF89
000A:BF69 04           rol
000A:BF6A C0           hib
000A:BF6B 80           mult  r0
000A:BF6C 20 03        lsr
000A:BF6E 00           stop
000A:BF6F 0F 20        bvs   BF91
000A:BF71 03           lsr
000A:BF72 C0           hib
000A:BF73 80           mult  r0
000A:BF74 20 02        cache
000A:BF76 00           stop
000A:BF77 0F 20        bvs   BF99
000A:BF79 02           cache
000A:BF7A C0           hib
000A:BF7B 80           mult  r0
000A:BF7C 20 01        nop
000A:BF7E 00           stop
000A:BF7F 0F 20        bvs   BFA1
000A:BF81 01           nop
000A:BF82 C0           hib
000A:BF83 80           mult  r0
000A:BF84 20 00        stop
000A:BF86 00           stop
000A:BF87 0F 20        bvs   BFA9
000A:BF89 00           stop
000A:BF8A E0           dec   r0
000A:BF8B 00           stop
000A:BF8C 40           ldw   (r0)
000A:BF8D 7F           and   r15
000A:BF8E 00           stop
000A:BF8F 0F E0        bvs   BF71
000A:BF91 00           stop
000A:BF92 E0           dec   r0
000A:BF93 01           nop
000A:BF94 40           ldw   (r0)
000A:BF95 7F           and   r15
000A:BF96 00           stop
000A:BF97 0F E0        bvs   BF79
000A:BF99 01           nop
000A:BF9A E0           dec   r0
000A:BF9B 02           cache
000A:BF9C 40           ldw   (r0)
000A:BF9D 7F           and   r15
000A:BF9E 00           stop
000A:BF9F 0F E0        bvs   BF81
000A:BFA1 02           cache
000A:BFA2 E0           dec   r0
000A:BFA3 03           lsr
000A:BFA4 40           ldw   (r0)
000A:BFA5 7F           and   r15
000A:BFA6 00           stop
000A:BFA7 0F E0        bvs   BF89
000A:BFA9 03           lsr
000A:BFAA E0           dec   r0
000A:BFAB 04           rol
000A:BFAC 40           ldw   (r0)
000A:BFAD 7F           and   r15
000A:BFAE 00           stop
000A:BFAF 0F E0        bvs   BF91
000A:BFB1 04           rol
000A:BFB2 E0           dec   r0
000A:BFB3 05 40        bra   BFF5
000A:BFB5 7F           and   r15
000A:BFB6 00           stop
000A:BFB7 0F E0        bvs   BF99
000A:BFB9 05 E0        bra   BF9B
000A:BFBB 06 40        bge   BFFD
000A:BFBD 7F           and   r15
000A:BFBE 00           stop
000A:BFBF 0F E0        bvs   BFA1
000A:BFC1 06 E0        bge   BFA3
000A:BFC3 07 40        blt   C005
000A:BFC5 7F           and   r15
000A:BFC6 00           stop
000A:BFC7 0F E0        bvs   BFA9
000A:BFC9 07 E0        blt   BFAB
000A:BFCB 08 40        bne   C00D
000A:BFCD 7F           and   r15
000A:BFCE 00           stop
000A:BFCF 0F E0        bvs   BFB1
000A:BFD1 08 E0        bne   BFB3
000A:BFD3 09 40        beq   C015
000A:BFD5 7F           and   r15
000A:BFD6 00           stop
000A:BFD7 0F E0        bvs   BFB9
000A:BFD9 09 E0        beq   BFBB
000A:BFDB 0A 40        bpl   C01D
000A:BFDD 7F           and   r15
000A:BFDE 00           stop
000A:BFDF 0F E0        bvs   BFC1
000A:BFE1 0A E0        bpl   BFC3
000A:BFE3 0B 40        bmi   C025
000A:BFE5 7F           and   r15
000A:BFE6 00           stop
000A:BFE7 0F E0        bvs   BFC9
000A:BFE9 0B E0        bmi   BFCB
000A:BFEB 0C 40        bcc   C02D
000A:BFED 7F           and   r15
000A:BFEE 00           stop
000A:BFEF 0F E0        bvs   BFD1
000A:BFF1 0C E0        bcc   BFD3
000A:BFF3 0D 40        bcs   C035
000A:BFF5 7F           and   r15
000A:BFF6 00           stop
000A:BFF7 0F E0        bvs   BFD9
000A:BFF9 0D E0        bcs   BFDB
000A:BFFB 0E 40        bvc   C03D
000A:BFFD 7F           and   r15
000A:BFFE 00           stop
000A:BFFF 0F E0        bvs   BFE1
000A:C001 0E E0        bvc   BFE3
000A:C003 0F 40        bvs   C045
000A:C005 7F           and   r15
000A:C006 00           stop
000A:C007 0F E0        bvs   BFE9
000A:C009 0F 00        bvs   C00B
000A:C00B 80           mult  r0
000A:C00C 00           stop
000A:C00D 7F           and   r15
000A:C00E 00           stop
000A:C00F 0F 12        bvs   C023
000A:C011 0F 00        bvs   C013
000A:C013 80           mult  r0
000A:C014 00           stop
000A:C015 7F           and   r15
000A:C016 00           stop
000A:C017 0F 12        bvs   C02B
000A:C019 0F 00        bvs   C01B
000A:C01B 80           mult  r0
000A:C01C 00           stop
000A:C01D 7F           and   r15
000A:C01E 00           stop
000A:C01F 0F 12        bvs   C033
000A:C021 0E 00        bvc   C023
000A:C023 80           mult  r0
000A:C024 00           stop
000A:C025 7F           and   r15
000A:C026 00           stop
000A:C027 0F 12        bvs   C03B
000A:C029 0E 00        bvc   C02B
000A:C02B 80           mult  r0
000A:C02C 00           stop
000A:C02D 7F           and   r15
000A:C02E 00           stop
000A:C02F 0F 12        bvs   C043
000A:C031 0D 00        bcs   C033
000A:C033 80           mult  r0
000A:C034 00           stop
000A:C035 7F           and   r15
000A:C036 00           stop
000A:C037 0F 12        bvs   C04B
000A:C039 0D 00        bcs   C03B
000A:C03B 80           mult  r0
000A:C03C 00           stop
000A:C03D 7F           and   r15
000A:C03E 00           stop
000A:C03F 0F 12        bvs   C053
000A:C041 0C 00        bcc   C043
000A:C043 80           mult  r0
000A:C044 00           stop
000A:C045 7F           and   r15
000A:C046 00           stop
000A:C047 0F 12        bvs   C05B
000A:C049 0C C0        bcc   C00B
000A:C04B 80           mult  r0
000A:C04C 12           to    r2
000A:C04D 0E 00        bvc   C04F
000A:C04F 0F 12        bvs   C063
000A:C051 0B C0        bmi   C013
000A:C053 80           mult  r0
000A:C054 12           to    r2
000A:C055 0C 00        bcc   C057
000A:C057 0F 12        bvs   C06B
000A:C059 0B C0        bmi   C01B
000A:C05B 80           mult  r0
000A:C05C 12           to    r2
000A:C05D 0A 00        bpl   C05F
000A:C05F 0F 12        bvs   C073
000A:C061 0A C0        bpl   C023
000A:C063 80           mult  r0
000A:C064 12           to    r2
000A:C065 08 00        bne   C067
000A:C067 0F 12        bvs   C07B
000A:C069 0A C0        bpl   C02B
000A:C06B 80           mult  r0
000A:C06C 12           to    r2
000A:C06D 06 00        bge   C06F
000A:C06F 0F 12        bvs   C083
000A:C071 09 C0        beq   C033
000A:C073 80           mult  r0
000A:C074 12 04        rol
000A:C076 00           stop
000A:C077 0F 12        bvs   C08B
000A:C079 09 C0        beq   C03B
000A:C07B 80           mult  r0
000A:C07C 12 02        cache
000A:C07E 00           stop
000A:C07F 0F 12        bvs   C093
000A:C081 08 C0        bne   C043
000A:C083 80           mult  r0
000A:C084 12 00        stop
000A:C086 00           stop
000A:C087 0F 12        bvs   C09B
000A:C089 08 C0        bne   C04B
000A:C08B 80           mult  r0
000A:C08C 12           to    r2
000A:C08D 0E 00        bvc   C08F
000A:C08F 0F 12        bvs   C0A3
000A:C091 07 C0        blt   C053
000A:C093 80           mult  r0
000A:C094 12           to    r2
000A:C095 0C 00        bcc   C097
000A:C097 0F 12        bvs   C0AB
000A:C099 07 C0        blt   C05B
000A:C09B 80           mult  r0
000A:C09C 12           to    r2
000A:C09D 0A 00        bpl   C09F
000A:C09F 0F 12        bvs   C0B3
000A:C0A1 06 C0        bge   C063
000A:C0A3 80           mult  r0
000A:C0A4 12           to    r2
000A:C0A5 08 00        bne   C0A7
000A:C0A7 0F 12        bvs   C0BB
000A:C0A9 06 C0        bge   C06B
000A:C0AB 80           mult  r0
000A:C0AC 12           to    r2
000A:C0AD 06 00        bge   C0AF
000A:C0AF 0F 12        bvs   C0C3
000A:C0B1 05 C0        bra   C073
000A:C0B3 80           mult  r0
000A:C0B4 12 04        rol
000A:C0B6 00           stop
000A:C0B7 0F 12        bvs   C0CB
000A:C0B9 05 C0        bra   C07B
000A:C0BB 80           mult  r0
000A:C0BC 12 02        cache
000A:C0BE 00           stop
000A:C0BF 0F 12        bvs   C0D3
000A:C0C1 04           rol
000A:C0C2 C0           hib
000A:C0C3 80           mult  r0
000A:C0C4 12 00        stop
000A:C0C6 00           stop
000A:C0C7 0F 12        bvs   C0DB
000A:C0C9 04           rol
000A:C0CA C0           hib
000A:C0CB 80           mult  r0
000A:C0CC 12 FE 00 0F  iwt   r14,#0F00
000A:C0D0 12 03        lsr
000A:C0D2 C0           hib
000A:C0D3 80           mult  r0
000A:C0D4 12 FC 00 0F  iwt   r12,#0F00
000A:C0D8 12 03        lsr
000A:C0DA C0           hib
000A:C0DB 80           mult  r0
000A:C0DC 12 FA 00 0F  iwt   r10,#0F00
000A:C0E0 12 02        cache
000A:C0E2 C0           hib
000A:C0E3 80           mult  r0
000A:C0E4 12 F8 00 0F  iwt   r8,#0F00
000A:C0E8 12 02        cache
000A:C0EA C0           hib
000A:C0EB 80           mult  r0
000A:C0EC 12 F6 00 0F  iwt   r6,#0F00
000A:C0F0 12 01        nop
000A:C0F2 C0           hib
000A:C0F3 80           mult  r0
000A:C0F4 12 F4 00 0F  iwt   r4,#0F00
000A:C0F8 12 01        nop
000A:C0FA C0           hib
000A:C0FB 80           mult  r0
000A:C0FC 12 F2 00 0F  iwt   r2,#0F00
000A:C100 12 00        stop
000A:C102 C0           hib
000A:C103 80           mult  r0
000A:C104 12 F0 00 0F  iwt   r0,#0F00
000A:C108 12 00        stop
000A:C10A EE           dec   r14
000A:C10B 00           stop
000A:C10C 40           ldw   (r0)
000A:C10D 7F           and   r15
000A:C10E 00           stop
000A:C10F 0F EE        bvs   C0FF
000A:C111 00           stop
000A:C112 EE           dec   r14
000A:C113 02           cache
000A:C114 40           ldw   (r0)
000A:C115 7F           and   r15
000A:C116 00           stop
000A:C117 0F EE        bvs   C107
000A:C119 00           stop
000A:C11A EE           dec   r14
000A:C11B 04           rol
000A:C11C 40           ldw   (r0)
000A:C11D 7F           and   r15
000A:C11E 00           stop
000A:C11F 0F EE        bvs   C10F
000A:C121 01           nop
000A:C122 EE           dec   r14
000A:C123 06 40        bge   C165
000A:C125 7F           and   r15
000A:C126 00           stop
000A:C127 0F EE        bvs   C117
000A:C129 01           nop
000A:C12A EE           dec   r14
000A:C12B 08 40        bne   C16D
000A:C12D 7F           and   r15
000A:C12E 00           stop
000A:C12F 0F EE        bvs   C11F
000A:C131 02           cache
000A:C132 EE           dec   r14
000A:C133 0A 40        bpl   C175
000A:C135 7F           and   r15
000A:C136 00           stop
000A:C137 0F EE        bvs   C127
000A:C139 02           cache
000A:C13A EE           dec   r14
000A:C13B 0C 40        bcc   C17D
000A:C13D 7F           and   r15
000A:C13E 00           stop
000A:C13F 0F EE        bvs   C12F
000A:C141 03           lsr
000A:C142 EE           dec   r14
000A:C143 0E 40        bvc   C185
000A:C145 7F           and   r15
000A:C146 00           stop
000A:C147 0F EE        bvs   C137
000A:C149 03           lsr
000A:C14A EE           dec   r14
000A:C14B 10 40        ldw   (r0)
000A:C14D 7F           and   r15
000A:C14E 00           stop
000A:C14F 0F EE        bvs   C13F
000A:C151 04           rol
000A:C152 EE           dec   r14
000A:C153 12 40        ldw   (r0)
000A:C155 7F           and   r15
000A:C156 00           stop
000A:C157 0F EE        bvs   C147
000A:C159 04           rol
000A:C15A EE           dec   r14
000A:C15B 14 40        ldw   (r0)
000A:C15D 7F           and   r15
000A:C15E 00           stop
000A:C15F 0F EE        bvs   C14F
000A:C161 05 EE        bra   C151
000A:C163 16 40        ldw   (r0)
000A:C165 7F           and   r15
000A:C166 00           stop
000A:C167 0F EE        bvs   C157
000A:C169 05 EE        bra   C159
000A:C16B 18 40        ldw   (r0)
000A:C16D 7F           and   r15
000A:C16E 00           stop
000A:C16F 0F EE        bvs   C15F
000A:C171 06 EE        bge   C161
000A:C173 1A 40        ldw   (r0)
000A:C175 7F           and   r15
000A:C176 00           stop
000A:C177 0F EE        bvs   C167
000A:C179 06 EE        bge   C169
000A:C17B 1C 40        ldw   (r0)
000A:C17D 7F           and   r15
000A:C17E 00           stop
000A:C17F 0F EE        bvs   C16F
000A:C181 07 EE        blt   C171
000A:C183 1E 40        ldw   (r0)
000A:C185 7F           and   r15
000A:C186 00           stop
000A:C187 0F EE        bvs   C177
000A:C189 07 00        blt   C18B
000A:C18B 80           mult  r0
000A:C18C 00           stop
000A:C18D 7F           and   r15
000A:C18E 00           stop
000A:C18F 20 EE        dec   r14
000A:C191 08 00        bne   C193
000A:C193 80           mult  r0
000A:C194 00           stop
000A:C195 7F           and   r15
000A:C196 00           stop
000A:C197 20 EE        dec   r14
000A:C199 08 00        bne   C19B
000A:C19B 80           mult  r0
000A:C19C 00           stop
000A:C19D 7F           and   r15
000A:C19E 00           stop
000A:C19F 20 EE        dec   r14
000A:C1A1 09 00        beq   C1A3
000A:C1A3 80           mult  r0
000A:C1A4 00           stop
000A:C1A5 7F           and   r15
000A:C1A6 00           stop
000A:C1A7 20 EE        dec   r14
000A:C1A9 09 00        beq   C1AB
000A:C1AB 80           mult  r0
000A:C1AC 00           stop
000A:C1AD 7F           and   r15
000A:C1AE 00           stop
000A:C1AF 20 EE        dec   r14
000A:C1B1 0A 00        bpl   C1B3
000A:C1B3 80           mult  r0
000A:C1B4 00           stop
000A:C1B5 7F           and   r15
000A:C1B6 00           stop
000A:C1B7 20 EE        dec   r14
000A:C1B9 0A 00        bpl   C1BB
000A:C1BB 80           mult  r0
000A:C1BC 00           stop
000A:C1BD 7F           and   r15
000A:C1BE 00           stop
000A:C1BF 20 EE        dec   r14
000A:C1C1 0B 00        bmi   C1C3
000A:C1C3 80           mult  r0
000A:C1C4 00           stop
000A:C1C5 7F           and   r15
000A:C1C6 00           stop
000A:C1C7 20 EE        dec   r14
000A:C1C9 0B EE        bmi   C1B9
000A:C1CB 00           stop
000A:C1CC 40           ldw   (r0)
000A:C1CD 7F           and   r15
000A:C1CE 00           stop
000A:C1CF 10 EE        dec   r14
000A:C1D1 0C EE        bcc   C1C1
000A:C1D3 02           cache
000A:C1D4 40           ldw   (r0)
000A:C1D5 7F           and   r15
000A:C1D6 00           stop
000A:C1D7 10 EE        dec   r14
000A:C1D9 0C EE        bcc   C1C9
000A:C1DB 04           rol
000A:C1DC 40           ldw   (r0)
000A:C1DD 7F           and   r15
000A:C1DE 00           stop
000A:C1DF 10 EE        dec   r14
000A:C1E1 0D EE        bcs   C1D1
000A:C1E3 06 40        bge   C225
000A:C1E5 7F           and   r15
000A:C1E6 00           stop
000A:C1E7 10 EE        dec   r14
000A:C1E9 0D EE        bcs   C1D9
000A:C1EB 08 40        bne   C22D
000A:C1ED 7F           and   r15
000A:C1EE 00           stop
000A:C1EF 10 EE        dec   r14
000A:C1F1 0E EE        bvc   C1E1
000A:C1F3 0A 40        bpl   C235
000A:C1F5 7F           and   r15
000A:C1F6 00           stop
000A:C1F7 10 EE        dec   r14
000A:C1F9 0E EE        bvc   C1E9
000A:C1FB 0C 40        bcc   C23D
000A:C1FD 7F           and   r15
000A:C1FE 00           stop
000A:C1FF 10 EE        dec   r14
000A:C201 0F EE        bvs   C1F1
000A:C203 0E 40        bvc   C245
000A:C205 7F           and   r15
000A:C206 00           stop
000A:C207 10 EE        dec   r14
000A:C209 0F 00        bvs   C20B
000A:C20B 80           mult  r0
000A:C20C 00           stop
000A:C20D 7F           and   r15
000A:C20E 00           stop
000A:C20F FF 20 40     iwt   r15,#4020
000A:C212 00           stop
000A:C213 80           mult  r0
000A:C214 00           stop
000A:C215 7F           and   r15
000A:C216 00           stop
000A:C217 FF 20 40     iwt   r15,#4020
000A:C21A 00           stop
000A:C21B 80           mult  r0
000A:C21C 00           stop
000A:C21D 7F           and   r15
000A:C21E 00           stop
000A:C21F FF 20 40     iwt   r15,#4020
000A:C222 00           stop
000A:C223 80           mult  r0
000A:C224 00           stop
000A:C225 7F           and   r15
000A:C226 00           stop
000A:C227 FF 20 40     iwt   r15,#4020
000A:C22A 00           stop
000A:C22B 80           mult  r0
000A:C22C 00           stop
000A:C22D 7F           and   r15
000A:C22E 00           stop
000A:C22F FF 20 40     iwt   r15,#4020
000A:C232 00           stop
000A:C233 0F 00        bvs   C235
000A:C235 7F           and   r15
000A:C236 00           stop
000A:C237 0F 20        bvs   C259
000A:C239 0F 00        bvs   C23B
000A:C23B 0F 00        bvs   C23D
000A:C23D 0D 00        bcs   C23F
000A:C23F 0F 20        bvs   C261
000A:C241 0D 00        bcs   C243
000A:C243 0F 00        bvs   C245
000A:C245 0C 00        bcc   C247
000A:C247 0F 20        bvs   C269
000A:C249 0C 00        bcc   C24B
000A:C24B 0F 00        bvs   C24D
000A:C24D 0B 00        bmi   C24F
000A:C24F 0F 20        bvs   C271
000A:C251 0B 00        bmi   C253
000A:C253 0F 00        bvs   C255
000A:C255 0A 00        bpl   C257
000A:C257 0F 20        bvs   C279
000A:C259 0A 00        bpl   C25B
000A:C25B 0F 00        bvs   C25D
000A:C25D 09 00        beq   C25F
000A:C25F 0F 20        bvs   C281
000A:C261 09 00        beq   C263
000A:C263 0F 00        bvs   C265
000A:C265 08 00        bne   C267
000A:C267 0F 20        bvs   C289
000A:C269 08 00        bne   C26B
000A:C26B 0F 00        bvs   C26D
000A:C26D 07 00        blt   C26F
000A:C26F 0F 20        bvs   C291
000A:C271 07 00        blt   C273
000A:C273 0F 00        bvs   C275
000A:C275 06 00        bge   C277
000A:C277 0F 20        bvs   C299
000A:C279 06 00        bge   C27B
000A:C27B 0F 00        bvs   C27D
000A:C27D 06 00        bge   C27F
000A:C27F 0F 20        bvs   C2A1
000A:C281 06 00        bge   C283
000A:C283 0F 00        bvs   C285
000A:C285 05 00        bra   C287
000A:C287 0F 20        bvs   C2A9
000A:C289 05 00        bra   C28B
000A:C28B 0F 00        bvs   C28D
000A:C28D 0B 00        bmi   C28F
000A:C28F 0F 12        bvs   C2A3
000A:C291 04           rol
000A:C292 00           stop
000A:C293 0F 00        bvs   C295
000A:C295 07 00        blt   C297
000A:C297 0F 12        bvs   C2AB
000A:C299 04           rol
000A:C29A 00           stop
000A:C29B 0F 00        bvs   C29D
000A:C29D 04           rol
000A:C29E 00           stop
000A:C29F 0F 12        bvs   C2B3
000A:C2A1 03           lsr
000A:C2A2 00           stop
000A:C2A3 0F 00        bvs   C2A5
000A:C2A5 02           cache
000A:C2A6 00           stop
000A:C2A7 0F 12        bvs   C2BB
000A:C2A9 03           lsr
000A:C2AA 00           stop
000A:C2AB 0F 00        bvs   C2AD
000A:C2AD 00           stop
000A:C2AE 00           stop
000A:C2AF 0F 12        bvs   C2C3
000A:C2B1 02           cache
000A:C2B2 00           stop
000A:C2B3 0F 00        bvs   C2B5
000A:C2B5 00           stop
000A:C2B6 00           stop
000A:C2B7 0F 12        bvs   C2CB
000A:C2B9 02           cache
000A:C2BA 00           stop
000A:C2BB 0F 00        bvs   C2BD
000A:C2BD 00           stop
000A:C2BE 00           stop
000A:C2BF 0F 12        bvs   C2D3
000A:C2C1 02           cache
000A:C2C2 00           stop
000A:C2C3 0F 00        bvs   C2C5
000A:C2C5 00           stop
000A:C2C6 00           stop
000A:C2C7 0F 12        bvs   C2DB
000A:C2C9 01           nop
000A:C2CA 00           stop
000A:C2CB 0F 00        bvs   C2CD
000A:C2CD 00           stop
000A:C2CE 00           stop
000A:C2CF 0F 12        bvs   C2E3
000A:C2D1 01           nop
000A:C2D2 00           stop
000A:C2D3 0F 00        bvs   C2D5
000A:C2D5 00           stop
000A:C2D6 00           stop
000A:C2D7 0F 12        bvs   C2EB
000A:C2D9 01           nop
000A:C2DA 00           stop
000A:C2DB 0F 00        bvs   C2DD
000A:C2DD 00           stop
000A:C2DE 00           stop
000A:C2DF 0F 12        bvs   C2F3
000A:C2E1 01           nop
000A:C2E2 00           stop
000A:C2E3 0F 00        bvs   C2E5
000A:C2E5 00           stop
000A:C2E6 00           stop
000A:C2E7 0F 12        bvs   C2FB
000A:C2E9 00           stop
000A:C2EA 00           stop
000A:C2EB 0F 00        bvs   C2ED
000A:C2ED 00           stop
000A:C2EE 00           stop
000A:C2EF 0F 12        bvs   C303
000A:C2F1 00           stop
000A:C2F2 00           stop
000A:C2F3 0F 00        bvs   C2F5
000A:C2F5 00           stop
000A:C2F6 00           stop
000A:C2F7 0F 12        bvs   C30B
000A:C2F9 00           stop
000A:C2FA 00           stop
000A:C2FB 0F 00        bvs   C2FD
000A:C2FD 00           stop
000A:C2FE 00           stop
000A:C2FF 0F 12        bvs   C313
000A:C301 00           stop
000A:C302 00           stop
000A:C303 0F 00        bvs   C305
000A:C305 00           stop
000A:C306 00           stop
000A:C307 0F 12        bvs   C31B
000A:C309 00           stop
000A:C30A 00           stop
000A:C30B 0F 00        bvs   C30D
000A:C30D 04           rol
000A:C30E 00           stop
000A:C30F 0F 20        bvs   C331
000A:C311 0B 00        bmi   C313
000A:C313 0F 00        bvs   C315
000A:C315 04           rol
000A:C316 00           stop
000A:C317 0F 20        bvs   C339
000A:C319 07 00        blt   C31B
000A:C31B 0F 00        bvs   C31D
000A:C31D 03           lsr
000A:C31E 00           stop
000A:C31F 0F 20        bvs   C341
000A:C321 04           rol
000A:C322 00           stop
000A:C323 0F 00        bvs   C325
000A:C325 03           lsr
000A:C326 00           stop
000A:C327 0F 20        bvs   C349
000A:C329 02           cache
000A:C32A 00           stop
000A:C32B 0F 00        bvs   C32D
000A:C32D 02           cache
000A:C32E 00           stop
000A:C32F 0F 20        bvs   C351
000A:C331 00           stop
000A:C332 00           stop
000A:C333 0F 00        bvs   C335
000A:C335 02           cache
000A:C336 00           stop
000A:C337 0F 20        bvs   C359
000A:C339 FF 00 0F     iwt   r15,#0F00
000A:C33C 00           stop
000A:C33D 02           cache
000A:C33E 00           stop
000A:C33F 0F 20        bvs   C361
000A:C341 FD 00 0F     iwt   r13,#0F00
000A:C344 00           stop
000A:C345 01           nop
000A:C346 00           stop
000A:C347 0F 20        bvs   C369
000A:C349 FC 00 0F     iwt   r12,#0F00
000A:C34C 00           stop
000A:C34D 01           nop
000A:C34E 00           stop
000A:C34F 0F 20        bvs   C371
000A:C351 FB 00 0F     iwt   r11,#0F00
000A:C354 00           stop
000A:C355 01           nop
000A:C356 00           stop
000A:C357 0F 20        bvs   C379
000A:C359 FA 00 0F     iwt   r10,#0F00
000A:C35C 00           stop
000A:C35D 01           nop
000A:C35E 00           stop
000A:C35F 0F 20        bvs   C381
000A:C361 F9 00 0F     iwt   r9,#0F00
000A:C364 00           stop
000A:C365 00           stop
000A:C366 00           stop
000A:C367 0F 20        bvs   C389
000A:C369 F8 00 0F     iwt   r8,#0F00
000A:C36C 00           stop
000A:C36D 00           stop
000A:C36E 00           stop
000A:C36F 0F 20        bvs   C391
000A:C371 F7 00 0F     iwt   r7,#0F00
000A:C374 00           stop
000A:C375 00           stop
000A:C376 00           stop
000A:C377 0F 20        bvs   C399
000A:C379 F6 00 0F     iwt   r6,#0F00
000A:C37C 00           stop
000A:C37D 00           stop
000A:C37E 00           stop
000A:C37F 0F 20        bvs   C3A1
000A:C381 F6 00 0F     iwt   r6,#0F00
000A:C384 00           stop
000A:C385 00           stop
000A:C386 00           stop
000A:C387 0F 20        bvs   C3A9
000A:C389 F5 00 04     iwt   r5,#0400
000A:C38C 00           stop
000A:C38D 00           stop
000A:C38E 00           stop
000A:C38F 0F EE        bvs   C37F
000A:C391 00           stop
000A:C392 00           stop
000A:C393 08 00        bne   C395
000A:C395 00           stop
000A:C396 00           stop
000A:C397 0F EE        bvs   C387
000A:C399 00           stop
000A:C39A 00           stop
000A:C39B 0B 00        bmi   C39D
000A:C39D 00           stop
000A:C39E 00           stop
000A:C39F 0F EE        bvs   C38F
000A:C3A1 00           stop
000A:C3A2 00           stop
000A:C3A3 0D 00        bcs   C3A5
000A:C3A5 00           stop
000A:C3A6 00           stop
000A:C3A7 0F EE        bvs   C397
000A:C3A9 00           stop
000A:C3AA 00           stop
000A:C3AB 0F 00        bvs   C3AD
000A:C3AD 00           stop
000A:C3AE 00           stop
000A:C3AF 0F EE        bvs   C39F
000A:C3B1 00           stop
000A:C3B2 00           stop
000A:C3B3 0F 00        bvs   C3B5
000A:C3B5 00           stop
000A:C3B6 00           stop
000A:C3B7 0F EE        bvs   C3A7
000A:C3B9 01           nop
000A:C3BA 00           stop
000A:C3BB 0F 00        bvs   C3BD
000A:C3BD 00           stop
000A:C3BE 00           stop
000A:C3BF 0F EE        bvs   C3AF
000A:C3C1 01           nop
000A:C3C2 00           stop
000A:C3C3 0F 00        bvs   C3C5
000A:C3C5 00           stop
000A:C3C6 00           stop
000A:C3C7 0F EE        bvs   C3B7
000A:C3C9 01           nop
000A:C3CA 00           stop
000A:C3CB 0F 00        bvs   C3CD
000A:C3CD 00           stop
000A:C3CE 00           stop
000A:C3CF 0F EE        bvs   C3BF
000A:C3D1 01           nop
000A:C3D2 00           stop
000A:C3D3 0F 00        bvs   C3D5
000A:C3D5 00           stop
000A:C3D6 00           stop
000A:C3D7 0F EE        bvs   C3C7
000A:C3D9 02           cache
000A:C3DA 00           stop
000A:C3DB 0F 00        bvs   C3DD
000A:C3DD 00           stop
000A:C3DE 00           stop
000A:C3DF 0F EE        bvs   C3CF
000A:C3E1 02           cache
000A:C3E2 00           stop
000A:C3E3 0F 00        bvs   C3E5
000A:C3E5 00           stop
000A:C3E6 00           stop
000A:C3E7 0F EE        bvs   C3D7
000A:C3E9 02           cache
000A:C3EA 00           stop
000A:C3EB 0F 00        bvs   C3ED
000A:C3ED 00           stop
000A:C3EE 00           stop
000A:C3EF 0F EE        bvs   C3DF
000A:C3F1 03           lsr
000A:C3F2 00           stop
000A:C3F3 0F 00        bvs   C3F5
000A:C3F5 00           stop
000A:C3F6 00           stop
000A:C3F7 0F EE        bvs   C3E7
000A:C3F9 03           lsr
000A:C3FA 00           stop
000A:C3FB 0F 00        bvs   C3FD
000A:C3FD 00           stop
000A:C3FE 00           stop
000A:C3FF 0F EE        bvs   C3EF
000A:C401 04           rol
000A:C402 00           stop
000A:C403 0F 00        bvs   C405
000A:C405 00           stop
000A:C406 00           stop
000A:C407 0F EE        bvs   C3F7
000A:C409 04           rol
000A:C40A 00           stop
000A:C40B 80           mult  r0
000A:C40C 00           stop
000A:C40D 7F           and   r15
000A:C40E 00           stop
000A:C40F 0F E0        bvs   C3F1
000A:C411 05 00        bra   C413
000A:C413 80           mult  r0
000A:C414 00           stop
000A:C415 7F           and   r15
000A:C416 00           stop
000A:C417 0F E0        bvs   C3F9
000A:C419 06 00        bge   C41B
000A:C41B 80           mult  r0
000A:C41C 00           stop
000A:C41D 7F           and   r15
000A:C41E 00           stop
000A:C41F 0F E0        bvs   C401
000A:C421 06 00        bge   C423
000A:C423 80           mult  r0
000A:C424 00           stop
000A:C425 7F           and   r15
000A:C426 00           stop
000A:C427 0F E0        bvs   C409
000A:C429 07 00        blt   C42B
000A:C42B 80           mult  r0
000A:C42C 00           stop
000A:C42D 7F           and   r15
000A:C42E 00           stop
000A:C42F 0F E0        bvs   C411
000A:C431 08 00        bne   C433
000A:C433 00           stop
000A:C434 00           stop
000A:C435 00           stop
000A:C436 00           stop
000A:C437 0F E0        bvs   C419
000A:C439 09 00        beq   C43B
000A:C43B 02           cache
000A:C43C 00           stop
000A:C43D 00           stop
000A:C43E 00           stop
000A:C43F 0F E0        bvs   C421
000A:C441 0A 00        bpl   C443
000A:C443 03           lsr
000A:C444 00           stop
000A:C445 00           stop
000A:C446 00           stop
000A:C447 0F E0        bvs   C429
000A:C449 0B 00        bmi   C44B
000A:C44B 04           rol
000A:C44C 00           stop
000A:C44D 00           stop
000A:C44E 00           stop
000A:C44F 0F E0        bvs   C431
000A:C451 0C 00        bcc   C453
000A:C453 05 00        bra   C455
000A:C455 00           stop
000A:C456 00           stop
000A:C457 0F E0        bvs   C439
000A:C459 0D 00        bcs   C45B
000A:C45B 06 00        bge   C45D
000A:C45D 00           stop
000A:C45E 00           stop
000A:C45F FF E0 0F     iwt   r15,#0FE0
000A:C462 00           stop
000A:C463 07 00        blt   C465
000A:C465 00           stop
000A:C466 00           stop
000A:C467 FF E0 40     iwt   r15,#40E0
000A:C46A 00           stop
000A:C46B 08 00        bne   C46D
000A:C46D 00           stop
000A:C46E 00           stop
000A:C46F FF E0 40     iwt   r15,#40E0
000A:C472 00           stop
000A:C473 09 00        beq   C475
000A:C475 00           stop
000A:C476 00           stop
000A:C477 FF E0 40     iwt   r15,#40E0
000A:C47A 00           stop
000A:C47B 09 00        beq   C47D
000A:C47D 00           stop
000A:C47E 00           stop
000A:C47F FF E0 40     iwt   r15,#40E0
000A:C482 00           stop
000A:C483 0A 00        bpl   C485
000A:C485 00           stop
000A:C486 00           stop
000A:C487 FF E0 40     iwt   r15,#40E0
000A:C48A 00           stop
000A:C48B 0B 00        bmi   C48D
000A:C48D 00           stop
000A:C48E 00           stop
000A:C48F 0F E0        bvs   C471
000A:C491 F5 00 0B     iwt   r5,#0B00
000A:C494 00           stop
000A:C495 00           stop
000A:C496 00           stop
000A:C497 0F E0        bvs   C479
000A:C499 F6 00 0C     iwt   r6,#0C00
000A:C49C 00           stop
000A:C49D 00           stop
000A:C49E 00           stop
000A:C49F 0F E0        bvs   C481
000A:C4A1 F6 00 0C     iwt   r6,#0C00
000A:C4A4 00           stop
000A:C4A5 00           stop
000A:C4A6 00           stop
000A:C4A7 0F E0        bvs   C489
000A:C4A9 F7 00 0D     iwt   r7,#0D00
000A:C4AC 00           stop
000A:C4AD 00           stop
000A:C4AE 00           stop
000A:C4AF 0F E0        bvs   C491
000A:C4B1 F8 00 0D     iwt   r8,#0D00
000A:C4B4 00           stop
000A:C4B5 00           stop
000A:C4B6 00           stop
000A:C4B7 0F E0        bvs   C499
000A:C4B9 F9 00 0D     iwt   r9,#0D00
000A:C4BC 00           stop
000A:C4BD 00           stop
000A:C4BE 00           stop
000A:C4BF 0F E0        bvs   C4A1
000A:C4C1 FA 00 0E     iwt   r10,#0E00
000A:C4C4 00           stop
000A:C4C5 00           stop
000A:C4C6 00           stop
000A:C4C7 0F E0        bvs   C4A9
000A:C4C9 FB 00 0E     iwt   r11,#0E00
000A:C4CC 00           stop
000A:C4CD 00           stop
000A:C4CE 00           stop
000A:C4CF 0F E0        bvs   C4B1
000A:C4D1 FC 00 0E     iwt   r12,#0E00
000A:C4D4 00           stop
000A:C4D5 00           stop
000A:C4D6 00           stop
000A:C4D7 0F E0        bvs   C4B9
000A:C4D9 FD 00 0E     iwt   r13,#0E00
000A:C4DC 00           stop
000A:C4DD 00           stop
000A:C4DE 00           stop
000A:C4DF 0F E0        bvs   C4C1
000A:C4E1 FF 00 0F     iwt   r15,#0F00
000A:C4E4 00           stop
000A:C4E5 00           stop
000A:C4E6 00           stop
000A:C4E7 0F E0        bvs   C4C9
000A:C4E9 00           stop
000A:C4EA 00           stop
000A:C4EB 0F 00        bvs   C4ED
000A:C4ED 00           stop
000A:C4EE 00           stop
000A:C4EF 0F E0        bvs   C4D1
000A:C4F1 02           cache
000A:C4F2 00           stop
000A:C4F3 0F 00        bvs   C4F5
000A:C4F5 00           stop
000A:C4F6 00           stop
000A:C4F7 0F E0        bvs   C4D9
000A:C4F9 04           rol
000A:C4FA 00           stop
000A:C4FB 0F 00        bvs   C4FD
000A:C4FD 00           stop
000A:C4FE 00           stop
000A:C4FF 0F E0        bvs   C4E1
000A:C501 07 00        blt   C503
000A:C503 0F 00        bvs   C505
000A:C505 00           stop
000A:C506 00           stop
000A:C507 0F E0        bvs   C4E9
000A:C509 0B 00        bmi   C50B
000A:C50B 0F 00        bvs   C50D
000A:C50D 0D 00        bcs   C50F
000A:C50F 0F 20        bvs   C531
000A:C511 0D 00        bcs   C513
000A:C513 0F 00        bvs   C515
000A:C515 0A 00        bpl   C517
000A:C517 0F 20        bvs   C539
000A:C519 0A 00        bpl   C51B
000A:C51B 0F 00        bvs   C51D
000A:C51D 08 00        bne   C51F
000A:C51F 0F 20        bvs   C541
000A:C521 08 00        bne   C523
000A:C523 0F 00        bvs   C525
000A:C525 07 00        blt   C527
000A:C527 0F 20        bvs   C549
000A:C529 07 00        blt   C52B
000A:C52B 0F 00        bvs   C52D
000A:C52D 06 00        bge   C52F
000A:C52F 0F 20        bvs   C551
000A:C531 06 00        bge   C533
000A:C533 0F 00        bvs   C535
000A:C535 05 00        bra   C537
000A:C537 0F 20        bvs   C559
000A:C539 05 00        bra   C53B
000A:C53B 0F 00        bvs   C53D
000A:C53D 04           rol
000A:C53E 00           stop
000A:C53F 0F 20        bvs   C561
000A:C541 04           rol
000A:C542 00           stop
000A:C543 0F 00        bvs   C545
000A:C545 03           lsr
000A:C546 00           stop
000A:C547 0F 20        bvs   C569
000A:C549 03           lsr
000A:C54A 00           stop
000A:C54B 0F 00        bvs   C54D
000A:C54D 02           cache
000A:C54E 00           stop
000A:C54F 0F 12        bvs   C563
000A:C551 02           cache
000A:C552 00           stop
000A:C553 0F 00        bvs   C555
000A:C555 02           cache
000A:C556 00           stop
000A:C557 0F 12        bvs   C56B
000A:C559 02           cache
000A:C55A 00           stop
000A:C55B 0F 00        bvs   C55D
000A:C55D 01           nop
000A:C55E 00           stop
000A:C55F 0F 12        bvs   C573
000A:C561 01           nop
000A:C562 00           stop
000A:C563 0F 00        bvs   C565
000A:C565 01           nop
000A:C566 00           stop
000A:C567 0F 12        bvs   C57B
000A:C569 01           nop
000A:C56A 00           stop
000A:C56B 0F 00        bvs   C56D
000A:C56D 01           nop
000A:C56E 00           stop
000A:C56F 0F 00        bvs   C571
000A:C571 01           nop
000A:C572 00           stop
000A:C573 0F 00        bvs   C575
000A:C575 00           stop
000A:C576 00           stop
000A:C577 0F 00        bvs   C579
000A:C579 00           stop
000A:C57A 00           stop
000A:C57B 0F 00        bvs   C57D
000A:C57D 00           stop
000A:C57E 00           stop
000A:C57F 0F 00        bvs   C581
000A:C581 00           stop
000A:C582 00           stop
000A:C583 0F 00        bvs   C585
000A:C585 00           stop
000A:C586 00           stop
000A:C587 0F 00        bvs   C589
000A:C589 00           stop
000A:C58A 00           stop
000A:C58B 0F 00        bvs   C58D
000A:C58D 00           stop
000A:C58E 00           stop
000A:C58F 0F 00        bvs   C591
000A:C591 00           stop
000A:C592 00           stop
000A:C593 0F 00        bvs   C595
000A:C595 00           stop
000A:C596 00           stop
000A:C597 0F 00        bvs   C599
000A:C599 00           stop
000A:C59A 00           stop
000A:C59B 0F 00        bvs   C59D
000A:C59D 00           stop
000A:C59E 00           stop
000A:C59F 0F 00        bvs   C5A1
000A:C5A1 00           stop
000A:C5A2 00           stop
000A:C5A3 0F 00        bvs   C5A5
000A:C5A5 01           nop
000A:C5A6 00           stop
000A:C5A7 0F 00        bvs   C5A9
000A:C5A9 01           nop
000A:C5AA 00           stop
000A:C5AB 0F 00        bvs   C5AD
000A:C5AD 01           nop
000A:C5AE 00           stop
000A:C5AF 0F EE        bvs   C59F
000A:C5B1 01           nop
000A:C5B2 00           stop
000A:C5B3 0F 00        bvs   C5B5
000A:C5B5 01           nop
000A:C5B6 00           stop
000A:C5B7 0F EE        bvs   C5A7
000A:C5B9 01           nop
000A:C5BA 00           stop
000A:C5BB 0F 00        bvs   C5BD
000A:C5BD 02           cache
000A:C5BE 00           stop
000A:C5BF 0F EE        bvs   C5AF
000A:C5C1 02           cache
000A:C5C2 00           stop
000A:C5C3 0F 00        bvs   C5C5
000A:C5C5 02           cache
000A:C5C6 00           stop
000A:C5C7 0F EE        bvs   C5B7
000A:C5C9 02           cache
000A:C5CA 00           stop
000A:C5CB 0F 00        bvs   C5CD
000A:C5CD 03           lsr
000A:C5CE 00           stop
000A:C5CF 0F E0        bvs   C5B1
000A:C5D1 03           lsr
000A:C5D2 00           stop
000A:C5D3 0F 00        bvs   C5D5
000A:C5D5 04           rol
000A:C5D6 00           stop
000A:C5D7 0F E0        bvs   C5B9
000A:C5D9 04           rol
000A:C5DA 00           stop
000A:C5DB 0F 00        bvs   C5DD
000A:C5DD 05 00        bra   C5DF
000A:C5DF 0F E0        bvs   C5C1
000A:C5E1 05 00        bra   C5E3
000A:C5E3 0F 00        bvs   C5E5
000A:C5E5 06 00        bge   C5E7
000A:C5E7 0F E0        bvs   C5C9
000A:C5E9 06 00        bge   C5EB
000A:C5EB 0F 00        bvs   C5ED
000A:C5ED 07 00        blt   C5EF
000A:C5EF 0F E0        bvs   C5D1
000A:C5F1 07 00        blt   C5F3
000A:C5F3 0F 00        bvs   C5F5
000A:C5F5 08 00        bne   C5F7
000A:C5F7 0F E0        bvs   C5D9
000A:C5F9 08 00        bne   C5FB
000A:C5FB 0F 00        bvs   C5FD
000A:C5FD 0A 00        bpl   C5FF
000A:C5FF 0F E0        bvs   C5E1
000A:C601 0A 00        bpl   C603
000A:C603 0F 00        bvs   C605
000A:C605 0D 00        bcs   C607
000A:C607 0F E0        bvs   C5E9
000A:C609 0D C0        bcs   C5CB
000A:C60B 80           mult  r0
000A:C60C 6E           sub   r14
000A:C60D 00           stop
000A:C60E 6E           sub   r14
000A:C60F 00           stop
000A:C610 00           stop
000A:C611 00           stop
000A:C612 C0           hib
000A:C613 80           mult  r0
000A:C614 6E           sub   r14
000A:C615 02           cache
000A:C616 6E           sub   r14
000A:C617 00           stop
000A:C618 00           stop
000A:C619 00           stop
000A:C61A C0           hib
000A:C61B 80           mult  r0
000A:C61C 6E           sub   r14
000A:C61D 04           rol
000A:C61E 6E           sub   r14
000A:C61F 01           nop
000A:C620 00           stop
000A:C621 00           stop
000A:C622 C0           hib
000A:C623 80           mult  r0
000A:C624 6E           sub   r14
000A:C625 06 6E        bge   C695
000A:C627 01           nop
000A:C628 00           stop
000A:C629 00           stop
000A:C62A C0           hib
000A:C62B 80           mult  r0
000A:C62C 6E           sub   r14
000A:C62D 08 6E        bne   C69D
000A:C62F 02           cache
000A:C630 00           stop
000A:C631 00           stop
000A:C632 C0           hib
000A:C633 80           mult  r0
000A:C634 6E           sub   r14
000A:C635 0A 6E        bpl   C6A5
000A:C637 02           cache
000A:C638 00           stop
000A:C639 00           stop
000A:C63A C0           hib
000A:C63B 80           mult  r0
000A:C63C 6E           sub   r14
000A:C63D 0C 6E        bcc   C6AD
000A:C63F 03           lsr
000A:C640 00           stop
000A:C641 00           stop
000A:C642 C0           hib
000A:C643 80           mult  r0
000A:C644 6E           sub   r14
000A:C645 0E 6E        bvc   C6B5
000A:C647 03           lsr
000A:C648 00           stop
000A:C649 00           stop
000A:C64A 00           stop
000A:C64B 80           mult  r0
000A:C64C 00           stop
000A:C64D 7F           and   r15
000A:C64E 6E           sub   r14
000A:C64F 04           rol
000A:C650 00           stop
000A:C651 00           stop
000A:C652 00           stop
000A:C653 80           mult  r0
000A:C654 00           stop
000A:C655 7F           and   r15
000A:C656 6E           sub   r14
000A:C657 04           rol
000A:C658 00           stop
000A:C659 00           stop
000A:C65A 00           stop
000A:C65B 80           mult  r0
000A:C65C 00           stop
000A:C65D 7F           and   r15
000A:C65E 6E           sub   r14
000A:C65F 05 00        bra   C661
000A:C661 00           stop
000A:C662 00           stop
000A:C663 80           mult  r0
000A:C664 00           stop
000A:C665 7F           and   r15
000A:C666 6E           sub   r14
000A:C667 05 00        bra   C669
000A:C669 00           stop
000A:C66A 00           stop
000A:C66B 80           mult  r0
000A:C66C 00           stop
000A:C66D 7F           and   r15
000A:C66E 6E           sub   r14
000A:C66F 06 00        bge   C671
000A:C671 00           stop
000A:C672 00           stop
000A:C673 80           mult  r0
000A:C674 00           stop
000A:C675 7F           and   r15
000A:C676 6E           sub   r14
000A:C677 06 00        bge   C679
000A:C679 00           stop
000A:C67A 00           stop
000A:C67B 80           mult  r0
000A:C67C 00           stop
000A:C67D 7F           and   r15
000A:C67E 6E           sub   r14
000A:C67F 07 00        blt   C681
000A:C681 00           stop
000A:C682 00           stop
000A:C683 80           mult  r0
000A:C684 00           stop
000A:C685 7F           and   r15
000A:C686 6E           sub   r14
000A:C687 07 00        blt   C689
000A:C689 00           stop
000A:C68A C0           hib
000A:C68B 80           mult  r0
000A:C68C 6E           sub   r14
000A:C68D F0 6E 08     iwt   r0,#086E
000A:C690 00           stop
000A:C691 00           stop
000A:C692 C0           hib
000A:C693 80           mult  r0
000A:C694 6E           sub   r14
000A:C695 F2 6E 08     iwt   r2,#086E
000A:C698 00           stop
000A:C699 00           stop
000A:C69A C0           hib
000A:C69B 80           mult  r0
000A:C69C 6E           sub   r14
000A:C69D F4 6E 09     iwt   r4,#096E
000A:C6A0 00           stop
000A:C6A1 00           stop
000A:C6A2 C0           hib
000A:C6A3 80           mult  r0
000A:C6A4 6E           sub   r14
000A:C6A5 F6 6E 09     iwt   r6,#096E
000A:C6A8 00           stop
000A:C6A9 00           stop
000A:C6AA C0           hib
000A:C6AB 80           mult  r0
000A:C6AC 6E           sub   r14
000A:C6AD F8 6E 0A     iwt   r8,#0A6E
000A:C6B0 00           stop
000A:C6B1 00           stop
000A:C6B2 C0           hib
000A:C6B3 80           mult  r0
000A:C6B4 6E           sub   r14
000A:C6B5 FA 6E 0A     iwt   r10,#0A6E
000A:C6B8 00           stop
000A:C6B9 00           stop
000A:C6BA C0           hib
000A:C6BB 80           mult  r0
000A:C6BC 6E           sub   r14
000A:C6BD FC 6E 0B     iwt   r12,#0B6E
000A:C6C0 00           stop
000A:C6C1 00           stop
000A:C6C2 C0           hib
000A:C6C3 80           mult  r0
000A:C6C4 6E           sub   r14
000A:C6C5 FE 6E 0B     iwt   r14,#0B6E
000A:C6C8 00           stop
000A:C6C9 00           stop
000A:C6CA C0           hib
000A:C6CB 80           mult  r0
000A:C6CC 6E           sub   r14
000A:C6CD 00           stop
000A:C6CE 6E           sub   r14
000A:C6CF 0C 00        bcc   C6D1
000A:C6D1 00           stop
000A:C6D2 C0           hib
000A:C6D3 80           mult  r0
000A:C6D4 6E           sub   r14
000A:C6D5 02           cache
000A:C6D6 6E           sub   r14
000A:C6D7 0C 00        bcc   C6D9
000A:C6D9 00           stop
000A:C6DA C0           hib
000A:C6DB 80           mult  r0
000A:C6DC 6E           sub   r14
000A:C6DD 04           rol
000A:C6DE 6E           sub   r14
000A:C6DF 0D 00        bcs   C6E1
000A:C6E1 00           stop
000A:C6E2 C0           hib
000A:C6E3 80           mult  r0
000A:C6E4 6E           sub   r14
000A:C6E5 06 6E        bge   C755
000A:C6E7 0D 00        bcs   C6E9
000A:C6E9 00           stop
000A:C6EA C0           hib
000A:C6EB 80           mult  r0
000A:C6EC 6E           sub   r14
000A:C6ED 08 6E        bne   C75D
000A:C6EF 0E 00        bvc   C6F1
000A:C6F1 00           stop
000A:C6F2 C0           hib
000A:C6F3 80           mult  r0
000A:C6F4 6E           sub   r14
000A:C6F5 0A 6E        bpl   C765
000A:C6F7 0E 00        bvc   C6F9
000A:C6F9 00           stop
000A:C6FA C0           hib
000A:C6FB 80           mult  r0
000A:C6FC 6E           sub   r14
000A:C6FD 0C 6E        bcc   C76D
000A:C6FF 0F 00        bvs   C701
000A:C701 00           stop
000A:C702 C0           hib
000A:C703 80           mult  r0
000A:C704 6E           sub   r14
000A:C705 0E 6E        bvc   C775
000A:C707 0F 00        bvs   C709
000A:C709 00           stop
000A:C70A 92           link  #02
000A:C70B 1E 40        ldw   (r0)
000A:C70D 7F           and   r15
000A:C70E 92           link  #02
000A:C70F 0F 00        bvs   C711
000A:C711 00           stop
000A:C712 92           link  #02
000A:C713 1C 40        ldw   (r0)
000A:C715 7F           and   r15
000A:C716 92           link  #02
000A:C717 0F 00        bvs   C719
000A:C719 00           stop
000A:C71A 92           link  #02
000A:C71B 1A 40        ldw   (r0)
000A:C71D 7F           and   r15
000A:C71E 92           link  #02
000A:C71F 0E 00        bvc   C721
000A:C721 00           stop
000A:C722 92           link  #02
000A:C723 18 40        ldw   (r0)
000A:C725 7F           and   r15
000A:C726 92           link  #02
000A:C727 0E 00        bvc   C729
000A:C729 00           stop
000A:C72A 92           link  #02
000A:C72B 16 40        ldw   (r0)
000A:C72D 7F           and   r15
000A:C72E 92           link  #02
000A:C72F 0D 00        bcs   C731
000A:C731 00           stop
000A:C732 92           link  #02
000A:C733 14 40        ldw   (r0)
000A:C735 7F           and   r15
000A:C736 92           link  #02
000A:C737 0D 00        bcs   C739
000A:C739 00           stop
000A:C73A 92           link  #02
000A:C73B 12 40        ldw   (r0)
000A:C73D 7F           and   r15
000A:C73E 92           link  #02
000A:C73F 0C 00        bcc   C741
000A:C741 00           stop
000A:C742 92           link  #02
000A:C743 10 40        ldw   (r0)
000A:C745 7F           and   r15
000A:C746 92           link  #02
000A:C747 0C 00        bcc   C749
000A:C749 00           stop
000A:C74A 92           link  #02
000A:C74B 0E 40        bvc   C78D
000A:C74D 7F           and   r15
000A:C74E 92           link  #02
000A:C74F 0B 00        bmi   C751
000A:C751 00           stop
000A:C752 92           link  #02
000A:C753 0C 40        bcc   C795
000A:C755 7F           and   r15
000A:C756 92           link  #02
000A:C757 0B 00        bmi   C759
000A:C759 00           stop
000A:C75A 92           link  #02
000A:C75B 0A 40        bpl   C79D
000A:C75D 7F           and   r15
000A:C75E 92           link  #02
000A:C75F 0A 00        bpl   C761
000A:C761 00           stop
000A:C762 92           link  #02
000A:C763 08 40        bne   C7A5
000A:C765 7F           and   r15
000A:C766 92           link  #02
000A:C767 0A 00        bpl   C769
000A:C769 00           stop
000A:C76A 92           link  #02
000A:C76B 06 40        bge   C7AD
000A:C76D 7F           and   r15
000A:C76E 92           link  #02
000A:C76F 09 00        beq   C771
000A:C771 00           stop
000A:C772 92           link  #02
000A:C773 04           rol
000A:C774 40           ldw   (r0)
000A:C775 7F           and   r15
000A:C776 92           link  #02
000A:C777 09 00        beq   C779
000A:C779 00           stop
000A:C77A 92           link  #02
000A:C77B 02           cache
000A:C77C 40           ldw   (r0)
000A:C77D 7F           and   r15
000A:C77E 92           link  #02
000A:C77F 08 00        bne   C781
000A:C781 00           stop
000A:C782 92           link  #02
000A:C783 00           stop
000A:C784 40           ldw   (r0)
000A:C785 7F           and   r15
000A:C786 92           link  #02
000A:C787 08 00        bne   C789
000A:C789 00           stop
000A:C78A 92           link  #02
000A:C78B 0E 40        bvc   C7CD
000A:C78D 7F           and   r15
000A:C78E 92           link  #02
000A:C78F 07 00        blt   C791
000A:C791 00           stop
000A:C792 92           link  #02
000A:C793 0C 40        bcc   C7D5
000A:C795 7F           and   r15
000A:C796 92           link  #02
000A:C797 07 00        blt   C799
000A:C799 00           stop
000A:C79A 92           link  #02
000A:C79B 0A 40        bpl   C7DD
000A:C79D 7F           and   r15
000A:C79E 92           link  #02
000A:C79F 06 00        bge   C7A1
000A:C7A1 00           stop
000A:C7A2 92           link  #02
000A:C7A3 08 40        bne   C7E5
000A:C7A5 7F           and   r15
000A:C7A6 92           link  #02
000A:C7A7 06 00        bge   C7A9
000A:C7A9 00           stop
000A:C7AA 92           link  #02
000A:C7AB 06 40        bge   C7ED
000A:C7AD 7F           and   r15
000A:C7AE 92           link  #02
000A:C7AF 05 00        bra   C7B1
000A:C7B1 00           stop
000A:C7B2 92           link  #02
000A:C7B3 04           rol
000A:C7B4 40           ldw   (r0)
000A:C7B5 7F           and   r15
000A:C7B6 92           link  #02
000A:C7B7 05 00        bra   C7B9
000A:C7B9 00           stop
000A:C7BA 92           link  #02
000A:C7BB 02           cache
000A:C7BC 40           ldw   (r0)
000A:C7BD 7F           and   r15
000A:C7BE 92           link  #02
000A:C7BF 04           rol
000A:C7C0 00           stop
000A:C7C1 00           stop
000A:C7C2 92           link  #02
000A:C7C3 00           stop
000A:C7C4 40           ldw   (r0)
000A:C7C5 7F           and   r15
000A:C7C6 92           link  #02
000A:C7C7 04           rol
000A:C7C8 00           stop
000A:C7C9 00           stop
000A:C7CA 00           stop
000A:C7CB FE 00 7F     iwt   r14,#7F00
000A:C7CE 92           link  #02
000A:C7CF 03           lsr
000A:C7D0 00           stop
000A:C7D1 00           stop
000A:C7D2 00           stop
000A:C7D3 FC 00 7F     iwt   r12,#7F00
000A:C7D6 92           link  #02
000A:C7D7 03           lsr
000A:C7D8 00           stop
000A:C7D9 00           stop
000A:C7DA 00           stop
000A:C7DB FA 00 7F     iwt   r10,#7F00
000A:C7DE 92           link  #02
000A:C7DF 02           cache
000A:C7E0 00           stop
000A:C7E1 00           stop
000A:C7E2 00           stop
000A:C7E3 F8 00 7F     iwt   r8,#7F00
000A:C7E6 92           link  #02
000A:C7E7 02           cache
000A:C7E8 00           stop
000A:C7E9 00           stop
000A:C7EA 00           stop
000A:C7EB F6 00 7F     iwt   r6,#7F00
000A:C7EE 92           link  #02
000A:C7EF 01           nop
000A:C7F0 00           stop
000A:C7F1 00           stop
000A:C7F2 00           stop
000A:C7F3 F4 00 7F     iwt   r4,#7F00
000A:C7F6 92           link  #02
000A:C7F7 01           nop
000A:C7F8 00           stop
000A:C7F9 00           stop
000A:C7FA 00           stop
000A:C7FB F2 00 7F     iwt   r2,#7F00
000A:C7FE 92           link  #02
000A:C7FF 00           stop
000A:C800 00           stop
000A:C801 00           stop
000A:C802 00           stop
000A:C803 F0 00 7F     iwt   r0,#7F00
000A:C806 92           link  #02
000A:C807 00           stop
000A:C808 00           stop
000A:C809 00           stop
000A:C80A C0           hib
000A:C80B 80           mult  r0
000A:C80C 60           sub   r0
000A:C80D 00           stop
000A:C80E 60           sub   r0
000A:C80F 00           stop
000A:C810 00           stop
000A:C811 00           stop
000A:C812 C0           hib
000A:C813 80           mult  r0
000A:C814 60           sub   r0
000A:C815 01           nop
000A:C816 60           sub   r0
000A:C817 01           nop
000A:C818 00           stop
000A:C819 00           stop
000A:C81A C0           hib
000A:C81B 80           mult  r0
000A:C81C 60           sub   r0
000A:C81D 02           cache
000A:C81E 60           sub   r0
000A:C81F 02           cache
000A:C820 00           stop
000A:C821 00           stop
000A:C822 C0           hib
000A:C823 80           mult  r0
000A:C824 60           sub   r0
000A:C825 03           lsr
000A:C826 60           sub   r0
000A:C827 03           lsr
000A:C828 00           stop
000A:C829 00           stop
000A:C82A C0           hib
000A:C82B 80           mult  r0
000A:C82C 60           sub   r0
000A:C82D 04           rol
000A:C82E 60           sub   r0
000A:C82F 04           rol
000A:C830 00           stop
000A:C831 00           stop
000A:C832 C0           hib
000A:C833 80           mult  r0
000A:C834 60           sub   r0
000A:C835 05 60        bra   C897
000A:C837 05 00        bra   C839
000A:C839 00           stop
000A:C83A C0           hib
000A:C83B 80           mult  r0
000A:C83C 60           sub   r0
000A:C83D 06 60        bge   C89F
000A:C83F 06 00        bge   C841
000A:C841 00           stop
000A:C842 C0           hib
000A:C843 80           mult  r0
000A:C844 60           sub   r0
000A:C845 07 60        blt   C8A7
000A:C847 07 00        blt   C849
000A:C849 00           stop
000A:C84A C0           hib
000A:C84B 80           mult  r0
000A:C84C 60           sub   r0
000A:C84D 08 60        bne   C8AF
000A:C84F 08 00        bne   C851
000A:C851 00           stop
000A:C852 C0           hib
000A:C853 80           mult  r0
000A:C854 60           sub   r0
000A:C855 09 60        beq   C8B7
000A:C857 09 00        beq   C859
000A:C859 00           stop
000A:C85A C0           hib
000A:C85B 80           mult  r0
000A:C85C 60           sub   r0
000A:C85D 0A 60        bpl   C8BF
000A:C85F 0A 00        bpl   C861
000A:C861 00           stop
000A:C862 C0           hib
000A:C863 80           mult  r0
000A:C864 60           sub   r0
000A:C865 0B 60        bmi   C8C7
000A:C867 0B 00        bmi   C869
000A:C869 00           stop
000A:C86A C0           hib
000A:C86B 80           mult  r0
000A:C86C 60           sub   r0
000A:C86D 0C 60        bcc   C8CF
000A:C86F 0C 00        bcc   C871
000A:C871 00           stop
000A:C872 C0           hib
000A:C873 80           mult  r0
000A:C874 60           sub   r0
000A:C875 0D 60        bcs   C8D7
000A:C877 0D 00        bcs   C879
000A:C879 00           stop
000A:C87A C0           hib
000A:C87B 80           mult  r0
000A:C87C 60           sub   r0
000A:C87D 0E 60        bvc   C8DF
000A:C87F 0E 00        bvc   C881
000A:C881 00           stop
000A:C882 C0           hib
000A:C883 80           mult  r0
000A:C884 60           sub   r0
000A:C885 0F 60        bvs   C8E7
000A:C887 0F 00        bvs   C889
000A:C889 00           stop
000A:C88A A0 0F        ibt   r0,#000F
000A:C88C 40           ldw   (r0)
000A:C88D 7F           and   r15
000A:C88E A0 0F        ibt   r0,#000F
000A:C890 00           stop
000A:C891 00           stop
000A:C892 A0 0E        ibt   r0,#000E
000A:C894 40           ldw   (r0)
000A:C895 7F           and   r15
000A:C896 A0 0E        ibt   r0,#000E
000A:C898 00           stop
000A:C899 00           stop
000A:C89A A0 0D        ibt   r0,#000D
000A:C89C 40           ldw   (r0)
000A:C89D 7F           and   r15
000A:C89E A0 0D        ibt   r0,#000D
000A:C8A0 00           stop
000A:C8A1 00           stop
000A:C8A2 A0 0C        ibt   r0,#000C
000A:C8A4 40           ldw   (r0)
000A:C8A5 7F           and   r15
000A:C8A6 A0 0C        ibt   r0,#000C
000A:C8A8 00           stop
000A:C8A9 00           stop
000A:C8AA A0 0B        ibt   r0,#000B
000A:C8AC 40           ldw   (r0)
000A:C8AD 7F           and   r15
000A:C8AE A0 0B        ibt   r0,#000B
000A:C8B0 00           stop
000A:C8B1 00           stop
000A:C8B2 A0 0A        ibt   r0,#000A
000A:C8B4 40           ldw   (r0)
000A:C8B5 7F           and   r15
000A:C8B6 A0 0A        ibt   r0,#000A
000A:C8B8 00           stop
000A:C8B9 00           stop
000A:C8BA A0 09        ibt   r0,#0009
000A:C8BC 40           ldw   (r0)
000A:C8BD 7F           and   r15
000A:C8BE A0 09        ibt   r0,#0009
000A:C8C0 00           stop
000A:C8C1 00           stop
000A:C8C2 A0 08        ibt   r0,#0008
000A:C8C4 40           ldw   (r0)
000A:C8C5 7F           and   r15
000A:C8C6 A0 08        ibt   r0,#0008
000A:C8C8 00           stop
000A:C8C9 00           stop
000A:C8CA A0 07        ibt   r0,#0007
000A:C8CC 40           ldw   (r0)
000A:C8CD 7F           and   r15
000A:C8CE A0 07        ibt   r0,#0007
000A:C8D0 00           stop
000A:C8D1 00           stop
000A:C8D2 A0 06        ibt   r0,#0006
000A:C8D4 40           ldw   (r0)
000A:C8D5 7F           and   r15
000A:C8D6 A0 06        ibt   r0,#0006
000A:C8D8 00           stop
000A:C8D9 00           stop
000A:C8DA A0 05        ibt   r0,#0005
000A:C8DC 40           ldw   (r0)
000A:C8DD 7F           and   r15
000A:C8DE A0 05        ibt   r0,#0005
000A:C8E0 00           stop
000A:C8E1 00           stop
000A:C8E2 A0 04        ibt   r0,#0004
000A:C8E4 40           ldw   (r0)
000A:C8E5 7F           and   r15
000A:C8E6 A0 04        ibt   r0,#0004
000A:C8E8 00           stop
000A:C8E9 00           stop
000A:C8EA A0 03        ibt   r0,#0003
000A:C8EC 40           ldw   (r0)
000A:C8ED 7F           and   r15
000A:C8EE A0 03        ibt   r0,#0003
000A:C8F0 00           stop
000A:C8F1 00           stop
000A:C8F2 A0 02        ibt   r0,#0002
000A:C8F4 40           ldw   (r0)
000A:C8F5 7F           and   r15
000A:C8F6 A0 02        ibt   r0,#0002
000A:C8F8 00           stop
000A:C8F9 00           stop
000A:C8FA A0 01        ibt   r0,#0001
000A:C8FC 40           ldw   (r0)
000A:C8FD 7F           and   r15
000A:C8FE A0 01        ibt   r0,#0001
000A:C900 00           stop
000A:C901 00           stop
000A:C902 A0 00        ibt   r0,#0000
000A:C904 40           ldw   (r0)
000A:C905 7F           and   r15
000A:C906 A0 00        ibt   r0,#0000
000A:C908 00           stop
000A:C909 00           stop
000A:C90A 00           stop
000A:C90B 80           mult  r0
000A:C90C 00           stop
000A:C90D 0F 00        bvs   C90F
000A:C90F 00           stop
000A:C910 01           nop
000A:C911 08 00        bne   C913
000A:C913 80           mult  r0
000A:C914 00           stop
000A:C915 0E 00        bvc   C917
000A:C917 00           stop
000A:C918 01           nop
000A:C919 08 00        bne   C91B
000A:C91B 80           mult  r0
000A:C91C 00           stop
000A:C91D 0D 00        bcs   C91F
000A:C91F 00           stop
000A:C920 01           nop
000A:C921 08 00        bne   C923
000A:C923 80           mult  r0
000A:C924 00           stop
000A:C925 0C 00        bcc   C927
000A:C927 00           stop
000A:C928 01           nop
000A:C929 08 00        bne   C92B
000A:C92B 80           mult  r0
000A:C92C 00           stop
000A:C92D 0B 00        bmi   C92F
000A:C92F 00           stop
000A:C930 01           nop
000A:C931 08 00        bne   C933
000A:C933 80           mult  r0
000A:C934 00           stop
000A:C935 0A 00        bpl   C937
000A:C937 00           stop
000A:C938 01           nop
000A:C939 08 00        bne   C93B
000A:C93B 80           mult  r0
000A:C93C 00           stop
000A:C93D 09 00        beq   C93F
000A:C93F 00           stop
000A:C940 01           nop
000A:C941 08 00        bne   C943
000A:C943 80           mult  r0
000A:C944 00           stop
000A:C945 08 00        bne   C947
000A:C947 00           stop
000A:C948 01           nop
000A:C949 08 00        bne   C94B
000A:C94B 80           mult  r0
000A:C94C 00           stop
000A:C94D 07 00        blt   C94F
000A:C94F 00           stop
000A:C950 01           nop
000A:C951 00           stop
000A:C952 00           stop
000A:C953 80           mult  r0
000A:C954 00           stop
000A:C955 06 00        bge   C957
000A:C957 00           stop
000A:C958 01           nop
000A:C959 00           stop
000A:C95A 00           stop
000A:C95B 80           mult  r0
000A:C95C 00           stop
000A:C95D 05 00        bra   C95F
000A:C95F 00           stop
000A:C960 01           nop
000A:C961 00           stop
000A:C962 00           stop
000A:C963 80           mult  r0
000A:C964 00           stop
000A:C965 04           rol
000A:C966 00           stop
000A:C967 00           stop
000A:C968 01           nop
000A:C969 00           stop
000A:C96A 00           stop
000A:C96B 80           mult  r0
000A:C96C 00           stop
000A:C96D 03           lsr
000A:C96E 00           stop
000A:C96F 00           stop
000A:C970 01           nop
000A:C971 00           stop
000A:C972 00           stop
000A:C973 80           mult  r0
000A:C974 00           stop
000A:C975 02           cache
000A:C976 00           stop
000A:C977 00           stop
000A:C978 01           nop
000A:C979 00           stop
000A:C97A 00           stop
000A:C97B 80           mult  r0
000A:C97C 00           stop
000A:C97D 01           nop
000A:C97E 00           stop
000A:C97F 00           stop
000A:C980 01           nop
000A:C981 00           stop
000A:C982 00           stop
000A:C983 80           mult  r0
000A:C984 00           stop
000A:C985 00           stop
000A:C986 00           stop
000A:C987 00           stop
000A:C988 01           nop
000A:C989 00           stop
000A:C98A 00           stop
000A:C98B 0F 00        bvs   C98D
000A:C98D 7F           and   r15
000A:C98E 00           stop
000A:C98F 00           stop
000A:C990 01           nop
000A:C991 00           stop
000A:C992 00           stop
000A:C993 0E 00        bvc   C995
000A:C995 7F           and   r15
000A:C996 00           stop
000A:C997 00           stop
000A:C998 01           nop
000A:C999 00           stop
000A:C99A 00           stop
000A:C99B 0D 00        bcs   C99D
000A:C99D 7F           and   r15
000A:C99E 00           stop
000A:C99F 00           stop
000A:C9A0 01           nop
000A:C9A1 00           stop
000A:C9A2 00           stop
000A:C9A3 0C 00        bcc   C9A5
000A:C9A5 7F           and   r15
000A:C9A6 00           stop
000A:C9A7 00           stop
000A:C9A8 01           nop
000A:C9A9 00           stop
000A:C9AA 00           stop
000A:C9AB 0B 00        bmi   C9AD
000A:C9AD 7F           and   r15
000A:C9AE 00           stop
000A:C9AF 00           stop
000A:C9B0 01           nop
000A:C9B1 00           stop
000A:C9B2 00           stop
000A:C9B3 0A 00        bpl   C9B5
000A:C9B5 7F           and   r15
000A:C9B6 00           stop
000A:C9B7 00           stop
000A:C9B8 01           nop
000A:C9B9 00           stop
000A:C9BA 00           stop
000A:C9BB 09 00        beq   C9BD
000A:C9BD 7F           and   r15
000A:C9BE 00           stop
000A:C9BF 00           stop
000A:C9C0 01           nop
000A:C9C1 00           stop
000A:C9C2 00           stop
000A:C9C3 08 00        bne   C9C5
000A:C9C5 7F           and   r15
000A:C9C6 00           stop
000A:C9C7 00           stop
000A:C9C8 01           nop
000A:C9C9 00           stop
000A:C9CA 00           stop
000A:C9CB 07 00        blt   C9CD
000A:C9CD 7F           and   r15
000A:C9CE 00           stop
000A:C9CF 00           stop
000A:C9D0 01           nop
000A:C9D1 08 00        bne   C9D3
000A:C9D3 06 00        bge   C9D5
000A:C9D5 7F           and   r15
000A:C9D6 00           stop
000A:C9D7 00           stop
000A:C9D8 01           nop
000A:C9D9 08 00        bne   C9DB
000A:C9DB 05 00        bra   C9DD
000A:C9DD 7F           and   r15
000A:C9DE 00           stop
000A:C9DF 00           stop
000A:C9E0 01           nop
000A:C9E1 08 00        bne   C9E3
000A:C9E3 04           rol
000A:C9E4 00           stop
000A:C9E5 7F           and   r15
000A:C9E6 00           stop
000A:C9E7 00           stop
000A:C9E8 01           nop
000A:C9E9 08 00        bne   C9EB
000A:C9EB 03           lsr
000A:C9EC 00           stop
000A:C9ED 7F           and   r15
000A:C9EE 00           stop
000A:C9EF 00           stop
000A:C9F0 01           nop
000A:C9F1 08 00        bne   C9F3
000A:C9F3 02           cache
000A:C9F4 00           stop
000A:C9F5 7F           and   r15
000A:C9F6 00           stop
000A:C9F7 00           stop
000A:C9F8 01           nop
000A:C9F9 08 00        bne   C9FB
000A:C9FB 01           nop
000A:C9FC 00           stop
000A:C9FD 7F           and   r15
000A:C9FE 00           stop
000A:C9FF 00           stop
000A:CA00 01           nop
000A:CA01 08 00        bne   CA03
000A:CA03 00           stop
000A:CA04 00           stop
000A:CA05 7F           and   r15
000A:CA06 00           stop
000A:CA07 00           stop
000A:CA08 01           nop
000A:CA09 08 20        bne   CA2B
000A:CA0B 0F E0        bvs   C9ED
000A:CA0D 00           stop
000A:CA0E 00           stop
000A:CA0F 00           stop
000A:CA10 2D           with  r13
000A:CA11 0E 20        bvc   CA33
000A:CA13 0E E0        bvc   C9F5
000A:CA15 01           nop
000A:CA16 00           stop
000A:CA17 00           stop
000A:CA18 2D           with  r13
000A:CA19 0C 20        bcc   CA3B
000A:CA1B 0D E0        bcs   C9FD
000A:CA1D 02           cache
000A:CA1E 00           stop
000A:CA1F 00           stop
000A:CA20 2D           with  r13
000A:CA21 0A 20        bpl   CA43
000A:CA23 0C E0        bcc   CA05
000A:CA25 03           lsr
000A:CA26 00           stop
000A:CA27 00           stop
000A:CA28 2D           with  r13
000A:CA29 08 20        bne   CA4B
000A:CA2B 0B E0        bmi   CA0D
000A:CA2D 04           rol
000A:CA2E 00           stop
000A:CA2F 00           stop
000A:CA30 2D           with  r13
000A:CA31 06 20        bge   CA53
000A:CA33 0A E0        bpl   CA15
000A:CA35 05 00        bra   CA37
000A:CA37 00           stop
000A:CA38 2D 04        rol
000A:CA3A 20           with  r0
000A:CA3B 09 E0        beq   CA1D
000A:CA3D 06 00        bge   CA3F
000A:CA3F 00           stop
000A:CA40 2D 02        cache
000A:CA42 20           with  r0
000A:CA43 08 E0        bne   CA25
000A:CA45 07 00        blt   CA47
000A:CA47 00           stop
000A:CA48 2D 00        stop
000A:CA4A 20           with  r0
000A:CA4B 07 E0        blt   CA2D
000A:CA4D 08 00        bne   CA4F
000A:CA4F 00           stop
000A:CA50 D3           inc   r3
000A:CA51 00           stop
000A:CA52 20           with  r0
000A:CA53 06 E0        bge   CA35
000A:CA55 09 00        beq   CA57
000A:CA57 00           stop
000A:CA58 D3           inc   r3
000A:CA59 02           cache
000A:CA5A 20           with  r0
000A:CA5B 05 E0        bra   CA3D
000A:CA5D 0A 00        bpl   CA5F
000A:CA5F 00           stop
000A:CA60 D3           inc   r3
000A:CA61 04           rol
000A:CA62 20 04        rol
000A:CA64 E0           dec   r0
000A:CA65 0B 00        bmi   CA67
000A:CA67 00           stop
000A:CA68 D3           inc   r3
000A:CA69 06 20        bge   CA8B
000A:CA6B 03           lsr
000A:CA6C E0           dec   r0
000A:CA6D 0C 00        bcc   CA6F
000A:CA6F 00           stop
000A:CA70 D3           inc   r3
000A:CA71 08 20        bne   CA93
000A:CA73 02           cache
000A:CA74 E0           dec   r0
000A:CA75 0D 00        bcs   CA77
000A:CA77 00           stop
000A:CA78 D3           inc   r3
000A:CA79 0A 20        bpl   CA9B
000A:CA7B 01           nop
000A:CA7C E0           dec   r0
000A:CA7D 0E 00        bvc   CA7F
000A:CA7F 00           stop
000A:CA80 D3           inc   r3
000A:CA81 0C 20        bcc   CAA3
000A:CA83 00           stop
000A:CA84 E0           dec   r0
000A:CA85 0F 00        bvs   CA87
000A:CA87 00           stop
000A:CA88 D3           inc   r3
000A:CA89 0E 00        bvc   CA8B
000A:CA8B 05 00        bra   CA8D
000A:CA8D 0A 00        bpl   CA8F
000A:CA8F 00           stop
000A:CA90 2D           with  r13
000A:CA91 05 12        bra   CAA5
000A:CA93 03           lsr
000A:CA94 EE           dec   r14
000A:CA95 0C 00        bcc   CA97
000A:CA97 00           stop
000A:CA98 20 03        lsr
000A:CA9A 20 02        cache
000A:CA9C E0           dec   r0
000A:CA9D 0D 00        bcs   CA9F
000A:CA9F 00           stop
000A:CAA0 20 02        cache
000A:CAA2 20 01        nop
000A:CAA4 E0           dec   r0
000A:CAA5 0E 00        bvc   CAA7
000A:CAA7 00           stop
000A:CAA8 12 01        nop
000A:CAAA 2D 00        stop
000A:CAAC D3           inc   r3
000A:CAAD 0F 00        bvs   CAAF
000A:CAAF 00           stop
000A:CAB0 12 01        nop
000A:CAB2 40           ldw   (r0)
000A:CAB3 00           stop
000A:CAB4 C0           hib
000A:CAB5 0F 00        bvs   CAB7
000A:CAB7 00           stop
000A:CAB8 00           stop
000A:CAB9 00           stop
000A:CABA 40           ldw   (r0)
000A:CABB 00           stop
000A:CABC C0           hib
000A:CABD 0F 00        bvs   CABF
000A:CABF 00           stop
000A:CAC0 00           stop
000A:CAC1 00           stop
000A:CAC2 40           ldw   (r0)
000A:CAC3 00           stop
000A:CAC4 C0           hib
000A:CAC5 0F 00        bvs   CAC7
000A:CAC7 00           stop
000A:CAC8 00           stop
000A:CAC9 00           stop
000A:CACA 40           ldw   (r0)
000A:CACB 00           stop
000A:CACC C0           hib
000A:CACD 0F 00        bvs   CACF
000A:CACF 00           stop
000A:CAD0 00           stop
000A:CAD1 00           stop
000A:CAD2 40           ldw   (r0)
000A:CAD3 00           stop
000A:CAD4 C0           hib
000A:CAD5 0F 00        bvs   CAD7
000A:CAD7 00           stop
000A:CAD8 00           stop
000A:CAD9 00           stop
000A:CADA 40           ldw   (r0)
000A:CADB 00           stop
000A:CADC C0           hib
000A:CADD 0F 00        bvs   CADF
000A:CADF 00           stop
000A:CAE0 00           stop
000A:CAE1 00           stop
000A:CAE2 40           ldw   (r0)
000A:CAE3 00           stop
000A:CAE4 C0           hib
000A:CAE5 0F 00        bvs   CAE7
000A:CAE7 00           stop
000A:CAE8 EE           dec   r14
000A:CAE9 01           nop
000A:CAEA 40           ldw   (r0)
000A:CAEB 00           stop
000A:CAEC C0           hib
000A:CAED 0F 00        bvs   CAEF
000A:CAEF 00           stop
000A:CAF0 EE           dec   r14
000A:CAF1 01           nop
000A:CAF2 40           ldw   (r0)
000A:CAF3 00           stop
000A:CAF4 C0           hib
000A:CAF5 0F 00        bvs   CAF7
000A:CAF7 00           stop
000A:CAF8 E0           dec   r0
000A:CAF9 02           cache
000A:CAFA 40           ldw   (r0)
000A:CAFB 00           stop
000A:CAFC C0           hib
000A:CAFD 0F 00        bvs   CAFF
000A:CAFF 00           stop
000A:CB00 E0           dec   r0
000A:CB01 03           lsr
000A:CB02 40           ldw   (r0)
000A:CB03 00           stop
000A:CB04 C0           hib
000A:CB05 0F 00        bvs   CB07
000A:CB07 00           stop
000A:CB08 D3           inc   r3
000A:CB09 05 C0        bra   CACB
000A:CB0B 80           mult  r0
000A:CB0C 53           add   r3
000A:CB0D 00           stop
000A:CB0E 53           add   r3
000A:CB0F 00           stop
000A:CB10 00           stop
000A:CB11 00           stop
000A:CB12 C0           hib
000A:CB13 80           mult  r0
000A:CB14 53           add   r3
000A:CB15 00           stop
000A:CB16 53           add   r3
000A:CB17 02           cache
000A:CB18 00           stop
000A:CB19 00           stop
000A:CB1A C0           hib
000A:CB1B 80           mult  r0
000A:CB1C 53           add   r3
000A:CB1D 01           nop
000A:CB1E 53           add   r3
000A:CB1F 04           rol
000A:CB20 00           stop
000A:CB21 00           stop
000A:CB22 C0           hib
000A:CB23 80           mult  r0
000A:CB24 53           add   r3
000A:CB25 01           nop
000A:CB26 53           add   r3
000A:CB27 06 00        bge   CB29
000A:CB29 00           stop
000A:CB2A C0           hib
000A:CB2B 80           mult  r0
000A:CB2C 53           add   r3
000A:CB2D 02           cache
000A:CB2E 53           add   r3
000A:CB2F 08 00        bne   CB31
000A:CB31 00           stop
000A:CB32 C0           hib
000A:CB33 80           mult  r0
000A:CB34 53           add   r3
000A:CB35 02           cache
000A:CB36 53           add   r3
000A:CB37 0A 00        bpl   CB39
000A:CB39 00           stop
000A:CB3A C0           hib
000A:CB3B 80           mult  r0
000A:CB3C 53           add   r3
000A:CB3D 03           lsr
000A:CB3E 53           add   r3
000A:CB3F 0C 00        bcc   CB41
000A:CB41 00           stop
000A:CB42 C0           hib
000A:CB43 80           mult  r0
000A:CB44 53           add   r3
000A:CB45 03           lsr
000A:CB46 53           add   r3
000A:CB47 0E 00        bvc   CB49
000A:CB49 00           stop
000A:CB4A C0           hib
000A:CB4B 80           mult  r0
000A:CB4C 53           add   r3
000A:CB4D 04           rol
000A:CB4E 53           add   r3
000A:CB4F 10 00        stop
000A:CB51 00           stop
000A:CB52 C0           hib
000A:CB53 80           mult  r0
000A:CB54 53           add   r3
000A:CB55 04           rol
000A:CB56 53           add   r3
000A:CB57 12 00        stop
000A:CB59 00           stop
000A:CB5A C0           hib
000A:CB5B 80           mult  r0
000A:CB5C 53           add   r3
000A:CB5D 05 53        bra   CBB2
000A:CB5F 14 00        stop
000A:CB61 00           stop
000A:CB62 C0           hib
000A:CB63 80           mult  r0
000A:CB64 53           add   r3
000A:CB65 05 53        bra   CBBA
000A:CB67 16 00        stop
000A:CB69 00           stop
000A:CB6A C0           hib
000A:CB6B 80           mult  r0
000A:CB6C 53           add   r3
000A:CB6D 06 53        bge   CBC2
000A:CB6F 18 00        stop
000A:CB71 00           stop
000A:CB72 C0           hib
000A:CB73 80           mult  r0
000A:CB74 53           add   r3
000A:CB75 06 53        bge   CBCA
000A:CB77 1A 00        stop
000A:CB79 00           stop
000A:CB7A C0           hib
000A:CB7B 80           mult  r0
000A:CB7C 53           add   r3
000A:CB7D 07 53        blt   CBD2
000A:CB7F 1C 00        stop
000A:CB81 00           stop
000A:CB82 C0           hib
000A:CB83 80           mult  r0
000A:CB84 53           add   r3
000A:CB85 07 53        blt   CBDA
000A:CB87 1E 00        stop
000A:CB89 00           stop
000A:CB8A C0           hib
000A:CB8B 80           mult  r0
000A:CB8C 53           add   r3
000A:CB8D 08 53        bne   CBE2
000A:CB8F F0 00 F0     iwt   r0,#F000
000A:CB92 C0           hib
000A:CB93 80           mult  r0
000A:CB94 53           add   r3
000A:CB95 08 53        bne   CBEA
000A:CB97 F2 00 F0     iwt   r2,#F000
000A:CB9A C0           hib
000A:CB9B 80           mult  r0
000A:CB9C 53           add   r3
000A:CB9D 09 53        beq   CBF2
000A:CB9F F4 00 F0     iwt   r4,#F000
000A:CBA2 C0           hib
000A:CBA3 80           mult  r0
000A:CBA4 53           add   r3
000A:CBA5 09 53        beq   CBFA
000A:CBA7 F6 00 F0     iwt   r6,#F000
000A:CBAA C0           hib
000A:CBAB 80           mult  r0
000A:CBAC 53           add   r3
000A:CBAD 0A 53        bpl   CC02
000A:CBAF F8 00 F0     iwt   r8,#F000
000A:CBB2 C0           hib
000A:CBB3 80           mult  r0
000A:CBB4 53           add   r3
000A:CBB5 0A 53        bpl   CC0A
000A:CBB7 FA 00 F0     iwt   r10,#F000
000A:CBBA C0           hib
000A:CBBB 80           mult  r0
000A:CBBC 53           add   r3
000A:CBBD 0B 53        bmi   CC12
000A:CBBF FC 00 F0     iwt   r12,#F000
000A:CBC2 C0           hib
000A:CBC3 80           mult  r0
000A:CBC4 53           add   r3
000A:CBC5 0B 53        bmi   CC1A
000A:CBC7 FE 00 F0     iwt   r14,#F000
000A:CBCA C0           hib
000A:CBCB 80           mult  r0
000A:CBCC 53           add   r3
000A:CBCD 0C 53        bcc   CC22
000A:CBCF 00           stop
000A:CBD0 00           stop
000A:CBD1 00           stop
000A:CBD2 C0           hib
000A:CBD3 80           mult  r0
000A:CBD4 53           add   r3
000A:CBD5 0C 53        bcc   CC2A
000A:CBD7 02           cache
000A:CBD8 00           stop
000A:CBD9 00           stop
000A:CBDA C0           hib
000A:CBDB 80           mult  r0
000A:CBDC 53           add   r3
000A:CBDD 0D 53        bcs   CC32
000A:CBDF 04           rol
000A:CBE0 00           stop
000A:CBE1 00           stop
000A:CBE2 C0           hib
000A:CBE3 80           mult  r0
000A:CBE4 53           add   r3
000A:CBE5 0D 53        bcs   CC3A
000A:CBE7 06 00        bge   CBE9
000A:CBE9 00           stop
000A:CBEA C0           hib
000A:CBEB 80           mult  r0
000A:CBEC 53           add   r3
000A:CBED 0E 53        bvc   CC42
000A:CBEF 08 00        bne   CBF1
000A:CBF1 00           stop
000A:CBF2 C0           hib
000A:CBF3 80           mult  r0
000A:CBF4 53           add   r3
000A:CBF5 0E 53        bvc   CC4A
000A:CBF7 0A 00        bpl   CBF9
000A:CBF9 00           stop
000A:CBFA C0           hib
000A:CBFB 80           mult  r0
000A:CBFC 53           add   r3
000A:CBFD 0F 53        bvs   CC52
000A:CBFF 0C 00        bcc   CC01
000A:CC01 00           stop
000A:CC02 C0           hib
000A:CC03 80           mult  r0
000A:CC04 53           add   r3
000A:CC05 0F 53        bvs   CC5A
000A:CC07 0E 00        bvc   CC09
000A:CC09 00           stop
000A:CC0A AD 0F        ibt   r13,#000F
000A:CC0C 40           ldw   (r0)
000A:CC0D 7F           and   r15
000A:CC0E AD 1E        ibt   r13,#001E
000A:CC10 00           stop
000A:CC11 00           stop
000A:CC12 AD 0F        ibt   r13,#000F
000A:CC14 40           ldw   (r0)
000A:CC15 7F           and   r15
000A:CC16 AD 1C        ibt   r13,#001C
000A:CC18 00           stop
000A:CC19 00           stop
000A:CC1A AD 0E        ibt   r13,#000E
000A:CC1C 40           ldw   (r0)
000A:CC1D 7F           and   r15
000A:CC1E AD 1A        ibt   r13,#001A
000A:CC20 00           stop
000A:CC21 00           stop
000A:CC22 AD 0E        ibt   r13,#000E
000A:CC24 40           ldw   (r0)
000A:CC25 7F           and   r15
000A:CC26 AD 18        ibt   r13,#0018
000A:CC28 00           stop
000A:CC29 00           stop
000A:CC2A AD 0D        ibt   r13,#000D
000A:CC2C 40           ldw   (r0)
000A:CC2D 7F           and   r15
000A:CC2E AD 16        ibt   r13,#0016
000A:CC30 00           stop
000A:CC31 00           stop
000A:CC32 AD 0D        ibt   r13,#000D
000A:CC34 40           ldw   (r0)
000A:CC35 7F           and   r15
000A:CC36 AD 14        ibt   r13,#0014
000A:CC38 00           stop
000A:CC39 00           stop
000A:CC3A AD 0C        ibt   r13,#000C
000A:CC3C 40           ldw   (r0)
000A:CC3D 7F           and   r15
000A:CC3E AD 12        ibt   r13,#0012
000A:CC40 00           stop
000A:CC41 00           stop
000A:CC42 AD 0C        ibt   r13,#000C
000A:CC44 40           ldw   (r0)
000A:CC45 7F           and   r15
000A:CC46 AD 10        ibt   r13,#0010
000A:CC48 00           stop
000A:CC49 00           stop
000A:CC4A AD 0B        ibt   r13,#000B
000A:CC4C 40           ldw   (r0)
000A:CC4D 7F           and   r15
000A:CC4E AD 0E        ibt   r13,#000E
000A:CC50 00           stop
000A:CC51 00           stop
000A:CC52 AD 0B        ibt   r13,#000B
000A:CC54 40           ldw   (r0)
000A:CC55 7F           and   r15
000A:CC56 AD 0C        ibt   r13,#000C
000A:CC58 00           stop
000A:CC59 00           stop
000A:CC5A AD 0A        ibt   r13,#000A
000A:CC5C 40           ldw   (r0)
000A:CC5D 7F           and   r15
000A:CC5E AD 0A        ibt   r13,#000A
000A:CC60 00           stop
000A:CC61 00           stop
000A:CC62 AD 0A        ibt   r13,#000A
000A:CC64 40           ldw   (r0)
000A:CC65 7F           and   r15
000A:CC66 AD 08        ibt   r13,#0008
000A:CC68 00           stop
000A:CC69 00           stop
000A:CC6A AD 09        ibt   r13,#0009
000A:CC6C 40           ldw   (r0)
000A:CC6D 7F           and   r15
000A:CC6E AD 06        ibt   r13,#0006
000A:CC70 00           stop
000A:CC71 00           stop
000A:CC72 AD 09        ibt   r13,#0009
000A:CC74 40           ldw   (r0)
000A:CC75 7F           and   r15
000A:CC76 AD 04        ibt   r13,#0004
000A:CC78 00           stop
000A:CC79 00           stop
000A:CC7A AD 08        ibt   r13,#0008
000A:CC7C 40           ldw   (r0)
000A:CC7D 7F           and   r15
000A:CC7E AD 02        ibt   r13,#0002
000A:CC80 00           stop
000A:CC81 00           stop
000A:CC82 AD 08        ibt   r13,#0008
000A:CC84 40           ldw   (r0)
000A:CC85 7F           and   r15
000A:CC86 AD 00        ibt   r13,#0000
000A:CC88 00           stop
000A:CC89 00           stop
000A:CC8A AD 07        ibt   r13,#0007
000A:CC8C 40           ldw   (r0)
000A:CC8D 7F           and   r15
000A:CC8E AD 0E        ibt   r13,#000E
000A:CC90 00           stop
000A:CC91 00           stop
000A:CC92 AD 07        ibt   r13,#0007
000A:CC94 40           ldw   (r0)
000A:CC95 7F           and   r15
000A:CC96 AD 0C        ibt   r13,#000C
000A:CC98 00           stop
000A:CC99 00           stop
000A:CC9A AD 06        ibt   r13,#0006
000A:CC9C 40           ldw   (r0)
000A:CC9D 7F           and   r15
000A:CC9E AD 0A        ibt   r13,#000A
000A:CCA0 00           stop
000A:CCA1 00           stop
000A:CCA2 AD 06        ibt   r13,#0006
000A:CCA4 40           ldw   (r0)
000A:CCA5 7F           and   r15
000A:CCA6 AD 08        ibt   r13,#0008
000A:CCA8 00           stop
000A:CCA9 00           stop
000A:CCAA AD 05        ibt   r13,#0005
000A:CCAC 40           ldw   (r0)
000A:CCAD 7F           and   r15
000A:CCAE AD 06        ibt   r13,#0006
000A:CCB0 00           stop
000A:CCB1 00           stop
000A:CCB2 AD 05        ibt   r13,#0005
000A:CCB4 40           ldw   (r0)
000A:CCB5 7F           and   r15
000A:CCB6 AD 04        ibt   r13,#0004
000A:CCB8 00           stop
000A:CCB9 00           stop
000A:CCBA AD 04        ibt   r13,#0004
000A:CCBC 40           ldw   (r0)
000A:CCBD 7F           and   r15
000A:CCBE AD 02        ibt   r13,#0002
000A:CCC0 00           stop
000A:CCC1 00           stop
000A:CCC2 AD 04        ibt   r13,#0004
000A:CCC4 40           ldw   (r0)
000A:CCC5 7F           and   r15
000A:CCC6 AD 00        ibt   r13,#0000
000A:CCC8 00           stop
000A:CCC9 00           stop
000A:CCCA AD 03        ibt   r13,#0003
000A:CCCC 40           ldw   (r0)
000A:CCCD 7F           and   r15
000A:CCCE AD FE        ibt   r13,#FFFE
000A:CCD0 00           stop
000A:CCD1 F0 AD 03     iwt   r0,#03AD
000A:CCD4 40           ldw   (r0)
000A:CCD5 7F           and   r15
000A:CCD6 AD FC        ibt   r13,#FFFC
000A:CCD8 00           stop
000A:CCD9 F0 AD 02     iwt   r0,#02AD
000A:CCDC 40           ldw   (r0)
000A:CCDD 7F           and   r15
000A:CCDE AD FA        ibt   r13,#FFFA
000A:CCE0 00           stop
000A:CCE1 F0 AD 02     iwt   r0,#02AD
000A:CCE4 40           ldw   (r0)
000A:CCE5 7F           and   r15
000A:CCE6 AD F8        ibt   r13,#FFF8
000A:CCE8 00           stop
000A:CCE9 F0 AD 01     iwt   r0,#01AD
000A:CCEC 40           ldw   (r0)
000A:CCED 7F           and   r15
000A:CCEE AD F6        ibt   r13,#FFF6
000A:CCF0 00           stop
000A:CCF1 F0 AD 01     iwt   r0,#01AD
000A:CCF4 40           ldw   (r0)
000A:CCF5 7F           and   r15
000A:CCF6 AD F4        ibt   r13,#FFF4
000A:CCF8 00           stop
000A:CCF9 F0 AD 00     iwt   r0,#00AD
000A:CCFC 40           ldw   (r0)
000A:CCFD 7F           and   r15
000A:CCFE AD F2        ibt   r13,#FFF2
000A:CD00 00           stop
000A:CD01 F0 AD 00     iwt   r0,#00AD
000A:CD04 40           ldw   (r0)
000A:CD05 7F           and   r15
000A:CD06 AD F0        ibt   r13,#FFF0
000A:CD08 00           stop
000A:CD09 F0 05 04     iwt   r0,#0405
000A:CD0C 06 01        bge   CD0F
000A:CD0E 00           stop
000A:CD0F 02           cache
000A:CD10 09 08        beq   CD1A
000A:CD12 0A 0D        bpl   CD21
000A:CD14 0C 0E        bcc   CD24
000A:CD16 07 0F        blt   CD27
000A:CD18 03           lsr
000A:CD19 0B 01        bmi   CD1C
000A:CD1B 00           stop
000A:CD1C 02           cache
000A:CD1D 03           lsr
000A:CD1E A0 0A        ibt   r0,#000A
000A:CD20 3F DF        romb
000A:CD22 21 18        move  r8,r1
000A:CD24 22 10        move  r0,r2
000A:CD26 94           link  #04
000A:CD27 FF 95 D0     iwt   r15,#D095
000A:CD2A 02           cache
000A:CD2B B6 9E        lob
000A:CD2D F3 0A CD     iwt   r3,#CD0A
000A:CD30 1E 53        add   r3
000A:CD32 EF           getb
000A:CD33 1E 3E 74     and   #04
000A:CD36 09 51        beq   CD89
000A:CD38 01           nop
000A:CD39 A9 00        ibt   r9,#0000
000A:CD3B AA 00        ibt   r10,#0000
000A:CD3D A4 10        ibt   r4,#0010
000A:CD3F 1E 3E 78     and   #08
000A:CD42 09 02        beq   CD46
000A:CD44 01           nop
000A:CD45 EA           dec   r10
000A:CD46 3E 73        and   #03
000A:CD48 08 25        bne   CD6F
000A:CD4A E0           dec   r0
000A:CD4B 29 54        add   r4
000A:CD4D B1 18 59     add   r9
000A:CD50 22 10        move  r0,r2
000A:CD52 94           link  #04
000A:CD53 FF 96 D0     iwt   r15,#D096
000A:CD56 3D F0 00 F8  lm    r0,(F800)
000A:CD5A 77           and   r7
000A:CD5B F7 00 70     iwt   r7,#7000
000A:CD5E 67           sub   r7
000A:CD5F 08 28        bne   CD89
000A:CD61 B6 9E        lob
000A:CD63 1E 53        add   r3
000A:CD65 EF           getb
000A:CD66 3E 72        and   #02
000A:CD68 09 E2        beq   CD4C
000A:CD6A 29           with  r9
000A:CD6B 21           with  r1
000A:CD6C 05 2F        bra   CD9D
000A:CD6E 59           add   r9
000A:CD6F 08 29        bne   CD9A
000A:CD71 E0           dec   r0
000A:CD72 29 54        add   r4
000A:CD74 B1 18 59     add   r9
000A:CD77 22 10        move  r0,r2
000A:CD79 94           link  #04
000A:CD7A FF 96 D0     iwt   r15,#D096
000A:CD7D 3D F0 00 F8  lm    r0,(F800)
000A:CD81 77           and   r7
000A:CD82 F7 00 70     iwt   r7,#7000
000A:CD85 67           sub   r7
000A:CD86 09 06        beq   CD8E
000A:CD88 B6 A9 00     ibt   r9,#0000
000A:CD8B 60           sub   r0
000A:CD8C 00           stop
000A:CD8D 01           nop
000A:CD8E 9E           lob
000A:CD8F 1E 53        add   r3
000A:CD91 EF           getb
000A:CD92 3E 72        and   #02
000A:CD94 09 DD        beq   CD73
000A:CD96 29           with  r9
000A:CD97 05 26        bra   CDBF
000A:CD99 01           nop
000A:CD9A 08 23        bne   CDBF
000A:CD9C 01           nop
000A:CD9D 29 54        add   r4
000A:CD9F B1 18 69     sub   r9
000A:CDA2 22 10        move  r0,r2
000A:CDA4 94           link  #04
000A:CDA5 FF 96 D0     iwt   r15,#D096
000A:CDA8 3D F0 00 F8  lm    r0,(F800)
000A:CDAC 77           and   r7
000A:CDAD F7 00 70     iwt   r7,#7000
000A:CDB0 67           sub   r7
000A:CDB1 08 D6        bne   CD89
000A:CDB3 B6 9E        lob
000A:CDB5 1E 53        add   r3
000A:CDB7 EF           getb
000A:CDB8 3E 71        and   #01
000A:CDBA 09 E2        beq   CD9E
000A:CDBC 29 21 69     sub   r9
000A:CDBF DA           inc   r10
000A:CDC0 09 21        beq   CDE3
000A:CDC2 01           nop
000A:CDC3 EA           dec   r10
000A:CDC4 2A 54        add   r4
000A:CDC6 21 18        move  r8,r1
000A:CDC8 B2 5A        add   r10
000A:CDCA 94           link  #04
000A:CDCB FF 96 D0     iwt   r15,#D096
000A:CDCE 3D F0 00 F8  lm    r0,(F800)
000A:CDD2 77           and   r7
000A:CDD3 F7 00 70     iwt   r7,#7000
000A:CDD6 67           sub   r7
000A:CDD7 08 B0        bne   CD89
000A:CDD9 B6 9E        lob
000A:CDDB 1E 53        add   r3
000A:CDDD EF           getb
000A:CDDE 3E 78        and   #08
000A:CDE0 09 E2        beq   CDC4
000A:CDE2 01           nop
000A:CDE3 B9 03        lsr
000A:CDE5 11 51        add   r1
000A:CDE7 BA 03        lsr
000A:CDE9 12 52        add   r2
000A:CDEB 29 54        add   r4
000A:CDED 2A 54        add   r4
000A:CDEF 2A 16        move  r6,r10
000A:CDF1 B9 3D 9F     lmult
000A:CDF4 B4 13 C0     hib
000A:CDF7 60           sub   r0
000A:CDF8 00           stop
000A:CDF9 01           nop
000A:CDFA A0 0A        ibt   r0,#000A
000A:CDFC 3F DF        romb
000A:CDFE B1 18 53     add   r3
000A:CE01 B2 54        add   r4
000A:CE03 94           link  #04
000A:CE04 FF 95 D0     iwt   r15,#D095
000A:CE07 02           cache
000A:CE08 3E 72        and   #02
000A:CE0A 08 1C        bne   CE28
000A:CE0C 01           nop
000A:CE0D AC 0F        ibt   r12,#000F
000A:CE0F 2F 1D        move  r13,r15
000A:CE11 3D A1 00     lms   r1,(0000)
000A:CE14 B1 18 53     add   r3
000A:CE17 3D A2 01     lms   r2,(0002)
000A:CE1A B2 54        add   r4
000A:CE1C 94           link  #04
000A:CE1D FF 96 D0     iwt   r15,#D096
000A:CE20 3D 3E 72     and   #02
000A:CE23 08 07        bne   CE2C
000A:CE25 01           nop
000A:CE26 3C           loop
000A:CE27 01           nop
000A:CE28 A1 FF        ibt   r1,#FFFF
000A:CE2A A2 FF        ibt   r2,#FFFF
000A:CE2C 60           sub   r0
000A:CE2D 00           stop
000A:CE2E 01           nop
000A:CE2F A7 0A        ibt   r7,#000A
000A:CE31 B7 3F DF     romb
000A:CE34 94           link  #04
000A:CE35 FF 96 D0     iwt   r15,#D096
000A:CE38 3D 15 3E 72  and   #02
000A:CE3C 60           sub   r0
000A:CE3D 00           stop
000A:CE3E 01           nop
000A:CE3F A0 0A        ibt   r0,#000A
000A:CE41 3F DF        romb
000A:CE43 02           cache
000A:CE44 AC 07        ibt   r12,#0007
000A:CE46 2F 1D        move  r13,r15
000A:CE48 22 18        move  r8,r2
000A:CE4A 23 10        move  r0,r3
000A:CE4C 94           link  #04
000A:CE4D FF 96 D0     iwt   r15,#D096
000A:CE50 3D 3E 73     and   #03
000A:CE53 08 21        bne   CE76
000A:CE55 01           nop
000A:CE56 23 3E 6F     sub   #0F
000A:CE59 E3           dec   r3
000A:CE5A 2E 3E 5F     add   #0F
000A:CE5D 3C           loop
000A:CE5E DE           inc   r14
000A:CE5F 3D A0 10     lms   r0,(0020)
000A:CE62 E0           dec   r0
000A:CE63 09 0C        beq   CE71
000A:CE65 90           sbk
000A:CE66 A3 04        ibt   r3,#0004
000A:CE68 B3 1E 60     sub   r0
000A:CE6B 22 54        add   r4
000A:CE6D 2A           with  r10
000A:CE6E 05 D4        bra   CE44
000A:CE70 13 AE F0     ibt   r14,#FFF0
000A:CE73 60           sub   r0
000A:CE74 00           stop
000A:CE75 01           nop
000A:CE76 2F 1D        move  r13,r15
000A:CE78 23 3E 6F     sub   #0F
000A:CE7B E3           dec   r3
000A:CE7C 22 18        move  r8,r2
000A:CE7E 23 10        move  r0,r3
000A:CE80 94           link  #04
000A:CE81 FF 96 D0     iwt   r15,#D096
000A:CE84 3D 3E 72     and   #02
000A:CE87 09 EB        beq   CE74
000A:CE89 60           sub   r0
000A:CE8A 2E 3E 5F     add   #0F
000A:CE8D 3C           loop
000A:CE8E DE           inc   r14
000A:CE8F 05 CE        bra   CE5F
000A:CE91 01           nop
000A:CE92 A0 0A        ibt   r0,#000A
000A:CE94 3F DF        romb
000A:CE96 02           cache
000A:CE97 2F 1D        move  r13,r15
000A:CE99 22 18        move  r8,r2
000A:CE9B 23 10        move  r0,r3
000A:CE9D 94           link  #04
000A:CE9E FF 96 D0     iwt   r15,#D096
000A:CEA1 3D 3E 72     and   #02
000A:CEA4 09 23        beq   CEC9
000A:CEA6 23 54        add   r4
000A:CEA8 3C           loop
000A:CEA9 DE           inc   r14
000A:CEAA AE 10        ibt   r14,#0010
000A:CEAC 3D AC 2C     lms   r12,(0058)
000A:CEAF EC           dec   r12
000A:CEB0 29 12        move  r2,r9
000A:CEB2 2A 13        move  r3,r10
000A:CEB4 2F 1D        move  r13,r15
000A:CEB6 22 18        move  r8,r2
000A:CEB8 23 10        move  r0,r3
000A:CEBA 94           link  #04
000A:CEBB FF 96 D0     iwt   r15,#D096
000A:CEBE 3D 3E 71     and   #01
000A:CEC1 08 06        bne   CEC9
000A:CEC3 23 54        add   r4
000A:CEC5 3C           loop
000A:CEC6 DE           inc   r14
000A:CEC7 AE F0        ibt   r14,#FFF0
000A:CEC9 00           stop
000A:CECA 01           nop
000A:CECB 01           nop
000A:CECC 00           stop
000A:CECD 01           nop
000A:CECE 05 01        bra   CED1
000A:CED0 0A 05        bpl   CED7
000A:CED2 0F 01        bvs   CED5
000A:CED4 14           to    r4
000A:CED5 0C 00        bcc   CED7
000A:CED7 09 19        beq   CEF2
000A:CED9 01           nop
000A:CEDA 20           with  r0
000A:CEDB 09 25        beq   CF02
000A:CEDD 03           lsr
000A:CEDE 2C 03        lsr
000A:CEE0 30           stw   (r0)
000A:CEE1 04           rol
000A:CEE2 34           stw   (r4)
000A:CEE3 02           cache
000A:CEE4 00           stop
000A:CEE5 0D 36        bcs   CF1D
000A:CEE7 08 00        bne   CEE9
000A:CEE9 0D 3B        bcs   CF26
000A:CEEB 0E 3B        bvc   CF28
000A:CEED 02           cache
000A:CEEE 0A 09        bpl   CEF9
000A:CEF0 40           ldw   (r0)
000A:CEF1 0A 47        bpl   CF3A
000A:CEF3 09 4C        beq   CF41
000A:CEF5 01           nop
000A:CEF6 53           add   r3
000A:CEF7 01           nop
000A:CEF8 58           add   r8
000A:CEF9 05 00        bra   CEFB
000A:CEFB 01           nop
000A:CEFC 5D           add   r13
000A:CEFD 01           nop
000A:CEFE 62           sub   r2
000A:CEFF 0C 67        bcc   CF68
000A:CF01 00           stop
000A:CF02 6C           sub   r12
000A:CF03 0B 6C        bmi   CF71
000A:CF05 06 6C        bge   CF73
000A:CF07 01           nop
000A:CF08 6D           sub   r13
000A:CF09 08 05        bne   CF10
000A:CF0B 02           cache
000A:CF0C 05 0D        bra   CF1B
000A:CF0E 05 08        bra   CF18
000A:CF10 01           nop
000A:CF11 08 10        bne   CF23
000A:CF13 08 08        bne   CF1D
000A:CF15 05 08        bra   CF1F
000A:CF17 0A 08        bpl   CF21
000A:CF19 08 05        bne   CF20
000A:CF1B 08 0B        bne   CF28
000A:CF1D 08 08        bne   CF27
000A:CF1F FC 08 14     iwt   r12,#1408
000A:CF22 08 08        bne   CF2C
000A:CF24 FC 08 14     iwt   r12,#1408
000A:CF27 08 0A        bne   CF33
000A:CF29 F8 0A 18     iwt   r8,#180A
000A:CF2C 0A 08        bpl   CF36
000A:CF2E 00           stop
000A:CF2F 08 10        bne   CF41
000A:CF31 08 08        bne   CF3B
000A:CF33 00           stop
000A:CF34 08 0F        bne   CF45
000A:CF36 08 08        bne   CF40
000A:CF38 FC 08 15     iwt   r12,#1508
000A:CF3B 08 05        bne   CF42
000A:CF3D FA 05 15     iwt   r10,#1505
000A:CF40 05 FB        bra   CF3D
000A:CF42 00           stop
000A:CF43 14 00        stop
000A:CF45 FB 10 14     iwt   r11,#1410
000A:CF48 10 10 10 02  cache
000A:CF4C 10           to    r0
000A:CF4D 1E           to    r14
000A:CF4E 10           to    r0
000A:CF4F 08 02        bne   CF53
000A:CF51 08 20        bne   CF73
000A:CF53 08 08        bne   CF5D
000A:CF55 F8 00 18     iwt   r8,#1800
000A:CF58 00           stop
000A:CF59 F9 00 17     iwt   r9,#1700
000A:CF5C 00           stop
000A:CF5D F9 10 17     iwt   r9,#1710
000A:CF60 10 FE FE 11  iwt   r14,#11FE
000A:CF64 11 FE 11 11  iwt   r14,#1111
000A:CF68 FE 00 00     iwt   r14,#0000
000A:CF6B 0F 0F        bvs   CF7C
000A:CF6D 00           stop
000A:CF6E 0F 0F        bvs   CF7F
000A:CF70 00           stop
000A:CF71 FE 10 12     iwt   r14,#1210
000A:CF74 10           to    r0
000A:CF75 08 08        bne   CF7F
000A:CF77 FA 08 16     iwt   r10,#1608
000A:CF7A 08 08        bne   CF84
000A:CF7C FA 08 16     iwt   r10,#1608
000A:CF7F 08 08        bne   CF89
000A:CF81 FC FC 14     iwt   r12,#14FC
000A:CF84 FC 08 FA     iwt   r12,#FA08
000A:CF87 08 16        bne   CF9F
000A:CF89 08 08        bne   CF93
000A:CF8B 02           cache
000A:CF8C 08 0E        bne   CF9C
000A:CF8E 08 04        bne   CF94
000A:CF90 00           stop
000A:CF91 0C 00        bcc   CF93
000A:CF93 04           rol
000A:CF94 10           to    r0
000A:CF95 0C 10        bcc   CFA7
000A:CF97 08 08        bne   CFA1
000A:CF99 00           stop
000A:CF9A 08 10        bne   CFAC
000A:CF9C 08 08        bne   CFA6
000A:CF9E 00           stop
000A:CF9F 08 10        bne   CFB1
000A:CFA1 08 04        bne   CFA7
000A:CFA3 00           stop
000A:CFA4 04           rol
000A:CFA5 10 04        rol
000A:CFA7 00           stop
000A:CFA8 FA 10 FA     iwt   r10,#FA10
000A:CFAB 01           nop
000A:CFAC 10           to    r0
000A:CFAD 0F 10        bvs   CFBF
000A:CFAF 08 08        bne   CFB9
000A:CFB1 02           cache
000A:CFB2 08 0D        bne   CFC1
000A:CFB4 08 08        bne   CFBE
000A:CFB6 FA 08 18     iwt   r10,#1808
000A:CFB9 08 08        bne   CFC3
000A:CFBB FD 06 13     iwt   r13,#1306
000A:CFBE 06 08        bge   CFC8
000A:CFC0 F9 08 16     iwt   r9,#1608
000A:CFC3 08 08        bne   CFCD
000A:CFC5 00           stop
000A:CFC6 08 10        bne   CFD8
000A:CFC8 08 08        bne   CFD2
000A:CFCA FD 08 13     iwt   r13,#1308
000A:CFCD 08 04        bne   CFD3
000A:CFCF FC 04 14     iwt   r12,#1404
000A:CFD2 04           rol
000A:CFD3 08 F8        bne   CFCD
000A:CFD5 08 10        bne   CFE7
000A:CFD7 08 08        bne   CFE1
000A:CFD9 00           stop
000A:CFDA 08 0F        bne   CFEB
000A:CFDC 08 08        bne   CFE6
000A:CFDE 00           stop
000A:CFDF 08 0F        bne   CFF0
000A:CFE1 08 08        bne   CFEB
000A:CFE3 08 08        bne   CFED
000A:CFE5 EC           dec   r12
000A:CFE6 04           rol
000A:CFE7 24 04        rol
000A:CFE9 08 E8        bne   CFD3
000A:CFEB 08 20        bne   D00D
000A:CFED A0 0A        ibt   r0,#000A
000A:CFEF 3F DF        romb
000A:CFF1 A1 00        ibt   r1,#0000
000A:CFF3 AC 28        ibt   r12,#0028
000A:CFF5 02           cache
000A:CFF6 2F 1D        move  r13,r15
000A:CFF8 F0 C3 0E     iwt   r0,#0EC3
000A:CFFB 51           add   r1
000A:CFFC 3D 40        ldb   (r0)
000A:CFFE 22 B0        moves r2,r0
000A:D000 09 0B        beq   D00D
000A:D002 01           nop
000A:D003 F0 20 18     iwt   r0,#1820
000A:D006 51           add   r1
000A:D007 40           ldw   (r0)
000A:D008 3F 71        bic   #01
000A:D00A 90           sbk
000A:D00B A2 00        ibt   r2,#0000
000A:D00D F0 C2 0E     iwt   r0,#0EC2
000A:D010 51           add   r1
000A:D011 B2 30        stw   (r0)
000A:D013 F0 C0 0E     iwt   r0,#0EC0
000A:D016 51           add   r1
000A:D017 40           ldw   (r0)
000A:D018 3E 6E        sub   #0E
000A:D01A 0C 62        bcc   D07E
000A:D01C 01           nop
000A:D01D F0 62 0F     iwt   r0,#0F62
000A:D020 51           add   r1
000A:D021 40           ldw   (r0)
000A:D022 A7 1F        ibt   r7,#001F
000A:D024 77           and   r7
000A:D025 09 57        beq   D07E
000A:D027 50           add   r0
000A:D028 FE C9 CE     iwt   r14,#CEC9
000A:D02B 1E 5E        add   r14
000A:D02D F0 A2 10     iwt   r0,#10A2
000A:D030 51           add   r1
000A:D031 19 40        ldw   (r0)
000A:D033 17 EF        getb
000A:D035 DE           inc   r14
000A:D036 F0 42 11     iwt   r0,#1142
000A:D039 51           add   r1
000A:D03A 1A 40        ldw   (r0)
000A:D03C F0 E0 16     iwt   r0,#16E0
000A:D03F 51           add   r1
000A:D040 40           ldw   (r0)
000A:D041 1A 5A        add   r10
000A:D043 EF           getb
000A:D044 50           add   r0
000A:D045 FE 09 CF     iwt   r14,#CF09
000A:D048 1E 5E        add   r14
000A:D04A B7 57        add   r7
000A:D04C 57           add   r7
000A:D04D D0           inc   r0
000A:D04E 1F 5F        add   r15
000A:D050 FF 42 D6     iwt   r15,#D642
000A:D053 01           nop
000A:D054 1C D5        inc   r5
000A:D056 01           nop
000A:D057 1B D6        inc   r6
000A:D059 01           nop
000A:D05A 4B           ldw   (r11)
000A:D05B D6           inc   r6
000A:D05C 01           nop
000A:D05D 69           sub   r9
000A:D05E D6           inc   r6
000A:D05F 01           nop
000A:D060 0F E2        bvs   D044
000A:D062 01           nop
000A:D063 59           add   r9
000A:D064 E4           dec   r4
000A:D065 01           nop
000A:D066 C5           or    r5
000A:D067 E3           dec   r3
000A:D068 01           nop
000A:D069 BA E4        dec   r4
000A:D06B 01           nop
000A:D06C 9F           fmult
000A:D06D DD           inc   r13
000A:D06E 01           nop
000A:D06F 79           and   r9
000A:D070 D6           inc   r6
000A:D071 01           nop
000A:D072 91           link  #01
000A:D073 DD           inc   r13
000A:D074 01           nop
000A:D075 85           mult  r5
000A:D076 E3           dec   r3
000A:D077 01           nop
000A:D078 48           ldw   (r8)
000A:D079 E1           dec   r1
000A:D07A 01           nop
000A:D07B 80           mult  r0
000A:D07C E5           dec   r5
000A:D07D 01           nop
000A:D07E D1           inc   r1
000A:D07F F0 1F 18     iwt   r0,#181F
000A:D082 51           add   r1
000A:D083 B2 30        stw   (r0)
000A:D085 D1           inc   r1
000A:D086 D1           inc   r1
000A:D087 3C           loop
000A:D088 D1           inc   r1
000A:D089 60           sub   r0
000A:D08A 00           stop
000A:D08B 01           nop
000A:D08C 3F EF        getbs
000A:D08E DE           inc   r14
000A:D08F 18 59        add   r9
000A:D091 3F EF        getbs
000A:D093 DE           inc   r14
000A:D094 5A           add   r10
000A:D095 3D A6 E5     lms   r6,(01CA)
000A:D098 E6           dec   r6
000A:D099 17           to    r7
000A:D09A 0B 05        bmi   D0A1
000A:D09C 50           add   r0
000A:D09D FF 34 D1     iwt   r15,#D134
000A:D0A0 01           nop
000A:D0A1 3D A5 53     lms   r5,(00A6)
000A:D0A4 65           sub   r5
000A:D0A5 F5 E0 00     iwt   r5,#00E0
000A:D0A8 65           sub   r5
000A:D0A9 3D A5 52     lms   r5,(00A4)
000A:D0AC 0D 1A        bcs   D0C8
000A:D0AE B8 65        sub   r5
000A:D0B0 C0           hib
000A:D0B1 08 15        bne   D0C8
000A:D0B3 B8 03        lsr
000A:D0B5 03           lsr
000A:D0B6 03           lsr
000A:D0B7 A5 3E        ibt   r5,#003E
000A:D0B9 15 75        and   r5
000A:D0BB F0 E0 01     iwt   r0,#01E0
000A:D0BE 77           and   r7
000A:D0BF 50           add   r0
000A:D0C0 C5           or    r5
000A:D0C1 F5 9E 40     iwt   r5,#409E
000A:D0C4 55           add   r5
000A:D0C5 05 2B        bra   D0F2
000A:D0C7 40           ldw   (r0)
000A:D0C8 70           merge
000A:D0C9 09 64        beq   D12F
000A:D0CB 16 9E        lob
000A:D0CD C0           hib
000A:D0CE 3E 7E        and   #0E
000A:D0D0 3F 88        umult #08
000A:D0D2 C6           or    r6
000A:D0D3 F6 AA 0C     iwt   r6,#0CAA
000A:D0D6 56           add   r6
000A:D0D7 3D 40        ldb   (r0)
000A:D0D9 A6 3F        ibt   r6,#003F
000A:D0DB 76           and   r6
000A:D0DC 16 4D        swap
000A:D0DE F0 E0 01     iwt   r0,#01E0
000A:D0E1 15 77        and   r7
000A:D0E3 B8 9E        lob
000A:D0E5 03           lsr
000A:D0E6 03           lsr
000A:D0E7 03           lsr
000A:D0E8 C5           or    r5
000A:D0E9 03           lsr
000A:D0EA C6           or    r6
000A:D0EB 50           add   r0
000A:D0EC F6 00 80     iwt   r6,#8000
000A:D0EF 56           add   r6
000A:D0F0 00           stop
000A:D0F1 01           nop
000A:D0F2 20 16        move  r6,r0
000A:D0F4 C0           hib
000A:D0F5 3F 83        umult #03
000A:D0F7 2E 15        move  r5,r14
000A:D0F9 FE 12 BB     iwt   r14,#BB12
000A:D0FC 1E 5E        add   r14
000A:D0FE 3E A8 00     sms   (0000),r8
000A:D101 EF           getb
000A:D102 DE           inc   r14
000A:D103 27 96        asr
000A:D105 3E A7 01     sms   (0002),r7
000A:D108 A8 F8        ibt   r8,#FFF8
000A:D10A 3D EF        getbh
000A:D10C DE           inc   r14
000A:D10D 20 17        move  r7,r0
000A:D10F C0           hib
000A:D110 78           and   r8
000A:D111 A8 72        ibt   r8,#0072
000A:D113 68           sub   r8
000A:D114 3E 6F        sub   #0F
000A:D116 0D 10        bcs   D128
000A:D118 18 A8 11     ibt   r8,#0011
000A:D11B 58           add   r8
000A:D11C 3D F8 08 1E  lm    r8,(1E08)
000A:D120 78           and   r8
000A:D121 09 05        beq   D128
000A:D123 18 27 3E C2  or    #02
000A:D127 18 EF        getb
000A:D129 27 10        move  r0,r7
000A:D12B 25 1E        move  r14,r5
000A:D12D 9B           jmp   r11
000A:D12E 01           nop
000A:D12F A6 01        ibt   r6,#0001
000A:D131 05 C4        bra   D0F7
000A:D133 60           sub   r0
000A:D134 3D F0 94 00  lm    r0,(0094)
000A:D138 3F 77        bic   #07
000A:D13A B8 60        sub   r0
000A:D13C 0A 02        bpl   D140
000A:D13E 03           lsr
000A:D13F 60           sub   r0
000A:D140 03           lsr
000A:D141 A5 42        ibt   r5,#0042
000A:D143 65           sub   r5
000A:D144 0C 03        bcc   D149
000A:D146 55           add   r5
000A:D147 A0 40        ibt   r0,#0040
000A:D149 03           lsr
000A:D14A 08 08        bne   D154
000A:D14C 50           add   r0
000A:D14D 3D F0 F0 1E  lm    r0,(1EF0)
000A:D151 05 07        bra   D15A
000A:D153 F5 F5 30     iwt   r5,#30F5
000A:D156 1F 55        add   r5
000A:D158 40           ldw   (r0)
000A:D159 F5 FF 1F     iwt   r5,#1FFF
000A:D15C 75           and   r5
000A:D15D 3D F5 9C 00  lm    r5,(009C)
000A:D161 65           sub   r5
000A:D162 50           add   r0
000A:D163 17 57        add   r7
000A:D165 FF A2 D0     iwt   r15,#D0A2
000A:D168 3D AB 30     lms   r11,(0060)
000A:D16B F0 E2 11     iwt   r0,#11E2
000A:D16E 51           add   r1
000A:D16F 40           ldw   (r0)
000A:D170 3D C3        xor   r3
000A:D172 0B 03        bmi   D177
000A:D174 01           nop
000A:D175 9B           jmp   r11
000A:D176 01           nop
000A:D177 23 B3        moves r3,r3
000A:D179 0B 04        bmi   D17F
000A:D17B 60           sub   r0
000A:D17C F0 80 00     iwt   r0,#0080
000A:D17F 3E A0 08     sms   (0010),r0
000A:D182 B9 18 3E 58  add   #08
000A:D186 F6 00 0F     iwt   r6,#0F00
000A:D189 F5 40 00     iwt   r5,#0040
000A:D18C B1 15 65     sub   r5
000A:D18F F0 36 1A     iwt   r0,#1A36
000A:D192 55           add   r5
000A:D193 40           ldw   (r0)
000A:D194 03           lsr
000A:D195 03           lsr
000A:D196 03           lsr
000A:D197 9F           fmult
000A:D198 5A           add   r10
000A:D199 3E 58        add   #08
000A:D19B 94           link  #04
000A:D19C FF 96 D0     iwt   r15,#D096
000A:D19F 3D           alt1
000A:D1A0 05 25        bra   D1C7
000A:D1A2 01           nop
000A:D1A3 AB 30        ibt   r11,#0030
000A:D1A5 F0 E2 11     iwt   r0,#11E2
000A:D1A8 51           add   r1
000A:D1A9 40           ldw   (r0)
000A:D1AA 3D C3        xor   r3
000A:D1AC 0B 09        bmi   D1B7
000A:D1AE 01           nop
000A:D1AF DE           inc   r14
000A:D1B0 DE           inc   r14
000A:D1B1 A7 00        ibt   r7,#0000
000A:D1B3 9B           jmp   r11
000A:D1B4 01           nop
000A:D1B5 AB 30        ibt   r11,#0030
000A:D1B7 23 B3        moves r3,r3
000A:D1B9 0B 04        bmi   D1BF
000A:D1BB 60           sub   r0
000A:D1BC F0 80 00     iwt   r0,#0080
000A:D1BF 3E A0 08     sms   (0010),r0
000A:D1C2 94           link  #04
000A:D1C3 FF 8D D0     iwt   r15,#D08D
000A:D1C6 3F 3D A0 01  lms   r0,(0002)
000A:D1CA 14 3E 7F     and   #0F
000A:D1CD 3E A4 24     sms   (0048),r4
000A:D1D0 A5 05        ibt   r5,#0005
000A:D1D2 23 B3        moves r3,r3
000A:D1D4 0A 03        bpl   D1D9
000A:D1D6 01           nop
000A:D1D7 A5 04        ibt   r5,#0004
000A:D1D9 B7 75        and   r5
000A:D1DB 65           sub   r5
000A:D1DC 3E A0 20     sms   (0040),r0
000A:D1DF 09 2A        beq   D20B
000A:D1E1 01           nop
000A:D1E2 3E A6 02     sms   (0004),r6
000A:D1E5 3E A7 03     sms   (0006),r7
000A:D1E8 3E A8 04     sms   (0008),r8
000A:D1EB 3D A8 00     lms   r8,(0000)
000A:D1EE 3E A8 05     sms   (000A),r8
000A:D1F1 3D A7 01     lms   r7,(0002)
000A:D1F4 3E A7 06     sms   (000C),r7
000A:D1F7 3E A5 07     sms   (000E),r5
000A:D1FA B3 57        add   r7
000A:D1FC 94           link  #04
000A:D1FD FF 96 D0     iwt   r15,#D096
000A:D200 3D 3D A5 07  lms   r5,(000E)
000A:D204 75           and   r5
000A:D205 65           sub   r5
000A:D206 08 67        bne   D26F
000A:D208 01           nop
000A:D209 24 63        sub   r3
000A:D20B 3E AE 2E     sms   (005C),r14
000A:D20E B8 4D        swap
000A:D210 23 B3        moves r3,r3
000A:D212 0A 03        bpl   D217
000A:D214 03           lsr
000A:D215 D0           inc   r0
000A:D216 D0           inc   r0
000A:D217 FE 0E BD     iwt   r14,#BD0E
000A:D21A 1E 5E        add   r14
000A:D21C 3D A0 00     lms   r0,(0000)
000A:D21F 3E 7F        and   #0F
000A:D221 50           add   r0
000A:D222 50           add   r0
000A:D223 50           add   r0
000A:D224 1E 5E        add   r14
000A:D226 15 EF        getb
000A:D228 DE           inc   r14
000A:D229 3F EF        getbs
000A:D22B 3D AE 2E     lms   r14,(005C)
000A:D22E 64           sub   r4
000A:D22F 3D C3        xor   r3
000A:D231 0B 34        bmi   D267
000A:D233 14 3D C3     xor   r3
000A:D236 D4           inc   r4
000A:D237 3E A5 08     sms   (0010),r5
000A:D23A 23 B3        moves r3,r3
000A:D23C 0A 57        bpl   D295
000A:D23E B4 3E 5A     add   #0A
000A:D241 0B 24        bmi   D267
000A:D243 01           nop
000A:D244 F0 E2 11     iwt   r0,#11E2
000A:D247 51           add   r1
000A:D248 40           ldw   (r0)
000A:D249 50           add   r0
000A:D24A 0C 6C        bcc   D2B8
000A:D24C D2           inc   r2
000A:D24D F0 8E 26     iwt   r0,#268E
000A:D250 51           add   r1
000A:D251 40           ldw   (r0)
000A:D252 9E           lob
000A:D253 08 11        bne   D266
000A:D255 01           nop
000A:D256 F0 E1 11     iwt   r0,#11E1
000A:D259 51           add   r1
000A:D25A 40           ldw   (r0)
000A:D25B 3D C5        xor   r5
000A:D25D 95           sex
000A:D25E 0B 06        bmi   D266
000A:D260 60           sub   r0
000A:D261 3E A0 08     sms   (0010),r0
000A:D264 2A 54        add   r4
000A:D266 E2           dec   r2
000A:D267 3D A0 20     lms   r0,(0040)
000A:D26A 3E 60        sub   #00
000A:D26C 09 43        beq   D2B1
000A:D26E 01           nop
000A:D26F 3D A4 24     lms   r4,(0048)
000A:D272 3D A6 02     lms   r6,(0004)
000A:D275 3D A7 03     lms   r7,(0006)
000A:D278 3D A8 04     lms   r8,(0008)
000A:D27B 3D A0 05     lms   r0,(000A)
000A:D27E 3E A0 00     sms   (0000),r0
000A:D281 3D A0 06     lms   r0,(000C)
000A:D284 3E A0 01     sms   (0002),r0
000A:D287 23 B3        moves r3,r3
000A:D289 0B 0F        bmi   D29A
000A:D28B B7 3E 72     and   #02
000A:D28E 09 6B        beq   D2FB
000A:D290 01           nop
000A:D291 A0 10        ibt   r0,#0010
000A:D293 14 64        sub   r4
000A:D295 2A 54        add   r4
000A:D297 05 1A        bra   D2B3
000A:D299 D2           inc   r2
000A:D29A 3E 73        and   #03
000A:D29C 09 15        beq   D2B3
000A:D29E 01           nop
000A:D29F F0 E2 11     iwt   r0,#11E2
000A:D2A2 51           add   r1
000A:D2A3 40           ldw   (r0)
000A:D2A4 50           add   r0
000A:D2A5 0D 0A        bcs   D2B1
000A:D2A7 24 4F        not
000A:D2A9 D4           inc   r4
000A:D2AA B4 3E 5A     add   #0A
000A:D2AD 0A 09        bpl   D2B8
000A:D2AF D2           inc   r2
000A:D2B0 E2           dec   r2
000A:D2B1 A4 20        ibt   r4,#0020
000A:D2B3 3D AB 30     lms   r11,(0060)
000A:D2B6 9B           jmp   r11
000A:D2B7 01           nop
000A:D2B8 F0 00 F8     iwt   r0,#F800
000A:D2BB 77           and   r7
000A:D2BC F5 00 98     iwt   r5,#9800
000A:D2BF 65           sub   r5
000A:D2C0 08 34        bne   D2F6
000A:D2C2 01           nop
000A:D2C3 3D A0 08     lms   r0,(0010)
000A:D2C6 4D           swap
000A:D2C7 09 0A        beq   D2D3
000A:D2C9 01           nop
000A:D2CA A5 D0        ibt   r5,#FFD0
000A:D2CC 0A 16        bpl   D2E4
000A:D2CE 25 4F        not
000A:D2D0 05 12        bra   D2E4
000A:D2D2 D5           inc   r5
000A:D2D3 B6 C0        hib
000A:D2D5 F5 82 00     iwt   r5,#0082
000A:D2D8 65           sub   r5
000A:D2D9 0B 10        bmi   D2EB
000A:D2DB 01           nop
000A:D2DC F5 F0 0F     iwt   r5,#0FF0
000A:D2DF 09 03        beq   D2E4
000A:D2E1 25 4F        not
000A:D2E3 D5           inc   r5
000A:D2E4 F0 C3 0E     iwt   r0,#0EC3
000A:D2E7 51           add   r1
000A:D2E8 B5 3D 30     stb   (r0)
000A:D2EB F0 81 17     iwt   r0,#1781
000A:D2EE 51           add   r1
000A:D2EF 3D 40        ldb   (r0)
000A:D2F1 3E 60        sub   #00
000A:D2F3 09 1D        beq   D312
000A:D2F5 01           nop
000A:D2F6 3D AB 30     lms   r11,(0060)
000A:D2F9 9B           jmp   r11
000A:D2FA 01           nop
000A:D2FB F0 00 F8     iwt   r0,#F800
000A:D2FE 77           and   r7
000A:D2FF F5 00 98     iwt   r5,#9800
000A:D302 65           sub   r5
000A:D303 08 F1        bne   D2F6
000A:D305 B1 03        lsr
000A:D307 03           lsr
000A:D308 3D F5 74 19  lm    r5,(1974)
000A:D30C 55           add   r5
000A:D30D 3E 77        and   #07
000A:D30F 09 E5        beq   D2F6
000A:D311 01           nop
000A:D312 3E A4 24     sms   (0048),r4
000A:D315 A5 08        ibt   r5,#0008
000A:D317 F0 81 17     iwt   r0,#1781
000A:D31A 51           add   r1
000A:D31B B5 3D 30     stb   (r0)
000A:D31E A0 37        ibt   r0,#0037
000A:D320 3E A0 3D     sms   (007A),r0
000A:D323 F5 01 02     iwt   r5,#0201
000A:D326 94           link  #04
000A:D327 FF E3 DF     iwt   r15,#DFE3
000A:D32A 01           nop
000A:D32B F0 A2 10     iwt   r0,#10A2
000A:D32E 54           add   r4
000A:D32F B9 30        stw   (r0)
000A:D331 3D A5 01     lms   r5,(0002)
000A:D334 F0 42 11     iwt   r0,#1142
000A:D337 54           add   r4
000A:D338 B5 30        stw   (r0)
000A:D33A A5 05        ibt   r5,#0005
000A:D33C F0 C2 13     iwt   r0,#13C2
000A:D33F 54           add   r4
000A:D340 B5 30        stw   (r0)
000A:D342 A5 02        ibt   r5,#0002
000A:D344 F0 82 17     iwt   r0,#1782
000A:D347 54           add   r4
000A:D348 B5 30        stw   (r0)
000A:D34A 3D A4 24     lms   r4,(0048)
000A:D34D 3D AB 30     lms   r11,(0060)
000A:D350 9B           jmp   r11
000A:D351 01           nop
000A:D352 13 94        link  #04
000A:D354 FF 8D D0     iwt   r15,#D08D
000A:D357 3F 3E 72     and   #02
000A:D35A 09 02        beq   D35E
000A:D35C 01           nop
000A:D35D D2           inc   r2
000A:D35E 23 1B        move  r11,r3
000A:D360 9B           jmp   r11
000A:D361 01           nop
000A:D362 13 94        link  #04
000A:D364 FF 8D D0     iwt   r15,#D08D
000A:D367 3F 3E 73     and   #03
000A:D36A 09 02        beq   D36E
000A:D36C 01           nop
000A:D36D D2           inc   r2
000A:D36E 23 1B        move  r11,r3
000A:D370 9B           jmp   r11
000A:D371 01           nop
000A:D372 13 94        link  #04
000A:D374 FF 8D D0     iwt   r15,#D08D
000A:D377 3F 3E 72     and   #02
000A:D37A 09 02        beq   D37E
000A:D37C 01           nop
000A:D37D D2           inc   r2
000A:D37E 94           link  #04
000A:D37F FF 01 D4     iwt   r15,#D401
000A:D382 A0 23        ibt   r0,#0023
000A:D384 1B 9B        jmp   r11
000A:D386 01           nop
000A:D387 AB 30        ibt   r11,#0030
000A:D389 F6 00 0F     iwt   r6,#0F00
000A:D38C F5 40 00     iwt   r5,#0040
000A:D38F B1 15 65     sub   r5
000A:D392 F0 36 1A     iwt   r0,#1A36
000A:D395 55           add   r5
000A:D396 40           ldw   (r0)
000A:D397 03           lsr
000A:D398 03           lsr
000A:D399 03           lsr
000A:D39A 9F           fmult
000A:D39B 23 B3        moves r3,r3
000A:D39D 0B 03        bmi   D3A2
000A:D39F 01           nop
000A:D3A0 4F           not
000A:D3A1 D0           inc   r0
000A:D3A2 59           add   r9
000A:D3A3 18 3E 58     add   #08
000A:D3A6 2A 10        move  r0,r10
000A:D3A8 94           link  #04
000A:D3A9 FF 96 D0     iwt   r15,#D096
000A:D3AC 3D           alt1
000A:D3AD 05 08        bra   D3B7
000A:D3AF 01           nop
000A:D3B0 AB 30        ibt   r11,#0030
000A:D3B2 94           link  #04
000A:D3B3 FF 8D D0     iwt   r15,#D08D
000A:D3B6 3F 3E 72     and   #02
000A:D3B9 09 41        beq   D3FC
000A:D3BB B2 3E 72     and   #02
000A:D3BE 08 3C        bne   D3FC
000A:D3C0 29 53        add   r3
000A:D3C2 F0 E0 11     iwt   r0,#11E0
000A:D3C5 14 51        add   r1
000A:D3C7 F0 62 0F     iwt   r0,#0F62
000A:D3CA 51           add   r1
000A:D3CB 15 40        ldw   (r0)
000A:D3CD F0 C0 00     iwt   r0,#00C0
000A:D3D0 75           and   r5
000A:D3D1 09 29        beq   D3FC
000A:D3D3 D2           inc   r2
000A:D3D4 4D           swap
000A:D3D5 0B 24        bmi   D3FB
000A:D3D7 60           sub   r0
000A:D3D8 44           ldw   (r4)
000A:D3D9 1B 3D C3     xor   r3
000A:D3DC 0A 1E        bpl   D3FC
000A:D3DE 4F           not
000A:D3DF 25 4D        swap
000A:D3E1 25 3E 74     and   #04
000A:D3E4 09 02        beq   D3E8
000A:D3E6 D0           inc   r0
000A:D3E7 60           sub   r0
000A:D3E8 90           sbk
000A:D3E9 F0 C0 13     iwt   r0,#13C0
000A:D3EC 51           add   r1
000A:D3ED 40           ldw   (r0)
000A:D3EE 3F C2        xor   #02
000A:D3F0 90           sbk
000A:D3F1 F0 A0 15     iwt   r0,#15A0
000A:D3F4 51           add   r1
000A:D3F5 40           ldw   (r0)
000A:D3F6 4F           not
000A:D3F7 D0           inc   r0
000A:D3F8 05 02        bra   D3FC
000A:D3FA 90           sbk
000A:D3FB 34           stw   (r4)
000A:D3FC 3D AB 30     lms   r11,(0060)
000A:D3FF 9B           jmp   r11
000A:D400 01           nop
000A:D401 18 77        and   r7
000A:D403 08 0D        bne   D412
000A:D405 01           nop
000A:D406 3D A0 01     lms   r0,(0002)
000A:D409 3D A5 DE     lms   r5,(01BC)
000A:D40C 65           sub   r5
000A:D40D 0B 03        bmi   D412
000A:D40F 60           sub   r0
000A:D410 A0 08        ibt   r0,#0008
000A:D412 20 15        move  r5,r0
000A:D414 F0 22 18     iwt   r0,#1822
000A:D417 51           add   r1
000A:D418 3D 40        ldb   (r0)
000A:D41A 65           sub   r5
000A:D41B 08 51        bne   D46E
000A:D41D 55           add   r5
000A:D41E 09 4C        beq   D46C
000A:D420 01           nop
000A:D421 3D F5 74 19  lm    r5,(1974)
000A:D425 A0 7F        ibt   r0,#007F
000A:D427 15 75        and   r5
000A:D429 71           and   r1
000A:D42A 65           sub   r5
000A:D42B 08 3F        bne   D46C
000A:D42D 01           nop
000A:D42E A0 10        ibt   r0,#0010
000A:D430 77           and   r7
000A:D431 08 39        bne   D46C
000A:D433 01           nop
000A:D434 3E AB 30     sms   (0060),r11
000A:D437 F5 BC 01     iwt   r5,#01BC
000A:D43A 94           link  #04
000A:D43B FF E3 DF     iwt   r15,#DFE3
000A:D43E 01           nop
000A:D43F 3D A0 00     lms   r0,(0000)
000A:D442 15 3E 68     sub   #08
000A:D445 F0 A2 10     iwt   r0,#10A2
000A:D448 54           add   r4
000A:D449 B5 30        stw   (r0)
000A:D44B 3D A0 01     lms   r0,(0002)
000A:D44E 15 3E 68     sub   #08
000A:D451 F0 42 11     iwt   r0,#1142
000A:D454 54           add   r4
000A:D455 B5 30        stw   (r0)
000A:D457 3D F5 70 19  lm    r5,(1970)
000A:D45B F0 4C 1E     iwt   r0,#1E4C
000A:D45E 54           add   r4
000A:D45F B5 30        stw   (r0)
000A:D461 A5 FF        ibt   r5,#FFFF
000A:D463 F0 82 17     iwt   r0,#1782
000A:D466 54           add   r4
000A:D467 B5 30        stw   (r0)
000A:D469 3D AB 30     lms   r11,(0060)
000A:D46C 9B           jmp   r11
000A:D46D 01           nop
000A:D46E 20 14        move  r4,r0
000A:D470 F0 22 18     iwt   r0,#1822
000A:D473 51           add   r1
000A:D474 B5 3D 30     stb   (r0)
000A:D477 B4 4D        swap
000A:D479 0B 49        bmi   D4C4
000A:D47B B7 3E 72     and   #02
000A:D47E 08 44        bne   D4C4
000A:D480 B4 C7        or    r7
000A:D482 A4 10        ibt   r4,#0010
000A:D484 74           and   r4
000A:D485 08 3F        bne   D4C6
000A:D487 3E AB 30     sms   (0060),r11
000A:D48A A0 5F        ibt   r0,#005F
000A:D48C 3E A0 3D     sms   (007A),r0
000A:D48F F5 BA 01     iwt   r5,#01BA
000A:D492 94           link  #04
000A:D493 FF E3 DF     iwt   r15,#DFE3
000A:D496 01           nop
000A:D497 3D A0 00     lms   r0,(0000)
000A:D49A 15 3E 68     sub   #08
000A:D49D F0 A2 10     iwt   r0,#10A2
000A:D4A0 54           add   r4
000A:D4A1 B5 30        stw   (r0)
000A:D4A3 3D A0 01     lms   r0,(0002)
000A:D4A6 3E 68        sub   #08
000A:D4A8 15 3F 7F     bic   #0F
000A:D4AB F0 42 11     iwt   r0,#1142
000A:D4AE 54           add   r4
000A:D4AF B5 30        stw   (r0)
000A:D4B1 A5 1A        ibt   r5,#001A
000A:D4B3 F0 4C 1E     iwt   r0,#1E4C
000A:D4B6 54           add   r4
000A:D4B7 B5 30        stw   (r0)
000A:D4B9 A5 03        ibt   r5,#0003
000A:D4BB F0 82 17     iwt   r0,#1782
000A:D4BE 54           add   r4
000A:D4BF B5 30        stw   (r0)
000A:D4C1 3D AB 30     lms   r11,(0060)
000A:D4C4 9B           jmp   r11
000A:D4C5 01           nop
000A:D4C6 3E AB 30     sms   (0060),r11
000A:D4C9 F5 C7 01     iwt   r5,#01C7
000A:D4CC 94           link  #04
000A:D4CD FF E3 DF     iwt   r15,#DFE3
000A:D4D0 01           nop
000A:D4D1 F0 40 11     iwt   r0,#1140
000A:D4D4 54           add   r4
000A:D4D5 3D 40        ldb   (r0)
000A:D4D7 9E           lob
000A:D4D8 08 12        bne   D4EC
000A:D4DA 15 60        sub   r0
000A:D4DC F0 C0 0E     iwt   r0,#0EC0
000A:D4DF 54           add   r4
000A:D4E0 B5 30        stw   (r0)
000A:D4E2 E5           dec   r5
000A:D4E3 F0 62 14     iwt   r0,#1462
000A:D4E6 54           add   r4
000A:D4E7 B5 30        stw   (r0)
000A:D4E9 05 2C        bra   D517
000A:D4EB 01           nop
000A:D4EC 3D A0 00     lms   r0,(0000)
000A:D4EF 15 3E 68     sub   #08
000A:D4F2 F0 A2 10     iwt   r0,#10A2
000A:D4F5 54           add   r4
000A:D4F6 B5 30        stw   (r0)
000A:D4F8 3D A0 01     lms   r0,(0002)
000A:D4FB 3E 68        sub   #08
000A:D4FD 15 3F 7F     bic   #0F
000A:D500 F0 42 11     iwt   r0,#1142
000A:D503 54           add   r4
000A:D504 B5 30        stw   (r0)
000A:D506 F5 40 FF     iwt   r5,#FF40
000A:D509 F0 4C 1E     iwt   r0,#1E4C
000A:D50C 54           add   r4
000A:D50D B5 30        stw   (r0)
000A:D50F A5 30        ibt   r5,#0030
000A:D511 F0 82 17     iwt   r0,#1782
000A:D514 54           add   r4
000A:D515 B5 30        stw   (r0)
000A:D517 3D AB 30     lms   r11,(0060)
000A:D51A 9B           jmp   r11
000A:D51B 01           nop
000A:D51C 94           link  #04
000A:D51D FF 72 D3     iwt   r15,#D372
000A:D520 2B 22 52     add   r2
000A:D523 22 52        add   r2
000A:D525 F0 E0 11     iwt   r0,#11E0
000A:D528 51           add   r1
000A:D529 40           ldw   (r0)
000A:D52A E0           dec   r0
000A:D52B 0A 18        bpl   D545
000A:D52D 01           nop
000A:D52E A3 01        ibt   r3,#0001
000A:D530 94           link  #04
000A:D531 FF B0 D3     iwt   r15,#D3B0
000A:D534 3E F0 E0 11  sm    (11E0),r0
000A:D538 51           add   r1
000A:D539 40           ldw   (r0)
000A:D53A 3E 60        sub   #00
000A:D53C 09 0A        beq   D548
000A:D53E 22 52        add   r2
000A:D540 DE           inc   r14
000A:D541 DE           inc   r14
000A:D542 05 0D        bra   D551
000A:D544 22 DE        inc   r14
000A:D546 DE           inc   r14
000A:D547 22 52        add   r2
000A:D549 A3 FF        ibt   r3,#FFFF
000A:D54B 94           link  #04
000A:D54C FF B0 D3     iwt   r15,#D3B0
000A:D54F 3E 22 52     add   #02
000A:D552 A3 10        ibt   r3,#0010
000A:D554 94           link  #04
000A:D555 FF A3 D1     iwt   r15,#D1A3
000A:D558 3E B2 03     ???
000A:D55B 0C 09        bcc   D566
000A:D55D 01           nop
000A:D55E DA           inc   r10
000A:D55F F0 E2 11     iwt   r0,#11E2
000A:D562 14 51        add   r1
000A:D564 60           sub   r0
000A:D565 34           stw   (r4)
000A:D566 22 52        add   r2
000A:D568 A3 F0        ibt   r3,#FFF0
000A:D56A 94           link  #04
000A:D56B FF B5 D1     iwt   r15,#D1B5
000A:D56E 3E B2 03     ???
000A:D571 0D 51        bcs   D5C4
000A:D573 01           nop
000A:D574 F0 20 18     iwt   r0,#1820
000A:D577 51           add   r1
000A:D578 40           ldw   (r0)
000A:D579 03           lsr
000A:D57A 0C 7F        bcc   D5FB
000A:D57C 01           nop
000A:D57D F0 63 0F     iwt   r0,#0F63
000A:D580 51           add   r1
000A:D581 16 3D 40     ldb   (r0)
000A:D584 B6 3E 73     and   #03
000A:D587 09 72        beq   D5FB
000A:D589 03           lsr
000A:D58A F5 E0 11     iwt   r5,#11E0
000A:D58D 25 51        add   r1
000A:D58F 15 45        ldw   (r5)
000A:D591 25 4F        not
000A:D593 03           lsr
000A:D594 0D 21        bcs   D5B7
000A:D596 D5           inc   r5
000A:D597 B6 3E 74     and   #04
000A:D59A 08 02        bne   D59E
000A:D59C 60           sub   r0
000A:D59D B5 90        sbk
000A:D59F A6 00        ibt   r6,#0000
000A:D5A1 F0 A1 10     iwt   r0,#10A1
000A:D5A4 51           add   r1
000A:D5A5 B6 3D 30     stb   (r0)
000A:D5A8 F0 C0 13     iwt   r0,#13C0
000A:D5AB 51           add   r1
000A:D5AC 40           ldw   (r0)
000A:D5AD 3F C2        xor   #02
000A:D5AF 90           sbk
000A:D5B0 F0 A0 15     iwt   r0,#15A0
000A:D5B3 51           add   r1
000A:D5B4 40           ldw   (r0)
000A:D5B5 4F           not
000A:D5B6 D0           inc   r0
000A:D5B7 90           sbk
000A:D5B8 F0 2E 27     iwt   r0,#272E
000A:D5BB 51           add   r1
000A:D5BC 19 40        ldw   (r0)
000A:D5BE D0           inc   r0
000A:D5BF D0           inc   r0
000A:D5C0 1A           to    r10
000A:D5C1 05 16        bra   D5D9
000A:D5C3 40           ldw   (r0)
000A:D5C4 2A 54        add   r4
000A:D5C6 A6 FF        ibt   r6,#FFFF
000A:D5C8 F0 41 11     iwt   r0,#1141
000A:D5CB 51           add   r1
000A:D5CC B6 3D 30     stb   (r0)
000A:D5CF F0 2E 27     iwt   r0,#272E
000A:D5D2 51           add   r1
000A:D5D3 B9 30        stw   (r0)
000A:D5D5 D0           inc   r0
000A:D5D6 D0           inc   r0
000A:D5D7 BA 30        stw   (r0)
000A:D5D9 3D A6 08     lms   r6,(0010)
000A:D5DC F0 C2 0E     iwt   r0,#0EC2
000A:D5DF 51           add   r1
000A:D5E0 B6 3D 30     stb   (r0)
000A:D5E3 60           sub   r0
000A:D5E4 3E A0 08     sms   (0010),r0
000A:D5E7 F0 62 0F     iwt   r0,#0F62
000A:D5EA 51           add   r1
000A:D5EB 40           ldw   (r0)
000A:D5EC A6 20        ibt   r6,#0020
000A:D5EE 76           and   r6
000A:D5EF 08 0A        bne   D5FB
000A:D5F1 01           nop
000A:D5F2 F0 E2 11     iwt   r0,#11E2
000A:D5F5 14 51        add   r1
000A:D5F7 F0 00 01     iwt   r0,#0100
000A:D5FA 34           stw   (r4)
000A:D5FB 3D A5 08     lms   r5,(0010)
000A:D5FE F0 8E 26     iwt   r0,#268E
000A:D601 51           add   r1
000A:D602 B5 30        stw   (r0)
000A:D604 F0 A2 10     iwt   r0,#10A2
000A:D607 51           add   r1
000A:D608 B9 30        stw   (r0)
000A:D60A F0 E0 16     iwt   r0,#16E0
000A:D60D 51           add   r1
000A:D60E 40           ldw   (r0)
000A:D60F 2A 60        sub   r0
000A:D611 F0 42 11     iwt   r0,#1142
000A:D614 51           add   r1
000A:D615 BA 30        stw   (r0)
000A:D617 FF 7F D0     iwt   r15,#D07F
000A:D61A D1           inc   r1
000A:D61B 94           link  #04
000A:D61C FF 72 D3     iwt   r15,#D372
000A:D61F 2B 22 52     add   r2
000A:D622 22 52        add   r2
000A:D624 94           link  #04
000A:D625 FF 52 D3     iwt   r15,#D352
000A:D628 2B 22 52     add   r2
000A:D62B 94           link  #04
000A:D62C FF 52 D3     iwt   r15,#D352
000A:D62F 2B 22 52     add   r2
000A:D632 94           link  #04
000A:D633 FF 52 D3     iwt   r15,#D352
000A:D636 2B 22 52     add   r2
000A:D639 94           link  #04
000A:D63A FF 52 D3     iwt   r15,#D352
000A:D63D 2B FF 7F D0  iwt   r15,#D07F
000A:D641 D1           inc   r1
000A:D642 94           link  #04
000A:D643 FF 72 D3     iwt   r15,#D372
000A:D646 2B FF 7F D0  iwt   r15,#D07F
000A:D64A D1           inc   r1
000A:D64B 94           link  #04
000A:D64C FF 52 D3     iwt   r15,#D352
000A:D64F 2B 22 52     add   r2
000A:D652 94           link  #04
000A:D653 FF 52 D3     iwt   r15,#D352
000A:D656 2B 22 52     add   r2
000A:D659 94           link  #04
000A:D65A FF 52 D3     iwt   r15,#D352
000A:D65D 2B 22 52     add   r2
000A:D660 94           link  #04
000A:D661 FF 52 D3     iwt   r15,#D352
000A:D664 2B FF 7F D0  iwt   r15,#D07F
000A:D668 D1           inc   r1
000A:D669 94           link  #04
000A:D66A FF 52 D3     iwt   r15,#D352
000A:D66D 2B 22 52     add   r2
000A:D670 94           link  #04
000A:D671 FF 52 D3     iwt   r15,#D352
000A:D674 2B FF 7F D0  iwt   r15,#D07F
000A:D678 D1           inc   r1
000A:D679 94           link  #04
000A:D67A FF 72 D3     iwt   r15,#D372
000A:D67D 2B 94        link  #04
000A:D67F FF 15 DD     iwt   r15,#DD15
000A:D682 01           nop
000A:D683 22 52        add   r2
000A:D685 22 52        add   r2
000A:D687 F0 E0 11     iwt   r0,#11E0
000A:D68A 51           add   r1
000A:D68B 40           ldw   (r0)
000A:D68C E0           dec   r0
000A:D68D 0A 24        bpl   D6B3
000A:D68F 01           nop
000A:D690 A3 10        ibt   r3,#0010
000A:D692 94           link  #04
000A:D693 FF 0B D8     iwt   r15,#D80B
000A:D696 3E 94        ???
000A:D698 FF 0D D9     iwt   r15,#D90D
000A:D69B 01           nop
000A:D69C B2 03        lsr
000A:D69E 0C 03        bcc   D6A3
000A:D6A0 01           nop
000A:D6A1 29 54        add   r4
000A:D6A3 F0 E0 11     iwt   r0,#11E0
000A:D6A6 51           add   r1
000A:D6A7 40           ldw   (r0)
000A:D6A8 3E 60        sub   #00
000A:D6AA 09 0A        beq   D6B6
000A:D6AC 22 52        add   r2
000A:D6AE DE           inc   r14
000A:D6AF DE           inc   r14
000A:D6B0 05 19        bra   D6CB
000A:D6B2 22 DE        inc   r14
000A:D6B4 DE           inc   r14
000A:D6B5 22 52        add   r2
000A:D6B7 A3 F0        ibt   r3,#FFF0
000A:D6B9 94           link  #04
000A:D6BA FF 0B D8     iwt   r15,#D80B
000A:D6BD 3E 94        ???
000A:D6BF FF 0D D9     iwt   r15,#D90D
000A:D6C2 01           nop
000A:D6C3 B2 03        lsr
000A:D6C5 0C 03        bcc   D6CA
000A:D6C7 01           nop
000A:D6C8 29 54        add   r4
000A:D6CA 22 52        add   r2
000A:D6CC A3 10        ibt   r3,#0010
000A:D6CE 94           link  #04
000A:D6CF FF A3 D1     iwt   r15,#D1A3
000A:D6D2 3E 94        ???
000A:D6D4 FF 12 D9     iwt   r15,#D912
000A:D6D7 01           nop
000A:D6D8 B2 03        lsr
000A:D6DA 0C 03        bcc   D6DF
000A:D6DC 01           nop
000A:D6DD 2A 54        add   r4
000A:D6DF 22 52        add   r2
000A:D6E1 A3 F0        ibt   r3,#FFF0
000A:D6E3 F0 02 15     iwt   r0,#1502
000A:D6E6 51           add   r1
000A:D6E7 40           ldw   (r0)
000A:D6E8 A5 40        ibt   r5,#0040
000A:D6EA 65           sub   r5
000A:D6EB 0D 0A        bcs   D6F7
000A:D6ED 01           nop
000A:D6EE F0 E2 11     iwt   r0,#11E2
000A:D6F1 51           add   r1
000A:D6F2 40           ldw   (r0)
000A:D6F3 50           add   r0
000A:D6F4 0D 52        bcs   D748
000A:D6F6 01           nop
000A:D6F7 94           link  #04
000A:D6F8 FF B5 D1     iwt   r15,#D1B5
000A:D6FB 3E 94        ???
000A:D6FD FF 12 D9     iwt   r15,#D912
000A:D700 01           nop
000A:D701 B2 03        lsr
000A:D703 0C 47        bcc   D74C
000A:D705 01           nop
000A:D706 2A 54        add   r4
000A:D708 F0 02 15     iwt   r0,#1502
000A:D70B 51           add   r1
000A:D70C 40           ldw   (r0)
000A:D70D A5 40        ibt   r5,#0040
000A:D70F 65           sub   r5
000A:D710 0C 36        bcc   D748
000A:D712 01           nop
000A:D713 A6 FF        ibt   r6,#FFFF
000A:D715 F0 41 11     iwt   r0,#1141
000A:D718 51           add   r1
000A:D719 B6 3D 30     stb   (r0)
000A:D71C F0 2E 27     iwt   r0,#272E
000A:D71F 51           add   r1
000A:D720 B9 30        stw   (r0)
000A:D722 D0           inc   r0
000A:D723 D0           inc   r0
000A:D724 BA 30        stw   (r0)
000A:D726 3D A6 08     lms   r6,(0010)
000A:D729 F0 C2 0E     iwt   r0,#0EC2
000A:D72C 51           add   r1
000A:D72D B6 3D 30     stb   (r0)
000A:D730 60           sub   r0
000A:D731 3E A0 08     sms   (0010),r0
000A:D734 F0 62 0F     iwt   r0,#0F62
000A:D737 51           add   r1
000A:D738 40           ldw   (r0)
000A:D739 A6 20        ibt   r6,#0020
000A:D73B 76           and   r6
000A:D73C 08 0A        bne   D748
000A:D73E 01           nop
000A:D73F F0 E2 11     iwt   r0,#11E2
000A:D742 14 51        add   r1
000A:D744 F0 00 01     iwt   r0,#0100
000A:D747 34           stw   (r4)
000A:D748 FF EB D7     iwt   r15,#D7EB
000A:D74B 01           nop
000A:D74C F0 02 15     iwt   r0,#1502
000A:D74F 51           add   r1
000A:D750 40           ldw   (r0)
000A:D751 A5 40        ibt   r5,#0040
000A:D753 65           sub   r5
000A:D754 0D F2        bcs   D748
000A:D756 B7 3E 78     and   #08
000A:D759 08 0B        bne   D766
000A:D75B 01           nop
000A:D75C 3D A0 01     lms   r0,(0002)
000A:D75F 3D A5 DE     lms   r5,(01BC)
000A:D762 65           sub   r5
000A:D763 0B E3        bmi   D748
000A:D765 01           nop
000A:D766 F0 22 18     iwt   r0,#1822
000A:D769 51           add   r1
000A:D76A 3D 40        ldb   (r0)
000A:D76C E0           dec   r0
000A:D76D 0A D9        bpl   D748
000A:D76F 01           nop
000A:D770 A0 37        ibt   r0,#0037
000A:D772 3E A0 3D     sms   (007A),r0
000A:D775 F5 01 02     iwt   r5,#0201
000A:D778 94           link  #04
000A:D779 FF E3 DF     iwt   r15,#DFE3
000A:D77C 01           nop
000A:D77D F0 A2 10     iwt   r0,#10A2
000A:D780 54           add   r4
000A:D781 B9 30        stw   (r0)
000A:D783 3D A0 01     lms   r0,(0002)
000A:D786 15 3F 7F     bic   #0F
000A:D789 F0 42 11     iwt   r0,#1142
000A:D78C 54           add   r4
000A:D78D B5 30        stw   (r0)
000A:D78F A5 05        ibt   r5,#0005
000A:D791 F0 C2 13     iwt   r0,#13C2
000A:D794 54           add   r4
000A:D795 B5 30        stw   (r0)
000A:D797 A5 02        ibt   r5,#0002
000A:D799 F0 82 17     iwt   r0,#1782
000A:D79C 54           add   r4
000A:D79D B5 30        stw   (r0)
000A:D79F A4 14        ibt   r4,#0014
000A:D7A1 F0 E2 11     iwt   r0,#11E2
000A:D7A4 51           add   r1
000A:D7A5 15 40        ldw   (r0)
000A:D7A7 F0 E0 11     iwt   r0,#11E0
000A:D7AA 51           add   r1
000A:D7AB 16 40        ldw   (r0)
000A:D7AD 25 10        move  r0,r5
000A:D7AF 26 B6        moves r6,r6
000A:D7B1 0B 03        bmi   D7B6
000A:D7B3 01           nop
000A:D7B4 4F           not
000A:D7B5 D0           inc   r0
000A:D7B6 56           add   r6
000A:D7B7 16 3D C6     xor   r6
000A:D7BA 0A 04        bpl   D7C0
000A:D7BC 01           nop
000A:D7BD A4 40        ibt   r4,#0040
000A:D7BF 60           sub   r0
000A:D7C0 16 3D 96     div2
000A:D7C3 56           add   r6
000A:D7C4 90           sbk
000A:D7C5 E0           dec   r0
000A:D7C6 0B 03        bmi   D7CB
000A:D7C8 D0           inc   r0
000A:D7C9 4F           not
000A:D7CA D0           inc   r0
000A:D7CB F5 00 FF     iwt   r5,#FF00
000A:D7CE 65           sub   r5
000A:D7CF 0B 0E        bmi   D7DF
000A:D7D1 55           add   r5
000A:D7D2 20 15        move  r5,r0
000A:D7D4 F0 C0 FF     iwt   r0,#FFC0
000A:D7D7 65           sub   r5
000A:D7D8 0A 05        bpl   D7DF
000A:D7DA 01           nop
000A:D7DB A4 40        ibt   r4,#0040
000A:D7DD A5 00        ibt   r5,#0000
000A:D7DF F0 E2 11     iwt   r0,#11E2
000A:D7E2 51           add   r1
000A:D7E3 B5 30        stw   (r0)
000A:D7E5 F0 02 15     iwt   r0,#1502
000A:D7E8 51           add   r1
000A:D7E9 B4 30        stw   (r0)
000A:D7EB 3D A5 08     lms   r5,(0010)
000A:D7EE F0 8E 26     iwt   r0,#268E
000A:D7F1 51           add   r1
000A:D7F2 B5 30        stw   (r0)
000A:D7F4 F0 A2 10     iwt   r0,#10A2
000A:D7F7 51           add   r1
000A:D7F8 B9 30        stw   (r0)
000A:D7FA F0 E0 16     iwt   r0,#16E0
000A:D7FD 51           add   r1
000A:D7FE 40           ldw   (r0)
000A:D7FF 2A 60        sub   r0
000A:D801 F0 42 11     iwt   r0,#1142
000A:D804 51           add   r1
000A:D805 BA 30        stw   (r0)
000A:D807 FF 7F D0     iwt   r15,#D07F
000A:D80A D1           inc   r1
000A:D80B AB 30        ibt   r11,#0030
000A:D80D F0 02 15     iwt   r0,#1502
000A:D810 51           add   r1
000A:D811 40           ldw   (r0)
000A:D812 A5 40        ibt   r5,#0040
000A:D814 65           sub   r5
000A:D815 0C 32        bcc   D849
000A:D817 01           nop
000A:D818 94           link  #04
000A:D819 FF 8D D0     iwt   r15,#D08D
000A:D81C 3F 3E 72     and   #02
000A:D81F 09 23        beq   D844
000A:D821 B2 3E 72     and   #02
000A:D824 08 1E        bne   D844
000A:D826 B3 95        sex
000A:D828 0B 02        bmi   D82C
000A:D82A C0           hib
000A:D82B D0           inc   r0
000A:D82C 14 95        sex
000A:D82E F0 E0 11     iwt   r0,#11E0
000A:D831 51           add   r1
000A:D832 40           ldw   (r0)
000A:D833 15 3D C3     xor   r3
000A:D836 0A 0C        bpl   D844
000A:D838 D2           inc   r2
000A:D839 4F           not
000A:D83A D0           inc   r0
000A:D83B 90           sbk
000A:D83C F0 C0 13     iwt   r0,#13C0
000A:D83F 51           add   r1
000A:D840 40           ldw   (r0)
000A:D841 3F C2        xor   #02
000A:D843 90           sbk
000A:D844 3D AB 30     lms   r11,(0060)
000A:D847 9B           jmp   r11
000A:D848 01           nop
000A:D849 F0 C0 00     iwt   r0,#00C0
000A:D84C 23 B3        moves r3,r3
000A:D84E 0A 03        bpl   D853
000A:D850 01           nop
000A:D851 A0 40        ibt   r0,#0040
000A:D853 3E A0 08     sms   (0010),r0
000A:D856 F0 E0 11     iwt   r0,#11E0
000A:D859 51           add   r1
000A:D85A 40           ldw   (r0)
000A:D85B 3D C3        xor   r3
000A:D85D 0B 07        bmi   D866
000A:D85F 01           nop
000A:D860 DE           inc   r14
000A:D861 DE           inc   r14
000A:D862 A7 00        ibt   r7,#0000
000A:D864 9B           jmp   r11
000A:D865 01           nop
000A:D866 94           link  #04
000A:D867 FF 8D D0     iwt   r15,#D08D
000A:D86A 3F 3D A0 00  lms   r0,(0000)
000A:D86E 14 3E 7F     and   #0F
000A:D871 3E A4 24     sms   (0048),r4
000A:D874 B7 3E 74     and   #04
000A:D877 3E A0 20     sms   (0040),r0
000A:D87A 08 24        bne   D8A0
000A:D87C 01           nop
000A:D87D 3E A6 02     sms   (0004),r6
000A:D880 3E A7 03     sms   (0006),r7
000A:D883 3E A8 04     sms   (0008),r8
000A:D886 3D A0 00     lms   r0,(0000)
000A:D889 3E A0 05     sms   (000A),r0
000A:D88C 18 53        add   r3
000A:D88E 3D A0 01     lms   r0,(0002)
000A:D891 3E A0 06     sms   (000C),r0
000A:D894 94           link  #04
000A:D895 FF 96 D0     iwt   r15,#D096
000A:D898 3D 3E 74     and   #04
000A:D89B 09 44        beq   D8E1
000A:D89D 01           nop
000A:D89E 24 63        sub   r3
000A:D8A0 3E AE 2E     sms   (005C),r14
000A:D8A3 B8 4D        swap
000A:D8A5 23 B3        moves r3,r3
000A:D8A7 0A 03        bpl   D8AC
000A:D8A9 03           lsr
000A:D8AA D0           inc   r0
000A:D8AB D0           inc   r0
000A:D8AC FE 0A BD     iwt   r14,#BD0A
000A:D8AF 1E 5E        add   r14
000A:D8B1 3D A0 01     lms   r0,(0002)
000A:D8B4 3E 7F        and   #0F
000A:D8B6 50           add   r0
000A:D8B7 50           add   r0
000A:D8B8 50           add   r0
000A:D8B9 1E 5E        add   r14
000A:D8BB 15 EF        getb
000A:D8BD DE           inc   r14
000A:D8BE 3F EF        getbs
000A:D8C0 3D AE 2E     lms   r14,(005C)
000A:D8C3 64           sub   r4
000A:D8C4 3D C3        xor   r3
000A:D8C6 0B 11        bmi   D8D9
000A:D8C8 14 3D C3     xor   r3
000A:D8CB D4           inc   r4
000A:D8CC 3E A5 08     sms   (0010),r5
000A:D8CF B4 3E 58     add   #08
000A:D8D2 A5 11        ibt   r5,#0011
000A:D8D4 65           sub   r5
000A:D8D5 0C 31        bcc   D908
000A:D8D7 D2           inc   r2
000A:D8D8 E2           dec   r2
000A:D8D9 3D A0 20     lms   r0,(0040)
000A:D8DC 3E 64        sub   #04
000A:D8DE 09 28        beq   D908
000A:D8E0 01           nop
000A:D8E1 3D A4 24     lms   r4,(0048)
000A:D8E4 3D A6 02     lms   r6,(0004)
000A:D8E7 3D A7 03     lms   r7,(0006)
000A:D8EA 3D A8 04     lms   r8,(0008)
000A:D8ED 3D A0 05     lms   r0,(000A)
000A:D8F0 3E A0 00     sms   (0000),r0
000A:D8F3 3D A0 06     lms   r0,(000C)
000A:D8F6 3E A0 01     sms   (0002),r0
000A:D8F9 B7 3E 72     and   #02
000A:D8FC 09 0A        beq   D908
000A:D8FE 01           nop
000A:D8FF D2           inc   r2
000A:D900 20 B3        moves r0,r3
000A:D902 0A 02        bpl   D906
000A:D904 01           nop
000A:D905 60           sub   r0
000A:D906 14 64        sub   r4
000A:D908 3D AB 30     lms   r11,(0060)
000A:D90B 9B           jmp   r11
000A:D90C 01           nop
000A:D90D A3 00        ibt   r3,#0000
000A:D90F 05 04        bra   D915
000A:D911 B2 A3 01     ibt   r3,#0001
000A:D914 B2 03        lsr
000A:D916 0D 05        bcs   D91D
000A:D918 01           nop
000A:D919 FF 15 DD     iwt   r15,#DD15
000A:D91C 01           nop
000A:D91D F0 02 15     iwt   r0,#1502
000A:D920 51           add   r1
000A:D921 40           ldw   (r0)
000A:D922 A5 40        ibt   r5,#0040
000A:D924 65           sub   r5
000A:D925 0C 1B        bcc   D942
000A:D927 01           nop
000A:D928 F0 38 19     iwt   r0,#1938
000A:D92B 51           add   r1
000A:D92C 40           ldw   (r0)
000A:D92D 3E 60        sub   #00
000A:D92F 08 0F        bne   D940
000A:D931 D0           inc   r0
000A:D932 90           sbk
000A:D933 B6 C0        hib
000A:D935 F5 8E 00     iwt   r5,#008E
000A:D938 65           sub   r5
000A:D939 08 05        bne   D940
000A:D93B 01           nop
000A:D93C FF AC DC     iwt   r15,#DCAC
000A:D93F 01           nop
000A:D940 9B           jmp   r11
000A:D941 01           nop
000A:D942 F0 00 F8     iwt   r0,#F800
000A:D945 77           and   r7
000A:D946 F5 00 40     iwt   r5,#4000
000A:D949 65           sub   r5
000A:D94A 09 42        beq   D98E
000A:D94C 01           nop
000A:D94D B6 C0        hib
000A:D94F A5 7A        ibt   r5,#007A
000A:D951 65           sub   r5
000A:D952 08 05        bne   D959
000A:D954 55           add   r5
000A:D955 FF 08 DB     iwt   r15,#DB08
000A:D958 01           nop
000A:D959 A5 7B        ibt   r5,#007B
000A:D95B 65           sub   r5
000A:D95C 08 05        bne   D963
000A:D95E 55           add   r5
000A:D95F FF A0 DB     iwt   r15,#DBA0
000A:D962 01           nop
000A:D963 A5 7C        ibt   r5,#007C
000A:D965 65           sub   r5
000A:D966 08 05        bne   D96D
000A:D968 55           add   r5
000A:D969 FF 5B DC     iwt   r15,#DC5B
000A:D96C 01           nop
000A:D96D F5 8E 00     iwt   r5,#008E
000A:D970 65           sub   r5
000A:D971 08 05        bne   D978
000A:D973 01           nop
000A:D974 FF AC DC     iwt   r15,#DCAC
000A:D977 01           nop
000A:D978 F0 20 13     iwt   r0,#1320
000A:D97B 51           add   r1
000A:D97C 40           ldw   (r0)
000A:D97D F5 07 01     iwt   r5,#0107
000A:D980 65           sub   r5
000A:D981 A5 1F        ibt   r5,#001F
000A:D983 09 02        beq   D987
000A:D985 01           nop
000A:D986 D5           inc   r5
000A:D987 3E A5 3D     sms   (007A),r5
000A:D98A FF 1A DA     iwt   r15,#DA1A
000A:D98D 01           nop
000A:D98E A5 02        ibt   r5,#0002
000A:D990 F0 02 15     iwt   r0,#1502
000A:D993 51           add   r1
000A:D994 B5 30        stw   (r0)
000A:D996 A0 1C        ibt   r0,#001C
000A:D998 3E A0 3D     sms   (007A),r0
000A:D99B 3E AB 30     sms   (0060),r11
000A:D99E 3E A4 24     sms   (0048),r4
000A:D9A1 3E A6 26     sms   (004C),r6
000A:D9A4 F5 C3 01     iwt   r5,#01C3
000A:D9A7 94           link  #04
000A:D9A8 FF E3 DF     iwt   r15,#DFE3
000A:D9AB 01           nop
000A:D9AC 3D A0 00     lms   r0,(0000)
000A:D9AF 15 3F 7F     bic   #0F
000A:D9B2 F0 A2 10     iwt   r0,#10A2
000A:D9B5 54           add   r4
000A:D9B6 B5 30        stw   (r0)
000A:D9B8 3D A0 01     lms   r0,(0002)
000A:D9BB 15 3F 7F     bic   #0F
000A:D9BE F0 42 11     iwt   r0,#1142
000A:D9C1 54           add   r4
000A:D9C2 B5 30        stw   (r0)
000A:D9C4 F0 E0 11     iwt   r0,#11E0
000A:D9C7 51           add   r1
000A:D9C8 40           ldw   (r0)
000A:D9C9 4F           not
000A:D9CA D0           inc   r0
000A:D9CB 3D 96        div2
000A:D9CD 3D 96        div2
000A:D9CF 3D 96        div2
000A:D9D1 15 3D 96     div2
000A:D9D4 F0 E0 11     iwt   r0,#11E0
000A:D9D7 54           add   r4
000A:D9D8 B5 30        stw   (r0)
000A:D9DA F0 E2 11     iwt   r0,#11E2
000A:D9DD 51           add   r1
000A:D9DE 40           ldw   (r0)
000A:D9DF 3D 96        div2
000A:D9E1 3D 96        div2
000A:D9E3 3D 96        div2
000A:D9E5 15 3D 96     div2
000A:D9E8 F0 E2 11     iwt   r0,#11E2
000A:D9EB 54           add   r4
000A:D9EC B5 30        stw   (r0)
000A:D9EE A5 0A        ibt   r5,#000A
000A:D9F0 F0 C2 13     iwt   r0,#13C2
000A:D9F3 54           add   r4
000A:D9F4 B5 30        stw   (r0)
000A:D9F6 A5 02        ibt   r5,#0002
000A:D9F8 F0 82 17     iwt   r0,#1782
000A:D9FB 54           add   r4
000A:D9FC B5 30        stw   (r0)
000A:D9FE A5 08        ibt   r5,#0008
000A:DA00 F0 02 15     iwt   r0,#1502
000A:DA03 54           add   r4
000A:DA04 B5 30        stw   (r0)
000A:DA06 F5 00 04     iwt   r5,#0400
000A:DA09 F0 A2 15     iwt   r0,#15A2
000A:DA0C 54           add   r4
000A:DA0D B5 30        stw   (r0)
000A:DA0F A0 04        ibt   r0,#0004
000A:DA11 00           stop
000A:DA12 01           nop

000A:DA13 3D AB 30     lms   r11,(0060)
000A:DA16 FF FA DA     iwt   r15,#DAFA
000A:DA19 01           nop
000A:DA1A 3E A4 24     sms   (0048),r4
000A:DA1D 3E A6 26     sms   (004C),r6
000A:DA20 F0 02 15     iwt   r0,#1502
000A:DA23 51           add   r1
000A:DA24 40           ldw   (r0)
000A:DA25 15 3E 63     sub   #03 				; number of times an egg will ricochet
000A:DA28 0C 36        bcc   DA60
000A:DA2A D0           inc   r0 				; change to 01 to make eggs bounce infinitely
000A:DA2B F0 9E 00     iwt   r0,#009E 			; sound eggs make when they die
000A:DA2E 3E A0 3D     sms   (007A),r0
000A:DA31 A5 0E        ibt   r5,#000E
000A:DA33 F0 C0 0E     iwt   r0,#0EC0 			; change to #0000 to make eggs collectible after the final hit, rather than having them fall away
000A:DA36 51           add   r1
000A:DA37 B5 30        stw   (r0)
000A:DA39 A5 00        ibt   r5,#0000
000A:DA3B F0 F8 1C     iwt   r0,#1CF8
000A:DA3E 51           add   r1
000A:DA3F B5 30        stw   (r0)
000A:DA41 F0 E0 11     iwt   r0,#11E0 			; how far the egg falls away horizontally after the last ricochet
000A:DA44 51           add   r1
000A:DA45 40           ldw   (r0)
000A:DA46 3D 96        div2
000A:DA48 3D 96        div2
000A:DA4A 90           sbk
000A:DA4B F0 E2 11     iwt   r0,#11E2 			; how far the egg falls away vertically after the last ricochet
000A:DA4E 51           add   r1
000A:DA4F 40           ldw   (r0)
000A:DA50 3D 96        div2
000A:DA52 3D 96        div2
000A:DA54 90           sbk
000A:DA55 A5 40        ibt   r5,#0040
000A:DA57 F0 02 15     iwt   r0,#1502
000A:DA5A 51           add   r1
000A:DA5B B5 30        stw   (r0)
000A:DA5D 05 2C        bra   DA8B
000A:DA5F 01           nop

000A:DA60 90           sbk
000A:DA61 F0 20 13     iwt   r0,#1320 			; change to #0000 to make eggs stay green during ricochets
000A:DA64 51           add   r1
000A:DA65 40           ldw   (r0)
000A:DA66 F5 24 00     iwt   r5,#0024
000A:DA69 65           sub   r5
000A:DA6A 0C 1F        bcc   DA8B
000A:DA6C 55           add   r5
000A:DA6D F5 26 00     iwt   r5,#0026
000A:DA70 65           sub   r5
000A:DA71 0D 18        bcs   DA8B
000A:DA73 55           add   r5
000A:DA74 E0           dec   r0
000A:DA75 90           sbk
000A:DA76 2E 15        move  r5,r14
000A:DA78 50           add   r0
000A:DA79 FE 1B 9F     iwt   r14,#9F1B
000A:DA7C 1E 5E        add   r14
000A:DA7E 1E EF        getb
000A:DA80 F0 02 10     iwt   r0,#1002
000A:DA83 51           add   r1
000A:DA84 40           ldw   (r0)
000A:DA85 3F 7E        bic   #0E
000A:DA87 CE           or    r14
000A:DA88 90           sbk
000A:DA89 25 1E        move  r14,r5
000A:DA8B 3E A7 27     sms   (004E),r7
000A:DA8E 3E A8 28     sms   (0050),r8
000A:DA91 3E AE 2E     sms   (005C),r14
000A:DA94 E3           dec   r3
000A:DA95 0A 09        bpl   DAA0
000A:DA97 D3           inc   r3
000A:DA98 F0 C0 13     iwt   r0,#13C0
000A:DA9B 51           add   r1
000A:DA9C 40           ldw   (r0)
000A:DA9D 3F C2        xor   #02
000A:DA9F 90           sbk
000A:DAA0 A0 08        ibt   r0,#0008
000A:DAA2 3F DF        romb
000A:DAA4 3D A0 08     lms   r0,(0010)
000A:DAA7 50           add   r0
000A:DAA8 9E           lob
000A:DAA9 FE 18 AE     iwt   r14,#AE18
000A:DAAC 1E 5E        add   r14
000A:DAAE EF           getb
000A:DAAF 16 4D        swap
000A:DAB1 F0 E0 11     iwt   r0,#11E0
000A:DAB4 51           add   r1
000A:DAB5 14 40        ldw   (r0)
000A:DAB7 B4 9F        fmult
000A:DAB9 17 04        rol
000A:DABB F0 E2 11     iwt   r0,#11E2
000A:DABE 51           add   r1
000A:DABF 15 40        ldw   (r0)
000A:DAC1 B5 9F        fmult
000A:DAC3 18 04        rol
000A:DAC5 A0 40        ibt   r0,#0040
000A:DAC7 1E 5E        add   r14
000A:DAC9 EF           getb
000A:DACA 16 4D        swap
000A:DACC A0 0A        ibt   r0,#000A
000A:DACE 3F DF        romb
000A:DAD0 B5 9F        fmult
000A:DAD2 04           rol
000A:DAD3 57           add   r7
000A:DAD4 15 50        add   r0
000A:DAD6 F0 E0 11     iwt   r0,#11E0
000A:DAD9 51           add   r1
000A:DADA B5 30        stw   (r0)
000A:DADC B4 9F        fmult
000A:DADE 04           rol
000A:DADF 68           sub   r8
000A:DAE0 14 50        add   r0
000A:DAE2 F0 E2 11     iwt   r0,#11E2
000A:DAE5 51           add   r1
000A:DAE6 B4 30        stw   (r0)
000A:DAE8 3D A7 27     lms   r7,(004E)
000A:DAEB 3D A8 28     lms   r8,(0050)
000A:DAEE 3D AE 2E     lms   r14,(005C)
000A:DAF1 A5 01        ibt   r5,#0001
000A:DAF3 F0 C2 18     iwt   r0,#18C2
000A:DAF6 51           add   r1
000A:DAF7 B5 3D 30     stb   (r0)
000A:DAFA 3D A4 24     lms   r4,(0048)
000A:DAFD 3D A6 26     lms   r6,(004C)
000A:DB00 9B           jmp   r11
000A:DB01 01           nop

000A:DB02 02           cache
000A:DB03 7A           and   r10
000A:DB04 04           rol
000A:DB05 7A           and   r10
000A:DB06 00           stop
000A:DB07 00           stop
000A:DB08 A5 00        ibt   r5,#0000
000A:DB0A F0 02 15     iwt   r0,#1502
000A:DB0D 51           add   r1
000A:DB0E B5 30        stw   (r0)
000A:DB10 D5           inc   r5
000A:DB11 F0 C2 18     iwt   r0,#18C2
000A:DB14 51           add   r1
000A:DB15 B5 30        stw   (r0)
000A:DB17 3E A4 24     sms   (0048),r4
000A:DB1A 3E A6 26     sms   (004C),r6
000A:DB1D B6 9E        lob
000A:DB1F 03           lsr
000A:DB20 3D A6 00     lms   r6,(0000)
000A:DB23 0C 07        bcc   DB2C
000A:DB25 50           add   r0
000A:DB26 A5 10        ibt   r5,#0010
000A:DB28 26 65        sub   r5
000A:DB2A B6 90        sbk
000A:DB2C 2E 14        move  r4,r14
000A:DB2E FE 02 DB     iwt   r14,#DB02
000A:DB31 1E 5E        add   r14
000A:DB33 EF           getb
000A:DB34 DE           inc   r14
000A:DB35 15 3D EF     getbh
000A:DB38 24 1E        move  r14,r4
000A:DB3A A0 0E        ibt   r0,#000E
000A:DB3C 00           stop
000A:DB3D 01           nop
000A:DB3E A0 10        ibt   r0,#0010
000A:DB40 56           add   r6
000A:DB41 3E A0 00     sms   (0000),r0
000A:DB44 25 B5        moves r5,r5
000A:DB46 09 09        beq   DB51
000A:DB48 01           nop
000A:DB49 A0 08        ibt   r0,#0008
000A:DB4B 3E A0 3D     sms   (007A),r0
000A:DB4E 05 44        bra   DB94
000A:DB50 D5           inc   r5
000A:DB51 A0 32        ibt   r0,#0032
000A:DB53 3E A0 3D     sms   (007A),r0
000A:DB56 2B 16        move  r6,r11
000A:DB58 F5 0A 02     iwt   r5,#020A
000A:DB5B 94           link  #04
000A:DB5C FF E3 DF     iwt   r15,#DFE3
000A:DB5F 01           nop
000A:DB60 3D A0 00     lms   r0,(0000)
000A:DB63 3F 7F        bic   #0F
000A:DB65 15 3E 68     sub   #08
000A:DB68 F0 A2 10     iwt   r0,#10A2
000A:DB6B 54           add   r4
000A:DB6C B5 30        stw   (r0)
000A:DB6E 3D A0 01     lms   r0,(0002)
000A:DB71 15 3F 7F     bic   #0F
000A:DB74 F0 42 11     iwt   r0,#1142
000A:DB77 54           add   r4
000A:DB78 B5 30        stw   (r0)
000A:DB7A A5 04        ibt   r5,#0004
000A:DB7C F0 C2 13     iwt   r0,#13C2
000A:DB7F 54           add   r4
000A:DB80 B5 30        stw   (r0)
000A:DB82 F0 4C 1E     iwt   r0,#1E4C
000A:DB85 54           add   r4
000A:DB86 B5 30        stw   (r0)
000A:DB88 A5 08        ibt   r5,#0008
000A:DB8A F0 82 17     iwt   r0,#1782
000A:DB8D 54           add   r4
000A:DB8E B5 30        stw   (r0)
000A:DB90 26 1B        move  r11,r6
000A:DB92 A5 00        ibt   r5,#0000
000A:DB94 A0 0E        ibt   r0,#000E
000A:DB96 00           stop
000A:DB97 01           nop
000A:DB98 FF 8B DA     iwt   r15,#DA8B
000A:DB9B 01           nop
000A:DB9C 04           rol
000A:DB9D 7B           and   r11
000A:DB9E 00           stop
000A:DB9F 00           stop
000A:DBA0 A5 00        ibt   r5,#0000
000A:DBA2 F0 02 15     iwt   r0,#1502
000A:DBA5 51           add   r1
000A:DBA6 B5 30        stw   (r0)
000A:DBA8 D5           inc   r5
000A:DBA9 F0 C2 18     iwt   r0,#18C2
000A:DBAC 51           add   r1
000A:DBAD B5 30        stw   (r0)
000A:DBAF 3E A4 24     sms   (0048),r4
000A:DBB2 3E A6 26     sms   (004C),r6
000A:DBB5 3E A7 27     sms   (004E),r7
000A:DBB8 B6 9E        lob
000A:DBBA 03           lsr
000A:DBBB 3D A7 00     lms   r7,(0000)
000A:DBBE 0C 07        bcc   DBC7
000A:DBC0 01           nop
000A:DBC1 A5 10        ibt   r5,#0010
000A:DBC3 27 65        sub   r5
000A:DBC5 B7 90        sbk
000A:DBC7 03           lsr
000A:DBC8 3D A6 01     lms   r6,(0002)
000A:DBCB 0C 07        bcc   DBD4
000A:DBCD 50           add   r0
000A:DBCE A5 10        ibt   r5,#0010
000A:DBD0 26 65        sub   r5
000A:DBD2 B6 90        sbk
000A:DBD4 2E 14        move  r4,r14
000A:DBD6 FE 9C DB     iwt   r14,#DB9C
000A:DBD9 1E 5E        add   r14
000A:DBDB EF           getb
000A:DBDC DE           inc   r14
000A:DBDD 15 3D EF     getbh
000A:DBE0 24 1E        move  r14,r4
000A:DBE2 25 B5        moves r5,r5
000A:DBE4 08 44        bne   DC2A
000A:DBE6 01           nop
000A:DBE7 A0 0C        ibt   r0,#000C
000A:DBE9 00           stop
000A:DBEA 01           nop
000A:DBEB 3E AB 30     sms   (0060),r11
000A:DBEE A0 48        ibt   r0,#0048
000A:DBF0 3E A0 3D     sms   (007A),r0
000A:DBF3 F5 0C 02     iwt   r5,#020C
000A:DBF6 94           link  #04
000A:DBF7 FF E3 DF     iwt   r15,#DFE3
000A:DBFA 01           nop
000A:DBFB B7 3F 7F     bic   #0F
000A:DBFE 15 3E 58     add   #08
000A:DC01 F0 A2 10     iwt   r0,#10A2
000A:DC04 54           add   r4
000A:DC05 B5 30        stw   (r0)
000A:DC07 B6 3F 7F     bic   #0F
000A:DC0A 15 3E 58     add   #08
000A:DC0D F0 42 11     iwt   r0,#1142
000A:DC10 54           add   r4
000A:DC11 B5 30        stw   (r0)
000A:DC13 A5 0D        ibt   r5,#000D
000A:DC15 F0 C2 13     iwt   r0,#13C2
000A:DC18 54           add   r4
000A:DC19 B5 30        stw   (r0)
000A:DC1B A5 02        ibt   r5,#0002
000A:DC1D F0 82 17     iwt   r0,#1782
000A:DC20 54           add   r4
000A:DC21 B5 30        stw   (r0)
000A:DC23 3D AB 30     lms   r11,(0060)
000A:DC26 FF 8E DA     iwt   r15,#DA8E
000A:DC29 01           nop
000A:DC2A A0 0A        ibt   r0,#000A
000A:DC2C 3E A0 3D     sms   (007A),r0
000A:DC2F A0 0E        ibt   r0,#000E
000A:DC31 00           stop
000A:DC32 01           nop
000A:DC33 A0 10        ibt   r0,#0010
000A:DC35 57           add   r7
000A:DC36 3E A0 00     sms   (0000),r0
000A:DC39 D5           inc   r5
000A:DC3A A0 0E        ibt   r0,#000E
000A:DC3C 00           stop
000A:DC3D 01           nop
000A:DC3E 3E A7 00     sms   (0000),r7
000A:DC41 A0 10        ibt   r0,#0010
000A:DC43 56           add   r6
000A:DC44 3E A0 01     sms   (0002),r0
000A:DC47 D5           inc   r5
000A:DC48 A0 0E        ibt   r0,#000E
000A:DC4A 00           stop
000A:DC4B 01           nop
000A:DC4C A0 10        ibt   r0,#0010
000A:DC4E 57           add   r7
000A:DC4F 3E A0 00     sms   (0000),r0
000A:DC52 D5           inc   r5
000A:DC53 A0 0E        ibt   r0,#000E
000A:DC55 00           stop
000A:DC56 01           nop
000A:DC57 FF 8E DA     iwt   r15,#DA8E
000A:DC5A 01           nop
000A:DC5B A5 01        ibt   r5,#0001
000A:DC5D F0 C2 18     iwt   r0,#18C2
000A:DC60 51           add   r1
000A:DC61 B5 30        stw   (r0)
000A:DC63 A0 04        ibt   r0,#0004
000A:DC65 3E A0 3D     sms   (007A),r0
000A:DC68 3E AB 30     sms   (0060),r11
000A:DC6B 3E A4 24     sms   (0048),r4
000A:DC6E 3E A6 26     sms   (004C),r6
000A:DC71 F5 0B 02     iwt   r5,#020B
000A:DC74 94           link  #04
000A:DC75 FF E3 DF     iwt   r15,#DFE3
000A:DC78 01           nop
000A:DC79 3D A0 00     lms   r0,(0000)
000A:DC7C 15 3F 7F     bic   #0F
000A:DC7F F0 A2 10     iwt   r0,#10A2
000A:DC82 54           add   r4
000A:DC83 B5 30        stw   (r0)
000A:DC85 3D A0 01     lms   r0,(0002)
000A:DC88 15 3F 7F     bic   #0F
000A:DC8B F0 42 11     iwt   r0,#1142
000A:DC8E 54           add   r4
000A:DC8F B5 30        stw   (r0)
000A:DC91 A5 0C        ibt   r5,#000C
000A:DC93 F0 C2 13     iwt   r0,#13C2
000A:DC96 54           add   r4
000A:DC97 B5 30        stw   (r0)
000A:DC99 A5 02        ibt   r5,#0002
000A:DC9B F0 82 17     iwt   r0,#1782
000A:DC9E 54           add   r4
000A:DC9F B5 30        stw   (r0)
000A:DCA1 A0 18        ibt   r0,#0018
000A:DCA3 00           stop
000A:DCA4 01           nop
000A:DCA5 3D AB 30     lms   r11,(0060)
000A:DCA8 FF 20 DA     iwt   r15,#DA20
000A:DCAB 01           nop
000A:DCAC A5 01        ibt   r5,#0001
000A:DCAE F0 C2 18     iwt   r0,#18C2
000A:DCB1 51           add   r1
000A:DCB2 B5 30        stw   (r0)
000A:DCB4 A0 04        ibt   r0,#0004
000A:DCB6 3E A0 3D     sms   (007A),r0
000A:DCB9 3E AB 30     sms   (0060),r11
000A:DCBC 3E A4 24     sms   (0048),r4
000A:DCBF 3E A6 26     sms   (004C),r6
000A:DCC2 F5 90 01     iwt   r5,#0190
000A:DCC5 94           link  #04
000A:DCC6 FF 1C DE     iwt   r15,#DE1C
000A:DCC9 01           nop
000A:DCCA 3D AB 30     lms   r11,(0060)
000A:DCCD 0B 42        bmi   DD11
000A:DCCF 01           nop
000A:DCD0 3D A0 00     lms   r0,(0000)
000A:DCD3 15 3F 7F     bic   #0F
000A:DCD6 F0 E2 10     iwt   r0,#10E2
000A:DCD9 54           add   r4
000A:DCDA B5 30        stw   (r0)
000A:DCDC 3D A0 01     lms   r0,(0002)
000A:DCDF 15 3F 7F     bic   #0F
000A:DCE2 F0 82 11     iwt   r0,#1182
000A:DCE5 54           add   r4
000A:DCE6 B5 30        stw   (r0)
000A:DCE8 A5 02        ibt   r5,#0002
000A:DCEA F0 76 19     iwt   r0,#1976
000A:DCED 54           add   r4
000A:DCEE B5 30        stw   (r0)
000A:DCF0 F0 02 15     iwt   r0,#1502
000A:DCF3 51           add   r1
000A:DCF4 10 40        ldw   (r0)
000A:DCF6 A5 40        ibt   r5,#0040
000A:DCF8 65           sub   r5
000A:DCF9 0D 0E        bcs   DD09
000A:DCFB 55           add   r5
000A:DCFC 15 3E 63     sub   #03
000A:DCFF 0C 03        bcc   DD04
000A:DD01 D0           inc   r0
000A:DD02 A0 40        ibt   r0,#0040
000A:DD04 90           sbk
000A:DD05 FF FA DA     iwt   r15,#DAFA
000A:DD08 01           nop
000A:DD09 A5 30        ibt   r5,#0030
000A:DD0B F0 78 19     iwt   r0,#1978
000A:DD0E 54           add   r4
000A:DD0F B5 30        stw   (r0)
000A:DD11 FF 20 DA     iwt   r15,#DA20
000A:DD14 01           nop
000A:DD15 F0 00 F8     iwt   r0,#F800
000A:DD18 77           and   r7
000A:DD19 F5 00 30     iwt   r5,#3000
000A:DD1C 65           sub   r5
000A:DD1D 09 67        beq   DD86
000A:DD1F 55           add   r5
000A:DD20 F5 00 B0     iwt   r5,#B000
000A:DD23 65           sub   r5
000A:DD24 09 57        beq   DD7D
000A:DD26 55           add   r5
000A:DD27 F5 00 A8     iwt   r5,#A800
000A:DD2A 65           sub   r5
000A:DD2B 08 4E        bne   DD7B
000A:DD2D 01           nop
000A:DD2E F0 B6 1A     iwt   r0,#1AB6
000A:DD31 51           add   r1
000A:DD32 40           ldw   (r0)
000A:DD33 3E 60        sub   #00
000A:DD35 08 44        bne   DD7B
000A:DD37 01           nop
000A:DD38 A5 08        ibt   r5,#0008
000A:DD3A F0 B6 1A     iwt   r0,#1AB6
000A:DD3D 51           add   r1
000A:DD3E B5 30        stw   (r0)
000A:DD40 A0 07        ibt   r0,#0007
000A:DD42 3E A0 3D     sms   (007A),r0
000A:DD45 3E AB 30     sms   (0060),r11
000A:DD48 F5 14 02     iwt   r5,#0214
000A:DD4B 94           link  #04
000A:DD4C FF E3 DF     iwt   r15,#DFE3
000A:DD4F 01           nop
000A:DD50 3D AB 30     lms   r11,(0060)
000A:DD53 3D A0 00     lms   r0,(0000)
000A:DD56 15 3F 7F     bic   #0F
000A:DD59 F0 A2 10     iwt   r0,#10A2
000A:DD5C 54           add   r4
000A:DD5D B5 30        stw   (r0)
000A:DD5F 3D A0 01     lms   r0,(0002)
000A:DD62 15 3F 7F     bic   #0F
000A:DD65 F0 42 11     iwt   r0,#1142
000A:DD68 54           add   r4
000A:DD69 B5 30        stw   (r0)
000A:DD6B A5 0E        ibt   r5,#000E
000A:DD6D F0 C2 13     iwt   r0,#13C2
000A:DD70 54           add   r4
000A:DD71 B5 30        stw   (r0)
000A:DD73 A5 04        ibt   r5,#0004
000A:DD75 F0 82 17     iwt   r0,#1782
000A:DD78 54           add   r4
000A:DD79 B5 30        stw   (r0)
000A:DD7B 9B           jmp   r11
000A:DD7C 01           nop
000A:DD7D 3D F0 08 1E  lm    r0,(1E08)
000A:DD81 3E 78        and   #08
000A:DD83 09 0A        beq   DD8F
000A:DD85 01           nop
000A:DD86 A0 09        ibt   r0,#0009
000A:DD88 3E A0 3D     sms   (007A),r0
000A:DD8B A0 02        ibt   r0,#0002
000A:DD8D 00           stop
000A:DD8E 01           nop
000A:DD8F 9B           jmp   r11
000A:DD90 01           nop
000A:DD91 94           link  #04
000A:DD92 FF 72 D3     iwt   r15,#D372
000A:DD95 2B 94        link  #04
000A:DD97 FF 0D D9     iwt   r15,#D90D
000A:DD9A 01           nop
000A:DD9B FF 7F D0     iwt   r15,#D07F
000A:DD9E D1           inc   r1
000A:DD9F 94           link  #04
000A:DDA0 FF 72 D3     iwt   r15,#D372
000A:DDA3 2B 22 52     add   r2
000A:DDA6 22 52        add   r2
000A:DDA8 F0 E0 11     iwt   r0,#11E0
000A:DDAB 51           add   r1
000A:DDAC 40           ldw   (r0)
000A:DDAD E0           dec   r0
000A:DDAE 0A 18        bpl   DDC8
000A:DDB0 01           nop
000A:DDB1 A3 01        ibt   r3,#0001
000A:DDB3 94           link  #04
000A:DDB4 FF B0 D3     iwt   r15,#D3B0
000A:DDB7 3E F0 E0 11  sm    (11E0),r0
000A:DDBB 51           add   r1
000A:DDBC 40           ldw   (r0)
000A:DDBD 3E 60        sub   #00
000A:DDBF 09 0A        beq   DDCB
000A:DDC1 22 52        add   r2
000A:DDC3 DE           inc   r14
000A:DDC4 DE           inc   r14
000A:DDC5 05 0D        bra   DDD4
000A:DDC7 22 DE        inc   r14
000A:DDC9 DE           inc   r14
000A:DDCA 22 52        add   r2
000A:DDCC A3 FF        ibt   r3,#FFFF
000A:DDCE 94           link  #04
000A:DDCF FF B0 D3     iwt   r15,#D3B0
000A:DDD2 3E 22 52     add   #02
000A:DDD5 94           link  #04
000A:DDD6 FF 52 D3     iwt   r15,#D352
000A:DDD9 2B 22 52     add   r2
000A:DDDC 94           link  #04
000A:DDDD FF 52 D3     iwt   r15,#D352
000A:DDE0 2B B2        moves r11,r2
000A:DDE2 3E 73        and   #03
000A:DDE4 3E 63        sub   #03
000A:DDE6 09 04        beq   DDEC
000A:DDE8 22 3F 73     bic   #03
000A:DDEB 22 03        lsr
000A:DDED B2 03        lsr
000A:DDEF 0C 09        bcc   DDFA
000A:DDF1 01           nop
000A:DDF2 DA           inc   r10
000A:DDF3 F0 E2 11     iwt   r0,#11E2
000A:DDF6 14 51        add   r1
000A:DDF8 60           sub   r0
000A:DDF9 34           stw   (r4)
000A:DDFA 22 52        add   r2
000A:DDFC A3 F0        ibt   r3,#FFF0
000A:DDFE 94           link  #04
000A:DDFF FF B5 D1     iwt   r15,#D1B5
000A:DE02 3E 22 52     add   #02
000A:DE05 A3 F0        ibt   r3,#FFF0
000A:DE07 94           link  #04
000A:DE08 FF B5 D1     iwt   r15,#D1B5
000A:DE0B 3E B2 3E 73  and   #03
000A:DE0F 3E 63        sub   #03
000A:DE11 09 04        beq   DE17
000A:DE13 22 3F 73     bic   #03
000A:DE16 22 03        lsr
000A:DE18 FF 70 D5     iwt   r15,#D570
000A:DE1B B2 3E AC 2C  sms   (0058),r12
000A:DE1F 3E AD 2D     sms   (005A),r13
000A:DE22 F4 5C 0F     iwt   r4,#0F5C
000A:DE25 AC 12        ibt   r12,#0012
000A:DE27 2F 1D        move  r13,r15
000A:DE29 3D 44        ldb   (r4)
000A:DE2B 3E 60        sub   #00
000A:DE2D 09 0E        beq   DE3D
000A:DE2F E4           dec   r4
000A:DE30 E4           dec   r4
000A:DE31 E4           dec   r4
000A:DE32 3C           loop
000A:DE33 E4           dec   r4
000A:DE34 EC           dec   r12
000A:DE35 3D AC 2C     lms   r12,(0058)
000A:DE38 3D AD 2D     lms   r13,(005A)
000A:DE3B 9B           jmp   r11
000A:DE3C 01           nop
000A:DE3D BC 3E 55     add   #05
000A:DE40 50           add   r0
000A:DE41 14 50        add   r0
000A:DE43 AC 10        ibt   r12,#0010
000A:DE45 F0 00 0F     iwt   r0,#0F00
000A:DE48 54           add   r4
000A:DE49 BC 30        stw   (r0)
000A:DE4B FC FF 00     iwt   r12,#00FF
000A:DE4E F0 A0 14     iwt   r0,#14A0
000A:DE51 54           add   r4
000A:DE52 BC 30        stw   (r0)
000A:DE54 AC 00        ibt   r12,#0000
000A:DE56 F0 96 1D     iwt   r0,#1D96
000A:DE59 54           add   r4
000A:DE5A BC 30        stw   (r0)
000A:DE5C F0 20 12     iwt   r0,#1220
000A:DE5F 54           add   r4
000A:DE60 BC 30        stw   (r0)
000A:DE62 F0 22 12     iwt   r0,#1222
000A:DE65 54           add   r4
000A:DE66 BC 30        stw   (r0)
000A:DE68 F0 76 19     iwt   r0,#1976
000A:DE6B 54           add   r4
000A:DE6C BC 30        stw   (r0)
000A:DE6E F0 00 14     iwt   r0,#1400
000A:DE71 54           add   r4
000A:DE72 BC 30        stw   (r0)
000A:DE74 F0 E0 10     iwt   r0,#10E0
000A:DE77 54           add   r4
000A:DE78 BC 30        stw   (r0)
000A:DE7A F0 36 1D     iwt   r0,#1D36
000A:DE7D 54           add   r4
000A:DE7E BC 30        stw   (r0)
000A:DE80 F0 78 19     iwt   r0,#1978
000A:DE83 54           add   r4
000A:DE84 BC 30        stw   (r0)
000A:DE86 F0 D6 19     iwt   r0,#19D6
000A:DE89 54           add   r4
000A:DE8A BC 30        stw   (r0)
000A:DE8C F0 D8 19     iwt   r0,#19D8
000A:DE8F 54           add   r4
000A:DE90 BC 30        stw   (r0)
000A:DE92 F0 36 1A     iwt   r0,#1A36
000A:DE95 54           add   r4
000A:DE96 BC 30        stw   (r0)
000A:DE98 F0 38 1A     iwt   r0,#1A38
000A:DE9B 54           add   r4
000A:DE9C BC 30        stw   (r0)
000A:DE9E F0 96 1A     iwt   r0,#1A96
000A:DEA1 54           add   r4
000A:DEA2 BC 30        stw   (r0)
000A:DEA4 F0 98 1A     iwt   r0,#1A98
000A:DEA7 54           add   r4
000A:DEA8 BC 30        stw   (r0)
000A:DEAA F0 F6 1A     iwt   r0,#1AF6
000A:DEAD 54           add   r4
000A:DEAE BC 30        stw   (r0)
000A:DEB0 F0 F8 1A     iwt   r0,#1AF8
000A:DEB3 54           add   r4
000A:DEB4 BC 30        stw   (r0)
000A:DEB6 F0 02 14     iwt   r0,#1402
000A:DEB9 54           add   r4
000A:DEBA BC 30        stw   (r0)
000A:DEBC F0 60 18     iwt   r0,#1860
000A:DEBF 54           add   r4
000A:DEC0 BC 30        stw   (r0)
000A:DEC2 F0 02 0F     iwt   r0,#0F02
000A:DEC5 54           add   r4
000A:DEC6 BC 30        stw   (r0)
000A:DEC8 F0 38 1D     iwt   r0,#1D38
000A:DECB 54           add   r4
000A:DECC BC 30        stw   (r0)
000A:DECE F0 20 17     iwt   r0,#1720
000A:DED1 54           add   r4
000A:DED2 BC 30        stw   (r0)
000A:DED4 F0 80 16     iwt   r0,#1680
000A:DED7 54           add   r4
000A:DED8 BC 30        stw   (r0)
000A:DEDA F0 82 16     iwt   r0,#1682
000A:DEDD 54           add   r4
000A:DEDE BC 30        stw   (r0)
000A:DEE0 F0 40 15     iwt   r0,#1540
000A:DEE3 54           add   r4
000A:DEE4 BC 30        stw   (r0)
000A:DEE6 F0 E0 15     iwt   r0,#15E0
000A:DEE9 54           add   r4
000A:DEEA BC 30        stw   (r0)
000A:DEEC F0 C0 17     iwt   r0,#17C0
000A:DEEF 54           add   r4
000A:DEF0 BC 30        stw   (r0)
000A:DEF2 EC           dec   r12
000A:DEF3 F0 62 13     iwt   r0,#1362
000A:DEF6 54           add   r4
000A:DEF7 BC 30        stw   (r0)
000A:DEF9 F0 22 17     iwt   r0,#1722
000A:DEFC 54           add   r4
000A:DEFD BC 30        stw   (r0)
000A:DEFF FC FF 1F     iwt   r12,#1FFF
000A:DF02 F0 62 18     iwt   r0,#1862
000A:DF05 54           add   r4
000A:DF06 BC 30        stw   (r0)
000A:DF08 F0 60 13     iwt   r0,#1360
000A:DF0B 54           add   r4
000A:DF0C B5 30        stw   (r0)
000A:DF0E B5 1C 55     add   r5
000A:DF11 3E AE 2E     sms   (005C),r14
000A:DF14 F0 16 A7     iwt   r0,#A716
000A:DF17 1E 5C        add   r12
000A:DF19 1D EF        getb
000A:DF1B F5 BB 0E     iwt   r5,#0EBB
000A:DF1E AE 06        ibt   r14,#0006
000A:DF20 3D 45        ldb   (r5)
000A:DF22 6D           sub   r13
000A:DF23 09 08        beq   DF2D
000A:DF25 EE           dec   r14
000A:DF26 08 F8        bne   DF20
000A:DF28 E5           dec   r5
000A:DF29 15           to    r5
000A:DF2A 05 07        bra   DF33
000A:DF2C 60           sub   r0
000A:DF2D BE 3E 58     add   #08
000A:DF30 50           add   r0
000A:DF31 15 50        add   r0
000A:DF33 F0 80 11     iwt   r0,#1180
000A:DF36 54           add   r4
000A:DF37 B5 30        stw   (r0)
000A:DF39 F0 1A 9F     iwt   r0,#9F1A
000A:DF3C 1E 5C        add   r12
000A:DF3E 15 EF        getb
000A:DF40 DE           inc   r14
000A:DF41 F0 A2 14     iwt   r0,#14A2
000A:DF44 54           add   r4
000A:DF45 B5 30        stw   (r0)
000A:DF47 EF           getb
000A:DF48 A5 20        ibt   r5,#0020
000A:DF4A 15 3D C5     xor   r5
000A:DF4D F0 42 10     iwt   r0,#1042
000A:DF50 54           add   r4
000A:DF51 B5 30        stw   (r0)
000A:DF53 F0 18 A3     iwt   r0,#A318
000A:DF56 1E 5C        add   r12
000A:DF58 15 3F EF     getbs
000A:DF5B DE           inc   r14
000A:DF5C F0 42 15     iwt   r0,#1542
000A:DF5F 54           add   r4
000A:DF60 B5 30        stw   (r0)
000A:DF62 3F EF        getbs
000A:DF64 3E 88        mult  #08
000A:DF66 15 50        add   r0
000A:DF68 F0 E2 15     iwt   r0,#15E2
000A:DF6B 54           add   r4
000A:DF6C B5 30        stw   (r0)
000A:DF6E F0 1E 97     iwt   r0,#971E
000A:DF71 1E 5C        add   r12
000A:DF73 EF           getb
000A:DF74 DE           inc   r14
000A:DF75 15 3D EF     getbh
000A:DF78 F0 A2 0F     iwt   r0,#0FA2
000A:DF7B 54           add   r4
000A:DF7C B5 30        stw   (r0)
000A:DF7E F0 1C 9B     iwt   r0,#9B1C
000A:DF81 1E 5C        add   r12
000A:DF83 EF           getb
000A:DF84 DE           inc   r14
000A:DF85 15 3D EF     getbh
000A:DF88 F0 40 10     iwt   r0,#1040
000A:DF8B 54           add   r4
000A:DF8C B5 30        stw   (r0)
000A:DF8E F0 20 93     iwt   r0,#9320
000A:DF91 1E 5C        add   r12
000A:DF93 EF           getb
000A:DF94 DE           inc   r14
000A:DF95 15 3D EF     getbh
000A:DF98 F0 A0 0F     iwt   r0,#0FA0
000A:DF9B 54           add   r4
000A:DF9C B5 30        stw   (r0)
000A:DF9E A0 1F        ibt   r0,#001F
000A:DFA0 75           and   r5
000A:DFA1 50           add   r0
000A:DFA2 50           add   r0
000A:DFA3 50           add   r0
000A:DFA4 FE 20 92     iwt   r14,#9220
000A:DFA7 1E 5E        add   r14
000A:DFA9 EF           getb
000A:DFAA DE           inc   r14
000A:DFAB 15 3D EF     getbh
000A:DFAE DE           inc   r14
000A:DFAF F0 56 1B     iwt   r0,#1B56
000A:DFB2 54           add   r4
000A:DFB3 B5 30        stw   (r0)
000A:DFB5 EF           getb
000A:DFB6 DE           inc   r14
000A:DFB7 15 3D EF     getbh
000A:DFBA DE           inc   r14
000A:DFBB F0 58 1B     iwt   r0,#1B58
000A:DFBE 54           add   r4
000A:DFBF B5 30        stw   (r0)
000A:DFC1 EF           getb
000A:DFC2 DE           inc   r14
000A:DFC3 15 3D EF     getbh
000A:DFC6 DE           inc   r14
000A:DFC7 F0 B6 1B     iwt   r0,#1BB6
000A:DFCA 54           add   r4
000A:DFCB B5 30        stw   (r0)
000A:DFCD EF           getb
000A:DFCE DE           inc   r14
000A:DFCF 15 3D EF     getbh
000A:DFD2 F0 B8 1B     iwt   r0,#1BB8
000A:DFD5 54           add   r4
000A:DFD6 B5 30        stw   (r0)
000A:DFD8 3D AE 2E     lms   r14,(005C)
000A:DFDB 3D AC 2C     lms   r12,(0058)
000A:DFDE 3D AD 2D     lms   r13,(005A)
000A:DFE1 9B           jmp   r11
000A:DFE2 60           sub   r0
000A:DFE3 3E AC 2C     sms   (0058),r12
000A:DFE6 3E AD 2D     sms   (005A),r13
000A:DFE9 F4 FC 0E     iwt   r4,#0EFC
000A:DFEC AC 10        ibt   r12,#0010
000A:DFEE 2F 1D        move  r13,r15
000A:DFF0 3D 44        ldb   (r4)
000A:DFF2 3E 60        sub   #00
000A:DFF4 09 17        beq   E00D
000A:DFF6 E4           dec   r4
000A:DFF7 E4           dec   r4
000A:DFF8 E4           dec   r4
000A:DFF9 3C           loop
000A:DFFA E4           dec   r4
000A:DFFB 3D F0 4A 1E  lm    r0,(1E4A)
000A:DFFF E0           dec   r0
000A:E000 E0           dec   r0
000A:E001 E0           dec   r0
000A:E002 E0           dec   r0
000A:E003 0A 03        bpl   E008
000A:E005 01           nop
000A:E006 A0 3C        ibt   r0,#003C
000A:E008 90           sbk
000A:E009 03           lsr
000A:E00A 1C 03        lsr
000A:E00C DC           inc   r12
000A:E00D EC           dec   r12
000A:E00E BC 5C        add   r12
000A:E010 14 50        add   r0
000A:E012 AC 0E        ibt   r12,#000E
000A:E014 F0 C0 0E     iwt   r0,#0EC0
000A:E017 54           add   r4
000A:E018 BC 30        stw   (r0)
000A:E01A FC FF 00     iwt   r12,#00FF
000A:E01D F0 60 14     iwt   r0,#1460
000A:E020 54           add   r4
000A:E021 BC 30        stw   (r0)
000A:E023 AC 00        ibt   r12,#0000
000A:E025 F0 E0 11     iwt   r0,#11E0
000A:E028 54           add   r4
000A:E029 BC 30        stw   (r0)
000A:E02B F0 E2 11     iwt   r0,#11E2
000A:E02E 54           add   r4
000A:E02F BC 30        stw   (r0)
000A:E031 F0 C0 13     iwt   r0,#13C0
000A:E034 54           add   r4
000A:E035 BC 30        stw   (r0)
000A:E037 F0 A0 10     iwt   r0,#10A0
000A:E03A 54           add   r4
000A:E03B BC 30        stw   (r0)
000A:E03D F0 4C 1E     iwt   r0,#1E4C
000A:E040 54           add   r4
000A:E041 BC 30        stw   (r0)
000A:E043 F0 4E 1E     iwt   r0,#1E4E
000A:E046 54           add   r4
000A:E047 BC 30        stw   (r0)
000A:E049 F0 8C 1E     iwt   r0,#1E8C
000A:E04C 54           add   r4
000A:E04D BC 30        stw   (r0)
000A:E04F F0 82 17     iwt   r0,#1782
000A:E052 54           add   r4
000A:E053 BC 30        stw   (r0)
000A:E055 F0 8E 1E     iwt   r0,#1E8E
000A:E058 54           add   r4
000A:E059 BC 30        stw   (r0)
000A:E05B F0 C2 13     iwt   r0,#13C2
000A:E05E 54           add   r4
000A:E05F BC 30        stw   (r0)
000A:E061 F0 20 18     iwt   r0,#1820
000A:E064 54           add   r4
000A:E065 BC 30        stw   (r0)
000A:E067 F0 C2 0E     iwt   r0,#0EC2
000A:E06A 54           add   r4
000A:E06B BC 30        stw   (r0)
000A:E06D F0 E0 16     iwt   r0,#16E0
000A:E070 54           add   r4
000A:E071 BC 30        stw   (r0)
000A:E073 F0 40 16     iwt   r0,#1640
000A:E076 54           add   r4
000A:E077 BC 30        stw   (r0)
000A:E079 F0 42 16     iwt   r0,#1642
000A:E07C 54           add   r4
000A:E07D BC 30        stw   (r0)
000A:E07F F0 00 15     iwt   r0,#1500
000A:E082 54           add   r4
000A:E083 BC 30        stw   (r0)
000A:E085 F0 A0 15     iwt   r0,#15A0
000A:E088 54           add   r4
000A:E089 BC 30        stw   (r0)
000A:E08B F0 80 17     iwt   r0,#1780
000A:E08E 54           add   r4
000A:E08F BC 30        stw   (r0)
000A:E091 EC           dec   r12
000A:E092 F0 22 13     iwt   r0,#1322
000A:E095 54           add   r4
000A:E096 BC 30        stw   (r0)
000A:E098 F0 E2 16     iwt   r0,#16E2
000A:E09B 54           add   r4
000A:E09C BC 30        stw   (r0)
000A:E09E FC FF 1F     iwt   r12,#1FFF
000A:E0A1 F0 22 18     iwt   r0,#1822
000A:E0A4 54           add   r4
000A:E0A5 BC 30        stw   (r0)
000A:E0A7 F0 20 13     iwt   r0,#1320
000A:E0AA 54           add   r4
000A:E0AB B5 30        stw   (r0)
000A:E0AD B5 1C 55     add   r5
000A:E0B0 3E AE 2E     sms   (005C),r14
000A:E0B3 F0 9E B5     iwt   r0,#B59E
000A:E0B6 1E 5C        add   r12
000A:E0B8 1D EF        getb
000A:E0BA F5 BB 0E     iwt   r5,#0EBB
000A:E0BD AE 06        ibt   r14,#0006
000A:E0BF 3D 45        ldb   (r5)
000A:E0C1 6D           sub   r13
000A:E0C2 09 08        beq   E0CC
000A:E0C4 EE           dec   r14
000A:E0C5 08 F8        bne   E0BF
000A:E0C7 E5           dec   r5
000A:E0C8 15           to    r5
000A:E0C9 05 07        bra   E0D2
000A:E0CB 60           sub   r0
000A:E0CC BE 3E 58     add   #08
000A:E0CF 50           add   r0
000A:E0D0 15 50        add   r0
000A:E0D2 F0 40 11     iwt   r0,#1140
000A:E0D5 54           add   r4
000A:E0D6 B5 30        stw   (r0)
000A:E0D8 F0 9E B1     iwt   r0,#B19E
000A:E0DB 1E 5C        add   r12
000A:E0DD 15 EF        getb
000A:E0DF DE           inc   r14
000A:E0E0 F0 62 14     iwt   r0,#1462
000A:E0E3 54           add   r4
000A:E0E4 B5 30        stw   (r0)
000A:E0E6 EF           getb
000A:E0E7 A5 30        ibt   r5,#0030
000A:E0E9 15 3D C5     xor   r5
000A:E0EC F0 02 10     iwt   r0,#1002
000A:E0EF 54           add   r4
000A:E0F0 B5 30        stw   (r0)
000A:E0F2 F0 9E B3     iwt   r0,#B39E
000A:E0F5 1E 5C        add   r12
000A:E0F7 15 3F EF     getbs
000A:E0FA DE           inc   r14
000A:E0FB F0 02 15     iwt   r0,#1502
000A:E0FE 54           add   r4
000A:E0FF B5 30        stw   (r0)
000A:E101 3F EF        getbs
000A:E103 3E 88        mult  #08
000A:E105 15 50        add   r0
000A:E107 F0 A2 15     iwt   r0,#15A2
000A:E10A 54           add   r4
000A:E10B B5 30        stw   (r0)
000A:E10D F0 9E AB     iwt   r0,#AB9E
000A:E110 1E 5C        add   r12
000A:E112 EF           getb
000A:E113 DE           inc   r14
000A:E114 15 3D EF     getbh
000A:E117 F0 60 0F     iwt   r0,#0F60
000A:E11A 54           add   r4
000A:E11B B5 30        stw   (r0)
000A:E11D F0 9E AD     iwt   r0,#AD9E
000A:E120 1E 5C        add   r12
000A:E122 EF           getb
000A:E123 DE           inc   r14
000A:E124 15 3D EF     getbh
000A:E127 F0 62 0F     iwt   r0,#0F62
000A:E12A 54           add   r4
000A:E12B B5 30        stw   (r0)
000A:E12D F0 9E AF     iwt   r0,#AF9E
000A:E130 1E 5C        add   r12
000A:E132 EF           getb
000A:E133 DE           inc   r14
000A:E134 15 3D EF     getbh
000A:E137 F0 00 10     iwt   r0,#1000
000A:E13A 54           add   r4
000A:E13B B5 30        stw   (r0)
000A:E13D 3D AE 2E     lms   r14,(005C)
000A:E140 3D AC 2C     lms   r12,(0058)
000A:E143 3D AD 2D     lms   r13,(005A)
000A:E146 9B           jmp   r11
000A:E147 01           nop
000A:E148 94           link  #04
000A:E149 FF 72 D3     iwt   r15,#D372
000A:E14C 2B 3D F3 CA+ lm    r3,(29CA)
000A:E151 F0 C2 18     iwt   r0,#18C2
000A:E154 51           add   r1
000A:E155 B3 30        stw   (r0)
000A:E157 3D A0 00     lms   r0,(0000)
000A:E15A 33           stw   (r3)
000A:E15B D3           inc   r3
000A:E15C D3           inc   r3
000A:E15D 3D A0 01     lms   r0,(0002)
000A:E160 33           stw   (r3)
000A:E161 D3           inc   r3
000A:E162 D3           inc   r3
000A:E163 B7 33        stw   (r3)
000A:E165 D3           inc   r3
000A:E166 D3           inc   r3
000A:E167 B6 33        stw   (r3)
000A:E169 D3           inc   r3
000A:E16A D3           inc   r3
000A:E16B 3E F3 CA 29  sm    (29CA),r3
000A:E16F 22 52        add   r2
000A:E171 22 52        add   r2
000A:E173 94           link  #04
000A:E174 FF 52 D3     iwt   r15,#D352
000A:E177 2B 3D F3 CA+ lm    r3,(29CA)
000A:E17C 3D A0 00     lms   r0,(0000)
000A:E17F 33           stw   (r3)
000A:E180 D3           inc   r3
000A:E181 D3           inc   r3
000A:E182 3D A0 01     lms   r0,(0002)
000A:E185 33           stw   (r3)
000A:E186 D3           inc   r3
000A:E187 D3           inc   r3
000A:E188 B7 33        stw   (r3)
000A:E18A D3           inc   r3
000A:E18B D3           inc   r3
000A:E18C B6 33        stw   (r3)
000A:E18E D3           inc   r3
000A:E18F D3           inc   r3
000A:E190 3E F3 CA 29  sm    (29CA),r3
000A:E194 22 52        add   r2
000A:E196 94           link  #04
000A:E197 FF 52 D3     iwt   r15,#D352
000A:E19A 2B 3D F3 CA+ lm    r3,(29CA)
000A:E19F 3D A0 00     lms   r0,(0000)
000A:E1A2 33           stw   (r3)
000A:E1A3 D3           inc   r3
000A:E1A4 D3           inc   r3
000A:E1A5 3D A0 01     lms   r0,(0002)
000A:E1A8 33           stw   (r3)
000A:E1A9 D3           inc   r3
000A:E1AA D3           inc   r3
000A:E1AB B7 33        stw   (r3)
000A:E1AD D3           inc   r3
000A:E1AE D3           inc   r3
000A:E1AF B6 33        stw   (r3)
000A:E1B1 D3           inc   r3
000A:E1B2 D3           inc   r3
000A:E1B3 3E F3 CA 29  sm    (29CA),r3
000A:E1B7 22 52        add   r2
000A:E1B9 F0 E0 11     iwt   r0,#11E0
000A:E1BC 14 51        add   r1
000A:E1BE 17 44        ldw   (r4)
000A:E1C0 B2 3E 76     and   #06
000A:E1C3 09 46        beq   E20B
000A:E1C5 01           nop
000A:E1C6 A3 01        ibt   r3,#0001
000A:E1C8 3E 64        sub   #04
000A:E1CA 0A 03        bpl   E1CF
000A:E1CC 01           nop
000A:E1CD A3 FF        ibt   r3,#FFFF
000A:E1CF 3D C7        xor   r7
000A:E1D1 0A 38        bpl   E20B
000A:E1D3 01           nop
000A:E1D4 29 53        add   r3
000A:E1D6 F0 62 0F     iwt   r0,#0F62
000A:E1D9 51           add   r1
000A:E1DA 15 40        ldw   (r0)
000A:E1DC F0 C0 00     iwt   r0,#00C0
000A:E1DF 75           and   r5
000A:E1E0 09 29        beq   E20B
000A:E1E2 D2           inc   r2
000A:E1E3 4D           swap
000A:E1E4 0B 24        bmi   E20A
000A:E1E6 60           sub   r0
000A:E1E7 44           ldw   (r4)
000A:E1E8 1B 3D C3     xor   r3
000A:E1EB 0A 1E        bpl   E20B
000A:E1ED 4F           not
000A:E1EE 25 4D        swap
000A:E1F0 25 3E 74     and   #04
000A:E1F3 09 02        beq   E1F7
000A:E1F5 D0           inc   r0
000A:E1F6 60           sub   r0
000A:E1F7 90           sbk
000A:E1F8 F0 C0 13     iwt   r0,#13C0
000A:E1FB 51           add   r1
000A:E1FC 40           ldw   (r0)
000A:E1FD 3F C2        xor   #02
000A:E1FF 90           sbk
000A:E200 F0 A0 15     iwt   r0,#15A0
000A:E203 51           add   r1
000A:E204 40           ldw   (r0)
000A:E205 4F           not
000A:E206 D0           inc   r0
000A:E207 05 02        bra   E20B
000A:E209 90           sbk
000A:E20A 34           stw   (r4)
000A:E20B FF 84 E2     iwt   r15,#E284
000A:E20E 01           nop
000A:E20F 94           link  #04
000A:E210 FF 72 D3     iwt   r15,#D372
000A:E213 2B 3D F3 CA+ lm    r3,(29CA)
000A:E218 F0 C2 18     iwt   r0,#18C2
000A:E21B 51           add   r1
000A:E21C B3 30        stw   (r0)
000A:E21E 3D A0 00     lms   r0,(0000)
000A:E221 33           stw   (r3)
000A:E222 D3           inc   r3
000A:E223 D3           inc   r3
000A:E224 3D A0 01     lms   r0,(0002)
000A:E227 33           stw   (r3)
000A:E228 D3           inc   r3
000A:E229 D3           inc   r3
000A:E22A B7 33        stw   (r3)
000A:E22C D3           inc   r3
000A:E22D D3           inc   r3
000A:E22E B6 33        stw   (r3)
000A:E230 D3           inc   r3
000A:E231 D3           inc   r3
000A:E232 3E F3 CA 29  sm    (29CA),r3
000A:E236 22 52        add   r2
000A:E238 22 52        add   r2
000A:E23A A3 01        ibt   r3,#0001
000A:E23C 94           link  #04
000A:E23D FF B0 D3     iwt   r15,#D3B0
000A:E240 3E 3D F3 CA+ lm    r3,(29CA)
000A:E245 3D A0 00     lms   r0,(0000)
000A:E248 33           stw   (r3)
000A:E249 D3           inc   r3
000A:E24A D3           inc   r3
000A:E24B 3D A0 01     lms   r0,(0002)
000A:E24E 33           stw   (r3)
000A:E24F D3           inc   r3
000A:E250 D3           inc   r3
000A:E251 B7 33        stw   (r3)
000A:E253 D3           inc   r3
000A:E254 D3           inc   r3
000A:E255 B6 33        stw   (r3)
000A:E257 D3           inc   r3
000A:E258 D3           inc   r3
000A:E259 3E F3 CA 29  sm    (29CA),r3
000A:E25D 22 52        add   r2
000A:E25F A3 FF        ibt   r3,#FFFF
000A:E261 94           link  #04
000A:E262 FF B0 D3     iwt   r15,#D3B0
000A:E265 3E 3D F3 CA+ lm    r3,(29CA)
000A:E26A 3D A0 00     lms   r0,(0000)
000A:E26D 33           stw   (r3)
000A:E26E D3           inc   r3
000A:E26F D3           inc   r3
000A:E270 3D A0 01     lms   r0,(0002)
000A:E273 33           stw   (r3)
000A:E274 D3           inc   r3
000A:E275 D3           inc   r3
000A:E276 B7 33        stw   (r3)
000A:E278 D3           inc   r3
000A:E279 D3           inc   r3
000A:E27A B6 33        stw   (r3)
000A:E27C D3           inc   r3
000A:E27D D3           inc   r3
000A:E27E 3E F3 CA 29  sm    (29CA),r3
000A:E282 22 52        add   r2
000A:E284 A3 10        ibt   r3,#0010
000A:E286 94           link  #04
000A:E287 FF B5 D1     iwt   r15,#D1B5
000A:E28A 3E 3D F3 CA+ lm    r3,(29CA)
000A:E28F 3D A0 00     lms   r0,(0000)
000A:E292 33           stw   (r3)
000A:E293 D3           inc   r3
000A:E294 D3           inc   r3
000A:E295 3D A0 01     lms   r0,(0002)
000A:E298 33           stw   (r3)
000A:E299 D3           inc   r3
000A:E29A D3           inc   r3
000A:E29B B7 33        stw   (r3)
000A:E29D D3           inc   r3
000A:E29E D3           inc   r3
000A:E29F B6 33        stw   (r3)
000A:E2A1 D3           inc   r3
000A:E2A2 D3           inc   r3
000A:E2A3 3E F3 CA 29  sm    (29CA),r3
000A:E2A7 B2 03        lsr
000A:E2A9 0C 09        bcc   E2B4
000A:E2AB 01           nop
000A:E2AC DA           inc   r10
000A:E2AD F0 E2 11     iwt   r0,#11E2
000A:E2B0 14 51        add   r1
000A:E2B2 60           sub   r0
000A:E2B3 34           stw   (r4)
000A:E2B4 22 52        add   r2
000A:E2B6 A3 F0        ibt   r3,#FFF0
000A:E2B8 94           link  #04
000A:E2B9 FF B5 D1     iwt   r15,#D1B5
000A:E2BC 3E 3D F3 CA+ lm    r3,(29CA)
000A:E2C1 3D A0 00     lms   r0,(0000)
000A:E2C4 33           stw   (r3)
000A:E2C5 D3           inc   r3
000A:E2C6 D3           inc   r3
000A:E2C7 3D A0 01     lms   r0,(0002)
000A:E2CA 33           stw   (r3)
000A:E2CB D3           inc   r3
000A:E2CC D3           inc   r3
000A:E2CD B7 33        stw   (r3)
000A:E2CF D3           inc   r3
000A:E2D0 D3           inc   r3
000A:E2D1 B6 33        stw   (r3)
000A:E2D3 D3           inc   r3
000A:E2D4 D3           inc   r3
000A:E2D5 3E F3 CA 29  sm    (29CA),r3
000A:E2D9 B2 03        lsr
000A:E2DB 0D 51        bcs   E32E
000A:E2DD 01           nop
000A:E2DE F0 20 18     iwt   r0,#1820
000A:E2E1 51           add   r1
000A:E2E2 40           ldw   (r0)
000A:E2E3 03           lsr
000A:E2E4 0C 7F        bcc   E365
000A:E2E6 01           nop
000A:E2E7 F0 63 0F     iwt   r0,#0F63
000A:E2EA 51           add   r1
000A:E2EB 16 3D 40     ldb   (r0)
000A:E2EE B6 3E 73     and   #03
000A:E2F1 09 72        beq   E365
000A:E2F3 03           lsr
000A:E2F4 F5 E0 11     iwt   r5,#11E0
000A:E2F7 25 51        add   r1
000A:E2F9 15 45        ldw   (r5)
000A:E2FB 25 4F        not
000A:E2FD 03           lsr
000A:E2FE 0D 21        bcs   E321
000A:E300 D5           inc   r5
000A:E301 B6 3E 74     and   #04
000A:E304 08 02        bne   E308
000A:E306 60           sub   r0
000A:E307 B5 90        sbk
000A:E309 A6 00        ibt   r6,#0000
000A:E30B F0 A1 10     iwt   r0,#10A1
000A:E30E 51           add   r1
000A:E30F B6 3D 30     stb   (r0)
000A:E312 F0 C0 13     iwt   r0,#13C0
000A:E315 51           add   r1
000A:E316 40           ldw   (r0)
000A:E317 3F C2        xor   #02
000A:E319 90           sbk
000A:E31A F0 A0 15     iwt   r0,#15A0
000A:E31D 51           add   r1
000A:E31E 40           ldw   (r0)
000A:E31F 4F           not
000A:E320 D0           inc   r0
000A:E321 90           sbk
000A:E322 F0 2E 27     iwt   r0,#272E
000A:E325 51           add   r1
000A:E326 19 40        ldw   (r0)
000A:E328 D0           inc   r0
000A:E329 D0           inc   r0
000A:E32A 1A           to    r10
000A:E32B 05 16        bra   E343
000A:E32D 40           ldw   (r0)
000A:E32E 2A 54        add   r4
000A:E330 A6 FF        ibt   r6,#FFFF
000A:E332 F0 41 11     iwt   r0,#1141
000A:E335 51           add   r1
000A:E336 B6 3D 30     stb   (r0)
000A:E339 F0 2E 27     iwt   r0,#272E
000A:E33C 51           add   r1
000A:E33D B9 30        stw   (r0)
000A:E33F D0           inc   r0
000A:E340 D0           inc   r0
000A:E341 BA 30        stw   (r0)
000A:E343 3D A6 08     lms   r6,(0010)
000A:E346 F0 C2 0E     iwt   r0,#0EC2
000A:E349 51           add   r1
000A:E34A B6 3D 30     stb   (r0)
000A:E34D 60           sub   r0
000A:E34E 3E A0 08     sms   (0010),r0
000A:E351 F0 62 0F     iwt   r0,#0F62
000A:E354 51           add   r1
000A:E355 40           ldw   (r0)
000A:E356 A6 20        ibt   r6,#0020
000A:E358 76           and   r6
000A:E359 08 0A        bne   E365
000A:E35B 01           nop
000A:E35C F0 E2 11     iwt   r0,#11E2
000A:E35F 14 51        add   r1
000A:E361 F0 00 01     iwt   r0,#0100
000A:E364 34           stw   (r4)
000A:E365 3D A5 08     lms   r5,(0010)
000A:E368 F0 8E 26     iwt   r0,#268E
000A:E36B 51           add   r1
000A:E36C B5 30        stw   (r0)
000A:E36E F0 A2 10     iwt   r0,#10A2
000A:E371 51           add   r1
000A:E372 B9 30        stw   (r0)
000A:E374 F0 E0 16     iwt   r0,#16E0
000A:E377 51           add   r1
000A:E378 40           ldw   (r0)
000A:E379 2A 60        sub   r0
000A:E37B F0 42 11     iwt   r0,#1142
000A:E37E 51           add   r1
000A:E37F BA 30        stw   (r0)
000A:E381 FF 7F D0     iwt   r15,#D07F
000A:E384 D1           inc   r1
000A:E385 94           link  #04
000A:E386 FF 62 D3     iwt   r15,#D362
000A:E389 2B 2B 13     move  r3,r11
000A:E38C 94           link  #04
000A:E38D FF 01 D4     iwt   r15,#D401
000A:E390 A0 23        ibt   r0,#0023
000A:E392 1B 3D F3 CA+ lm    r3,(29CA)
000A:E397 F0 C2 18     iwt   r0,#18C2
000A:E39A 51           add   r1
000A:E39B B3 30        stw   (r0)
000A:E39D 3D A0 00     lms   r0,(0000)
000A:E3A0 33           stw   (r3)
000A:E3A1 D3           inc   r3
000A:E3A2 D3           inc   r3
000A:E3A3 3D A0 01     lms   r0,(0002)
000A:E3A6 33           stw   (r3)
000A:E3A7 D3           inc   r3
000A:E3A8 D3           inc   r3
000A:E3A9 B7 33        stw   (r3)
000A:E3AB D3           inc   r3
000A:E3AC D3           inc   r3
000A:E3AD B6 33        stw   (r3)
000A:E3AF D3           inc   r3
000A:E3B0 D3           inc   r3
000A:E3B1 3E F3 CA 29  sm    (29CA),r3
000A:E3B5 22 52        add   r2
000A:E3B7 22 52        add   r2
000A:E3B9 94           link  #04
000A:E3BA FF 62 D3     iwt   r15,#D362
000A:E3BD 2B 3D F3 CA+ lm    r3,(29CA)
000A:E3C2 05 10        bra   E3D4
000A:E3C4 01           nop
000A:E3C5 94           link  #04
000A:E3C6 FF 62 D3     iwt   r15,#D362
000A:E3C9 2B 3D F3 CA+ lm    r3,(29CA)
000A:E3CE F0 C2 18     iwt   r0,#18C2
000A:E3D1 51           add   r1
000A:E3D2 B3 30        stw   (r0)
000A:E3D4 3D A0 00     lms   r0,(0000)
000A:E3D7 33           stw   (r3)
000A:E3D8 D3           inc   r3
000A:E3D9 D3           inc   r3
000A:E3DA 3D A0 01     lms   r0,(0002)
000A:E3DD 33           stw   (r3)
000A:E3DE D3           inc   r3
000A:E3DF D3           inc   r3
000A:E3E0 B7 33        stw   (r3)
000A:E3E2 D3           inc   r3
000A:E3E3 D3           inc   r3
000A:E3E4 B6 33        stw   (r3)
000A:E3E6 D3           inc   r3
000A:E3E7 D3           inc   r3
000A:E3E8 3E F3 CA 29  sm    (29CA),r3
000A:E3EC 22 52        add   r2
000A:E3EE 94           link  #04
000A:E3EF FF 62 D3     iwt   r15,#D362
000A:E3F2 2B 3D F3 CA+ lm    r3,(29CA)
000A:E3F7 3D A0 00     lms   r0,(0000)
000A:E3FA 33           stw   (r3)
000A:E3FB D3           inc   r3
000A:E3FC D3           inc   r3
000A:E3FD 3D A0 01     lms   r0,(0002)
000A:E400 33           stw   (r3)
000A:E401 D3           inc   r3
000A:E402 D3           inc   r3
000A:E403 B7 33        stw   (r3)
000A:E405 D3           inc   r3
000A:E406 D3           inc   r3
000A:E407 B6 33        stw   (r3)
000A:E409 D3           inc   r3
000A:E40A D3           inc   r3
000A:E40B 3E F3 CA 29  sm    (29CA),r3
000A:E40F 22 52        add   r2
000A:E411 94           link  #04
000A:E412 FF 62 D3     iwt   r15,#D362
000A:E415 2B 3D F3 CA+ lm    r3,(29CA)
000A:E41A 3D A0 00     lms   r0,(0000)
000A:E41D 33           stw   (r3)
000A:E41E D3           inc   r3
000A:E41F D3           inc   r3
000A:E420 3D A0 01     lms   r0,(0002)
000A:E423 33           stw   (r3)
000A:E424 D3           inc   r3
000A:E425 D3           inc   r3
000A:E426 B7 33        stw   (r3)
000A:E428 D3           inc   r3
000A:E429 D3           inc   r3
000A:E42A B6 33        stw   (r3)
000A:E42C D3           inc   r3
000A:E42D D3           inc   r3
000A:E42E 3E F3 CA 29  sm    (29CA),r3
000A:E432 22 52        add   r2
000A:E434 94           link  #04
000A:E435 FF 62 D3     iwt   r15,#D362
000A:E438 2B 3D F3 CA+ lm    r3,(29CA)
000A:E43D 3D A0 00     lms   r0,(0000)
000A:E440 33           stw   (r3)
000A:E441 D3           inc   r3
000A:E442 D3           inc   r3
000A:E443 3D A0 01     lms   r0,(0002)
000A:E446 33           stw   (r3)
000A:E447 D3           inc   r3
000A:E448 D3           inc   r3
000A:E449 B7 33        stw   (r3)
000A:E44B D3           inc   r3
000A:E44C D3           inc   r3
000A:E44D B6 33        stw   (r3)
000A:E44F D3           inc   r3
000A:E450 D3           inc   r3
000A:E451 3E F3 CA 29  sm    (29CA),r3
000A:E455 FF 7F D0     iwt   r15,#D07F
000A:E458 D1           inc   r1
000A:E459 94           link  #04
000A:E45A FF 72 D3     iwt   r15,#D372
000A:E45D 2B 3D F3 CA+ lm    r3,(29CA)
000A:E462 F0 C2 18     iwt   r0,#18C2
000A:E465 51           add   r1
000A:E466 B3 30        stw   (r0)
000A:E468 3D A0 00     lms   r0,(0000)
000A:E46B 33           stw   (r3)
000A:E46C D3           inc   r3
000A:E46D D3           inc   r3
000A:E46E 3D A0 01     lms   r0,(0002)
000A:E471 33           stw   (r3)
000A:E472 D3           inc   r3
000A:E473 D3           inc   r3
000A:E474 B7 33        stw   (r3)
000A:E476 D3           inc   r3
000A:E477 D3           inc   r3
000A:E478 B6 33        stw   (r3)
000A:E47A D3           inc   r3
000A:E47B D3           inc   r3
000A:E47C 3E F3 CA 29  sm    (29CA),r3
000A:E480 FF 7F D0     iwt   r15,#D07F
000A:E483 D1           inc   r1
000A:E484 B6 C0        hib
000A:E486 A5 7A        ibt   r5,#007A
000A:E488 65           sub   r5
000A:E489 08 2D        bne   E4B8
000A:E48B 01           nop
000A:E48C F4 00 04     iwt   r4,#0400
000A:E48F F5 00 FC     iwt   r5,#FC00
000A:E492 3D A0 1F     lms   r0,(003E)
000A:E495 4F           not
000A:E496 D0           inc   r0
000A:E497 50           add   r0
000A:E498 3F 64        cmp   r4
000A:E49A 0B 03        bmi   E49F
000A:E49C 01           nop
000A:E49D 24 10        move  r0,r4
000A:E49F 3F 65        cmp   r5
000A:E4A1 0A 03        bpl   E4A6
000A:E4A3 01           nop
000A:E4A4 25 10        move  r0,r5
000A:E4A6 90           sbk
000A:E4A7 23 B3        moves r3,r3
000A:E4A9 08 06        bne   E4B1
000A:E4AB 3E F0 20 12  sm    (1220),r0
000A:E4AF 9B           jmp   r11
000A:E4B0 01           nop
000A:E4B1 3E F0 22 12  sm    (1222),r0
000A:E4B5 22 3F 71     bic   #01
000A:E4B8 9B           jmp   r11
000A:E4B9 01           nop
000A:E4BA 94           link  #04
000A:E4BB FF 72 D3     iwt   r15,#D372
000A:E4BE 2B 22 52     add   r2
000A:E4C1 22 52        add   r2
000A:E4C3 3D F0 20 12  lm    r0,(1220)
000A:E4C7 3E A0 1F     sms   (003E),r0
000A:E4CA E0           dec   r0
000A:E4CB 0A 1E        bpl   E4EB
000A:E4CD 01           nop
000A:E4CE A3 01        ibt   r3,#0001
000A:E4D0 94           link  #04
000A:E4D1 FF B0 D3     iwt   r15,#D3B0
000A:E4D4 3E A3 00     sms   (0000),r3
000A:E4D7 94           link  #04
000A:E4D8 FF 84 E4     iwt   r15,#E484
000A:E4DB 01           nop
000A:E4DC 3D F0 20 12  lm    r0,(1220)
000A:E4E0 3E 60        sub   #00
000A:E4E2 09 0A        beq   E4EE
000A:E4E4 22 52        add   r2
000A:E4E6 DE           inc   r14
000A:E4E7 DE           inc   r14
000A:E4E8 05 14        bra   E4FE
000A:E4EA 22 DE        inc   r14
000A:E4EC DE           inc   r14
000A:E4ED 22 52        add   r2
000A:E4EF A3 FF        ibt   r3,#FFFF
000A:E4F1 94           link  #04
000A:E4F2 FF B0 D3     iwt   r15,#D3B0
000A:E4F5 3E A3 00     sms   (0000),r3
000A:E4F8 94           link  #04
000A:E4F9 FF 84 E4     iwt   r15,#E484
000A:E4FC 01           nop
000A:E4FD 22 52        add   r2
000A:E4FF 3D F0 22 12  lm    r0,(1222)
000A:E503 3E A0 1F     sms   (003E),r0
000A:E506 A3 10        ibt   r3,#0010
000A:E508 94           link  #04
000A:E509 FF A3 D1     iwt   r15,#D1A3
000A:E50C 3E B2 03     ???
000A:E50F 0C 0E        bcc   E51F
000A:E511 01           nop
000A:E512 DA           inc   r10
000A:E513 60           sub   r0
000A:E514 3E F0 22 12  sm    (1222),r0
000A:E518 A3 01        ibt   r3,#0001
000A:E51A 94           link  #04
000A:E51B FF 84 E4     iwt   r15,#E484
000A:E51E 01           nop
000A:E51F 22 52        add   r2
000A:E521 A3 F0        ibt   r3,#FFF0
000A:E523 94           link  #04
000A:E524 FF B5 D1     iwt   r15,#D1B5
000A:E527 3E B2 03     ???
000A:E52A 0C 08        bcc   E534
000A:E52C B7 3E 71     and   #01
000A:E52F 09 06        beq   E537
000A:E531 22 3F 71     bic   #01
000A:E534 05 2F        bra   E565
000A:E536 01           nop
000A:E537 2A 54        add   r4
000A:E539 A3 FF        ibt   r3,#FFFF
000A:E53B F0 41 11     iwt   r0,#1141
000A:E53E 51           add   r1
000A:E53F B3 3D 30     stb   (r0)
000A:E542 F0 2E 27     iwt   r0,#272E
000A:E545 51           add   r1
000A:E546 B9 30        stw   (r0)
000A:E548 D0           inc   r0
000A:E549 D0           inc   r0
000A:E54A BA 30        stw   (r0)
000A:E54C 3D A3 08     lms   r3,(0010)
000A:E54F 3E F3 02 0F  sm    (0F02),r3
000A:E553 60           sub   r0
000A:E554 3E A0 08     sms   (0010),r0
000A:E557 F0 00 01     iwt   r0,#0100
000A:E55A 3E F0 22 12  sm    (1222),r0
000A:E55E A3 01        ibt   r3,#0001
000A:E560 94           link  #04
000A:E561 FF 84 E4     iwt   r15,#E484
000A:E564 01           nop
000A:E565 3D A5 08     lms   r5,(0010)
000A:E568 F0 8E 26     iwt   r0,#268E
000A:E56B 51           add   r1
000A:E56C B5 30        stw   (r0)
000A:E56E 3E F9 E2 10  sm    (10E2),r9
000A:E572 3D F0 20 17  lm    r0,(1720)
000A:E576 2A 60        sub   r0
000A:E578 3E FA 82 11  sm    (1182),r10
000A:E57C FF 7F D0     iwt   r15,#D07F
000A:E57F D1           inc   r1
000A:E580 F0 E0 11     iwt   r0,#11E0
000A:E583 51           add   r1
000A:E584 40           ldw   (r0)
000A:E585 E0           dec   r0
000A:E586 0A 17        bpl   E59F
000A:E588 22 A3 01     ibt   r3,#0001
000A:E58B 94           link  #04
000A:E58C FF 87 D3     iwt   r15,#D387
000A:E58F 3E F0 E0 11  sm    (11E0),r0
000A:E593 51           add   r1
000A:E594 40           ldw   (r0)
000A:E595 3E 60        sub   #00
000A:E597 09 06        beq   E59F
000A:E599 22 52        add   r2
000A:E59B 05 0B        bra   E5A8
000A:E59D 22 22 52     add   r2
000A:E5A0 A3 FF        ibt   r3,#FFFF
000A:E5A2 94           link  #04
000A:E5A3 FF 87 D3     iwt   r15,#D387
000A:E5A6 3E 22 52     add   #02
000A:E5A9 22 52        add   r2
000A:E5AB A3 F0        ibt   r3,#FFF0
000A:E5AD 94           link  #04
000A:E5AE FF 69 D1     iwt   r15,#D169
000A:E5B1 3E B2 03     ???
000A:E5B4 0C 2C        bcc   E5E2
000A:E5B6 2A 54        add   r4
000A:E5B8 A3 FF        ibt   r3,#FFFF
000A:E5BA F0 41 11     iwt   r0,#1141
000A:E5BD 51           add   r1
000A:E5BE B3 3D 30     stb   (r0)
000A:E5C1 F0 2E 27     iwt   r0,#272E
000A:E5C4 51           add   r1
000A:E5C5 B9 30        stw   (r0)
000A:E5C7 D0           inc   r0
000A:E5C8 D0           inc   r0
000A:E5C9 BA 30        stw   (r0)
000A:E5CB 3D A3 08     lms   r3,(0010)
000A:E5CE F0 C2 0E     iwt   r0,#0EC2
000A:E5D1 51           add   r1
000A:E5D2 B3 3D 30     stb   (r0)
000A:E5D5 60           sub   r0
000A:E5D6 3E A0 08     sms   (0010),r0
000A:E5D9 F3 00 01     iwt   r3,#0100
000A:E5DC F0 22 12     iwt   r0,#1222
000A:E5DF 51           add   r1
000A:E5E0 B3 30        stw   (r0)
000A:E5E2 3D A5 08     lms   r5,(0010)
000A:E5E5 F0 8E 26     iwt   r0,#268E
000A:E5E8 51           add   r1
000A:E5E9 B5 30        stw   (r0)
000A:E5EB F0 A2 10     iwt   r0,#10A2
000A:E5EE 51           add   r1
000A:E5EF B9 30        stw   (r0)
000A:E5F1 F0 E0 16     iwt   r0,#16E0
000A:E5F4 51           add   r1
000A:E5F5 40           ldw   (r0)
000A:E5F6 2A 60        sub   r0
000A:E5F8 F0 42 11     iwt   r0,#1142
000A:E5FB 51           add   r1
000A:E5FC BA 30        stw   (r0)
000A:E5FE FF 7F D0     iwt   r15,#D07F
000A:E601 D1           inc   r1
000A:E602 A0 0B        ibt   r0,#000B
000A:E604 3F DF        romb
000A:E606 F0 60 18     iwt   r0,#1860
000A:E609 5A           add   r10
000A:E60A 16 40        ldw   (r0)
000A:E60C B6 77        and   r7
000A:E60E 08 19        bne   E629
000A:E610 B6 3E 7F     and   #0F
000A:E613 09 09        beq   E61E
000A:E615 94           link  #04
000A:E616 FF 94 E6     iwt   r15,#E694
000A:E619 01           nop
000A:E61A 60           sub   r0
000A:E61B 00           stop
000A:E61C 01           nop
000A:E61D 94           link  #04
000A:E61E FF B5 E6     iwt   r15,#E6B5
000A:E621 01           nop
000A:E622 24 3E 5A     add   #0A
000A:E625 A0 0B        ibt   r0,#000B
000A:E627 3F DF        romb
000A:E629 A6 00        ibt   r6,#0000
000A:E62B F0 D7 19     iwt   r0,#19D7
000A:E62E 5A           add   r10
000A:E62F B6 3D 30     stb   (r0)
000A:E632 F0 43 88     iwt   r0,#8843
000A:E635 1E 54        add   r4
000A:E637 16 3F EF     getbs
000A:E63A F0 20 12     iwt   r0,#1220
000A:E63D 5A           add   r10
000A:E63E B6 30        stw   (r0)
000A:E640 F0 6B 88     iwt   r0,#886B
000A:E643 1E 54        add   r4
000A:E645 16 3F EF     getbs
000A:E648 F0 22 12     iwt   r0,#1222
000A:E64B 5A           add   r10
000A:E64C B6 30        stw   (r0)
000A:E64E F0 93 88     iwt   r0,#8893
000A:E651 1E 54        add   r4
000A:E653 16 EF        getb
000A:E655 F0 02 19     iwt   r0,#1902
000A:E658 5A           add   r10
000A:E659 B6 30        stw   (r0)
000A:E65B F0 BB 88     iwt   r0,#88BB
000A:E65E 1E 54        add   r4
000A:E660 EF           getb
000A:E661 16 3E 71     and   #01
000A:E664 09 04        beq   E66A
000A:E666 01           nop
000A:E667 4D           swap
000A:E668 D0           inc   r0
000A:E669 4D           swap
000A:E66A 3F 71        bic   #01
000A:E66C 3E A0 0C     sms   (0018),r0
000A:E66F F0 E3 88     iwt   r0,#88E3
000A:E672 1E 54        add   r4
000A:E674 16 3F EF     getbs
000A:E677 F0 E2 10     iwt   r0,#10E2
000A:E67A 5A           add   r10
000A:E67B 40           ldw   (r0)
000A:E67C 3F 7F        bic   #0F
000A:E67E 56           add   r6
000A:E67F 90           sbk
000A:E680 F0 0B 89     iwt   r0,#890B
000A:E683 1E 54        add   r4
000A:E685 16 3F EF     getbs
000A:E688 F0 82 11     iwt   r0,#1182
000A:E68B 5A           add   r10
000A:E68C 40           ldw   (r0)
000A:E68D 3F 7F        bic   #0F
000A:E68F 56           add   r6
000A:E690 90           sbk
000A:E691 60           sub   r0
000A:E692 00           stop
000A:E693 01           nop
000A:E694 B3 3E 6B     sub   #0B
000A:E697 09 22        beq   E6BB
000A:E699 60           sub   r0
000A:E69A 3E A0 0E     sms   (001C),r0
000A:E69D 3E A4 04     sms   (0008),r4
000A:E6A0 F0 97 89     iwt   r0,#8997
000A:E6A3 1E 54        add   r4
000A:E6A5 EF           getb
000A:E6A6 F6 E2 10     iwt   r6,#10E2
000A:E6A9 26 5A        add   r10
000A:E6AB 16 46        ldw   (r6)
000A:E6AD 18 56        add   r6
000A:E6AF F0 A1 89     iwt   r0,#89A1
000A:E6B2 05 25        bra   E6D9
000A:E6B4 1E B3 3E 61  sub   #01
000A:E6B8 09 E0        beq   E69A
000A:E6BA 60           sub   r0
000A:E6BB A0 0A        ibt   r0,#000A
000A:E6BD 3E A0 0E     sms   (001C),r0
000A:E6C0 3E A4 04     sms   (0008),r4
000A:E6C3 B7 14 96     asr
000A:E6C6 F0 AB 89     iwt   r0,#89AB
000A:E6C9 1E 54        add   r4
000A:E6CB EF           getb
000A:E6CC F6 E2 10     iwt   r6,#10E2
000A:E6CF 26 5A        add   r10
000A:E6D1 16 46        ldw   (r6)
000A:E6D3 18 56        add   r6
000A:E6D5 F0 B0 89     iwt   r0,#89B0
000A:E6D8 1E 54        add   r4
000A:E6DA EF           getb
000A:E6DB F6 82 11     iwt   r6,#1182
000A:E6DE 26 5A        add   r10
000A:E6E0 16 46        ldw   (r6)
000A:E6E2 56           add   r6
000A:E6E3 3E AA 10     sms   (0020),r10
000A:E6E6 3E AB 35     sms   (006A),r11
000A:E6E9 A6 0A        ibt   r6,#000A
000A:E6EB B6 3F DF     romb
000A:E6EE 94           link  #04
000A:E6EF FF 96 D0     iwt   r15,#D096
000A:E6F2 3D A0 0B     lms   r0,(0016)
000A:E6F5 3F DF        romb
000A:E6F7 3D AB 35     lms   r11,(006A)
000A:E6FA 3D AA 10     lms   r10,(0020)
000A:E6FD 3D A4 04     lms   r4,(0008)
000A:E700 B7 3E 74     and   #04
000A:E703 08 05        bne   E70A
000A:E705 01           nop
000A:E706 FF AC E7     iwt   r15,#E7AC
000A:E709 01           nop
000A:E70A 3D A0 0E     lms   r0,(001C)
000A:E70D 24 50        add   r0
000A:E70F F0 33 89     iwt   r0,#8933
000A:E712 1E 54        add   r4
000A:E714 16 3F EF     getbs
000A:E717 F0 20 12     iwt   r0,#1220
000A:E71A 5A           add   r10
000A:E71B B6 30        stw   (r0)
000A:E71D F0 47 89     iwt   r0,#8947
000A:E720 1E 54        add   r4
000A:E722 16 3F EF     getbs
000A:E725 F0 22 12     iwt   r0,#1222
000A:E728 5A           add   r10
000A:E729 B6 30        stw   (r0)
000A:E72B F0 5B 89     iwt   r0,#895B
000A:E72E 1E 54        add   r4
000A:E730 EF           getb
000A:E731 16 3E 71     and   #01
000A:E734 09 04        beq   E73A
000A:E736 01           nop
000A:E737 4D           swap
000A:E738 D0           inc   r0
000A:E739 4D           swap
000A:E73A 3F 71        bic   #01
000A:E73C 3E A0 0C     sms   (0018),r0
000A:E73F F0 D7 19     iwt   r0,#19D7
000A:E742 5A           add   r10
000A:E743 3D 40        ldb   (r0)
000A:E745 3E 60        sub   #00
000A:E747 08 61        bne   E7AA
000A:E749 60           sub   r0
000A:E74A F0 6F 89     iwt   r0,#896F
000A:E74D 1E 54        add   r4
000A:E74F 16 EF        getb
000A:E751 F0 E2 10     iwt   r0,#10E2
000A:E754 5A           add   r10
000A:E755 40           ldw   (r0)
000A:E756 3F 7F        bic   #0F
000A:E758 C6           or    r6
000A:E759 90           sbk
000A:E75A F0 83 89     iwt   r0,#8983
000A:E75D 1E 54        add   r4
000A:E75F 16 EF        getb
000A:E761 F0 82 11     iwt   r0,#1182
000A:E764 5A           add   r10
000A:E765 40           ldw   (r0)
000A:E766 3F 7F        bic   #0F
000A:E768 C6           or    r6
000A:E769 90           sbk
000A:E76A A6 00        ibt   r6,#0000
000A:E76C F0 E1 10     iwt   r0,#10E1
000A:E76F 5A           add   r10
000A:E770 B6 3D 30     stb   (r0)
000A:E773 F0 81 11     iwt   r0,#1181
000A:E776 5A           add   r10
000A:E777 B6 3D 30     stb   (r0)
000A:E77A A6 FF        ibt   r6,#FFFF
000A:E77C F0 20 12     iwt   r0,#1220
000A:E77F 5A           add   r10
000A:E780 40           ldw   (r0)
000A:E781 3E 60        sub   #00
000A:E783 0A 08        bpl   E78D
000A:E785 01           nop
000A:E786 F0 E1 10     iwt   r0,#10E1
000A:E789 5A           add   r10
000A:E78A B6 3D 30     stb   (r0)
000A:E78D F0 22 12     iwt   r0,#1222
000A:E790 5A           add   r10
000A:E791 40           ldw   (r0)
000A:E792 3E 60        sub   #00
000A:E794 0A 08        bpl   E79E
000A:E796 01           nop
000A:E797 F0 81 11     iwt   r0,#1181
000A:E79A 5A           add   r10
000A:E79B B6 3D 30     stb   (r0)
000A:E79E 3D A6 0E     lms   r6,(001C)
000A:E7A1 D6           inc   r6
000A:E7A2 F0 D7 19     iwt   r0,#19D7
000A:E7A5 5A           add   r10
000A:E7A6 B6 3D 30     stb   (r0)
000A:E7A9 60           sub   r0
000A:E7AA 00           stop
000A:E7AB 01           nop
000A:E7AC F0 D7 19     iwt   r0,#19D7
000A:E7AF 5A           add   r10
000A:E7B0 13 3D 40     ldb   (r0)
000A:E7B3 23 B3        moves r3,r3
000A:E7B5 09 5F        beq   E816
000A:E7B7 01           nop
000A:E7B8 E3           dec   r3
000A:E7B9 09 4C        beq   E807
000A:E7BB 01           nop
000A:E7BC F0 D9 19     iwt   r0,#19D9
000A:E7BF 5A           add   r10
000A:E7C0 16 3D 40     ldb   (r0)
000A:E7C3 F0 60 18     iwt   r0,#1860
000A:E7C6 5A           add   r10
000A:E7C7 40           ldw   (r0)
000A:E7C8 26 B6        moves r6,r6
000A:E7CA 09 04        beq   E7D0
000A:E7CC 01           nop
000A:E7CD 3E 5F        add   #0F
000A:E7CF D0           inc   r0
000A:E7D0 F6 B5 89     iwt   r6,#89B5
000A:E7D3 1E 56        add   r6
000A:E7D5 14 3F EF     getbs
000A:E7D8 24 B4        moves r4,r4
000A:E7DA 0B CE        bmi   E7AA
000A:E7DC 60           sub   r0
000A:E7DD B4 54        add   r4
000A:E7DF 95           sex
000A:E7E0 0B 25        bmi   E807
000A:E7E2 01           nop
000A:E7E3 F0 D5 89     iwt   r0,#89D5
000A:E7E6 1E 54        add   r4
000A:E7E8 3F EF        getbs
000A:E7EA F6 E2 10     iwt   r6,#10E2
000A:E7ED 26 5A        add   r10
000A:E7EF 16 46        ldw   (r6)
000A:E7F1 56           add   r6
000A:E7F2 90           sbk
000A:E7F3 F0 DF 89     iwt   r0,#89DF
000A:E7F6 1E 54        add   r4
000A:E7F8 3F EF        getbs
000A:E7FA F6 82 11     iwt   r6,#1182
000A:E7FD 26 5A        add   r10
000A:E7FF 16 46        ldw   (r6)
000A:E801 56           add   r6
000A:E802 90           sbk
000A:E803 FF 2A E6     iwt   r15,#E62A
000A:E806 A6 3D        ibt   r6,#003D
000A:E808 A0 0E        ibt   r0,#000E
000A:E80A 14 3F CA     xor   #0A
000A:E80D 3D A0 04     lms   r0,(0008)
000A:E810 24 50        add   r0
000A:E812 FF 23 E6     iwt   r15,#E623
000A:E815 24 3D A4 04  lms   r4,(0008)
000A:E819 9B           jmp   r11
000A:E81A 01           nop
000A:E81B A0 0B        ibt   r0,#000B
000A:E81D 3F DF        romb
000A:E81F F0 93 88     iwt   r0,#8893
000A:E822 1E 54        add   r4
000A:E824 14 EF        getb
000A:E826 F0 02 19     iwt   r0,#1902
000A:E829 5A           add   r10
000A:E82A B4 30        stw   (r0)
000A:E82C 24 03        lsr
000A:E82E F0 33 89     iwt   r0,#8933
000A:E831 1E 54        add   r4
000A:E833 16 3F EF     getbs
000A:E836 F0 20 12     iwt   r0,#1220
000A:E839 5A           add   r10
000A:E83A B6 30        stw   (r0)
000A:E83C F0 47 89     iwt   r0,#8947
000A:E83F 1E 54        add   r4
000A:E841 16 3F EF     getbs
000A:E844 F0 22 12     iwt   r0,#1222
000A:E847 5A           add   r10
000A:E848 B6 30        stw   (r0)
000A:E84A F0 5B 89     iwt   r0,#895B
000A:E84D 1E 54        add   r4
000A:E84F EF           getb
000A:E850 16 3E 71     and   #01
000A:E853 09 04        beq   E859
000A:E855 01           nop
000A:E856 4D           swap
000A:E857 D0           inc   r0
000A:E858 4D           swap
000A:E859 3F 71        bic   #01
000A:E85B 3E A0 0C     sms   (0018),r0
000A:E85E 00           stop
000A:E85F 01           nop
000A:E860 E3           dec   r3
000A:E861 9E           lob
000A:E862 49           ldw   (r9)
000A:E863 34           stw   (r4)
000A:E864 A0 0A        ibt   r0,#000A
000A:E866 3F DF        romb
000A:E868 A2 00        ibt   r2,#0000
000A:E86A 25 95        sex
000A:E86C 0B 09        bmi   E877
000A:E86E 01           nop
000A:E86F 3D A0 14     lms   r0,(0028)
000A:E872 4F           not
000A:E873 D0           inc   r0
000A:E874 90           sbk
000A:E875 A2 02        ibt   r2,#0002
000A:E877 A3 20        ibt   r3,#0020
000A:E879 F1 60 E8     iwt   r1,#E860
000A:E87C B6 C0        hib
000A:E87E 63           sub   r3
000A:E87F 9E           lob
000A:E880 50           add   r0
000A:E881 50           add   r0
000A:E882 C0           hib
000A:E883 52           add   r2
000A:E884 3E 73        and   #03
000A:E886 1E 51        add   r1
000A:E888 EF           getb
000A:E889 3E A0 1D     sms   (003A),r0
000A:E88C A7 0A        ibt   r7,#000A
000A:E88E B7 3F DF     romb
000A:E891 3D A1 1D     lms   r1,(003A)
000A:E894 94           link  #04
000A:E895 FF AB E8     iwt   r15,#E8AB
000A:E898 01           nop
000A:E899 3D A0 1D     lms   r0,(003A)
000A:E89C 03           lsr
000A:E89D 03           lsr
000A:E89E 03           lsr
000A:E89F 11 03        lsr
000A:E8A1 94           link  #04
000A:E8A2 FF AB E8     iwt   r15,#E8AB
000A:E8A5 01           nop
000A:E8A6 60           sub   r0
000A:E8A7 20 11        move  r1,r0
000A:E8A9 00           stop
000A:E8AA 01           nop
000A:E8AB 3E AB 31     sms   (0062),r11
000A:E8AE 3D A2 1E     lms   r2,(003C)
000A:E8B1 B1 3E 71     and   #01
000A:E8B4 09 04        beq   E8BA
000A:E8B6 01           nop
000A:E8B7 3D A2 1F     lms   r2,(003E)
000A:E8BA B1 3E 72     and   #02
000A:E8BD 09 04        beq   E8C3
000A:E8BF 01           nop
000A:E8C0 22 4F        not
000A:E8C2 D2           inc   r2
000A:E8C3 3D A3 14     lms   r3,(0028)
000A:E8C6 3D A0 15     lms   r0,(002A)
000A:E8C9 52           add   r2
000A:E8CA 18 53        add   r3
000A:E8CC 3E A8 10     sms   (0020),r8
000A:E8CF 3D A2 1E     lms   r2,(003C)
000A:E8D2 B1 3E 74     and   #04
000A:E8D5 09 04        beq   E8DB
000A:E8D7 01           nop
000A:E8D8 3D A2 1F     lms   r2,(003E)
000A:E8DB B1 3E 78     and   #08
000A:E8DE 09 04        beq   E8E4
000A:E8E0 01           nop
000A:E8E1 22 4F        not
000A:E8E3 D2           inc   r2
000A:E8E4 3D A0 16     lms   r0,(002C)
000A:E8E7 52           add   r2
000A:E8E8 3E A0 11     sms   (0022),r0
000A:E8EB 94           link  #04
000A:E8EC FF 95 D0     iwt   r15,#D095
000A:E8EF 02           cache
000A:E8F0 B7 3E 72     and   #02
000A:E8F3 08 23        bne   E918
000A:E8F5 60           sub   r0
000A:E8F6 3D A8 10     lms   r8,(0020)
000A:E8F9 A0 06        ibt   r0,#0006
000A:E8FB 3D A1 15     lms   r1,(002A)
000A:E8FE B1 3F 68     cmp   r8
000A:E901 0A 03        bpl   E906
000A:E903 01           nop
000A:E904 4F           not
000A:E905 D0           inc   r0
000A:E906 18 58        add   r8
000A:E908 3D A0 11     lms   r0,(0022)
000A:E90B 3E 58        add   #08
000A:E90D 94           link  #04
000A:E90E FF 96 D0     iwt   r15,#D096
000A:E911 3D B7 3E 73  and   #03
000A:E915 09 05        beq   E91C
000A:E917 60           sub   r0
000A:E918 A1 01        ibt   r1,#0001
000A:E91A 00           stop
000A:E91B 01           nop
000A:E91C 3D AB 31     lms   r11,(0062)
000A:E91F 9B           jmp   r11
000A:E920 01           nop
000A:E921 A0 0A        ibt   r0,#000A
000A:E923 3F DF        romb
000A:E925 A3 00        ibt   r3,#0000
000A:E927 A4 10        ibt   r4,#0010
000A:E929 A9 F0        ibt   r9,#FFF0
000A:E92B 3D A0 4E     lms   r0,(009C)
000A:E92E 19 79        and   r9
000A:E930 FA F0 00     iwt   r10,#00F0
000A:E933 AC 08        ibt   r12,#0008
000A:E935 21 18        move  r8,r1
000A:E937 B2 59        add   r9
000A:E939 94           link  #04
000A:E93A FF 95 D0     iwt   r15,#D095
000A:E93D 02           cache
000A:E93E 3E 73        and   #03
000A:E940 08 04        bne   E946
000A:E942 01           nop
000A:E943 05 07        bra   E94C
000A:E945 D3           inc   r3
000A:E946 3E 72        and   #02
000A:E948 08 02        bne   E94C
000A:E94A 01           nop
000A:E94B D3           inc   r3
000A:E94C EC           dec   r12
000A:E94D 2F 1D        move  r13,r15
000A:E94F B2 54        add   r4
000A:E951 3F 6A        cmp   r10
000A:E953 0C 04        bcc   E959
000A:E955 01           nop
000A:E956 60           sub   r0
000A:E957 20 13        move  r3,r0
000A:E959 20 12        move  r2,r0
000A:E95B 21 18        move  r8,r1
000A:E95D B2 59        add   r9
000A:E95F 94           link  #04
000A:E960 FF 96 D0     iwt   r15,#D096
000A:E963 3D 15 3E 73  and   #03
000A:E967 08 04        bne   E96D
000A:E969 01           nop
000A:E96A 05 3B        bra   E9A7
000A:E96C D3           inc   r3
000A:E96D B3 3E 62     sub   #02
000A:E970 0C 2A        bcc   E99C
000A:E972 01           nop
000A:E973 22 59        add   r9
000A:E975 3D AB 10     lms   r11,(0020)
000A:E978 3D F0 8C 00  lm    r0,(008C)
000A:E97C 61           sub   r1
000A:E97D 0A 03        bpl   E982
000A:E97F 01           nop
000A:E980 4F           not
000A:E981 D0           inc   r0
000A:E982 6B           sub   r11
000A:E983 0A 13        bpl   E998
000A:E985 01           nop
000A:E986 3D F0 90 00  lm    r0,(0090)
000A:E98A 62           sub   r2
000A:E98B 0A 03        bpl   E990
000A:E98D 01           nop
000A:E98E 4F           not
000A:E98F D0           inc   r0
000A:E990 6B           sub   r11
000A:E991 0A 05        bpl   E998
000A:E993 01           nop
000A:E994 22           with  r2
000A:E995 05 05        bra   E99C
000A:E997 69           sub   r9
000A:E998 1A           to    r10
000A:E999 05 10        bra   E9AB
000A:E99B 60           sub   r0
000A:E99C B5 3E 72     and   #02
000A:E99F 08 04        bne   E9A5
000A:E9A1 01           nop
000A:E9A2 05 03        bra   E9A7
000A:E9A4 D3           inc   r3
000A:E9A5 13 60        sub   r0
000A:E9A7 3C           loop
000A:E9A8 01           nop
000A:E9A9 AA FF        ibt   r10,#FFFF
000A:E9AB 60           sub   r0
000A:E9AC 00           stop
000A:E9AD 01           nop
000A:E9AE 3F DF        romb
000A:E9B0 1A 60        sub   r0
000A:E9B2 F0 06 00     iwt   r0,#0006
000A:E9B5 53           add   r3
000A:E9B6 14 40        ldw   (r0)
000A:E9B8 94           link  #04
000A:E9B9 FF F8 E9     iwt   r15,#E9F8
000A:E9BC 01           nop
000A:E9BD CA           or    r10
000A:E9BE 1A 50        add   r0
000A:E9C0 F0 0E 00     iwt   r0,#000E
000A:E9C3 53           add   r3
000A:E9C4 14 40        ldw   (r0)
000A:E9C6 94           link  #04
000A:E9C7 FF F8 E9     iwt   r15,#E9F8
000A:E9CA 01           nop
000A:E9CB CA           or    r10
000A:E9CC 1A 50        add   r0
000A:E9CE F0 16 00     iwt   r0,#0016
000A:E9D1 53           add   r3
000A:E9D2 14 40        ldw   (r0)
000A:E9D4 94           link  #04
000A:E9D5 FF F8 E9     iwt   r15,#E9F8
000A:E9D8 01           nop
000A:E9D9 CA           or    r10
000A:E9DA 1A 50        add   r0
000A:E9DC F0 1E 00     iwt   r0,#001E
000A:E9DF 53           add   r3
000A:E9E0 14 40        ldw   (r0)
000A:E9E2 94           link  #04
000A:E9E3 FF F8 E9     iwt   r15,#E9F8
000A:E9E6 01           nop
000A:E9E7 CA           or    r10
000A:E9E8 1A 50        add   r0
000A:E9EA F0 26 00     iwt   r0,#0026
000A:E9ED 53           add   r3
000A:E9EE 14 40        ldw   (r0)
000A:E9F0 94           link  #04
000A:E9F1 FF F8 E9     iwt   r15,#E9F8
000A:E9F4 01           nop
000A:E9F5 CA           or    r10
000A:E9F6 00           stop
000A:E9F7 01           nop
000A:E9F8 02           cache
000A:E9F9 21 1E        move  r14,r1
000A:E9FB 22 1C        move  r12,r2
000A:E9FD 2F 1D        move  r13,r15
000A:E9FF F0 00 FF     iwt   r0,#FF00
000A:EA02 3E EF        getbl
000A:EA04 DE           inc   r14
000A:EA05 15 74        and   r4
000A:EA07 EF           getb
000A:EA08 DE           inc   r14
000A:EA09 3D EF        getbh
000A:EA0B DE           inc   r14
000A:EA0C 3F 65        cmp   r5
000A:EA0E 09 06        beq   EA16
000A:EA10 60           sub   r0
000A:EA11 3C           loop
000A:EA12 01           nop
000A:EA13 05 02        bra   EA17
000A:EA15 01           nop
000A:EA16 D0           inc   r0
000A:EA17 9B           jmp   r11
000A:EA18 01           nop
000A:EA19 AA 01        ibt   r10,#0001
000A:EA1B 2C BC        moves r12,r12
000A:EA1D 09 52        beq   EA71
000A:EA1F 01           nop
000A:EA20 0A 05        bpl   EA27
000A:EA22 2C 4F        not
000A:EA24 DC           inc   r12
000A:EA25 AA FF        ibt   r10,#FFFF
000A:EA27 F0 20 00     iwt   r0,#0020
000A:EA2A FD 24 00     iwt   r13,#0024
000A:EA2D 29 B9        moves r9,r9
000A:EA2F 09 07        beq   EA38
000A:EA31 01           nop
000A:EA32 F0 22 00     iwt   r0,#0022
000A:EA35 FD 26 00     iwt   r13,#0026
000A:EA38 3E A0 14     sms   (0028),r0
000A:EA3B 3E AD 15     sms   (002A),r13
000A:EA3E A0 0A        ibt   r0,#000A
000A:EA40 3F DF        romb
000A:EA42 2F 1D        move  r13,r15
000A:EA44 3D A8 10     lms   r8,(0020)
000A:EA47 3D A0 11     lms   r0,(0022)
000A:EA4A 94           link  #04
000A:EA4B FF 96 D0     iwt   r15,#D096
000A:EA4E 3D 3E 72     and   #02
000A:EA51 08 1F        bne   EA72
000A:EA53 60           sub   r0
000A:EA54 3D A8 12     lms   r8,(0024)
000A:EA57 3D A0 13     lms   r0,(0026)
000A:EA5A 94           link  #04
000A:EA5B FF 96 D0     iwt   r15,#D096
000A:EA5E 3D 3E 72     and   #02
000A:EA61 08 0F        bne   EA72
000A:EA63 60           sub   r0
000A:EA64 3D A0 14     lms   r0,(0028)
000A:EA67 40           ldw   (r0)
000A:EA68 5A           add   r10
000A:EA69 90           sbk
000A:EA6A 3D A0 15     lms   r0,(002A)
000A:EA6D 40           ldw   (r0)
000A:EA6E 5A           add   r10
000A:EA6F 3C           loop
000A:EA70 90           sbk
000A:EA71 60           sub   r0
000A:EA72 00           stop
000A:EA73 01           nop
000A:EA74 00           stop
000A:EA75 44           ldw   (r4)
000A:EA76 84           mult  r4
000A:EA77 04           rol
000A:EA78 00           stop
000A:EA79 00           stop
000A:EA7A 64           sub   r4
000A:EA7B 00           stop
000A:EA7C 00           stop
000A:EA7D 00           stop
000A:EA7E 21 00        stop
000A:EA80 22 00        stop
000A:EA82 23 00        stop
000A:EA84 24 00        stop
000A:EA86 25 00        stop
000A:EA88 26 00        stop
000A:EA8A 27 00        stop
000A:EA8C 27 00        stop
000A:EA8E 28 00        stop
000A:EA90 29 00        stop
000A:EA92 2A 00        stop
000A:EA94 29 00        stop
000A:EA96 28 00        stop
000A:EA98 03           lsr
000A:EA99 00           stop
000A:EA9A 02           cache
000A:EA9B 00           stop
000A:EA9C 02           cache
000A:EA9D 00           stop
000A:EA9E 02           cache
000A:EA9F 00           stop
000A:EAA0 02           cache
000A:EAA1 00           stop
000A:EAA2 08 00        bne   EAA4
000A:EAA4 00           stop
000A:EAA5 00           stop
000A:EAA6 01           nop
000A:EAA7 00           stop
000A:EAA8 01           nop
000A:EAA9 00           stop
000A:EAAA 02           cache
000A:EAAB 00           stop
000A:EAAC 01           nop
000A:EAAD 00           stop
000A:EAAE 01           nop
000A:EAAF 00           stop
000A:EAB0 00           stop
000A:EAB1 00           stop
000A:EAB2 F8 18 FC     iwt   r8,#FC18
000A:EAB5 1C 00        stop
000A:EAB7 08 04        bne   EABD
000A:EAB9 14           to    r4
000A:EABA 08 06        bne   EAC2
000A:EABC 02           cache
000A:EABD 06 FE        bge   EABD
000A:EABF 1A 02        cache
000A:EAC1 0E C0        bvc   EA83
000A:EAC3 04           rol
000A:EAC4 4E           color
000A:EAC5 01           nop
000A:EAC6 FF 00 4F     iwt   r15,#4F00
000A:EAC9 01           nop
000A:EACA 94           link  #04
000A:EACB 00           stop
000A:EACC 9E           lob
000A:EACD 00           stop
000A:EACE 95           sex
000A:EACF 00           stop
000A:EAD0 A1 00        ibt   r1,#0000
000A:EAD2 96           asr
000A:EAD3 00           stop
000A:EAD4 A1 00        ibt   r1,#0000
000A:EAD6 97           ror
000A:EAD7 00           stop
000A:EAD8 A2 00        ibt   r2,#0000
000A:EADA 98           jmp   r8
000A:EADB 00           stop
000A:EADC 9F           fmult
000A:EADD 00           stop
000A:EADE 99           jmp   r9
000A:EADF 00           stop
000A:EAE0 A0 00        ibt   r0,#0000
000A:EAE2 9A           jmp   r10
000A:EAE3 00           stop
000A:EAE4 A1 00        ibt   r1,#0000
000A:EAE6 9B           jmp   r11
000A:EAE7 00           stop
000A:EAE8 A2 00        ibt   r2,#0000
000A:EAEA 9C           jmp   r12
000A:EAEB 00           stop
000A:EAEC 9C           jmp   r12
000A:EAED 00           stop
000A:EAEE 9C           jmp   r12
000A:EAEF 00           stop
000A:EAF0 9C           jmp   r12
000A:EAF1 00           stop
000A:EAF2 9D           jmp   r13
000A:EAF3 00           stop
000A:EAF4 9D           jmp   r13
000A:EAF5 00           stop
000A:EAF6 9D           jmp   r13
000A:EAF7 00           stop
000A:EAF8 9D           jmp   r13
000A:EAF9 00           stop
000A:EAFA 9E           lob
000A:EAFB 00           stop
000A:EAFC 0F 08        bvs   EB06
000A:EAFE 07 06        blt   EB06
000A:EB00 07 04        blt   EB06
000A:EB02 07 04        blt   EB08
000A:EB04 03           lsr
000A:EB05 04           rol
000A:EB06 03           lsr
000A:EB07 04           rol
000A:EB08 01           nop
000A:EB09 04           rol
000A:EB0A 01           nop
000A:EB0B 04           rol
000A:EB0C 00           stop
000A:EB0D 04           rol
000A:EB0E 01           nop
000A:EB0F 09 01        beq   EB12
000A:EB11 17           to    r7
000A:EB12 0F 09        bvs   EB1D
000A:EB14 0F 17        bvs   EB2D
000A:EB16 06 04        bge   EB1C
000A:EB18 0A 04        bpl   EB1E
000A:EB1A 03           lsr
000A:EB1B 20           with  r0
000A:EB1C 08 20        bne   EB3E
000A:EB1E 0D 20        bcs   EB40
000A:EB20 01           nop
000A:EB21 16 01        nop
000A:EB23 17           to    r7
000A:EB24 0F 16        bvs   EB3C
000A:EB26 0F 17        bvs   EB3F
000A:EB28 06 10        bge   EB3A
000A:EB2A 0A 10        bpl   EB3C
000A:EB2C 03           lsr
000A:EB2D 20           with  r0
000A:EB2E 08 20        bne   EB50
000A:EB30 0D 20        bcs   EB52
000A:EB32 01           nop
000A:EB33 0C 01        bcc   EB36
000A:EB35 16           to    r6
000A:EB36 0F 0C        bvs   EB44
000A:EB38 0F 16        bvs   EB50
000A:EB3A 06 04        bge   EB40
000A:EB3C 0A 04        bpl   EB42
000A:EB3E 03           lsr
000A:EB3F 20           with  r0
000A:EB40 08 20        bne   EB62
000A:EB42 0D 20        bcs   EB64
000A:EB44 01           nop
000A:EB45 14 01        nop
000A:EB47 16           to    r6
000A:EB48 0F 14        bvs   EB5E
000A:EB4A 0F 16        bvs   EB62
000A:EB4C 06 10        bge   EB5E
000A:EB4E 0A 10        bpl   EB60
000A:EB50 03           lsr
000A:EB51 20           with  r0
000A:EB52 08 20        bne   EB74
000A:EB54 0D 20        bcs   EB76
000A:EB56 F3 F8 F3     iwt   r3,#F3F8
000A:EB59 00           stop
000A:EB5A 0C F8        bcc   EB54
000A:EB5C 0C 00        bcc   EB5E
000A:EB5E F7 F4 00     iwt   r7,#00F4
000A:EB61 F4 09 F4     iwt   r4,#F409
000A:EB64 F7 08 00     iwt   r7,#0008
000A:EB67 08 09        bne   EB72
000A:EB69 08 FC        bne   EB67
000A:EB6B 0C FC        bcc   EB69
000A:EB6D 18           to    r8
000A:EB6E 13           to    r3
000A:EB6F 0C 13        bcc   EB84
000A:EB71 17           to    r7
000A:EB72 07 0C        blt   EB80
000A:EB74 FC 23 08     iwt   r12,#0823
000A:EB77 23 13        move  r3,r3
000A:EB79 23 FA EB FA  iwt   r10,#FAEB
000A:EB7D F0 06 EB     iwt   r0,#EB06
000A:EB80 06 F0        bge   EB72
000A:EB82 00           stop
000A:EB83 E8           dec   r8
000A:EB84 00           stop
000A:EB85 00           stop
000A:EB86 01           nop
000A:EB87 0B 01        bmi   EB8A
000A:EB89 16           to    r6
000A:EB8A 0F 0B        bvs   EB97
000A:EB8C 0F 16        bvs   EBA4
000A:EB8E 06 07        bge   EB97
000A:EB90 0A 07        bpl   EB99
000A:EB92 03           lsr
000A:EB93 20           with  r0
000A:EB94 08 20        bne   EBB6
000A:EB96 0D 20        bcs   EBB8
000A:EB98 01           nop
000A:EB99 16 01        nop
000A:EB9B 16           to    r6
000A:EB9C 0F 16        bvs   EBB4
000A:EB9E 0F 16        bvs   EBB6
000A:EBA0 06 10        bge   EBB2
000A:EBA2 0A 10        bpl   EBB4
000A:EBA4 03           lsr
000A:EBA5 20           with  r0
000A:EBA6 08 20        bne   EBC8
000A:EBA8 0D 20        bcs   EBCA
000A:EBAA FE 08 FE     iwt   r14,#FE08
000A:EBAD 16           to    r6
000A:EBAE 12           to    r2
000A:EBAF 08 12        bne   EBC3
000A:EBB1 16 02        cache
000A:EBB3 04           rol
000A:EBB4 0E 04        bvc   EBBA
000A:EBB6 00           stop
000A:EBB7 20           with  r0
000A:EBB8 08 20        bne   EBDA
000A:EBBA 10 20 00     stop
000A:EBBD 01           nop
000A:EBBE 04           rol
000A:EBBF 84           mult  r4
000A:EBC0 00           stop
000A:EBC1 02           cache
000A:EBC2 08 88        bne   EB4C
000A:EBC4 04           rol
000A:EBC5 84           mult  r4
000A:EBC6 08 88        bne   EB50
000A:EBC8 40           ldw   (r0)
000A:EBC9 40           ldw   (r0)
000A:EBCA 40           ldw   (r0)
000A:EBCB 42           ldw   (r2)
000A:EBCC 40           ldw   (r0)
000A:EBCD 40           ldw   (r0)
000A:EBCE 41           ldw   (r1)
000A:EBCF 40           ldw   (r0)
000A:EBD0 40           ldw   (r0)
000A:EBD1 40           ldw   (r0)
000A:EBD2 48           ldw   (r8)
000A:EBD3 C8           or    r8
000A:EBD4 44           ldw   (r4)
000A:EBD5 C4           or    r4
000A:EBD6 40           ldw   (r0)
000A:EBD7 40           ldw   (r0)
000A:EBD8 04           rol
000A:EBD9 84           mult  r4
000A:EBDA 00           stop
000A:EBDB 01           nop
000A:EBDC 80           mult  r0
000A:EBDD 02           cache
000A:EBDE 04           rol
000A:EBDF 84           mult  r4
000A:EBE0 04           rol
000A:EBE1 84           mult  r4
000A:EBE2 F0 00 F1     iwt   r0,#F100
000A:EBE5 00           stop
000A:EBE6 EF           getb
000A:EBE7 00           stop
000A:EBE8 F2 00 EE     iwt   r2,#EE00
000A:EBEB 00           stop
000A:EBEC F3 00 ED     iwt   r3,#ED00
000A:EBEF 00           stop
000A:EBF0 F4 00 EC     iwt   r4,#EC00
000A:EBF3 00           stop
000A:EBF4 F5 00 EB     iwt   r5,#EB00
000A:EBF7 00           stop
000A:EBF8 F6 00 EA     iwt   r6,#EA00
000A:EBFB 00           stop
000A:EBFC F7 00 E9     iwt   r7,#E900
000A:EBFF 00           stop
000A:EC00 F8 00 E8     iwt   r8,#E800
000A:EC03 00           stop
000A:EC04 F9 00 E7     iwt   r9,#E700
000A:EC07 00           stop
000A:EC08 FA 00 E6     iwt   r10,#E600
000A:EC0B 00           stop
000A:EC0C FB 00 E5     iwt   r11,#E500
000A:EC0F 00           stop
000A:EC10 FC 00 E4     iwt   r12,#E400
000A:EC13 00           stop
000A:EC14 FD 00 E3     iwt   r13,#E300
000A:EC17 00           stop
000A:EC18 FE 00 E2     iwt   r14,#E200
000A:EC1B 00           stop
000A:EC1C FF 00 E1     iwt   r15,#E100
000A:EC1F 00           stop
000A:EC20 00           stop
000A:EC21 01           nop
000A:EC22 00           stop
000A:EC23 00           stop
000A:EC24 00           stop
000A:EC25 00           stop
000A:EC26 1F           to    r15
000A:EC27 0F 07        bvs   EC30
000A:EC29 03           lsr
000A:EC2A 03           lsr
000A:EC2B 00           stop
000A:EC2C 03           lsr
000A:EC2D 00           stop
000A:EC2E FD 00 03     iwt   r13,#0300
000A:EC31 00           stop
000A:EC32 FD 00 03     iwt   r13,#0300
000A:EC35 00           stop
000A:EC36 FD 00 03     iwt   r13,#0300
000A:EC39 00           stop
000A:EC3A FD 00 03     iwt   r13,#0300
000A:EC3D 00           stop
000A:EC3E FD 00 03     iwt   r13,#0300
000A:EC41 00           stop
000A:EC42 FD 00 03     iwt   r13,#0300
000A:EC45 00           stop
000A:EC46 FD 00 03     iwt   r13,#0300
000A:EC49 00           stop
000A:EC4A FD 00 03     iwt   r13,#0300
000A:EC4D 00           stop
000A:EC4E FD 00 03     iwt   r13,#0300
000A:EC51 00           stop
000A:EC52 FD 00 03     iwt   r13,#0300
000A:EC55 00           stop
000A:EC56 FD 00 03     iwt   r13,#0300
000A:EC59 00           stop
000A:EC5A FD 00 03     iwt   r13,#0300
000A:EC5D 00           stop
000A:EC5E FD 00 03     iwt   r13,#0300
000A:EC61 00           stop
000A:EC62 FD 00 03     iwt   r13,#0300
000A:EC65 00           stop
000A:EC66 FD 00 03     iwt   r13,#0300
000A:EC69 00           stop
000A:EC6A FD 80 01     iwt   r13,#0180
000A:EC6D 80           mult  r0
000A:EC6E FE 80 01     iwt   r14,#0180
000A:EC71 80           mult  r0
000A:EC72 FE 80 01     iwt   r14,#0180
000A:EC75 80           mult  r0
000A:EC76 FE 80 01     iwt   r14,#0180
000A:EC79 80           mult  r0
000A:EC7A FE 80 01     iwt   r14,#0180
000A:EC7D 80           mult  r0
000A:EC7E FE 80 01     iwt   r14,#0180
000A:EC81 80           mult  r0
000A:EC82 FE 80 01     iwt   r14,#0180
000A:EC85 80           mult  r0
000A:EC86 FE 80 01     iwt   r14,#0180
000A:EC89 80           mult  r0
000A:EC8A FE 80 01     iwt   r14,#0180
000A:EC8D 80           mult  r0
000A:EC8E FE 80 01     iwt   r14,#0180
000A:EC91 80           mult  r0
000A:EC92 FE 80 01     iwt   r14,#0180
000A:EC95 80           mult  r0
000A:EC96 FE 80 01     iwt   r14,#0180
000A:EC99 80           mult  r0
000A:EC9A FE 80 01     iwt   r14,#0180
000A:EC9D 80           mult  r0
000A:EC9E FE 80 01     iwt   r14,#0180
000A:ECA1 80           mult  r0
000A:ECA2 FE 80 01     iwt   r14,#0180
000A:ECA5 80           mult  r0
000A:ECA6 FE 80 01     iwt   r14,#0180
000A:ECA9 80           mult  r0
000A:ECAA FE 00 03     iwt   r14,#0300
000A:ECAD 00           stop
000A:ECAE FD 00 03     iwt   r13,#0300
000A:ECB1 00           stop
000A:ECB2 FD 00 03     iwt   r13,#0300
000A:ECB5 00           stop
000A:ECB6 FD 00 03     iwt   r13,#0300
000A:ECB9 00           stop
000A:ECBA FD 00 03     iwt   r13,#0300
000A:ECBD 00           stop
000A:ECBE FD 00 03     iwt   r13,#0300
000A:ECC1 00           stop
000A:ECC2 FD 00 03     iwt   r13,#0300
000A:ECC5 00           stop
000A:ECC6 FD 00 03     iwt   r13,#0300
000A:ECC9 00           stop
000A:ECCA FD 00 03     iwt   r13,#0300
000A:ECCD 00           stop
000A:ECCE FD 00 03     iwt   r13,#0300
000A:ECD1 00           stop
000A:ECD2 FD 00 03     iwt   r13,#0300
000A:ECD5 00           stop
000A:ECD6 FD 00 03     iwt   r13,#0300
000A:ECD9 00           stop
000A:ECDA FD 00 03     iwt   r13,#0300
000A:ECDD 00           stop
000A:ECDE FD 00 03     iwt   r13,#0300
000A:ECE1 00           stop
000A:ECE2 FD 00 03     iwt   r13,#0300
000A:ECE5 00           stop
000A:ECE6 FD 00 03     iwt   r13,#0300
000A:ECE9 00           stop
000A:ECEA FD 00 03     iwt   r13,#0300
000A:ECED 00           stop
000A:ECEE FD 00 03     iwt   r13,#0300
000A:ECF1 00           stop
000A:ECF2 FD 00 03     iwt   r13,#0300
000A:ECF5 00           stop
000A:ECF6 FD 00 03     iwt   r13,#0300
000A:ECF9 00           stop
000A:ECFA FD 00 03     iwt   r13,#0300
000A:ECFD 00           stop
000A:ECFE FD 00 03     iwt   r13,#0300
000A:ED01 00           stop
000A:ED02 FD 00 03     iwt   r13,#0300
000A:ED05 00           stop
000A:ED06 FD 00 03     iwt   r13,#0300
000A:ED09 00           stop
000A:ED0A FD 00 03     iwt   r13,#0300
000A:ED0D 00           stop
000A:ED0E FD 00 03     iwt   r13,#0300
000A:ED11 00           stop
000A:ED12 FD 00 03     iwt   r13,#0300
000A:ED15 00           stop
000A:ED16 FD 00 03     iwt   r13,#0300
000A:ED19 00           stop
000A:ED1A FD 00 03     iwt   r13,#0300
000A:ED1D 00           stop
000A:ED1E FD 00 03     iwt   r13,#0300
000A:ED21 00           stop
000A:ED22 FD 00 03     iwt   r13,#0300
000A:ED25 00           stop
000A:ED26 FD 00 03     iwt   r13,#0300
000A:ED29 00           stop
000A:ED2A FD 90 02     iwt   r13,#0290
000A:ED2D 70           merge
000A:ED2E FD 90 02     iwt   r13,#0290
000A:ED31 70           merge
000A:ED32 FD 90 02     iwt   r13,#0290
000A:ED35 70           merge
000A:ED36 FD 90 02     iwt   r13,#0290
000A:ED39 70           merge
000A:ED3A FD 90 02     iwt   r13,#0290
000A:ED3D 70           merge
000A:ED3E FD 90 02     iwt   r13,#0290
000A:ED41 70           merge
000A:ED42 FD 90 02     iwt   r13,#0290
000A:ED45 70           merge
000A:ED46 FD 90 02     iwt   r13,#0290
000A:ED49 70           merge
000A:ED4A FD 90 02     iwt   r13,#0290
000A:ED4D 70           merge
000A:ED4E FD 90 02     iwt   r13,#0290
000A:ED51 70           merge
000A:ED52 FD 90 02     iwt   r13,#0290
000A:ED55 70           merge
000A:ED56 FD 90 02     iwt   r13,#0290
000A:ED59 70           merge
000A:ED5A FD 90 02     iwt   r13,#0290
000A:ED5D 70           merge
000A:ED5E FD 90 02     iwt   r13,#0290
000A:ED61 70           merge
000A:ED62 FD 90 02     iwt   r13,#0290
000A:ED65 70           merge
000A:ED66 FD 90 02     iwt   r13,#0290
000A:ED69 70           merge
000A:ED6A FD 00 01     iwt   r13,#0100
000A:ED6D 00           stop
000A:ED6E FF 00 01     iwt   r15,#0100
000A:ED71 00           stop
000A:ED72 FF 80 00     iwt   r15,#0080
000A:ED75 00           stop
000A:ED76 FD 00 01     iwt   r13,#0100
000A:ED79 00           stop
000A:ED7A FF 00 01     iwt   r15,#0100
000A:ED7D 00           stop
000A:ED7E FF 00 01     iwt   r15,#0100
000A:ED81 00           stop
000A:ED82 FF 00 01     iwt   r15,#0100
000A:ED85 00           stop
000A:ED86 FF 00 01     iwt   r15,#0100
000A:ED89 00           stop
000A:ED8A FF 00 01     iwt   r15,#0100
000A:ED8D 00           stop
000A:ED8E FF 00 01     iwt   r15,#0100
000A:ED91 00           stop
000A:ED92 FF 00 01     iwt   r15,#0100
000A:ED95 00           stop
000A:ED96 FF 00 01     iwt   r15,#0100
000A:ED99 00           stop
000A:ED9A FF 00 01     iwt   r15,#0100
000A:ED9D 00           stop
000A:ED9E FF 00 01     iwt   r15,#0100
000A:EDA1 00           stop
000A:EDA2 FF 00 03     iwt   r15,#0300
000A:EDA5 80           mult  r0
000A:EDA6 FF 00 01     iwt   r15,#0100
000A:EDA9 00           stop
000A:EDAA FF 00 08     iwt   r15,#0800
000A:EDAD 00           stop
000A:EDAE F8 00 08     iwt   r8,#0800
000A:EDB1 00           stop
000A:EDB2 F8 10 00     iwt   r8,#0010
000A:EDB5 38           stw   (r8)
000A:EDB6 00           stop
000A:EDB7 F0 FF C8     iwt   r0,#C8FF
000A:EDBA FF 10 00     iwt   r15,#0010
000A:EDBD 38           stw   (r8)
000A:EDBE 00           stop
000A:EDBF F0 FF C8     iwt   r0,#C8FF
000A:EDC2 FF 10 00     iwt   r15,#0010
000A:EDC5 38           stw   (r8)
000A:EDC6 00           stop
000A:EDC7 F0 FF C8     iwt   r0,#C8FF
000A:EDCA FF 10 00     iwt   r15,#0010
000A:EDCD 38           stw   (r8)
000A:EDCE 00           stop
000A:EDCF F0 FF C8     iwt   r0,#C8FF
000A:EDD2 FF 10 00     iwt   r15,#0010
000A:EDD5 38           stw   (r8)
000A:EDD6 00           stop
000A:EDD7 F0 FF C8     iwt   r0,#C8FF
000A:EDDA FF 10 00     iwt   r15,#0010
000A:EDDD 38           stw   (r8)
000A:EDDE 00           stop
000A:EDDF F0 FF C8     iwt   r0,#C8FF
000A:EDE2 FF 10 00     iwt   r15,#0010
000A:EDE5 38           stw   (r8)
000A:EDE6 00           stop
000A:EDE7 F0 FF C8     iwt   r0,#C8FF
000A:EDEA FF 10 00     iwt   r15,#0010
000A:EDED 38           stw   (r8)
000A:EDEE 00           stop
000A:EDEF F0 FF C8     iwt   r0,#C8FF
000A:EDF2 FF 10 00     iwt   r15,#0010
000A:EDF5 38           stw   (r8)
000A:EDF6 00           stop
000A:EDF7 F0 FF C8     iwt   r0,#C8FF
000A:EDFA FF 10 00     iwt   r15,#0010
000A:EDFD 38           stw   (r8)
000A:EDFE 00           stop
000A:EDFF F0 FF C8     iwt   r0,#C8FF
000A:EE02 FF 10 00     iwt   r15,#0010
000A:EE05 38           stw   (r8)
000A:EE06 00           stop
000A:EE07 F0 FF C8     iwt   r0,#C8FF
000A:EE0A FF 10 00     iwt   r15,#0010
000A:EE0D 38           stw   (r8)
000A:EE0E 00           stop
000A:EE0F F0 FF C8     iwt   r0,#C8FF
000A:EE12 FF 10 00     iwt   r15,#0010
000A:EE15 38           stw   (r8)
000A:EE16 00           stop
000A:EE17 F0 FF C8     iwt   r0,#C8FF
000A:EE1A FF 10 00     iwt   r15,#0010
000A:EE1D 38           stw   (r8)
000A:EE1E 00           stop
000A:EE1F F0 FF C8     iwt   r0,#C8FF
000A:EE22 FF 10 00     iwt   r15,#0010
000A:EE25 38           stw   (r8)
000A:EE26 00           stop
000A:EE27 F0 FF C8     iwt   r0,#C8FF
000A:EE2A FF 10 00     iwt   r15,#0010
000A:EE2D 38           stw   (r8)
000A:EE2E 00           stop
000A:EE2F F0 FF C8     iwt   r0,#C8FF
000A:EE32 FF 06 00     iwt   r15,#0006
000A:EE35 0A 00        bpl   EE37
000A:EE37 FA FF F6     iwt   r10,#F6FF
000A:EE3A FF 06 00     iwt   r15,#0006
000A:EE3D 0A 00        bpl   EE3F
000A:EE3F FA FF F6     iwt   r10,#F6FF
000A:EE42 FF 06 00     iwt   r15,#0006
000A:EE45 0A 00        bpl   EE47
000A:EE47 FA FF F6     iwt   r10,#F6FF
000A:EE4A FF 06 00     iwt   r15,#0006
000A:EE4D 0A 00        bpl   EE4F
000A:EE4F FA FF F6     iwt   r10,#F6FF
000A:EE52 FF 06 00     iwt   r15,#0006
000A:EE55 0A 00        bpl   EE57
000A:EE57 FA FF F6     iwt   r10,#F6FF
000A:EE5A FF 06 00     iwt   r15,#0006
000A:EE5D 0A 00        bpl   EE5F
000A:EE5F FA FF F6     iwt   r10,#F6FF
000A:EE62 FF 06 00     iwt   r15,#0006
000A:EE65 0A 00        bpl   EE67
000A:EE67 FA FF F6     iwt   r10,#F6FF
000A:EE6A FF 06 00     iwt   r15,#0006
000A:EE6D 0A 00        bpl   EE6F
000A:EE6F FA FF F6     iwt   r10,#F6FF
000A:EE72 FF 06 00     iwt   r15,#0006
000A:EE75 0A 00        bpl   EE77
000A:EE77 FA FF F6     iwt   r10,#F6FF
000A:EE7A FF 06 00     iwt   r15,#0006
000A:EE7D 0A 00        bpl   EE7F
000A:EE7F FA FF F6     iwt   r10,#F6FF
000A:EE82 FF 06 00     iwt   r15,#0006
000A:EE85 0A 00        bpl   EE87
000A:EE87 FA FF F6     iwt   r10,#F6FF
000A:EE8A FF 06 00     iwt   r15,#0006
000A:EE8D 0A 00        bpl   EE8F
000A:EE8F FA FF F6     iwt   r10,#F6FF
000A:EE92 FF 06 00     iwt   r15,#0006
000A:EE95 0A 00        bpl   EE97
000A:EE97 FA FF F6     iwt   r10,#F6FF
000A:EE9A FF 06 00     iwt   r15,#0006
000A:EE9D 0A 00        bpl   EE9F
000A:EE9F FA FF F6     iwt   r10,#F6FF
000A:EEA2 FF 06 00     iwt   r15,#0006
000A:EEA5 0A 00        bpl   EEA7
000A:EEA7 FA FF F6     iwt   r10,#F6FF
000A:EEAA FF 06 00     iwt   r15,#0006
000A:EEAD 0A 00        bpl   EEAF
000A:EEAF FA FF F6     iwt   r10,#F6FF
000A:EEB2 FF 02 00     iwt   r15,#0002
000A:EEB5 03           lsr
000A:EEB6 00           stop
000A:EEB7 FE FF FD     iwt   r14,#FDFF
000A:EEBA FF 02 00     iwt   r15,#0002
000A:EEBD 03           lsr
000A:EEBE 00           stop
000A:EEBF FE FF FD     iwt   r14,#FDFF
000A:EEC2 FF 02 00     iwt   r15,#0002
000A:EEC5 03           lsr
000A:EEC6 00           stop
000A:EEC7 FE FF FD     iwt   r14,#FDFF
000A:EECA FF 02 00     iwt   r15,#0002
000A:EECD 03           lsr
000A:EECE 00           stop
000A:EECF FE FF FD     iwt   r14,#FDFF
000A:EED2 FF 02 00     iwt   r15,#0002
000A:EED5 03           lsr
000A:EED6 00           stop
000A:EED7 FE FF FD     iwt   r14,#FDFF
000A:EEDA FF 02 00     iwt   r15,#0002
000A:EEDD 03           lsr
000A:EEDE 00           stop
000A:EEDF FE FF FD     iwt   r14,#FDFF
000A:EEE2 FF 02 00     iwt   r15,#0002
000A:EEE5 03           lsr
000A:EEE6 00           stop
000A:EEE7 FE FF FD     iwt   r14,#FDFF
000A:EEEA FF 02 00     iwt   r15,#0002
000A:EEED 03           lsr
000A:EEEE 00           stop
000A:EEEF FE FF FD     iwt   r14,#FDFF
000A:EEF2 FF 02 00     iwt   r15,#0002
000A:EEF5 03           lsr
000A:EEF6 00           stop
000A:EEF7 FE FF FD     iwt   r14,#FDFF
000A:EEFA FF 02 00     iwt   r15,#0002
000A:EEFD 03           lsr
000A:EEFE 00           stop
000A:EEFF FE FF FD     iwt   r14,#FDFF
000A:EF02 FF 02 00     iwt   r15,#0002
000A:EF05 03           lsr
000A:EF06 00           stop
000A:EF07 FE FF FD     iwt   r14,#FDFF
000A:EF0A FF 02 00     iwt   r15,#0002
000A:EF0D 03           lsr
000A:EF0E 00           stop
000A:EF0F FE FF FD     iwt   r14,#FDFF
000A:EF12 FF 02 00     iwt   r15,#0002
000A:EF15 03           lsr
000A:EF16 00           stop
000A:EF17 FE FF FD     iwt   r14,#FDFF
000A:EF1A FF 02 00     iwt   r15,#0002
000A:EF1D 03           lsr
000A:EF1E 00           stop
000A:EF1F FE FF FD     iwt   r14,#FDFF
000A:EF22 FF 02 00     iwt   r15,#0002
000A:EF25 03           lsr
000A:EF26 00           stop
000A:EF27 FE FF FD     iwt   r14,#FDFF
000A:EF2A FF 02 00     iwt   r15,#0002
000A:EF2D 03           lsr
000A:EF2E 00           stop
000A:EF2F FE FF FD     iwt   r14,#FDFF
000A:EF32 FF 04 00     iwt   r15,#0004
000A:EF35 08 00        bne   EF37
000A:EF37 FC FF F8     iwt   r12,#F8FF
000A:EF3A FF 04 00     iwt   r15,#0004
000A:EF3D 08 00        bne   EF3F
000A:EF3F FC FF F8     iwt   r12,#F8FF
000A:EF42 FF 04 00     iwt   r15,#0004
000A:EF45 08 00        bne   EF47
000A:EF47 FC FF F8     iwt   r12,#F8FF
000A:EF4A FF 04 00     iwt   r15,#0004
000A:EF4D 08 00        bne   EF4F
000A:EF4F FC FF F8     iwt   r12,#F8FF
000A:EF52 FF 04 00     iwt   r15,#0004
000A:EF55 08 00        bne   EF57
000A:EF57 FC FF F8     iwt   r12,#F8FF
000A:EF5A FF 04 00     iwt   r15,#0004
000A:EF5D 08 00        bne   EF5F
000A:EF5F FC FF F8     iwt   r12,#F8FF
000A:EF62 FF 04 00     iwt   r15,#0004
000A:EF65 08 00        bne   EF67
000A:EF67 FC FF F8     iwt   r12,#F8FF
000A:EF6A FF 04 00     iwt   r15,#0004
000A:EF6D 08 00        bne   EF6F
000A:EF6F FC FF F8     iwt   r12,#F8FF
000A:EF72 FF 04 00     iwt   r15,#0004
000A:EF75 08 00        bne   EF77
000A:EF77 FC FF F8     iwt   r12,#F8FF
000A:EF7A FF 04 00     iwt   r15,#0004
000A:EF7D 08 00        bne   EF7F
000A:EF7F FC FF F8     iwt   r12,#F8FF
000A:EF82 FF 04 00     iwt   r15,#0004
000A:EF85 08 00        bne   EF87
000A:EF87 FC FF F8     iwt   r12,#F8FF
000A:EF8A FF 04 00     iwt   r15,#0004
000A:EF8D 08 00        bne   EF8F
000A:EF8F FC FF F8     iwt   r12,#F8FF
000A:EF92 FF 04 00     iwt   r15,#0004
000A:EF95 08 00        bne   EF97
000A:EF97 FC FF F8     iwt   r12,#F8FF
000A:EF9A FF 04 00     iwt   r15,#0004
000A:EF9D 08 00        bne   EF9F
000A:EF9F FC FF F8     iwt   r12,#F8FF
000A:EFA2 FF 04 00     iwt   r15,#0004
000A:EFA5 08 00        bne   EFA7
000A:EFA7 FC FF F8     iwt   r12,#F8FF
000A:EFAA FF 04 00     iwt   r15,#0004
000A:EFAD 08 00        bne   EFAF
000A:EFAF FC FF F8     iwt   r12,#F8FF
000A:EFB2 FF 08 00     iwt   r15,#0008
000A:EFB5 38           stw   (r8)
000A:EFB6 00           stop
000A:EFB7 F8 FF C8     iwt   r8,#C8FF
000A:EFBA FF 08 00     iwt   r15,#0008
000A:EFBD 38           stw   (r8)
000A:EFBE 00           stop
000A:EFBF F8 FF C8     iwt   r8,#C8FF
000A:EFC2 FF 08 00     iwt   r15,#0008
000A:EFC5 38           stw   (r8)
000A:EFC6 00           stop
000A:EFC7 F8 FF C8     iwt   r8,#C8FF
000A:EFCA FF 08 00     iwt   r15,#0008
000A:EFCD 38           stw   (r8)
000A:EFCE 00           stop
000A:EFCF F8 FF C8     iwt   r8,#C8FF
000A:EFD2 FF 08 00     iwt   r15,#0008
000A:EFD5 38           stw   (r8)
000A:EFD6 00           stop
000A:EFD7 F8 FF C8     iwt   r8,#C8FF
000A:EFDA FF 08 00     iwt   r15,#0008
000A:EFDD 38           stw   (r8)
000A:EFDE 00           stop
000A:EFDF F8 FF C8     iwt   r8,#C8FF
000A:EFE2 FF 08 00     iwt   r15,#0008
000A:EFE5 38           stw   (r8)
000A:EFE6 00           stop
000A:EFE7 F8 FF C8     iwt   r8,#C8FF
000A:EFEA FF 08 00     iwt   r15,#0008
000A:EFED 38           stw   (r8)
000A:EFEE 00           stop
000A:EFEF F8 FF C8     iwt   r8,#C8FF
000A:EFF2 FF 08 00     iwt   r15,#0008
000A:EFF5 38           stw   (r8)
000A:EFF6 00           stop
000A:EFF7 F8 FF C8     iwt   r8,#C8FF
000A:EFFA FF 08 00     iwt   r15,#0008
000A:EFFD 38           stw   (r8)
000A:EFFE 00           stop
000A:EFFF F8 FF C8     iwt   r8,#C8FF
000A:F002 FF 08 00     iwt   r15,#0008
000A:F005 38           stw   (r8)
000A:F006 00           stop
000A:F007 F8 FF C8     iwt   r8,#C8FF
000A:F00A FF 08 00     iwt   r15,#0008
000A:F00D 38           stw   (r8)
000A:F00E 00           stop
000A:F00F F8 FF C8     iwt   r8,#C8FF
000A:F012 FF 08 00     iwt   r15,#0008
000A:F015 38           stw   (r8)
000A:F016 00           stop
000A:F017 F8 FF C8     iwt   r8,#C8FF
000A:F01A FF 08 00     iwt   r15,#0008
000A:F01D 38           stw   (r8)
000A:F01E 00           stop
000A:F01F F8 FF C8     iwt   r8,#C8FF
000A:F022 FF 08 00     iwt   r15,#0008
000A:F025 38           stw   (r8)
000A:F026 00           stop
000A:F027 F8 FF C8     iwt   r8,#C8FF
000A:F02A FF 08 00     iwt   r15,#0008
000A:F02D 38           stw   (r8)
000A:F02E 00           stop
000A:F02F F8 FF C8     iwt   r8,#C8FF
000A:F032 FF 06 00     iwt   r15,#0006
000A:F035 0A 00        bpl   F037
000A:F037 FA FF F6     iwt   r10,#F6FF
000A:F03A FF 06 00     iwt   r15,#0006
000A:F03D 04           rol
000A:F03E 00           stop
000A:F03F FA FF F6     iwt   r10,#F6FF
000A:F042 FF 02 00     iwt   r15,#0002
000A:F045 04           rol
000A:F046 00           stop
000A:F047 F8 FF F0     iwt   r8,#F0FF
000A:F04A FF 06 00     iwt   r15,#0006
000A:F04D 0A 00        bpl   F04F
000A:F04F FA FF F6     iwt   r10,#F6FF
000A:F052 FF 06 00     iwt   r15,#0006
000A:F055 0A 00        bpl   F057
000A:F057 FA FF F6     iwt   r10,#F6FF
000A:F05A FF 06 00     iwt   r15,#0006
000A:F05D 0A 00        bpl   F05F
000A:F05F FA FF F6     iwt   r10,#F6FF
000A:F062 FF 06 00     iwt   r15,#0006
000A:F065 0A 00        bpl   F067
000A:F067 FA FF F6     iwt   r10,#F6FF
000A:F06A FF 06 00     iwt   r15,#0006
000A:F06D 0A 00        bpl   F06F
000A:F06F FA FF F6     iwt   r10,#F6FF
000A:F072 FF 06 00     iwt   r15,#0006
000A:F075 0A 00        bpl   F077
000A:F077 FA FF F6     iwt   r10,#F6FF
000A:F07A FF 06 00     iwt   r15,#0006
000A:F07D 0A 00        bpl   F07F
000A:F07F FA FF F6     iwt   r10,#F6FF
000A:F082 FF 06 00     iwt   r15,#0006
000A:F085 0A 00        bpl   F087
000A:F087 FA FF F6     iwt   r10,#F6FF
000A:F08A FF 06 00     iwt   r15,#0006
000A:F08D 0A 00        bpl   F08F
000A:F08F FA FF F6     iwt   r10,#F6FF
000A:F092 FF 06 00     iwt   r15,#0006
000A:F095 0A 00        bpl   F097
000A:F097 FA FF F6     iwt   r10,#F6FF
000A:F09A FF 06 00     iwt   r15,#0006
000A:F09D 0A 00        bpl   F09F
000A:F09F FA FF F6     iwt   r10,#F6FF
000A:F0A2 FF 08 00     iwt   r15,#0008
000A:F0A5 10 00        stop
000A:F0A7 FE FF FC     iwt   r14,#FCFF
000A:F0AA FF 06 00     iwt   r15,#0006
000A:F0AD 0A 00        bpl   F0AF
000A:F0AF FA FF F6     iwt   r10,#F6FF
000A:F0B2 FF 00 00     iwt   r15,#0000
000A:F0B5 00           stop
000A:F0B6 00           stop
000A:F0B7 00           stop
000A:F0B8 00           stop
000A:F0B9 00           stop
000A:F0BA 00           stop
000A:F0BB 00           stop
000A:F0BC 00           stop
000A:F0BD 00           stop
000A:F0BE 00           stop
000A:F0BF 00           stop
000A:F0C0 00           stop
000A:F0C1 00           stop
000A:F0C2 00           stop
000A:F0C3 00           stop
000A:F0C4 00           stop
000A:F0C5 00           stop
000A:F0C6 00           stop
000A:F0C7 00           stop
000A:F0C8 00           stop
000A:F0C9 00           stop
000A:F0CA 00           stop
000A:F0CB 00           stop
000A:F0CC 00           stop
000A:F0CD 00           stop
000A:F0CE 00           stop
000A:F0CF 00           stop
000A:F0D0 00           stop
000A:F0D1 00           stop
000A:F0D2 00           stop
000A:F0D3 00           stop
000A:F0D4 00           stop
000A:F0D5 00           stop
000A:F0D6 00           stop
000A:F0D7 00           stop
000A:F0D8 00           stop
000A:F0D9 00           stop
000A:F0DA 00           stop
000A:F0DB 00           stop
000A:F0DC 00           stop
000A:F0DD 00           stop
000A:F0DE 00           stop
000A:F0DF 00           stop
000A:F0E0 00           stop
000A:F0E1 00           stop
000A:F0E2 00           stop
000A:F0E3 00           stop
000A:F0E4 00           stop
000A:F0E5 00           stop
000A:F0E6 00           stop
000A:F0E7 00           stop
000A:F0E8 00           stop
000A:F0E9 00           stop
000A:F0EA 00           stop
000A:F0EB 00           stop
000A:F0EC 00           stop
000A:F0ED 00           stop
000A:F0EE 00           stop
000A:F0EF 00           stop
000A:F0F0 00           stop
000A:F0F1 00           stop
000A:F0F2 00           stop
000A:F0F3 00           stop
000A:F0F4 00           stop
000A:F0F5 00           stop
000A:F0F6 00           stop
000A:F0F7 00           stop
000A:F0F8 00           stop
000A:F0F9 00           stop
000A:F0FA 00           stop
000A:F0FB 00           stop
000A:F0FC 00           stop
000A:F0FD 00           stop
000A:F0FE 00           stop
000A:F0FF 00           stop
000A:F100 00           stop
000A:F101 00           stop
000A:F102 00           stop
000A:F103 00           stop
000A:F104 00           stop
000A:F105 00           stop
000A:F106 00           stop
000A:F107 00           stop
000A:F108 00           stop
000A:F109 00           stop
000A:F10A 00           stop
000A:F10B 00           stop
000A:F10C 00           stop
000A:F10D 00           stop
000A:F10E 00           stop
000A:F10F 00           stop
000A:F110 00           stop
000A:F111 00           stop
000A:F112 00           stop
000A:F113 00           stop
000A:F114 00           stop
000A:F115 00           stop
000A:F116 00           stop
000A:F117 00           stop
000A:F118 00           stop
000A:F119 00           stop
000A:F11A 00           stop
000A:F11B 00           stop
000A:F11C 00           stop
000A:F11D 00           stop
000A:F11E 00           stop
000A:F11F 00           stop
000A:F120 00           stop
000A:F121 00           stop
000A:F122 00           stop
000A:F123 00           stop
000A:F124 00           stop
000A:F125 00           stop
000A:F126 00           stop
000A:F127 00           stop
000A:F128 00           stop
000A:F129 00           stop
000A:F12A 00           stop
000A:F12B 00           stop
000A:F12C 00           stop
000A:F12D 00           stop
000A:F12E 00           stop
000A:F12F 00           stop
000A:F130 00           stop
000A:F131 00           stop
000A:F132 00           stop
000A:F133 00           stop
000A:F134 00           stop
000A:F135 00           stop
000A:F136 00           stop
000A:F137 00           stop
000A:F138 00           stop
000A:F139 00           stop
000A:F13A 00           stop
000A:F13B 00           stop
000A:F13C 00           stop
000A:F13D 00           stop
000A:F13E 00           stop
000A:F13F 00           stop
000A:F140 00           stop
000A:F141 00           stop
000A:F142 00           stop
000A:F143 00           stop
000A:F144 00           stop
000A:F145 00           stop
000A:F146 00           stop
000A:F147 00           stop
000A:F148 00           stop
000A:F149 00           stop
000A:F14A 00           stop
000A:F14B 00           stop
000A:F14C 00           stop
000A:F14D 00           stop
000A:F14E 00           stop
000A:F14F 00           stop
000A:F150 00           stop
000A:F151 00           stop
000A:F152 00           stop
000A:F153 00           stop
000A:F154 00           stop
000A:F155 00           stop
000A:F156 00           stop
000A:F157 00           stop
000A:F158 FF 00 00     iwt   r15,#0000
000A:F15B 00           stop
000A:F15C 00           stop
000A:F15D 00           stop
000A:F15E 00           stop
000A:F15F 00           stop
000A:F160 00           stop
000A:F161 00           stop
000A:F162 00           stop
000A:F163 00           stop
000A:F164 00           stop
000A:F165 00           stop
000A:F166 00           stop
000A:F167 00           stop
000A:F168 00           stop
000A:F169 00           stop
000A:F16A 00           stop
000A:F16B 00           stop
000A:F16C 00           stop
000A:F16D 00           stop
000A:F16E 00           stop
000A:F16F 00           stop
000A:F170 01           nop
000A:F171 00           stop
000A:F172 00           stop
000A:F173 80           mult  r0
000A:F174 03           lsr
000A:F175 40           ldw   (r0)
000A:F176 03           lsr
000A:F177 00           stop
000A:F178 03           lsr
000A:F179 00           stop
000A:F17A 03           lsr
000A:F17B 80           mult  r0
000A:F17C 04           rol
000A:F17D 80           mult  r0
000A:F17E 04           rol
000A:F17F 80           mult  r0
000A:F180 04           rol
000A:F181 80           mult  r0
000A:F182 04           rol
000A:F183 80           mult  r0
000A:F184 04           rol
000A:F185 80           mult  r0
000A:F186 04           rol
000A:F187 80           mult  r0
000A:F188 04           rol
000A:F189 80           mult  r0
000A:F18A 04           rol
000A:F18B 80           mult  r0
000A:F18C 04           rol
000A:F18D 80           mult  r0
000A:F18E 04           rol
000A:F18F 80           mult  r0
000A:F190 04           rol
000A:F191 00           stop
000A:F192 04           rol
000A:F193 E0           dec   r0
000A:F194 FF 20 00     iwt   r15,#0020
000A:F197 E0           dec   r0
000A:F198 FF 20 00     iwt   r15,#0020
000A:F19B E0           dec   r0
000A:F19C FF 20 00     iwt   r15,#0020
000A:F19F E0           dec   r0
000A:F1A0 FF 20 00     iwt   r15,#0020
000A:F1A3 E0           dec   r0
000A:F1A4 FF 20 00     iwt   r15,#0020
000A:F1A7 E0           dec   r0
000A:F1A8 FF 20 00     iwt   r15,#0020
000A:F1AB E0           dec   r0
000A:F1AC FF 20 00     iwt   r15,#0020
000A:F1AF E0           dec   r0
000A:F1B0 FF 20 00     iwt   r15,#0020
000A:F1B3 E0           dec   r0
000A:F1B4 FF 20 00     iwt   r15,#0020
000A:F1B7 E0           dec   r0
000A:F1B8 FF 20 00     iwt   r15,#0020
000A:F1BB E0           dec   r0
000A:F1BC FF 20 00     iwt   r15,#0020
000A:F1BF E0           dec   r0
000A:F1C0 FF 20 00     iwt   r15,#0020
000A:F1C3 E0           dec   r0
000A:F1C4 FF 20 00     iwt   r15,#0020
000A:F1C7 E0           dec   r0
000A:F1C8 FF 20 00     iwt   r15,#0020
000A:F1CB E0           dec   r0
000A:F1CC FF 20 00     iwt   r15,#0020
000A:F1CF E0           dec   r0
000A:F1D0 FF 20 00     iwt   r15,#0020
000A:F1D3 FD FF 03     iwt   r13,#03FF
000A:F1D6 00           stop
000A:F1D7 FD FF 03     iwt   r13,#03FF
000A:F1DA 00           stop
000A:F1DB FD FF 03     iwt   r13,#03FF
000A:F1DE 00           stop
000A:F1DF FD FF 03     iwt   r13,#03FF
000A:F1E2 00           stop
000A:F1E3 FD FF 03     iwt   r13,#03FF
000A:F1E6 00           stop
000A:F1E7 FD FF 03     iwt   r13,#03FF
000A:F1EA 00           stop
000A:F1EB FD FF 03     iwt   r13,#03FF
000A:F1EE 00           stop
000A:F1EF FD FF 03     iwt   r13,#03FF
000A:F1F2 00           stop
000A:F1F3 FD FF 03     iwt   r13,#03FF
000A:F1F6 00           stop
000A:F1F7 FD FF 03     iwt   r13,#03FF
000A:F1FA 00           stop
000A:F1FB FD FF 03     iwt   r13,#03FF
000A:F1FE 00           stop
000A:F1FF FD FF 03     iwt   r13,#03FF
000A:F202 00           stop
000A:F203 FD FF 03     iwt   r13,#03FF
000A:F206 00           stop
000A:F207 FD FF 03     iwt   r13,#03FF
000A:F20A 00           stop
000A:F20B FD FF 03     iwt   r13,#03FF
000A:F20E 00           stop
000A:F20F FD FF 03     iwt   r13,#03FF
000A:F212 00           stop
000A:F213 FF FF 01     iwt   r15,#01FF
000A:F216 00           stop
000A:F217 FF FF 01     iwt   r15,#01FF
000A:F21A 00           stop
000A:F21B FF FF 01     iwt   r15,#01FF
000A:F21E 00           stop
000A:F21F FF FF 01     iwt   r15,#01FF
000A:F222 00           stop
000A:F223 FF FF 01     iwt   r15,#01FF
000A:F226 00           stop
000A:F227 FF FF 01     iwt   r15,#01FF
000A:F22A 00           stop
000A:F22B FF FF 01     iwt   r15,#01FF
000A:F22E 00           stop
000A:F22F FF FF 01     iwt   r15,#01FF
000A:F232 00           stop
000A:F233 FF FF 01     iwt   r15,#01FF
000A:F236 00           stop
000A:F237 FF FF 01     iwt   r15,#01FF
000A:F23A 00           stop
000A:F23B FF FF 01     iwt   r15,#01FF
000A:F23E 00           stop
000A:F23F FF FF 01     iwt   r15,#01FF
000A:F242 00           stop
000A:F243 FF FF 01     iwt   r15,#01FF
000A:F246 00           stop
000A:F247 FF FF 01     iwt   r15,#01FF
000A:F24A 00           stop
000A:F24B FF FF 01     iwt   r15,#01FF
000A:F24E 00           stop
000A:F24F FF FF 01     iwt   r15,#01FF
000A:F252 00           stop
000A:F253 FC FF 04     iwt   r12,#04FF
000A:F256 00           stop
000A:F257 FC FF 04     iwt   r12,#04FF
000A:F25A 00           stop
000A:F25B FC FF 04     iwt   r12,#04FF
000A:F25E 00           stop
000A:F25F FC FF 04     iwt   r12,#04FF
000A:F262 00           stop
000A:F263 FC FF 04     iwt   r12,#04FF
000A:F266 00           stop
000A:F267 FC FF 04     iwt   r12,#04FF
000A:F26A 00           stop
000A:F26B FC FF 04     iwt   r12,#04FF
000A:F26E 00           stop
000A:F26F FC FF 04     iwt   r12,#04FF
000A:F272 00           stop
000A:F273 FC FF 04     iwt   r12,#04FF
000A:F276 00           stop
000A:F277 FC FF 04     iwt   r12,#04FF
000A:F27A 00           stop
000A:F27B FC FF 04     iwt   r12,#04FF
000A:F27E 00           stop
000A:F27F FC FF 04     iwt   r12,#04FF
000A:F282 00           stop
000A:F283 FC FF 04     iwt   r12,#04FF
000A:F286 00           stop
000A:F287 FC FF 04     iwt   r12,#04FF
000A:F28A 00           stop
000A:F28B FC FF 04     iwt   r12,#04FF
000A:F28E 00           stop
000A:F28F FC FF 04     iwt   r12,#04FF
000A:F292 00           stop
000A:F293 D0           inc   r0
000A:F294 FF 30 00     iwt   r15,#0030
000A:F297 D0           inc   r0
000A:F298 FF 30 00     iwt   r15,#0030
000A:F29B D0           inc   r0
000A:F29C FF 30 00     iwt   r15,#0030
000A:F29F D0           inc   r0
000A:F2A0 FF 30 00     iwt   r15,#0030
000A:F2A3 D0           inc   r0
000A:F2A4 FF 30 00     iwt   r15,#0030
000A:F2A7 D0           inc   r0
000A:F2A8 FF 30 00     iwt   r15,#0030
000A:F2AB D0           inc   r0
000A:F2AC FF 30 00     iwt   r15,#0030
000A:F2AF D0           inc   r0
000A:F2B0 FF 30 00     iwt   r15,#0030
000A:F2B3 D0           inc   r0
000A:F2B4 FF 30 00     iwt   r15,#0030
000A:F2B7 D0           inc   r0
000A:F2B8 FF 30 00     iwt   r15,#0030
000A:F2BB D0           inc   r0
000A:F2BC FF 30 00     iwt   r15,#0030
000A:F2BF D0           inc   r0
000A:F2C0 FF 30 00     iwt   r15,#0030
000A:F2C3 D0           inc   r0
000A:F2C4 FF 30 00     iwt   r15,#0030
000A:F2C7 D0           inc   r0
000A:F2C8 FF 30 00     iwt   r15,#0030
000A:F2CB D0           inc   r0
000A:F2CC FF 30 00     iwt   r15,#0030
000A:F2CF D0           inc   r0
000A:F2D0 FF 30 00     iwt   r15,#0030
000A:F2D3 F8 FF 08     iwt   r8,#08FF
000A:F2D6 00           stop
000A:F2D7 F8 FF 08     iwt   r8,#08FF
000A:F2DA 00           stop
000A:F2DB D0           inc   r0
000A:F2DC FF 08 00     iwt   r15,#0008
000A:F2DF F8 FF 08     iwt   r8,#08FF
000A:F2E2 00           stop
000A:F2E3 F8 FF 08     iwt   r8,#08FF
000A:F2E6 00           stop
000A:F2E7 F8 FF 08     iwt   r8,#08FF
000A:F2EA 00           stop
000A:F2EB F8 FF 08     iwt   r8,#08FF
000A:F2EE 00           stop
000A:F2EF F8 FF 08     iwt   r8,#08FF
000A:F2F2 00           stop
000A:F2F3 F8 FF 08     iwt   r8,#08FF
000A:F2F6 00           stop
000A:F2F7 F8 FF 08     iwt   r8,#08FF
000A:F2FA 00           stop
000A:F2FB F8 FF 08     iwt   r8,#08FF
000A:F2FE 00           stop
000A:F2FF F8 FF 08     iwt   r8,#08FF
000A:F302 00           stop
000A:F303 F8 FF 08     iwt   r8,#08FF
000A:F306 00           stop
000A:F307 F8 FF 08     iwt   r8,#08FF
000A:F30A 00           stop
000A:F30B F8 FF 30     iwt   r8,#30FF
000A:F30E 00           stop
000A:F30F F8 FF 08     iwt   r8,#08FF
000A:F312 00           stop
000A:F313 FC FF 04     iwt   r12,#04FF
000A:F316 00           stop
000A:F317 FC FF 04     iwt   r12,#04FF
000A:F31A 00           stop
000A:F31B F8 FF 08     iwt   r8,#08FF
000A:F31E 00           stop
000A:F31F F8 FF 08     iwt   r8,#08FF
000A:F322 00           stop
000A:F323 E0           dec   r0
000A:F324 FF 20 00     iwt   r15,#0020
000A:F327 E0           dec   r0
000A:F328 FF 20 00     iwt   r15,#0020
000A:F32B E0           dec   r0
000A:F32C FF 20 00     iwt   r15,#0020
000A:F32F E0           dec   r0
000A:F330 FF 20 00     iwt   r15,#0020
000A:F333 E0           dec   r0
000A:F334 FF 20 00     iwt   r15,#0020
000A:F337 E0           dec   r0
000A:F338 FF 20 00     iwt   r15,#0020
000A:F33B E0           dec   r0
000A:F33C FF 20 00     iwt   r15,#0020
000A:F33F E0           dec   r0
000A:F340 FF 20 00     iwt   r15,#0020
000A:F343 F8 FF 08     iwt   r8,#08FF
000A:F346 00           stop
000A:F347 F8 FF 08     iwt   r8,#08FF
000A:F34A 00           stop
000A:F34B F8 FF 08     iwt   r8,#08FF
000A:F34E 00           stop
000A:F34F FC FF 04     iwt   r12,#04FF
000A:F352 00           stop
000A:F353 0C FE        bcc   F353
000A:F355 F4 FE 00     iwt   r4,#00FE
000A:F358 FA 00 FA     iwt   r10,#FA00
000A:F35B 08 00        bne   F35D
000A:F35D 38           stw   (r8)
000A:F35E 20 F8 00 C8  iwt   r8,#C800
000A:F362 E0           dec   r0
000A:F363 F8 00 00     iwt   r8,#0000
000A:F366 39           stw   (r9)
000A:F367 08 00        bne   F369
000A:F369 00           stop
000A:F36A C7           or    r7
000A:F36B 00           stop
000A:F36C F8 C8 E0     iwt   r8,#E0C8
000A:F36F 00           stop
000A:F370 F8 C8 E0     iwt   r8,#E0C8
000A:F373 00           stop
000A:F374 08 00        bne   F376
000A:F376 C7           or    r7
000A:F377 00           stop
000A:F378 08 00        bne   F37A
000A:F37A C7           or    r7
000A:F37B 55           add   r5
000A:F37C 00           stop
000A:F37D 62           sub   r2
000A:F37E 00           stop
000A:F37F 5B           add   r11
000A:F380 00           stop
000A:F381 68           sub   r8
000A:F382 00           stop
000A:F383 A6 01        ibt   r6,#0001
000A:F385 A8 01        ibt   r8,#0001
000A:F387 A7 01        ibt   r7,#0001
000A:F389 A9 01        ibt   r9,#0001
000A:F38B A7 01        ibt   r7,#0001
000A:F38D A9 01        ibt   r9,#0001
000A:F38F A7 01        ibt   r7,#0001
000A:F391 A9 01        ibt   r9,#0001
000A:F393 A7 01        ibt   r7,#0001
000A:F395 A9 01        ibt   r9,#0001
000A:F397 A7 01        ibt   r7,#0001
000A:F399 A9 01        ibt   r9,#0001
000A:F39B A7 01        ibt   r7,#0001
000A:F39D A9 01        ibt   r9,#0001
000A:F39F A7 01        ibt   r7,#0001
000A:F3A1 A9 01        ibt   r9,#0001
000A:F3A3 A7 01        ibt   r7,#0001
000A:F3A5 A9 01        ibt   r9,#0001
000A:F3A7 A6 01        ibt   r6,#0001
000A:F3A9 A8 01        ibt   r8,#0001
000A:F3AB 03           lsr
000A:F3AC 56           add   r6
000A:F3AD 00           stop
000A:F3AE 03           lsr
000A:F3AF 63           sub   r3
000A:F3B0 00           stop
000A:F3B1 03           lsr
000A:F3B2 5C           add   r12
000A:F3B3 00           stop
000A:F3B4 03           lsr
000A:F3B5 69           sub   r9
000A:F3B6 00           stop
000A:F3B7 03           lsr
000A:F3B8 57           add   r7
000A:F3B9 00           stop
000A:F3BA 03           lsr
000A:F3BB 64           sub   r4
000A:F3BC 00           stop
000A:F3BD 03           lsr
000A:F3BE 5D           add   r13
000A:F3BF 00           stop
000A:F3C0 03           lsr
000A:F3C1 64           sub   r4
000A:F3C2 00           stop
000A:F3C3 03           lsr
000A:F3C4 58           add   r8
000A:F3C5 00           stop
000A:F3C6 03           lsr
000A:F3C7 65           sub   r5
000A:F3C8 00           stop
000A:F3C9 03           lsr
000A:F3CA 58           add   r8
000A:F3CB 00           stop
000A:F3CC 03           lsr
000A:F3CD 65           sub   r5
000A:F3CE 00           stop
000A:F3CF 08 59        bne   F42A
000A:F3D1 00           stop
000A:F3D2 08 66        bne   F43A
000A:F3D4 00           stop
000A:F3D5 08 59        bne   F430
000A:F3D7 00           stop
000A:F3D8 08 66        bne   F440
000A:F3DA 00           stop
000A:F3DB 06 5A        bge   F437
000A:F3DD 00           stop
000A:F3DE 06 67        bge   F447
000A:F3E0 00           stop
000A:F3E1 06 5A        bge   F43D
000A:F3E3 00           stop
000A:F3E4 06 67        bge   F44D
000A:F3E6 00           stop
000A:F3E7 02           cache
000A:F3E8 0E 00        bvc   F3EA
000A:F3EA 02           cache
000A:F3EB 31           stw   (r1)
000A:F3EC 01           nop
000A:F3ED 02           cache
000A:F3EE 0E 00        bvc   F3F0
000A:F3F0 02           cache
000A:F3F1 31           stw   (r1)
000A:F3F2 01           nop
000A:F3F3 02           cache
000A:F3F4 0F 00        bvs   F3F6
000A:F3F6 02           cache
000A:F3F7 31           stw   (r1)
000A:F3F8 01           nop
000A:F3F9 02           cache
000A:F3FA 0F 00        bvs   F3FC
000A:F3FC 02           cache
000A:F3FD 31           stw   (r1)
000A:F3FE 01           nop
000A:F3FF 02           cache
000A:F400 13 00        stop
000A:F402 02           cache
000A:F403 67           sub   r7
000A:F404 00           stop
000A:F405 02           cache
000A:F406 13 00        stop
000A:F408 02           cache
000A:F409 67           sub   r7
000A:F40A 00           stop
000A:F40B 02           cache
000A:F40C 14 00        stop
000A:F40E 02           cache
000A:F40F 67           sub   r7
000A:F410 00           stop
000A:F411 02           cache
000A:F412 14 00        stop
000A:F414 02           cache
000A:F415 67           sub   r7
000A:F416 00           stop
000A:F417 03           lsr
000A:F418 56           add   r6
000A:F419 00           stop
000A:F41A 03           lsr
000A:F41B 63           sub   r3
000A:F41C 00           stop
000A:F41D 03           lsr
000A:F41E 5C           add   r12
000A:F41F 00           stop
000A:F420 03           lsr
000A:F421 69           sub   r9
000A:F422 00           stop
000A:F423 03           lsr
000A:F424 57           add   r7
000A:F425 00           stop
000A:F426 03           lsr
000A:F427 64           sub   r4
000A:F428 00           stop
000A:F429 03           lsr
000A:F42A 5D           add   r13
000A:F42B 00           stop
000A:F42C 03           lsr
000A:F42D 64           sub   r4
000A:F42E 00           stop
000A:F42F 03           lsr
000A:F430 58           add   r8
000A:F431 00           stop
000A:F432 03           lsr
000A:F433 65           sub   r5
000A:F434 00           stop
000A:F435 03           lsr
000A:F436 58           add   r8
000A:F437 00           stop
000A:F438 03           lsr
000A:F439 65           sub   r5
000A:F43A 00           stop
000A:F43B 08 59        bne   F496
000A:F43D 00           stop
000A:F43E 08 66        bne   F4A6
000A:F440 00           stop
000A:F441 08 59        bne   F49C
000A:F443 00           stop
000A:F444 08 66        bne   F4AC
000A:F446 00           stop
000A:F447 03           lsr
000A:F448 A3 01        ibt   r3,#0001
000A:F44A 04           rol
000A:F44B A3 01        ibt   r3,#0001
000A:F44D 03           lsr
000A:F44E A3 01        ibt   r3,#0001
000A:F450 04           rol
000A:F451 A3 01        ibt   r3,#0001
000A:F453 04           rol
000A:F454 A1 01        ibt   r1,#0001
000A:F456 06 A1        bge   F3F9
000A:F458 01           nop
000A:F459 04           rol
000A:F45A A1 01        ibt   r1,#0001
000A:F45C 06 A1        bge   F3FF
000A:F45E 01           nop
000A:F45F 02           cache
000A:F460 A4 01        ibt   r4,#0001
000A:F462 02           cache
000A:F463 A4 01        ibt   r4,#0001
000A:F465 02           cache
000A:F466 A4 01        ibt   r4,#0001
000A:F468 02           cache
000A:F469 A4 01        ibt   r4,#0001
000A:F46B 02           cache
000A:F46C A2 01        ibt   r2,#0001
000A:F46E 03           lsr
000A:F46F A2 01        ibt   r2,#0001
000A:F471 02           cache
000A:F472 A2 01        ibt   r2,#0001
000A:F474 03           lsr
000A:F475 A2 01        ibt   r2,#0001
000A:F477 03           lsr
000A:F478 A5 01        ibt   r5,#0001
000A:F47A 04           rol
000A:F47B A5 01        ibt   r5,#0001
000A:F47D 03           lsr
000A:F47E A5 01        ibt   r5,#0001
000A:F480 04           rol
000A:F481 A5 01        ibt   r5,#0001
000A:F483 09 00        beq   F485
000A:F485 19 00        stop
000A:F487 07 00        blt   F489
000A:F489 05 00        bra   F48B
000A:F48B 05 FA        bra   F487
000A:F48D 15 FA 25 FA  iwt   r10,#FA25
000A:F491 35           stw   (r5)
000A:F492 FA 45 FA     iwt   r10,#FA45
000A:F495 55           add   r5
000A:F496 FA EB FA     iwt   r10,#FAEB
000A:F499 DB           inc   r11
000A:F49A FA CB FA     iwt   r10,#FACB
000A:F49D BB FA AB FA  iwt   r10,#FAAB
000A:F4A1 9B           jmp   r11
000A:F4A2 FA 05 F6     iwt   r10,#F605
000A:F4A5 15 F6 25 F6  iwt   r6,#F625
000A:F4A9 35           stw   (r5)
000A:F4AA F6 45 F6     iwt   r6,#F645
000A:F4AD 55           add   r5
000A:F4AE F6 EB F6     iwt   r6,#F6EB
000A:F4B1 DB           inc   r11
000A:F4B2 F6 CB F6     iwt   r6,#F6CB
000A:F4B5 BB F6 AB F6  iwt   r6,#F6AB
000A:F4B9 9B           jmp   r11
000A:F4BA F6 F4 E2     iwt   r6,#E2F4
000A:F4BD F4 D2 F4     iwt   r4,#F4D2
000A:F4C0 C2           or    r2
000A:F4C1 F4 B2 F4     iwt   r4,#F4B2
000A:F4C4 A2 F4        ibt   r2,#FFF4
000A:F4C6 92           link  #02
000A:F4C7 FC E2 FC     iwt   r12,#FCE2
000A:F4CA D2           inc   r2
000A:F4CB FC C2 FC     iwt   r12,#FCC2
000A:F4CE B2 FC A2 FC  iwt   r12,#FCA2
000A:F4D2 92           link  #02
000A:F4D3 02           cache
000A:F4D4 04           rol
000A:F4D5 09 10        beq   F4E7
000A:F4D7 05 F5        bra   F4CE
000A:F4D9 40           ldw   (r0)
000A:F4DA 03           lsr
000A:F4DB 50           add   r0
000A:F4DC 00           stop
000A:F4DD 80           mult  r0
000A:F4DE 03           lsr
000A:F4DF 50           add   r0
000A:F4E0 00           stop
000A:F4E1 C0           hib
000A:F4E2 03           lsr
000A:F4E3 50           add   r0
000A:F4E4 00           stop
000A:F4E5 00           stop
000A:F4E6 04           rol
000A:F4E7 50           add   r0
000A:F4E8 00           stop
000A:F4E9 EC           dec   r12
000A:F4EA F5 C0 FC     iwt   r5,#FCC0
000A:F4ED 50           add   r0
000A:F4EE 00           stop
000A:F4EF 80           mult  r0
000A:F4F0 FC 50 00     iwt   r12,#0050
000A:F4F3 40           ldw   (r0)
000A:F4F4 FC 50 00     iwt   r12,#0050
000A:F4F7 00           stop
000A:F4F8 FC 50 00     iwt   r12,#0050
000A:F4FB 04           rol
000A:F4FC F4 40 03     iwt   r4,#0340
000A:F4FF 50           add   r0
000A:F500 00           stop
000A:F501 80           mult  r0
000A:F502 03           lsr
000A:F503 50           add   r0
000A:F504 00           stop
000A:F505 C0           hib
000A:F506 03           lsr
000A:F507 50           add   r0
000A:F508 00           stop
000A:F509 00           stop
000A:F50A 04           rol
000A:F50B 50           add   r0
000A:F50C 00           stop
000A:F50D ED           dec   r13
000A:F50E F4 C0 FC     iwt   r4,#FCC0
000A:F511 50           add   r0
000A:F512 00           stop
000A:F513 80           mult  r0
000A:F514 FC 50 00     iwt   r12,#0050
000A:F517 40           ldw   (r0)
000A:F518 FC 50 00     iwt   r12,#0050
000A:F51B 00           stop
000A:F51C FC 50 00     iwt   r12,#0050
000A:F51F F6 ED 00     iwt   r6,#00ED
000A:F522 00           stop
000A:F523 00           stop
000A:F524 FC 00 00     iwt   r12,#0000
000A:F527 00           stop
000A:F528 FC 00 00     iwt   r12,#0000
000A:F52B 00           stop
000A:F52C FC 00 00     iwt   r12,#0000
000A:F52F 00           stop
000A:F530 FC FA ED     iwt   r12,#EDFA
000A:F533 00           stop
000A:F534 00           stop
000A:F535 00           stop
000A:F536 FC 00 00     iwt   r12,#0000
000A:F539 00           stop
000A:F53A FC 00 00     iwt   r12,#0000
000A:F53D 00           stop
000A:F53E FC 00 00     iwt   r12,#0000
000A:F541 00           stop
000A:F542 FC 04 F4     iwt   r12,#F404
000A:F545 00           stop
000A:F546 04           rol
000A:F547 10 FF 00 04  iwt   r15,#0400
000A:F54B 00           stop
000A:F54C 00           stop
000A:F54D 00           stop
000A:F54E 04           rol
000A:F54F 30           stw   (r0)
000A:F550 00           stop
000A:F551 00           stop
000A:F552 04           rol
000A:F553 70           merge
000A:F554 FF 00 04     iwt   r15,#0400
000A:F557 F0 00 00     iwt   r0,#0000
000A:F55A 04           rol
000A:F55B D0           inc   r0
000A:F55C FF 00 04     iwt   r15,#0400
000A:F55F 90           sbk
000A:F560 00           stop
000A:F561 EC           dec   r12
000A:F562 F4 00 FC     iwt   r4,#FC00
000A:F565 10 FF 00 FC  iwt   r15,#FC00
000A:F569 00           stop
000A:F56A 00           stop
000A:F56B 00           stop
000A:F56C FC 30 00     iwt   r12,#0030
000A:F56F 00           stop
000A:F570 FC 70 FF     iwt   r12,#FF70
000A:F573 00           stop
000A:F574 FC F0 00     iwt   r12,#00F0
000A:F577 00           stop
000A:F578 FC D0 FF     iwt   r12,#FFD0
000A:F57B 00           stop
000A:F57C FC 90 00     iwt   r12,#0090
000A:F57F FD F4 00     iwt   r13,#00F4
000A:F582 04           rol
000A:F583 10 FF 00 04  iwt   r15,#0400
000A:F587 00           stop
000A:F588 00           stop
000A:F589 00           stop
000A:F58A 04           rol
000A:F58B 30           stw   (r0)
000A:F58C 00           stop
000A:F58D 00           stop
000A:F58E 04           rol
000A:F58F 70           merge
000A:F590 FF 00 04     iwt   r15,#0400
000A:F593 F0 00 00     iwt   r0,#0000
000A:F596 04           rol
000A:F597 D0           inc   r0
000A:F598 FF 00 04     iwt   r15,#0400
000A:F59B 90           sbk
000A:F59C 00           stop
000A:F59D F3 F4 00     iwt   r3,#00F4
000A:F5A0 FC 10 FF     iwt   r12,#FF10
000A:F5A3 00           stop
000A:F5A4 FC 00 00     iwt   r12,#0000
000A:F5A7 00           stop
000A:F5A8 FC 30 00     iwt   r12,#0030
000A:F5AB 00           stop
000A:F5AC FC 70 FF     iwt   r12,#FF70
000A:F5AF 00           stop
000A:F5B0 FC F0 00     iwt   r12,#00F0
000A:F5B3 00           stop
000A:F5B4 FC D0 FF     iwt   r12,#FFD0
000A:F5B7 00           stop
000A:F5B8 FC 90 00     iwt   r12,#0090
000A:F5BB F6 ED 10     iwt   r6,#10ED
000A:F5BE FF 00 FC     iwt   r15,#FC00
000A:F5C1 00           stop
000A:F5C2 00           stop
000A:F5C3 00           stop
000A:F5C4 FC 30 00     iwt   r12,#0030
000A:F5C7 00           stop
000A:F5C8 FC 70 FF     iwt   r12,#FF70
000A:F5CB 00           stop
000A:F5CC FC F0 00     iwt   r12,#00F0
000A:F5CF 00           stop
000A:F5D0 FC D0 FF     iwt   r12,#FFD0
000A:F5D3 00           stop
000A:F5D4 FC 90 00     iwt   r12,#0090
000A:F5D7 00           stop
000A:F5D8 FC FA ED     iwt   r12,#EDFA
000A:F5DB F0 00 00     iwt   r0,#0000
000A:F5DE FC 00 00     iwt   r12,#0000
000A:F5E1 00           stop
000A:F5E2 FC D0 FF     iwt   r12,#FFD0
000A:F5E5 00           stop
000A:F5E6 FC 90 00     iwt   r12,#0090
000A:F5E9 00           stop
000A:F5EA FC 10 FF     iwt   r12,#FF10
000A:F5ED 00           stop
000A:F5EE FC 30 00     iwt   r12,#0030
000A:F5F1 00           stop
000A:F5F2 FC 70 FF     iwt   r12,#FF70
000A:F5F5 00           stop
000A:F5F6 FC 00 00     iwt   r12,#0000
000A:F5F9 40           ldw   (r0)
000A:F5FA 00           stop
000A:F5FB 41           ldw   (r1)
000A:F5FC 00           stop
000A:F5FD 42           ldw   (r2)
000A:F5FE 00           stop
000A:F5FF 43           ldw   (r3)
000A:F600 00           stop
000A:F601 42           ldw   (r2)
000A:F602 00           stop
000A:F603 41           ldw   (r1)
000A:F604 00           stop
000A:F605 40           ldw   (r0)
000A:F606 00           stop
000A:F607 74           and   r4
000A:F608 00           stop
000A:F609 73           and   r3
000A:F60A 00           stop
000A:F60B 72           and   r2
000A:F60C 00           stop
000A:F60D 71           and   r1
000A:F60E 00           stop
000A:F60F 70           merge
000A:F610 00           stop
000A:F611 6F           sub   r15
000A:F612 00           stop
000A:F613 6E           sub   r14
000A:F614 00           stop
000A:F615 6E           sub   r14
000A:F616 00           stop
000A:F617 6D           sub   r13
000A:F618 00           stop
000A:F619 6E           sub   r14
000A:F61A 00           stop
000A:F61B 6D           sub   r13
000A:F61C 00           stop
000A:F61D 6C           sub   r12
000A:F61E 00           stop
000A:F61F 00           stop
000A:F620 40           ldw   (r0)
000A:F621 05 02        bra   F625
000A:F623 02           cache
000A:F624 02           cache
000A:F625 90           sbk
000A:F626 00           stop
000A:F627 91           link  #01
000A:F628 00           stop
000A:F629 92           link  #02
000A:F62A 00           stop
000A:F62B 93           link  #03
000A:F62C 00           stop
000A:F62D 92           link  #02
000A:F62E 00           stop
000A:F62F 91           link  #01
000A:F630 00           stop
000A:F631 8B           mult  r11
000A:F632 00           stop
000A:F633 8A           mult  r10
000A:F634 00           stop
000A:F635 89           mult  r9
000A:F636 00           stop
000A:F637 88           mult  r8
000A:F638 00           stop
000A:F639 89           mult  r9
000A:F63A 00           stop
000A:F63B 8A           mult  r10
000A:F63C 00           stop
000A:F63D 8C           mult  r12
000A:F63E 00           stop
000A:F63F 8D           mult  r13
000A:F640 00           stop
000A:F641 8E           mult  r14
000A:F642 00           stop
000A:F643 8F           mult  r15
000A:F644 00           stop
000A:F645 8E           mult  r14
000A:F646 00           stop
000A:F647 8D           mult  r13
000A:F648 00           stop
000A:F649 34           stw   (r4)
000A:F64A 00           stop
000A:F64B 33           stw   (r3)
000A:F64C 00           stop
000A:F64D 32           stw   (r2)
000A:F64E 00           stop
000A:F64F 31           stw   (r1)
000A:F650 00           stop
000A:F651 30           stw   (r0)
000A:F652 00           stop
000A:F653 2F 00        stop
000A:F655 2E 00        stop
000A:F657 2D 00        stop
000A:F659 2C 00        stop
000A:F65B 2B 00        stop
000A:F65D 00           stop
000A:F65E 0C 01        bcc   F661
000A:F660 01           nop
000A:F661 01           nop
000A:F662 02           cache
000A:F663 04           rol
000A:F664 01           nop
000A:F665 02           cache
000A:F666 01           nop
000A:F667 11 00        stop
000A:F669 12 00        stop
000A:F66B 48           ldw   (r8)
000A:F66C 00           stop
000A:F66D 48           ldw   (r8)
000A:F66E 00           stop
000A:F66F 48           ldw   (r8)
000A:F670 00           stop
000A:F671 7C           and   r12
000A:F672 00           stop
000A:F673 79           and   r9
000A:F674 00           stop
000A:F675 7B           and   r11
000A:F676 00           stop
000A:F677 7C           and   r12
000A:F678 00           stop
000A:F679 7A           and   r10
000A:F67A 00           stop
000A:F67B 7C           and   r12
000A:F67C 00           stop
000A:F67D 20 00        stop
000A:F67F 1F 00        stop
000A:F681 1E 00        stop
000A:F683 0B 01        bmi   F686
000A:F685 0A 01        bpl   F688
000A:F687 09 01        beq   F68A
000A:F689 08 01        bne   F68C
000A:F68B 07 01        blt   F68E
000A:F68D 06 01        bge   F690
000A:F68F 05 01        bra   F692
000A:F691 04           rol
000A:F692 01           nop
000A:F693 03           lsr
000A:F694 01           nop
000A:F695 02           cache
000A:F696 01           nop
000A:F697 01           nop
000A:F698 01           nop
000A:F699 1D 00        stop
000A:F69B 1E 00        stop
000A:F69D 1F 00        stop
000A:F69F 20 00        stop
000A:F6A1 32           stw   (r2)
000A:F6A2 00           stop
000A:F6A3 38           stw   (r8)
000A:F6A4 00           stop
000A:F6A5 39           stw   (r9)
000A:F6A6 00           stop
000A:F6A7 3A           stw   (r10)
000A:F6A8 00           stop
000A:F6A9 11 00        stop
000A:F6AB 12 00        stop
000A:F6AD 11 00        stop
000A:F6AF 1A 00        stop
000A:F6B1 1B 00        stop
000A:F6B3 1C 00        stop
000A:F6B5 1C 00        stop
000A:F6B7 1B 00        stop
000A:F6B9 1A 00        stop
000A:F6BB 1A 00        stop
000A:F6BD 1A 00        stop
000A:F6BF 35           stw   (r5)
000A:F6C0 00           stop
000A:F6C1 36           stw   (r6)
000A:F6C2 00           stop
000A:F6C3 37           stw   (r7)
000A:F6C4 00           stop
000A:F6C5 37           stw   (r7)
000A:F6C6 00           stop
000A:F6C7 36           stw   (r6)
000A:F6C8 00           stop
000A:F6C9 35           stw   (r5)
000A:F6CA 00           stop
000A:F6CB 35           stw   (r5)
000A:F6CC 00           stop
000A:F6CD 35           stw   (r5)
000A:F6CE 00           stop
000A:F6CF 3B           stw   (r11)
000A:F6D0 00           stop
000A:F6D1 3C           loop
000A:F6D2 00           stop
000A:F6D3 3D 00        ???
000A:F6D5 3E 00        ???
000A:F6D7 3F 00        ???
000A:F6D9 4D           swap
000A:F6DA 00           stop
000A:F6DB 4D           swap
000A:F6DC 00           stop
000A:F6DD 4D           swap
000A:F6DE 00           stop
000A:F6DF 4D           swap
000A:F6E0 00           stop
000A:F6E1 17 00        stop
000A:F6E3 17 00        stop
000A:F6E5 17 00        stop
000A:F6E7 17 00        stop
000A:F6E9 16 00        stop
000A:F6EB 16 00        stop
000A:F6ED 16 00        stop
000A:F6EF 16 00        stop
000A:F6F1 16 00        stop
000A:F6F3 16 00        stop
000A:F6F5 16 00        stop
000A:F6F7 16 00        stop
000A:F6F9 15 00        stop
000A:F6FB 15 00        stop
000A:F6FD 15 00        stop
000A:F6FF 15 00        stop
000A:F701 15 00        stop
000A:F703 15 00        stop
000A:F705 16 00        stop
000A:F707 16 00        stop
000A:F709 16 00        stop
000A:F70B 16 00        stop
000A:F70D 16 00        stop
000A:F70F 16 00        stop
000A:F711 16 00        stop
000A:F713 16 00        stop
000A:F715 15 00        stop
000A:F717 15 00        stop
000A:F719 15 00        stop
000A:F71B 15 00        stop
000A:F71D 15 00        stop
000A:F71F 15 00        stop
000A:F721 16 00        stop
000A:F723 16 00        stop
000A:F725 16 00        stop
000A:F727 16 00        stop
000A:F729 16 00        stop
000A:F72B 16 00        stop
000A:F72D 16 00        stop
000A:F72F 16 00        stop
000A:F731 15 00        stop
000A:F733 15 00        stop
000A:F735 15 00        stop
000A:F737 15 00        stop
000A:F739 15 00        stop
000A:F73B 15 00        stop
000A:F73D 17 00        stop
000A:F73F 17 00        stop
000A:F741 17 00        stop
000A:F743 17 00        stop
000A:F745 17 00        stop
000A:F747 17 00        stop
000A:F749 17 00        stop
000A:F74B 17 00        stop
000A:F74D 40           ldw   (r0)
000A:F74E 00           stop
000A:F74F 41           ldw   (r1)
000A:F750 00           stop
000A:F751 42           ldw   (r2)
000A:F752 00           stop
000A:F753 43           ldw   (r3)
000A:F754 00           stop
000A:F755 43           ldw   (r3)
000A:F756 00           stop
000A:F757 43           ldw   (r3)
000A:F758 00           stop
000A:F759 43           ldw   (r3)
000A:F75A 00           stop
000A:F75B 43           ldw   (r3)
000A:F75C 00           stop
000A:F75D 43           ldw   (r3)
000A:F75E 00           stop
000A:F75F 43           ldw   (r3)
000A:F760 00           stop
000A:F761 43           ldw   (r3)
000A:F762 00           stop
000A:F763 43           ldw   (r3)
000A:F764 00           stop
000A:F765 43           ldw   (r3)
000A:F766 00           stop
000A:F767 43           ldw   (r3)
000A:F768 00           stop
000A:F769 43           ldw   (r3)
000A:F76A 00           stop
000A:F76B 43           ldw   (r3)
000A:F76C 00           stop
000A:F76D 43           ldw   (r3)
000A:F76E 00           stop
000A:F76F 43           ldw   (r3)
000A:F770 00           stop
000A:F771 43           ldw   (r3)
000A:F772 00           stop
000A:F773 43           ldw   (r3)
000A:F774 00           stop
000A:F775 43           ldw   (r3)
000A:F776 00           stop
000A:F777 43           ldw   (r3)
000A:F778 00           stop
000A:F779 43           ldw   (r3)
000A:F77A 00           stop
000A:F77B 42           ldw   (r2)
000A:F77C 00           stop
000A:F77D 41           ldw   (r1)
000A:F77E 00           stop
000A:F77F 40           ldw   (r0)
000A:F780 00           stop
000A:F781 46           ldw   (r6)
000A:F782 00           stop
000A:F783 46           ldw   (r6)
000A:F784 00           stop
000A:F785 46           ldw   (r6)
000A:F786 00           stop
000A:F787 46           ldw   (r6)
000A:F788 00           stop
000A:F789 46           ldw   (r6)
000A:F78A 00           stop
000A:F78B 46           ldw   (r6)
000A:F78C 00           stop
000A:F78D 47           ldw   (r7)
000A:F78E 00           stop
000A:F78F 47           ldw   (r7)
000A:F790 00           stop
000A:F791 47           ldw   (r7)
000A:F792 00           stop
000A:F793 47           ldw   (r7)
000A:F794 00           stop
000A:F795 47           ldw   (r7)
000A:F796 00           stop
000A:F797 47           ldw   (r7)
000A:F798 00           stop
000A:F799 46           ldw   (r6)
000A:F79A 00           stop
000A:F79B 46           ldw   (r6)
000A:F79C 00           stop
000A:F79D 46           ldw   (r6)
000A:F79E 00           stop
000A:F79F 46           ldw   (r6)
000A:F7A0 00           stop
000A:F7A1 46           ldw   (r6)
000A:F7A2 00           stop
000A:F7A3 46           ldw   (r6)
000A:F7A4 00           stop
000A:F7A5 4D           swap
000A:F7A6 00           stop
000A:F7A7 4D           swap
000A:F7A8 00           stop
000A:F7A9 4D           swap
000A:F7AA 00           stop
000A:F7AB 4D           swap
000A:F7AC 00           stop
000A:F7AD 4D           swap
000A:F7AE 00           stop
000A:F7AF 4D           swap
000A:F7B0 00           stop
000A:F7B1 44           ldw   (r4)
000A:F7B2 00           stop
000A:F7B3 44           ldw   (r4)
000A:F7B4 00           stop
000A:F7B5 44           ldw   (r4)
000A:F7B6 00           stop
000A:F7B7 44           ldw   (r4)
000A:F7B8 00           stop
000A:F7B9 44           ldw   (r4)
000A:F7BA 00           stop
000A:F7BB 44           ldw   (r4)
000A:F7BC 00           stop
000A:F7BD 45           ldw   (r5)
000A:F7BE 00           stop
000A:F7BF 45           ldw   (r5)
000A:F7C0 00           stop
000A:F7C1 45           ldw   (r5)
000A:F7C2 00           stop
000A:F7C3 45           ldw   (r5)
000A:F7C4 00           stop
000A:F7C5 45           ldw   (r5)
000A:F7C6 00           stop
000A:F7C7 45           ldw   (r5)
000A:F7C8 00           stop
000A:F7C9 44           ldw   (r4)
000A:F7CA 00           stop
000A:F7CB 44           ldw   (r4)
000A:F7CC 00           stop
000A:F7CD 44           ldw   (r4)
000A:F7CE 00           stop
000A:F7CF 44           ldw   (r4)
000A:F7D0 00           stop
000A:F7D1 44           ldw   (r4)
000A:F7D2 00           stop
000A:F7D3 44           ldw   (r4)
000A:F7D4 00           stop
000A:F7D5 29 03        lsr
000A:F7D7 35           stw   (r5)
000A:F7D8 19 A8 00     ibt   r8,#0000
000A:F7DB 00           stop
000A:F7DC 00           stop
000A:F7DD 08 00        bne   F7DF
000A:F7DF 74           and   r4
000A:F7E0 00           stop
000A:F7E1 00           stop
000A:F7E2 00           stop
000A:F7E3 00           stop
000A:F7E4 75           and   r5
000A:F7E5 00           stop
000A:F7E6 00           stop
000A:F7E7 04           rol
000A:F7E8 03           lsr
000A:F7E9 02           cache
000A:F7EA 02           cache
000A:F7EB 02           cache
000A:F7EC 01           nop
000A:F7ED 00           stop
000A:F7EE 00           stop
000A:F7EF 00           stop
000A:F7F0 00           stop
000A:F7F1 00           stop
000A:F7F2 00           stop
000A:F7F3 00           stop
000A:F7F4 00           stop
000A:F7F5 00           stop
000A:F7F6 00           stop
000A:F7F7 04           rol
000A:F7F8 03           lsr
000A:F7F9 02           cache
000A:F7FA 02           cache
000A:F7FB 02           cache
000A:F7FC 01           nop
000A:F7FD 00           stop
000A:F7FE 00           stop
000A:F7FF 00           stop
000A:F800 00           stop
000A:F801 00           stop
000A:F802 00           stop
000A:F803 00           stop
000A:F804 00           stop
000A:F805 00           stop
000A:F806 00           stop
000A:F807 04           rol
000A:F808 03           lsr
000A:F809 02           cache
000A:F80A 02           cache
000A:F80B 02           cache
000A:F80C 01           nop
000A:F80D 00           stop
000A:F80E 00           stop
000A:F80F 00           stop
000A:F810 00           stop
000A:F811 00           stop
000A:F812 00           stop
000A:F813 00           stop
000A:F814 00           stop
000A:F815 00           stop
000A:F816 00           stop
000A:F817 04           rol
000A:F818 03           lsr
000A:F819 02           cache
000A:F81A 02           cache
000A:F81B 02           cache
000A:F81C 01           nop
000A:F81D 00           stop
000A:F81E 00           stop
000A:F81F 00           stop
000A:F820 00           stop
000A:F821 00           stop
000A:F822 00           stop
000A:F823 00           stop
000A:F824 00           stop
000A:F825 00           stop
000A:F826 00           stop
000A:F827 04           rol
000A:F828 03           lsr
000A:F829 02           cache
000A:F82A 02           cache
000A:F82B 02           cache
000A:F82C 01           nop
000A:F82D 00           stop
000A:F82E 00           stop
000A:F82F 00           stop
000A:F830 00           stop
000A:F831 00           stop
000A:F832 00           stop
000A:F833 00           stop
000A:F834 00           stop
000A:F835 00           stop
000A:F836 00           stop
000A:F837 04           rol
000A:F838 03           lsr
000A:F839 02           cache
000A:F83A 02           cache
000A:F83B 02           cache
000A:F83C 01           nop
000A:F83D 00           stop
000A:F83E 00           stop
000A:F83F 00           stop
000A:F840 00           stop
000A:F841 00           stop
000A:F842 00           stop
000A:F843 00           stop
000A:F844 00           stop
000A:F845 00           stop
000A:F846 00           stop
000A:F847 04           rol
000A:F848 03           lsr
000A:F849 02           cache
000A:F84A 02           cache
000A:F84B 02           cache
000A:F84C 01           nop
000A:F84D 00           stop
000A:F84E 00           stop
000A:F84F 00           stop
000A:F850 00           stop
000A:F851 00           stop
000A:F852 00           stop
000A:F853 00           stop
000A:F854 00           stop
000A:F855 00           stop
000A:F856 00           stop
000A:F857 04           rol
000A:F858 03           lsr
000A:F859 02           cache
000A:F85A 02           cache
000A:F85B 02           cache
000A:F85C 01           nop
000A:F85D 00           stop
000A:F85E 00           stop
000A:F85F 00           stop
000A:F860 00           stop
000A:F861 00           stop
000A:F862 00           stop
000A:F863 00           stop
000A:F864 00           stop
000A:F865 00           stop
000A:F866 00           stop
000A:F867 04           rol
000A:F868 03           lsr
000A:F869 02           cache
000A:F86A 02           cache
000A:F86B 02           cache
000A:F86C 01           nop
000A:F86D 00           stop
000A:F86E 00           stop
000A:F86F 00           stop
000A:F870 00           stop
000A:F871 00           stop
000A:F872 00           stop
000A:F873 00           stop
000A:F874 00           stop
000A:F875 00           stop
000A:F876 00           stop
000A:F877 04           rol
000A:F878 03           lsr
000A:F879 02           cache
000A:F87A 02           cache
000A:F87B 02           cache
000A:F87C 01           nop
000A:F87D 00           stop
000A:F87E 00           stop
000A:F87F 00           stop
000A:F880 00           stop
000A:F881 00           stop
000A:F882 00           stop
000A:F883 00           stop
000A:F884 00           stop
000A:F885 00           stop
000A:F886 00           stop
000A:F887 06 05        bge   F88E
000A:F889 04           rol
000A:F88A 03           lsr
000A:F88B 03           lsr
000A:F88C 02           cache
000A:F88D 01           nop
000A:F88E 01           nop
000A:F88F 01           nop
000A:F890 00           stop
000A:F891 00           stop
000A:F892 00           stop
000A:F893 00           stop
000A:F894 00           stop
000A:F895 00           stop
000A:F896 00           stop
000A:F897 06 05        bge   F89E
000A:F899 04           rol
000A:F89A 03           lsr
000A:F89B 03           lsr
000A:F89C 02           cache
000A:F89D 01           nop
000A:F89E 01           nop
000A:F89F 01           nop
000A:F8A0 00           stop
000A:F8A1 00           stop
000A:F8A2 00           stop
000A:F8A3 00           stop
000A:F8A4 00           stop
000A:F8A5 00           stop
000A:F8A6 00           stop
000A:F8A7 06 05        bge   F8AE
000A:F8A9 04           rol
000A:F8AA 03           lsr
000A:F8AB 03           lsr
000A:F8AC 02           cache
000A:F8AD 01           nop
000A:F8AE 01           nop
000A:F8AF 01           nop
000A:F8B0 00           stop
000A:F8B1 00           stop
000A:F8B2 00           stop
000A:F8B3 00           stop
000A:F8B4 00           stop
000A:F8B5 00           stop
000A:F8B6 00           stop
000A:F8B7 06 05        bge   F8BE
000A:F8B9 04           rol
000A:F8BA 03           lsr
000A:F8BB 03           lsr
000A:F8BC 02           cache
000A:F8BD 01           nop
000A:F8BE 01           nop
000A:F8BF 01           nop
000A:F8C0 00           stop
000A:F8C1 00           stop
000A:F8C2 00           stop
000A:F8C3 00           stop
000A:F8C4 00           stop
000A:F8C5 00           stop
000A:F8C6 00           stop
000A:F8C7 06 05        bge   F8CE
000A:F8C9 04           rol
000A:F8CA 03           lsr
000A:F8CB 03           lsr
000A:F8CC 02           cache
000A:F8CD 01           nop
000A:F8CE 01           nop
000A:F8CF 01           nop
000A:F8D0 00           stop
000A:F8D1 00           stop
000A:F8D2 00           stop
000A:F8D3 00           stop
000A:F8D4 00           stop
000A:F8D5 00           stop
000A:F8D6 00           stop
000A:F8D7 06 05        bge   F8DE
000A:F8D9 04           rol
000A:F8DA 03           lsr
000A:F8DB 03           lsr
000A:F8DC 02           cache
000A:F8DD 01           nop
000A:F8DE 01           nop
000A:F8DF 01           nop
000A:F8E0 00           stop
000A:F8E1 00           stop
000A:F8E2 00           stop
000A:F8E3 00           stop
000A:F8E4 00           stop
000A:F8E5 00           stop
000A:F8E6 00           stop
000A:F8E7 06 05        bge   F8EE
000A:F8E9 04           rol
000A:F8EA 03           lsr
000A:F8EB 03           lsr
000A:F8EC 02           cache
000A:F8ED 01           nop
000A:F8EE 01           nop
000A:F8EF 01           nop
000A:F8F0 00           stop
000A:F8F1 00           stop
000A:F8F2 00           stop
000A:F8F3 00           stop
000A:F8F4 00           stop
000A:F8F5 00           stop
000A:F8F6 00           stop
000A:F8F7 06 05        bge   F8FE
000A:F8F9 04           rol
000A:F8FA 03           lsr
000A:F8FB 03           lsr
000A:F8FC 02           cache
000A:F8FD 01           nop
000A:F8FE 01           nop
000A:F8FF 01           nop
000A:F900 00           stop
000A:F901 00           stop
000A:F902 00           stop
000A:F903 00           stop
000A:F904 00           stop
000A:F905 00           stop
000A:F906 00           stop
000A:F907 06 05        bge   F90E
000A:F909 04           rol
000A:F90A 03           lsr
000A:F90B 03           lsr
000A:F90C 02           cache
000A:F90D 01           nop
000A:F90E 01           nop
000A:F90F 01           nop
000A:F910 00           stop
000A:F911 00           stop
000A:F912 00           stop
000A:F913 00           stop
000A:F914 00           stop
000A:F915 00           stop
000A:F916 00           stop
000A:F917 06 05        bge   F91E
000A:F919 04           rol
000A:F91A 03           lsr
000A:F91B 03           lsr
000A:F91C 02           cache
000A:F91D 01           nop
000A:F91E 01           nop
000A:F91F 01           nop
000A:F920 00           stop
000A:F921 00           stop
000A:F922 00           stop
000A:F923 00           stop
000A:F924 00           stop
000A:F925 00           stop
000A:F926 00           stop
000A:F927 01           nop
000A:F928 02           cache
000A:F929 02           cache
000A:F92A 01           nop
000A:F92B 01           nop
000A:F92C 01           nop
000A:F92D 01           nop
000A:F92E 01           nop
000A:F92F 01           nop
000A:F930 00           stop
000A:F931 00           stop
000A:F932 00           stop
000A:F933 00           stop
000A:F934 00           stop
000A:F935 00           stop
000A:F936 00           stop
000A:F937 01           nop
000A:F938 02           cache
000A:F939 02           cache
000A:F93A 01           nop
000A:F93B 01           nop
000A:F93C 01           nop
000A:F93D 01           nop
000A:F93E 01           nop
000A:F93F 01           nop
000A:F940 00           stop
000A:F941 00           stop
000A:F942 00           stop
000A:F943 00           stop
000A:F944 00           stop
000A:F945 00           stop
000A:F946 00           stop
000A:F947 01           nop
000A:F948 02           cache
000A:F949 02           cache
000A:F94A 01           nop
000A:F94B 01           nop
000A:F94C 01           nop
000A:F94D 01           nop
000A:F94E 01           nop
000A:F94F 01           nop
000A:F950 00           stop
000A:F951 00           stop
000A:F952 00           stop
000A:F953 00           stop
000A:F954 00           stop
000A:F955 00           stop
000A:F956 00           stop
000A:F957 01           nop
000A:F958 02           cache
000A:F959 02           cache
000A:F95A 01           nop
000A:F95B 01           nop
000A:F95C 01           nop
000A:F95D 01           nop
000A:F95E 01           nop
000A:F95F 01           nop
000A:F960 00           stop
000A:F961 00           stop
000A:F962 00           stop
000A:F963 00           stop
000A:F964 00           stop
000A:F965 00           stop
000A:F966 00           stop
000A:F967 01           nop
000A:F968 02           cache
000A:F969 02           cache
000A:F96A 01           nop
000A:F96B 01           nop
000A:F96C 01           nop
000A:F96D 01           nop
000A:F96E 01           nop
000A:F96F 01           nop
000A:F970 00           stop
000A:F971 00           stop
000A:F972 00           stop
000A:F973 00           stop
000A:F974 00           stop
000A:F975 00           stop
000A:F976 00           stop
000A:F977 01           nop
000A:F978 02           cache
000A:F979 02           cache
000A:F97A 01           nop
000A:F97B 01           nop
000A:F97C 01           nop
000A:F97D 01           nop
000A:F97E 01           nop
000A:F97F 01           nop
000A:F980 00           stop
000A:F981 00           stop
000A:F982 00           stop
000A:F983 00           stop
000A:F984 00           stop
000A:F985 00           stop
000A:F986 00           stop
000A:F987 01           nop
000A:F988 02           cache
000A:F989 02           cache
000A:F98A 01           nop
000A:F98B 01           nop
000A:F98C 01           nop
000A:F98D 01           nop
000A:F98E 01           nop
000A:F98F 01           nop
000A:F990 00           stop
000A:F991 00           stop
000A:F992 00           stop
000A:F993 00           stop
000A:F994 00           stop
000A:F995 00           stop
000A:F996 00           stop
000A:F997 01           nop
000A:F998 02           cache
000A:F999 02           cache
000A:F99A 01           nop
000A:F99B 01           nop
000A:F99C 01           nop
000A:F99D 01           nop
000A:F99E 01           nop
000A:F99F 01           nop
000A:F9A0 00           stop
000A:F9A1 00           stop
000A:F9A2 00           stop
000A:F9A3 00           stop
000A:F9A4 00           stop
000A:F9A5 00           stop
000A:F9A6 00           stop
000A:F9A7 01           nop
000A:F9A8 02           cache
000A:F9A9 02           cache
000A:F9AA 01           nop
000A:F9AB 01           nop
000A:F9AC 01           nop
000A:F9AD 01           nop
000A:F9AE 01           nop
000A:F9AF 01           nop
000A:F9B0 00           stop
000A:F9B1 00           stop
000A:F9B2 00           stop
000A:F9B3 00           stop
000A:F9B4 00           stop
000A:F9B5 00           stop
000A:F9B6 00           stop
000A:F9B7 01           nop
000A:F9B8 02           cache
000A:F9B9 02           cache
000A:F9BA 01           nop
000A:F9BB 01           nop
000A:F9BC 01           nop
000A:F9BD 01           nop
000A:F9BE 01           nop
000A:F9BF 01           nop
000A:F9C0 00           stop
000A:F9C1 00           stop
000A:F9C2 00           stop
000A:F9C3 00           stop
000A:F9C4 00           stop
000A:F9C5 00           stop
000A:F9C6 00           stop
000A:F9C7 01           nop
000A:F9C8 02           cache
000A:F9C9 03           lsr
000A:F9CA 02           cache
000A:F9CB 02           cache
000A:F9CC 02           cache
000A:F9CD 02           cache
000A:F9CE 01           nop
000A:F9CF 01           nop
000A:F9D0 00           stop
000A:F9D1 00           stop
000A:F9D2 00           stop
000A:F9D3 00           stop
000A:F9D4 00           stop
000A:F9D5 00           stop
000A:F9D6 00           stop
000A:F9D7 01           nop
000A:F9D8 02           cache
000A:F9D9 03           lsr
000A:F9DA 02           cache
000A:F9DB 02           cache
000A:F9DC 02           cache
000A:F9DD 02           cache
000A:F9DE 01           nop
000A:F9DF 01           nop
000A:F9E0 00           stop
000A:F9E1 00           stop
000A:F9E2 00           stop
000A:F9E3 00           stop
000A:F9E4 00           stop
000A:F9E5 00           stop
000A:F9E6 00           stop
000A:F9E7 01           nop
000A:F9E8 02           cache
000A:F9E9 03           lsr
000A:F9EA 02           cache
000A:F9EB 02           cache
000A:F9EC 02           cache
000A:F9ED 02           cache
000A:F9EE 01           nop
000A:F9EF 01           nop
000A:F9F0 00           stop
000A:F9F1 00           stop
000A:F9F2 00           stop
000A:F9F3 00           stop
000A:F9F4 00           stop
000A:F9F5 00           stop
000A:F9F6 00           stop
000A:F9F7 01           nop
000A:F9F8 02           cache
000A:F9F9 03           lsr
000A:F9FA 02           cache
000A:F9FB 02           cache
000A:F9FC 02           cache
000A:F9FD 02           cache
000A:F9FE 01           nop
000A:F9FF 01           nop
000A:FA00 00           stop
000A:FA01 00           stop
000A:FA02 00           stop
000A:FA03 00           stop
000A:FA04 00           stop
000A:FA05 00           stop
000A:FA06 00           stop
000A:FA07 01           nop
000A:FA08 02           cache
000A:FA09 03           lsr
000A:FA0A 02           cache
000A:FA0B 02           cache
000A:FA0C 02           cache
000A:FA0D 02           cache
000A:FA0E 01           nop
000A:FA0F 01           nop
000A:FA10 00           stop
000A:FA11 00           stop
000A:FA12 00           stop
000A:FA13 00           stop
000A:FA14 00           stop
000A:FA15 00           stop
000A:FA16 00           stop
000A:FA17 01           nop
000A:FA18 02           cache
000A:FA19 03           lsr
000A:FA1A 02           cache
000A:FA1B 02           cache
000A:FA1C 02           cache
000A:FA1D 02           cache
000A:FA1E 01           nop
000A:FA1F 01           nop
000A:FA20 00           stop
000A:FA21 00           stop
000A:FA22 00           stop
000A:FA23 00           stop
000A:FA24 00           stop
000A:FA25 00           stop
000A:FA26 00           stop
000A:FA27 01           nop
000A:FA28 02           cache
000A:FA29 03           lsr
000A:FA2A 02           cache
000A:FA2B 02           cache
000A:FA2C 02           cache
000A:FA2D 02           cache
000A:FA2E 01           nop
000A:FA2F 01           nop
000A:FA30 00           stop
000A:FA31 00           stop
000A:FA32 00           stop
000A:FA33 00           stop
000A:FA34 00           stop
000A:FA35 00           stop
000A:FA36 00           stop
000A:FA37 01           nop
000A:FA38 02           cache
000A:FA39 03           lsr
000A:FA3A 02           cache
000A:FA3B 02           cache
000A:FA3C 02           cache
000A:FA3D 02           cache
000A:FA3E 01           nop
000A:FA3F 01           nop
000A:FA40 00           stop
000A:FA41 00           stop
000A:FA42 00           stop
000A:FA43 00           stop
000A:FA44 00           stop
000A:FA45 00           stop
000A:FA46 00           stop
000A:FA47 01           nop
000A:FA48 02           cache
000A:FA49 03           lsr
000A:FA4A 02           cache
000A:FA4B 02           cache
000A:FA4C 02           cache
000A:FA4D 02           cache
000A:FA4E 01           nop
000A:FA4F 01           nop
000A:FA50 00           stop
000A:FA51 00           stop
000A:FA52 00           stop
000A:FA53 00           stop
000A:FA54 00           stop
000A:FA55 00           stop
000A:FA56 00           stop
000A:FA57 01           nop
000A:FA58 02           cache
000A:FA59 03           lsr
000A:FA5A 02           cache
000A:FA5B 02           cache
000A:FA5C 02           cache
000A:FA5D 02           cache
000A:FA5E 01           nop
000A:FA5F 01           nop
000A:FA60 00           stop
000A:FA61 00           stop
000A:FA62 00           stop
000A:FA63 00           stop
000A:FA64 00           stop
000A:FA65 00           stop
000A:FA66 00           stop
000A:FA67 00           stop
000A:FA68 00           stop
000A:FA69 A0 00        ibt   r0,#0000
000A:FA6B 40           ldw   (r0)
000A:FA6C 01           nop
000A:FA6D 40           ldw   (r0)
000A:FA6E 01           nop
000A:FA6F A0 00        ibt   r0,#0000
000A:FA71 E0           dec   r0
000A:FA72 01           nop
000A:FA73 01           nop
000A:FA74 00           stop
000A:FA75 02           cache
000A:FA76 00           stop
000A:FA77 03           lsr
000A:FA78 00           stop
000A:FA79 04           rol
000A:FA7A 00           stop
000A:FA7B 05 00        bra   FA7D
000A:FA7D 09 00        beq   FA7F
000A:FA7F 0A 00        bpl   FA81
000A:FA81 0B 00        bmi   FA83
000A:FA83 0C 00        bcc   FA85
000A:FA85 10 00        stop
000A:FA87 4E           color
000A:FA88 00           stop
000A:FA89 4F           not
000A:FA8A 00           stop
000A:FA8B 50           add   r0
000A:FA8C 00           stop
000A:FA8D 51           add   r1
000A:FA8E 00           stop
000A:FA8F 52           add   r2
000A:FA90 00           stop
000A:FA91 4E           color
000A:FA92 00           stop
000A:FA93 4F           not
000A:FA94 00           stop
000A:FA95 50           add   r0
000A:FA96 00           stop
000A:FA97 51           add   r1
000A:FA98 00           stop
000A:FA99 52           add   r2
000A:FA9A 00           stop
000A:FA9B AD 00        ibt   r13,#0000
000A:FA9D AE 00        ibt   r14,#0000
000A:FA9F AF 00        ibt   r15,#0000
000A:FAA1 B0 00        stop
000A:FAA3 B1 00        stop
000A:FAA5 AD 00        ibt   r13,#0000
000A:FAA7 AE 00        ibt   r14,#0000
000A:FAA9 AF 00        ibt   r15,#0000
000A:FAAB B0 00        stop
000A:FAAD B1 00        stop
000A:FAAF C8           or    r8
000A:FAB0 00           stop
000A:FAB1 C9           or    r9
000A:FAB2 00           stop
000A:FAB3 CA           or    r10
000A:FAB4 00           stop
000A:FAB5 CB           or    r11
000A:FAB6 00           stop
000A:FAB7 CC           or    r12
000A:FAB8 00           stop
000A:FAB9 C8           or    r8
000A:FABA 00           stop
000A:FABB C9           or    r9
000A:FABC 00           stop
000A:FABD CA           or    r10
000A:FABE 00           stop
000A:FABF CB           or    r11
000A:FAC0 00           stop
000A:FAC1 CC           or    r12
000A:FAC2 00           stop
000A:FAC3 BA 00        stop
000A:FAC5 BB 00        stop
000A:FAC7 BC 00        stop
000A:FAC9 BD 00        stop
000A:FACB BE 00        stop
000A:FACD BA 00        stop
000A:FACF BB 00        stop
000A:FAD1 BC 00        stop
000A:FAD3 BD 00        stop
000A:FAD5 BE 00        stop
000A:FAD7 D5           inc   r5
000A:FAD8 00           stop
000A:FAD9 D6           inc   r6
000A:FADA 00           stop
000A:FADB D7           inc   r7
000A:FADC 00           stop
000A:FADD D8           inc   r8
000A:FADE 00           stop
000A:FADF D9           inc   r9
000A:FAE0 00           stop
000A:FAE1 D5           inc   r5
000A:FAE2 00           stop
000A:FAE3 D6           inc   r6
000A:FAE4 00           stop
000A:FAE5 D7           inc   r7
000A:FAE6 00           stop
000A:FAE7 D8           inc   r8
000A:FAE8 00           stop
000A:FAE9 D9           inc   r9
000A:FAEA 00           stop
000A:FAEB B8 00        stop
000A:FAED B9 00        stop
000A:FAEF B8 00        stop
000A:FAF1 B7 00        stop
000A:FAF3 B8 00        stop
000A:FAF5 B9 00        stop
000A:FAF7 B8 00        stop
000A:FAF9 B7 00        stop
000A:FAFB B6 00        stop
000A:FAFD B5 00        stop
000A:FAFF B4 00        stop
000A:FB01 B3 00        stop
000A:FB03 B2 00        stop
000A:FB05 A4 00        ibt   r4,#0000
000A:FB07 A5 00        ibt   r5,#0000
000A:FB09 A6 00        ibt   r6,#0000
000A:FB0B A7 00        ibt   r7,#0000
000A:FB0D A8 00        ibt   r8,#0000
000A:FB0F A9 00        ibt   r9,#0000
000A:FB11 AA 00        ibt   r10,#0000
000A:FB13 AB 00        ibt   r11,#0000
000A:FB15 AC 00        ibt   r12,#0000
000A:FB17 AB 00        ibt   r11,#0000
000A:FB19 AA 00        ibt   r10,#0000
000A:FB1B AB 00        ibt   r11,#0000
000A:FB1D AC 00        ibt   r12,#0000
000A:FB1F AB 00        ibt   r11,#0000
000A:FB21 D3           inc   r3
000A:FB22 00           stop
000A:FB23 D4           inc   r4
000A:FB24 00           stop
000A:FB25 D3           inc   r3
000A:FB26 00           stop
000A:FB27 D2           inc   r2
000A:FB28 00           stop
000A:FB29 D3           inc   r3
000A:FB2A 00           stop
000A:FB2B D4           inc   r4
000A:FB2C 00           stop
000A:FB2D D3           inc   r3
000A:FB2E 00           stop
000A:FB2F D2           inc   r2
000A:FB30 00           stop
000A:FB31 D1           inc   r1
000A:FB32 00           stop
000A:FB33 D0           inc   r0
000A:FB34 00           stop
000A:FB35 CF           or    r15
000A:FB36 00           stop
000A:FB37 CE           or    r14
000A:FB38 00           stop
000A:FB39 CD           or    r13
000A:FB3A 00           stop
000A:FB3B BF 00        stop
000A:FB3D C0           hib
000A:FB3E 00           stop
000A:FB3F C1           or    r1
000A:FB40 00           stop
000A:FB41 C2           or    r2
000A:FB42 00           stop
000A:FB43 C3           or    r3
000A:FB44 00           stop
000A:FB45 C4           or    r4
000A:FB46 00           stop
000A:FB47 C5           or    r5
000A:FB48 00           stop
000A:FB49 C6           or    r6
000A:FB4A 00           stop
000A:FB4B C7           or    r7
000A:FB4C 00           stop
000A:FB4D C6           or    r6
000A:FB4E 00           stop
000A:FB4F C5           or    r5
000A:FB50 00           stop
000A:FB51 C6           or    r6
000A:FB52 00           stop
000A:FB53 C7           or    r7
000A:FB54 00           stop
000A:FB55 C6           or    r6
000A:FB56 00           stop
000A:FB57 20 14        move  r4,r0
000A:FB59 04           rol
000A:FB5A 10 04        rol
000A:FB5C 13           to    r3
000A:FB5D 07 03        blt   FB62
000A:FB5F 03           lsr
000A:FB60 03           lsr
000A:FB61 03           lsr
000A:FB62 03           lsr
000A:FB63 03           lsr
000A:FB64 04           rol
000A:FB65 04           rol
000A:FB66 04           rol
000A:FB67 04           rol
000A:FB68 04           rol
000A:FB69 04           rol
000A:FB6A 04           rol
000A:FB6B 08 11        bne   FB7E
000A:FB6D 04           rol
000A:FB6E 08 04        bne   FB74
000A:FB70 11 20 A0 40  ibt   r0,#0040
000A:FB74 80           mult  r0
000A:FB75 20 80        mult  r0
000A:FB77 20 A0 40     ibt   r0,#0040
000A:FB7A E0           dec   r0
000A:FB7B 00           stop
000A:FB7C 04           rol
000A:FB7D 00           stop
000A:FB7E 00           stop
000A:FB7F E0           dec   r0
000A:FB80 00           stop
000A:FB81 FC 00 00     iwt   r12,#0000
000A:FB84 E0           dec   r0
000A:FB85 00           stop
000A:FB86 FC 00 00     iwt   r12,#0000
000A:FB89 00           stop
000A:FB8A 00           stop
000A:FB8B 00           stop
000A:FB8C 00           stop
000A:FB8D 04           rol
000A:FB8E D0           inc   r0
000A:FB8F D4           inc   r4
000A:FB90 02           cache
000A:FB91 D4           inc   r4
000A:FB92 02           cache
000A:FB93 D0           inc   r0
000A:FB94 2C FD D4 02  iwt   r13,#02D4
000A:FB98 D0           inc   r0
000A:FB99 2C FD D4 02  iwt   r13,#02D4
000A:FB9D 00           stop
000A:FB9E 00           stop
000A:FB9F 00           stop
000A:FBA0 00           stop
000A:FBA1 FC F0 D4     iwt   r12,#D4F0
000A:FBA4 02           cache
000A:FBA5 2C FD F0 2C  iwt   r13,#2CF0
000A:FBA9 FD 2C FD     iwt   r13,#FD2C
000A:FBAC F0 2C FD     iwt   r0,#FD2C
000A:FBAF 2C FD 00 00  iwt   r13,#0000
000A:FBB3 00           stop
000A:FBB4 00           stop
000A:FBB5 FC F0 D4     iwt   r12,#D4F0
000A:FBB8 02           cache
000A:FBB9 2C FD F0 2C  iwt   r13,#2CF0
000A:FBBD FD 2C FD     iwt   r13,#FD2C
000A:FBC0 F0 2C FD     iwt   r0,#FD2C
000A:FBC3 2C FD 00 00  iwt   r13,#0000
000A:FBC7 00           stop
000A:FBC8 00           stop
000A:FBC9 00           stop
000A:FBCA 00           stop
000A:FBCB 80           mult  r0
000A:FBCC 01           nop
000A:FBCD 00           stop
000A:FBCE 00           stop
000A:FBCF 00           stop
000A:FBD0 80           mult  r0
000A:FBD1 FE 00 00     iwt   r14,#0000
000A:FBD4 00           stop
000A:FBD5 80           mult  r0
000A:FBD6 FE 00 00     iwt   r14,#0000
000A:FBD9 40           ldw   (r0)
000A:FBDA 00           stop
000A:FBDB 00           stop
000A:FBDC 80           mult  r0
000A:FBDD 01           nop
000A:FBDE 20 10        move  r0,r0
000A:FBE0 01           nop
000A:FBE1 10 01        nop
000A:FBE3 20 F0 FE 10  iwt   r0,#10FE
000A:FBE7 01           nop
000A:FBE8 20 F0 FE 10  iwt   r0,#10FE
000A:FBEC 01           nop
000A:FBED C0           hib
000A:FBEE 00           stop
000A:FBEF 00           stop
000A:FBF0 80           mult  r0
000A:FBF1 FE E0 10     iwt   r14,#10E0
000A:FBF4 01           nop
000A:FBF5 F0 FE E0     iwt   r0,#E0FE
000A:FBF8 F0 FE F0     iwt   r0,#F0FE
000A:FBFB FE E0 F0     iwt   r14,#F0E0
000A:FBFE FE F0 FE     iwt   r14,#FEF0
000A:FC01 C0           hib
000A:FC02 00           stop
000A:FC03 00           stop
000A:FC04 80           mult  r0
000A:FC05 FE E0 10     iwt   r14,#10E0
000A:FC08 01           nop
000A:FC09 F0 FE E0     iwt   r0,#E0FE
000A:FC0C F0 FE F0     iwt   r0,#F0FE
000A:FC0F FE E0 F0     iwt   r14,#F0E0
000A:FC12 FE F0 FE     iwt   r14,#FEF0
000A:FC15 A0 60        ibt   r0,#0060
000A:FC17 C0           hib
000A:FC18 60           sub   r0
000A:FC19 FF FC F9     iwt   r15,#F9FC
000A:FC1C 00           stop
000A:FC1D 07 03        blt   FC22
000A:FC1F 01           nop
000A:FC20 00           stop
000A:FC21 00           stop
000A:FC22 C0           hib
000A:FC23 80           mult  r0
000A:FC24 40           ldw   (r0)
000A:FC25 03           lsr
000A:FC26 02           cache
000A:FC27 0C 08        bcc   FC31
000A:FC29 03           lsr
000A:FC2A 01           nop
000A:FC2B 0C 04        bcc   FC31
000A:FC2D 00           stop
000A:FC2E 02           cache
000A:FC2F 03           lsr
000A:FC30 01           nop
000A:FC31 00           stop
000A:FC32 01           nop
000A:FC33 03           lsr
000A:FC34 02           cache
000A:FC35 02           cache
000A:FC36 00           stop
000A:FC37 05 00        bra   FC39
000A:FC39 A0 00        ibt   r0,#0000
000A:FC3B 04           rol
000A:FC3C 00           stop
000A:FC3D 40           ldw   (r0)
000A:FC3E 01           nop
000A:FC3F 80           mult  r0
000A:FC40 00           stop
000A:FC41 04           rol
000A:FC42 01           nop
000A:FC43 1A 00        stop
000A:FC45 00           stop
000A:FC46 01           nop
000A:FC47 41           ldw   (r1)
000A:FC48 00           stop
000A:FC49 18 00        stop
000A:FC4B 40           ldw   (r0)
000A:FC4C 01           nop
000A:FC4D A0 00        ibt   r0,#0000
000A:FC4F 40           ldw   (r0)
000A:FC50 00           stop
000A:FC51 A0 00        ibt   r0,#0000
000A:FC53 20 00        stop
000A:FC55 41           ldw   (r1)
000A:FC56 00           stop
000A:FC57 1A 00        stop
000A:FC59 01           nop
000A:FC5A 00           stop
000A:FC5B 1A 00        stop
000A:FC5D 18 00        stop
000A:FC5F E0           dec   r0
000A:FC60 01           nop
000A:FC61 80           mult  r0
000A:FC62 01           nop
000A:FC63 00           stop
000A:FC64 20 00        stop
000A:FC66 5B           add   r11
000A:FC67 00           stop
000A:FC68 58           add   r8
000A:FC69 00           stop
000A:FC6A 01           nop
000A:FC6B 02           cache
000A:FC6C 00           stop
000A:FC6D A5 00        ibt   r5,#0000
000A:FC6F 21 00        stop
000A:FC71 04           rol
000A:FC72 80           mult  r0
000A:FC73 00           stop
000A:FC74 1E 01        nop
000A:FC76 06 00        bge   FC78
000A:FC78 02           cache
000A:FC79 A0 00        ibt   r0,#0000
000A:FC7B 80           mult  r0
000A:FC7C 00           stop
000A:FC7D 20 00        stop
000A:FC7F 1A 00        stop
000A:FC81 02           cache
000A:FC82 00           stop
000A:FC83 01           nop
000A:FC84 00           stop
000A:FC85 01           nop
000A:FC86 00           stop
000A:FC87 04           rol
000A:FC88 00           stop
000A:FC89 1A 00        stop
000A:FC8B 18 00        stop
000A:FC8D 02           cache
000A:FC8E 00           stop
000A:FC8F A0 00        ibt   r0,#0000
000A:FC91 08 00        bne   FC93
000A:FC93 04           rol
000A:FC94 00           stop
000A:FC95 04           rol
000A:FC96 00           stop
000A:FC97 00           stop
000A:FC98 01           nop
000A:FC99 A0 00        ibt   r0,#0000
000A:FC9B 20 00        stop
000A:FC9D 80           mult  r0
000A:FC9E 00           stop
000A:FC9F 1A 00        stop
000A:FCA1 01           nop
000A:FCA2 00           stop
000A:FCA3 02           cache
000A:FCA4 00           stop
000A:FCA5 00           stop
000A:FCA6 01           nop
000A:FCA7 40           ldw   (r0)
000A:FCA8 00           stop
000A:FCA9 1A 00        stop
000A:FCAB 02           cache
000A:FCAC 00           stop
000A:FCAD 18 00        stop
000A:FCAF A0 00        ibt   r0,#0000
000A:FCB1 04           rol
000A:FCB2 00           stop
000A:FCB3 08 00        bne   FCB5
000A:FCB5 40           ldw   (r0)
000A:FCB6 00           stop
000A:FCB7 01           nop
000A:FCB8 00           stop
000A:FCB9 04           rol
000A:FCBA 02           cache
000A:FCBB 08 01        bne   FCBE
000A:FCBD 08 01        bne   FCC0
000A:FCBF 04           rol
000A:FCC0 02           cache
000A:FCC1 10           to    r0
000A:FCC2 05 0A        bra   FCCE
000A:FCC4 04           rol
000A:FCC5 08 03        bne   FCCA
000A:FCC7 06 02        bge   FCCB
000A:FCC9 04           rol
000A:FCCA 02           cache
000A:FCCB 02           cache
000A:FCCC 01           nop
000A:FCCD 01           nop
000A:FCCE 01           nop
000A:FCCF 00           stop
000A:FCD0 00           stop
000A:FCD1 30           stw   (r0)
000A:FCD2 0D 2C        bcs   FD00
000A:FCD4 0C 28        bcc   FCFE
000A:FCD6 0B 24        bmi   FCFC
000A:FCD8 0A 20        bpl   FCFA
000A:FCDA 09 1C        beq   FCF8
000A:FCDC 08 18        bne   FCF6
000A:FCDE 07 14        blt   FCF4
000A:FCE0 06 19        bge   FCFB
000A:FCE2 1E 23 28 2D+ stw   (r2)
000A:FCE7 37           stw   (r7)
000A:FCE8 1E 01        nop
000A:FCEA 1D 01        nop
000A:FCEC 21 01        nop
000A:FCEE 20 01        nop
000A:FCF0 1F 01        nop
000A:FCF2 20 01        nop
000A:FCF4 1C 01        nop
000A:FCF6 1B 01        nop
000A:FCF8 1A 01        nop
000A:FCFA 19 01        nop
000A:FCFC 18 01        nop
000A:FCFE 17 01        nop
000A:FD00 18 01        nop
000A:FD02 04           rol
000A:FD03 04           rol
000A:FD04 02           cache
000A:FD05 04           rol
000A:FD06 02           cache
000A:FD07 04           rol
000A:FD08 02           cache
000A:FD09 04           rol
000A:FD0A 02           cache
000A:FD0B 04           rol
000A:FD0C FA 04 F4     iwt   r10,#F404
000A:FD0F 04           rol
000A:FD10 FE 04 FE     iwt   r14,#FE04
000A:FD13 04           rol
000A:FD14 FE 04 FE     iwt   r14,#FE04
000A:FD17 04           rol
000A:FD18 FC 04 FE     iwt   r12,#FE04
000A:FD1B 04           rol
000A:FD1C 02           cache
000A:FD1D 04           rol
000A:FD1E 0A 04        bpl   FD24
000A:FD20 08 04        bne   FD26
000A:FD22 06 04        bge   FD28
000A:FD24 04           rol
000A:FD25 04           rol
000A:FD26 02           cache
000A:FD27 04           rol
000A:FD28 02           cache
000A:FD29 04           rol
000A:FD2A 02           cache
000A:FD2B 04           rol
000A:FD2C 02           cache
000A:FD2D 04           rol
000A:FD2E 02           cache
000A:FD2F 04           rol
000A:FD30 02           cache
000A:FD31 04           rol
000A:FD32 02           cache
000A:FD33 04           rol
000A:FD34 FA 04 00     iwt   r10,#0004
000A:FD37 00           stop
000A:FD38 FE 04 FE     iwt   r14,#FE04
000A:FD3B 04           rol
000A:FD3C FC 04 FA     iwt   r12,#FA04
000A:FD3F 04           rol
000A:FD40 F8 04 F6     iwt   r8,#F604
000A:FD43 04           rol
000A:FD44 FE 04 FE     iwt   r14,#FE04
000A:FD47 04           rol
000A:FD48 04           rol
000A:FD49 04           rol
000A:FD4A 02           cache
000A:FD4B 04           rol
000A:FD4C FA 04 FE     iwt   r10,#FE04
000A:FD4F 04           rol
000A:FD50 A1 60        ibt   r1,#0060
000A:FD52 00           stop
000A:FD53 00           stop
000A:FD54 00           stop
000A:FD55 E1           dec   r1
000A:FD56 40           ldw   (r0)
000A:FD57 00           stop
000A:FD58 00           stop
000A:FD59 00           stop
000A:FD5A 81           mult  r1
000A:FD5B 60           sub   r0
000A:FD5C 00           stop
000A:FD5D 00           stop
000A:FD5E 00           stop
000A:FD5F 81           mult  r1
000A:FD60 00           stop
000A:FD61 00           stop
000A:FD62 00           stop
000A:FD63 00           stop
000A:FD64 A1 40        ibt   r1,#0040
000A:FD66 01           nop
000A:FD67 16 01        nop
000A:FD69 61           sub   r1
000A:FD6A 00           stop
000A:FD6B 01           nop
000A:FD6C 16 01        nop
000A:FD6E 21 60        sub   r0
000A:FD70 01           nop
000A:FD71 16 01        nop
000A:FD73 41           ldw   (r1)
000A:FD74 60           sub   r0
000A:FD75 01           nop
000A:FD76 16 01        nop
000A:FD78 61           sub   r1
000A:FD79 60           sub   r0
000A:FD7A 01           nop
000A:FD7B 16 01        nop
000A:FD7D 81           mult  r1
000A:FD7E 00           stop
000A:FD7F 01           nop
000A:FD80 22 01        nop
000A:FD82 81           mult  r1
000A:FD83 00           stop
000A:FD84 01           nop
000A:FD85 23 01        nop
000A:FD87 81           mult  r1
000A:FD88 00           stop
000A:FD89 01           nop
000A:FD8A 24 01        nop
000A:FD8C 00           stop
000A:FD8D 20 20 20 C0  hib
000A:FD91 40           ldw   (r0)
000A:FD92 80           mult  r0
000A:FD93 00           stop
000A:FD94 08 C0        bne   FD56
000A:FD96 08 C0        bne   FD58
000A:FD98 01           nop
000A:FD99 00           stop
000A:FD9A 00           stop
000A:FD9B 00           stop
000A:FD9C 00           stop
000A:FD9D 00           stop
000A:FD9E 02           cache
000A:FD9F 80           mult  r0
000A:FDA0 00           stop
000A:FDA1 00           stop
000A:FDA2 00           stop
000A:FDA3 00           stop
000A:FDA4 00           stop
000A:FDA5 00           stop
000A:FDA6 00           stop
000A:FDA7 00           stop
000A:FDA8 00           stop
000A:FDA9 00           stop
000A:FDAA 00           stop
000A:FDAB 08 00        bne   FDAD
000A:FDAD 00           stop
000A:FDAE 08 10        bne   FDC0
000A:FDB0 00           stop
000A:FDB1 00           stop
000A:FDB2 00           stop
000A:FDB3 08 00        bne   FDB5
000A:FDB5 00           stop
000A:FDB6 08 08        bne   FDC0
000A:FDB8 00           stop
000A:FDB9 00           stop
000A:FDBA 01           nop
000A:FDBB 00           stop
000A:FDBC 01           nop
000A:FDBD 01           nop
000A:FDBE 00           stop
000A:FDBF 01           nop
000A:FDC0 FF 01 FF     iwt   r15,#FF01
000A:FDC3 00           stop
000A:FDC4 FF FF 00     iwt   r15,#00FF
000A:FDC7 FF 01 FF     iwt   r15,#FF01
000A:FDCA 00           stop
000A:FDCB 80           mult  r0
000A:FDCC 00           stop
000A:FDCD 40           ldw   (r0)
000A:FDCE 60           sub   r0
000A:FDCF 20 60        sub   r0
000A:FDD1 C0           hib
000A:FDD2 A0 E0        ibt   r0,#FFE0
000A:FDD4 A0 40        ibt   r0,#0040
000A:FDD6 60           sub   r0
000A:FDD7 20 60        sub   r0
000A:FDD9 80           mult  r0
000A:FDDA 40           ldw   (r0)
000A:FDDB 20 10        move  r0,r0
000A:FDDD 08 04        bne   FDE3
000A:FDDF 02           cache
000A:FDE0 01           nop
000A:FDE1 08 08        bne   FDEB
000A:FDE3 08 08        bne   FDED
000A:FDE5 08 08        bne   FDEF
000A:FDE7 08 08        bne   FDF1
000A:FDE9 08 08        bne   FDF3
000A:FDEB 08 08        bne   FDF5
000A:FDED 08 08        bne   FDF7
000A:FDEF 08 08        bne   FDF9
000A:FDF1 00           stop
000A:FDF2 00           stop
000A:FDF3 00           stop
000A:FDF4 00           stop
000A:FDF5 01           nop
000A:FDF6 02           cache
000A:FDF7 04           rol
000A:FDF8 08 10        bne   FE0A
000A:FDFA 20 40        ldw   (r0)
000A:FDFC 80           mult  r0
000A:FDFD 00           stop
000A:FDFE 00           stop
000A:FDFF 00           stop
000A:FE00 00           stop
000A:FE01 08 04        bne   FE07
000A:FE03 02           cache
000A:FE04 01           nop
000A:FE05 00           stop
000A:FE06 00           stop
000A:FE07 00           stop
000A:FE08 00           stop
000A:FE09 00           stop
000A:FE0A 00           stop
000A:FE0B 00           stop
000A:FE0C 00           stop
000A:FE0D 80           mult  r0
000A:FE0E 40           ldw   (r0)
000A:FE0F 20 10        move  r0,r0
000A:FE11 00           stop
000A:FE12 00           stop
000A:FE13 00           stop
000A:FE14 00           stop
000A:FE15 FF 00 00     iwt   r15,#0000
000A:FE18 00           stop
000A:FE19 08 08        bne   FE23
000A:FE1B 08 08        bne   FE25
000A:FE1D FF 00 00     iwt   r15,#0000
000A:FE20 00           stop
000A:FE21 08 08        bne   FE2B
000A:FE23 08 08        bne   FE2D
000A:FE25 0F 08        bvs   FE2F
000A:FE27 08 08        bne   FE31
000A:FE29 08 08        bne   FE33
000A:FE2B 08 08        bne   FE35
000A:FE2D F8 08 08     iwt   r8,#0808
000A:FE30 08 00        bne   FE32
000A:FE32 00           stop
000A:FE33 00           stop
000A:FE34 00           stop
000A:FE35 FF 08 08     iwt   r15,#0808
000A:FE38 08         bne   FE39

; ; freespace
; DATA_0AFE39:         db $FF, $FF, $FF, $FF, $FF, $FF, $FF, $FF
; DATA_0AFE41:         db $FF, $FF, $FF, $FF, $FF, $FF, $FF, $FF
; DATA_0AFE49:         db $FF, $FF, $FF, $FF, $FF, $FF, $FF, $FF
; DATA_0AFE51:         db $FF, $FF, $FF, $FF, $FF, $FF, $FF, $FF
; DATA_0AFE59:         db $FF, $FF, $FF, $FF, $FF, $FF, $FF, $FF
; DATA_0AFE61:         db $FF, $FF, $FF, $FF, $FF, $FF, $FF, $FF
; DATA_0AFE69:         db $FF, $FF, $FF, $FF, $FF, $FF, $FF, $FF
; DATA_0AFE71:         db $FF, $FF, $FF, $FF, $FF, $FF, $FF, $FF
; DATA_0AFE79:         db $FF, $FF, $FF, $FF, $FF, $FF, $FF, $FF
; DATA_0AFE81:         db $FF, $FF, $FF, $FF, $FF, $FF, $FF, $FF
; DATA_0AFE89:         db $FF, $FF, $FF, $FF, $FF, $FF, $FF, $FF
; DATA_0AFE91:         db $FF, $FF, $FF, $FF, $FF, $FF, $FF, $FF
; DATA_0AFE99:         db $FF, $FF, $FF, $FF, $FF, $FF, $FF, $FF
; DATA_0AFEA1:         db $FF, $FF, $FF, $FF, $FF, $FF, $FF, $FF
; DATA_0AFEA9:         db $FF, $FF, $FF, $FF, $FF, $FF, $FF, $FF
; DATA_0AFEB1:         db $FF, $FF, $FF, $FF, $FF, $FF, $FF, $FF
; DATA_0AFEB9:         db $FF, $FF, $FF, $FF, $FF, $FF, $FF, $FF
; DATA_0AFEC1:         db $FF, $FF, $FF, $FF, $FF, $FF, $FF, $FF
; DATA_0AFEC9:         db $FF, $FF, $FF, $FF, $FF, $FF, $FF, $FF
; DATA_0AFED1:         db $FF, $FF, $FF, $FF, $FF, $FF, $FF, $FF
; DATA_0AFED9:         db $FF, $FF, $FF, $FF, $FF, $FF, $FF, $FF
; DATA_0AFEE1:         db $FF, $FF, $FF, $FF, $FF, $FF, $FF, $FF
; DATA_0AFEE9:         db $FF, $FF, $FF, $FF, $FF, $FF, $FF, $FF
; DATA_0AFEF1:         db $FF, $FF, $FF, $FF, $FF, $FF, $FF, $FF
; DATA_0AFEF9:         db $FF, $FF, $FF, $FF, $FF, $FF, $FF, $FF
; DATA_0AFF01:         db $FF, $FF, $FF, $FF, $FF, $FF, $FF, $FF
; DATA_0AFF09:         db $FF, $FF, $FF, $FF, $FF, $FF, $FF, $FF
; DATA_0AFF11:         db $FF, $FF, $FF, $FF, $FF, $FF, $FF, $FF
; DATA_0AFF19:         db $FF, $FF, $FF, $FF, $FF, $FF, $FF, $FF
; DATA_0AFF21:         db $FF, $FF, $FF, $FF, $FF, $FF, $FF, $FF
; DATA_0AFF29:         db $FF, $FF, $FF, $FF, $FF, $FF, $FF, $FF
; DATA_0AFF31:         db $FF, $FF, $FF, $FF, $FF, $FF, $FF, $FF
; DATA_0AFF39:         db $FF, $FF, $FF, $FF, $FF, $FF, $FF, $FF
; DATA_0AFF41:         db $FF, $FF, $FF, $FF, $FF, $FF, $FF, $FF
; DATA_0AFF49:         db $FF, $FF, $FF, $FF, $FF, $FF, $FF, $FF
; DATA_0AFF51:         db $FF, $FF, $FF, $FF, $FF, $FF, $FF, $FF
; DATA_0AFF59:         db $FF, $FF, $FF, $FF, $FF, $FF, $FF, $FF
; DATA_0AFF61:         db $FF, $FF, $FF, $FF, $FF, $FF, $FF, $FF
; DATA_0AFF69:         db $FF, $FF, $FF, $FF, $FF, $FF, $FF, $FF
; DATA_0AFF71:         db $FF, $FF, $FF, $FF, $FF, $FF, $FF, $FF
; DATA_0AFF79:         db $FF, $FF, $FF, $FF, $FF, $FF, $FF, $FF
; DATA_0AFF81:         db $FF, $FF, $FF, $FF, $FF, $FF, $FF, $FF
; DATA_0AFF89:         db $FF, $FF, $FF, $FF, $FF, $FF, $FF, $FF
; DATA_0AFF91:         db $FF, $FF, $FF, $FF, $FF, $FF, $FF, $FF
; DATA_0AFF99:         db $FF, $FF, $FF, $FF, $FF, $FF, $FF, $FF
; DATA_0AFFA1:         db $FF, $FF, $FF, $FF, $FF, $FF, $FF, $FF
; DATA_0AFFA9:         db $FF, $FF, $FF, $FF, $FF, $FF, $FF, $FF
; DATA_0AFFB1:         db $FF, $FF, $FF, $FF, $FF, $FF, $FF, $FF
; DATA_0AFFB9:         db $FF, $FF, $FF, $FF, $FF, $FF, $FF, $FF
; DATA_0AFFC1:         db $FF, $FF, $FF, $FF, $FF, $FF, $FF, $FF
; DATA_0AFFC9:         db $FF, $FF, $FF, $FF, $FF, $FF, $FF, $FF
; DATA_0AFFD1:         db $FF, $FF, $FF, $FF, $FF, $FF, $FF, $FF
; DATA_0AFFD9:         db $FF, $FF, $FF, $FF, $FF, $FF, $FF, $FF
; DATA_0AFFE1:         db $FF, $FF, $FF, $FF, $FF, $FF, $FF, $FF
; DATA_0AFFE9:         db $FF, $FF, $FF, $FF, $FF, $FF, $FF, $FF
; DATA_0AFFF1:         db $FF, $FF, $FF, $FF, $FF, $FF, $FF, $FF
; DATA_0AFFF9:         db $FF, $FF, $FF, $FF, $FF, $FF, $FF
