; r1 = camera x + offset (288 right or 48 left)
; r2 = camera y - 32
; r3 = camera y + offset (272 down or 32 up)
; r4 = camera x - 48
0009:8000 02           cache
0009:8001 B1 96        asr 				;\
0009:8003 96           asr 				; |
0009:8004 96           asr 				; |
0009:8005 11 96        asr 				; |
0009:8007 B2 96        asr 				; |
0009:8009 96           asr 				; |
0009:800A 96           asr 				; |
0009:800B 12 96        asr 				; | divide camera positions by 16
0009:800D B3 96        asr 				; |
0009:800F 96           asr 				; |
0009:8010 96           asr 				; |
0009:8011 13 96        asr 				; |
0009:8013 B4 96        asr 				; |
0009:8015 96           asr				; |
0009:8016 96           asr				; |
0009:8017 14 96        asr				;/
0009:8019 A5 FF        ibt   r5,#FFFF 	; #$FF into r5
0009:801B F6 FF 01     iwt   r6,#01FF 	; #$01FF into r6
0009:801E A7 16        ibt   r7,#0016 	; #$16 into r7
0009:8020 AD 14        ibt   r13,#0014	; #$14 into r13
0009:8022 A8 00        ibt   r8,#0000 	; #$00 into r8
0009:8024 F9 CA 28     iwt   r9,#28CA 	; #$28CA into r9
0009:8027 FA CE 27     iwt   r10,#27CE 	; #$27CE into r10 (first word is sprite ID)
0009:802A 3D F0 02 26  lm    r0,(2602)  ;\ set the value in $702602 as the ROM data bank
0009:802E 3F DF        romb 			;/
0009:8030 3D FE 00 26  lm    r14,(2600) ; set r14 to the value in $702600

0009:8034 3D 49        ldb   (r9)		;\
0009:8036 E0           dec   r0 		; |
0009:8037 0B 08        bmi   8041 		; |
0009:8039 EF           getb 			; | loop until a negative value is found in the table at $7028CA
0009:803A 2E 3E 53     add   #03 		; | change r0 to the value at $702600 when the value is found
0009:803D D8           inc   r8 		; |
0009:803E 05 F4        bra   8034 		; |
0009:8040 D9           inc   r9 		;/

0009:8041 DE           inc   r14
0009:8042 1C 3D EF     getbh 			; set high byte of ROM buffer and low byte of r0 into r12
0009:8045 BC 65        sub   r5 		; r12 - r5 -> r0
0009:8047 09 37        beq   8080 		;\ branch if r0 is zero
0009:8049 DE           inc   r14 		;/ inc r14
0009:804A BC 76        and   r6 		;\ sprite ID -> $7027CE
0009:804C 3A           stw   (r10) 		;/
0009:804D 1B EF        getb 			; change r11 to the value at $702600
0009:804F DE           inc   r14 		; inc r14
0009:8050 BC C0        hib 				; load high byte of r12 to r0
0009:8052 03           lsr 				; multiply r0 by 2
0009:8053 20 1C        move  r12,r0 	; move r0 into r12
0009:8055 63           sub   r3 		; r0 - ((camera y + offset)/16) -> r0
0009:8056 08 08        bne   8060 		;\ branch if r0 isn't zero
0009:8058 BB 64        sub   r4 		;/ r11 - ((camera x - 48)/16) -> r0
0009:805A 0B 03        bmi   805F 		;\ branch if r0 is negative
0009:805C 67           sub   r7 		;/ r0 - r7 -> r0
0009:805D 0B 0C        bmi   806B 		;\ branch if r0 is negative
0009:805F BB 61        sub   r1 		;/ r11 - ((camera x + offset)/16) -> r0 (or r0 - ((camera x + offset)/16) -> r0 if the first branch was taken)
0009:8061 08 19        bne   807C 		;\ branch if r0 is negative
0009:8063 BC 62        sub   r2 		;/ r12 - ((camera y - 32)/16) -> r0
0009:8065 0B 15        bmi   807C 		;\ branch if r0 is negative
0009:8067 6D           sub   r13 		;/ r0 - r13 -> r0
0009:8068 0A 12        bpl   807C 		;\ branch if r0 is positive
0009:806A 01           nop 				;/
0009:806B DA           inc   r10 		;\ \
0009:806C DA           inc   r10 		; | | x tile position -> $7027D0
0009:806D BB 3A        stw   (r10) 		; |/
0009:806F DA           inc   r10		; |\
0009:8070 DA           inc   r10 		; | | y tile position -> $7027D2
0009:8071 BC 3A        stw   (r10)		; |/
0009:8073 DA           inc   r10		; |\
0009:8074 DA           inc   r10		; | | y tile position -> $7027D4
0009:8075 B8 3A        stw   (r10)		; |/
0009:8077 DA           inc   r10		; |\
0009:8078 DA           inc   r10		; | | r5 -> $7028CA + r8
0009:8079 B5 3D 39     stb   (r9) 		;/ /
0009:807C D8           inc   r8 		; inc r8
0009:807D 05 B5        bra   8034 		;\ branch
0009:807F D9           inc   r9 		;/ inc r9

0009:8080 B5 3A        stw   (r10) 		; r5 -> r10
0009:8082 00           stop
0009:8083 01           nop

0009:8084 F1 E2 10     iwt   r1,#10E2
0009:8087 F2 82 11     iwt   r2,#1182
0009:808A F3 56 1B     iwt   r3,#1B56
0009:808D F4 00 0F     iwt   r4,#0F00
0009:8090 F5 D6 1C     iwt   r5,#1CD6
0009:8093 02           cache
0009:8094 AC 18        ibt   r12,#0018
0009:8096 2F 1D        move  r13,r15
0009:8098 3D 44        ldb   (r4)
0009:809A 24 3E 54     add   #04
0009:809D E0           dec   r0
0009:809E 0A 14        bpl   80B4
0009:80A0 D0           inc   r0
0009:80A1 2C 16        move  r6,r12
0009:80A3 3D 36        stb   (r6)
0009:80A5 A0 04        ibt   r0,#0004
0009:80A7 21 50        add   r0
0009:80A9 22 50        add   r0
0009:80AB 23 50        add   r0
0009:80AD 25 50        add   r0
0009:80AF 3C           loop
0009:80B0 01           nop
0009:80B1 05 24        bra   80D7
0009:80B3 01           nop
0009:80B4 3E 6E        sub   #0E
0009:80B6 0D 02        bcs   80BA
0009:80B8 D0           inc   r0
0009:80B9 60           sub   r0
0009:80BA 2C 16        move  r6,r12
0009:80BC 3D 36        stb   (r6)
0009:80BE 16 41        ldw   (r1)
0009:80C0 21 3E 54     add   #04
0009:80C3 43           ldw   (r3)
0009:80C4 D3           inc   r3
0009:80C5 D3           inc   r3
0009:80C6 56           add   r6
0009:80C7 35           stw   (r5)
0009:80C8 D5           inc   r5
0009:80C9 D5           inc   r5
0009:80CA 16 42        ldw   (r2)
0009:80CC 22 3E 54     add   #04
0009:80CF 43           ldw   (r3)
0009:80D0 D3           inc   r3
0009:80D1 D3           inc   r3
0009:80D2 56           add   r6
0009:80D3 35           stw   (r5)
0009:80D4 D5           inc   r5
0009:80D5 3C           loop
0009:80D6 D5           inc   r5
0009:80D7 3D AE 8E     lms   r14,(011C)
0009:80DA 3D A2 8F     lms   r2,(011E)
0009:80DD 3D A3 90     lms   r3,(0120)
0009:80E0 3D A4 91     lms   r4,(0122)
0009:80E3 F5 D6 1C     iwt   r5,#1CD6
0009:80E6 F6 B6 1B     iwt   r6,#1BB6
0009:80E9 F7 16 1C     iwt   r7,#1C16
0009:80EC F8 C2 17     iwt   r8,#17C2
0009:80EF F0 36 1D     iwt   r0,#1D36
0009:80F2 3E A0 1F     sms   (003E),r0
0009:80F5 AC 18        ibt   r12,#0018
0009:80F7 2F 1D        move  r13,r15
0009:80F9 2C 10        move  r0,r12
0009:80FB 3D 40        ldb   (r0)
0009:80FD 3E 63        sub   #03
0009:80FF 0D 0D        bcs   810E
0009:8101 01           nop
0009:8102 A0 04        ibt   r0,#0004
0009:8104 25 50        add   r0
0009:8106 26 50        add   r0
0009:8108 27 50        add   r0
0009:810A D8           inc   r8
0009:810B 05 4E        bra   815B
0009:810D D8           inc   r8
0009:810E 19 46        ldw   (r6)
0009:8110 D6           inc   r6
0009:8111 D6           inc   r6
0009:8112 1A 46        ldw   (r6)
0009:8114 D6           inc   r6
0009:8115 D6           inc   r6
0009:8116 45           ldw   (r5)
0009:8117 D5           inc   r5
0009:8118 D5           inc   r5
0009:8119 6E           sub   r14
0009:811A 37           stw   (r7)
0009:811B D7           inc   r7
0009:811C D7           inc   r7
0009:811D 2B B0        moves r11,r0
0009:811F 0A 03        bpl   8124
0009:8121 60           sub   r0
0009:8122 D0           inc   r0
0009:8123 D0           inc   r0
0009:8124 3D 38        stb   (r8)
0009:8126 D8           inc   r8
0009:8127 45           ldw   (r5)
0009:8128 D5           inc   r5
0009:8129 D5           inc   r5
0009:812A 62           sub   r2
0009:812B 37           stw   (r7)
0009:812C D7           inc   r7
0009:812D D7           inc   r7
0009:812E 21 B0        moves r1,r0
0009:8130 0A 03        bpl   8135
0009:8132 60           sub   r0
0009:8133 D0           inc   r0
0009:8134 D0           inc   r0
0009:8135 3D 38        stb   (r8)
0009:8137 B1 5A        add   r10
0009:8139 54           add   r4
0009:813A 0B 1F        bmi   815B
0009:813C D8           inc   r8
0009:813D 6A           sub   r10
0009:813E 6A           sub   r10
0009:813F 64           sub   r4
0009:8140 64           sub   r4
0009:8141 0A 19        bpl   815C
0009:8143 60           sub   r0
0009:8144 BB 59        add   r9
0009:8146 53           add   r3
0009:8147 0B 12        bmi   815B
0009:8149 69           sub   r9
0009:814A 69           sub   r9
0009:814B 63           sub   r3
0009:814C 63           sub   r3
0009:814D 0A 0D        bpl   815C
0009:814F 60           sub   r0
0009:8150 3D A0 56     lms   r0,(00AC)
0009:8153 3E 66        sub   #06
0009:8155 0D 05        bcs   815C
0009:8157 60           sub   r0
0009:8158 05 02        bra   815C
0009:815A E0           dec   r0
0009:815B 60           sub   r0
0009:815C 3D A1 1F     lms   r1,(003E)
0009:815F 3D 31        stb   (r1)
0009:8161 D8           inc   r8
0009:8162 21 3E 54     add   #04
0009:8165 3E A1 1F     sms   (003E),r1
0009:8168 3C           loop
0009:8169 D8           inc   r8
0009:816A F1 A1 0F     iwt   r1,#0FA1
0009:816D F5 D6 1C     iwt   r5,#1CD6
0009:8170 F6 B6 1B     iwt   r6,#1BB6
0009:8173 F7 76 1C     iwt   r7,#1C76
0009:8176 F9 36 1D     iwt   r9,#1D36
0009:8179 FA 37 1D     iwt   r10,#1D37
0009:817C AC 18        ibt   r12,#0018
0009:817E 2C 10        move  r0,r12
0009:8180 3D 40        ldb   (r0)
0009:8182 E0           dec   r0
0009:8183 0B 0E        bmi   8193
0009:8185 01           nop
0009:8186 3D 49        ldb   (r9)
0009:8188 3E 60        sub   #00
0009:818A 08 07        bne   8193
0009:818C 01           nop
0009:818D 41           ldw   (r1)
0009:818E 3E 74        and   #04
0009:8190 08 0D        bne   819F
0009:8192 01           nop
0009:8193 A0 04        ibt   r0,#0004
0009:8195 25 50        add   r0
0009:8197 26 50        add   r0
0009:8199 27 50        add   r0
0009:819B FF 63 82     iwt   r15,#8263
0009:819E 01           nop
0009:819F 1E 45        ldw   (r5)
0009:81A1 D5           inc   r5
0009:81A2 D5           inc   r5
0009:81A3 12 45        ldw   (r5)
0009:81A5 D5           inc   r5
0009:81A6 D5           inc   r5
0009:81A7 13 46        ldw   (r6)
0009:81A9 D6           inc   r6
0009:81AA D6           inc   r6
0009:81AB 14 46        ldw   (r6)
0009:81AD D6           inc   r6
0009:81AE D6           inc   r6
0009:81AF 3E A1 21     sms   (0042),r1
0009:81B2 3E A5 25     sms   (004A),r5
0009:81B5 3E A6 26     sms   (004C),r6
0009:81B8 3E A7 27     sms   (004E),r7
0009:81BB 3E A9 29     sms   (0052),r9
0009:81BE 3E AA 2A     sms   (0054),r10
0009:81C1 3E AC 2C     sms   (0058),r12
0009:81C4 F1 A1 0F     iwt   r1,#0FA1
0009:81C7 1B 3D 4A     ldb   (r10)
0009:81CA DB           inc   r11
0009:81CB 2C 1A        move  r10,r12
0009:81CD AC 18        ibt   r12,#0018
0009:81CF FD D3 81     iwt   r13,#81D3
0009:81D2 BA 6B        sub   r11
0009:81D4 09 6B        beq   8241
0009:81D6 01           nop
0009:81D7 3D 4B        ldb   (r11)
0009:81D9 E0           dec   r0
0009:81DA 0B 65        bmi   8241
0009:81DC 01           nop
0009:81DD A0 18        ibt   r0,#0018
0009:81DF 6B           sub   r11
0009:81E0 50           add   r0
0009:81E1 50           add   r0
0009:81E2 20 18        move  r8,r0
0009:81E4 51           add   r1
0009:81E5 40           ldw   (r0)
0009:81E6 3E 72        and   #02
0009:81E8 09 57        beq   8241
0009:81EA 01           nop
0009:81EB F0 D6 1C     iwt   r0,#1CD6
0009:81EE 15 58        add   r8
0009:81F0 F0 B6 1B     iwt   r0,#1BB6
0009:81F3 16 58        add   r8
0009:81F5 19 46        ldw   (r6)
0009:81F7 45           ldw   (r5)
0009:81F8 6E           sub   r14
0009:81F9 20 17        move  r7,r0
0009:81FB 53           add   r3
0009:81FC 59           add   r9
0009:81FD 0B 42        bmi   8241
0009:81FF 69           sub   r9
0009:8200 69           sub   r9
0009:8201 63           sub   r3
0009:8202 63           sub   r3
0009:8203 E0           dec   r0
0009:8204 0A 3B        bpl   8241
0009:8206 D5           inc   r5
0009:8207 D5           inc   r5
0009:8208 D6           inc   r6
0009:8209 D6           inc   r6
0009:820A 19 46        ldw   (r6)
0009:820C 45           ldw   (r5)
0009:820D 62           sub   r2
0009:820E 20 15        move  r5,r0
0009:8210 54           add   r4
0009:8211 59           add   r9
0009:8212 0B 2D        bmi   8241
0009:8214 69           sub   r9
0009:8215 69           sub   r9
0009:8216 64           sub   r4
0009:8217 64           sub   r4
0009:8218 E0           dec   r0
0009:8219 0A 26        bpl   8241
0009:821B 01           nop
0009:821C 3D A0 27     lms   r0,(004E)
0009:821F B7 30        stw   (r0)
0009:8221 D0           inc   r0
0009:8222 D0           inc   r0
0009:8223 B5 30        stw   (r0)
0009:8225 17 3E 52     add   #02
0009:8228 3D A9 29     lms   r9,(0052)
0009:822B D8           inc   r8
0009:822C B8 3D 39     stb   (r9)
0009:822F EB           dec   r11
0009:8230 08 03        bne   8235
0009:8232 EB           dec   r11
0009:8233 AB 17        ibt   r11,#0017
0009:8235 3D AA 2A     lms   r10,(0054)
0009:8238 2B 10        move  r0,r11
0009:823A 3D 3A        stb   (r10)
0009:823C 05 18        bra   8256
0009:823E 3D A1 21     lms   r1,(0042)
0009:8241 EB           dec   r11
0009:8242 08 03        bne   8247
0009:8244 01           nop
0009:8245 AB 18        ibt   r11,#0018
0009:8247 3C           loop
0009:8248 BA 3D A0 27  lms   r0,(004E)
0009:824C 17 3E 54     add   #04
0009:824F 3D A9 29     lms   r9,(0052)
0009:8252 3D AA 2A     lms   r10,(0054)
0009:8255 3D A1 21     lms   r1,(0042)
0009:8258 3D A5 25     lms   r5,(004A)
0009:825B 3D A6 26     lms   r6,(004C)
0009:825E 3D AC 2C     lms   r12,(0058)
0009:8261 A0 04        ibt   r0,#0004
0009:8263 21 50        add   r0
0009:8265 29 50        add   r0
0009:8267 2A 50        add   r0
0009:8269 FD 7F 81     iwt   r13,#817F
0009:826C 3C           loop
0009:826D 2C 10        move  r0,r12
0009:826F 3D A0 D7     lms   r0,(01AE)
0009:8272 3E 60        sub   #00
0009:8274 08 63        bne   82D9
0009:8276 02           cache
0009:8277 3D A1 AD     lms   r1,(015A)
0009:827A 3D A2 AE     lms   r2,(015C)
0009:827D F5 D6 1C     iwt   r5,#1CD6
0009:8280 F6 B6 1B     iwt   r6,#1BB6
0009:8283 F7 A0 0F     iwt   r7,#0FA0
0009:8286 F8 40 10     iwt   r8,#1040
0009:8289 FB 38 1D     iwt   r11,#1D38
0009:828C AE 40        ibt   r14,#0040
0009:828E AC 18        ibt   r12,#0018
0009:8290 FD 94 82     iwt   r13,#8294
0009:8293 2C 10        move  r0,r12
0009:8295 3D 40        ldb   (r0)
0009:8297 3E 63        sub   #03
0009:8299 0C 06        bcc   82A1
0009:829B 01           nop
0009:829C 47           ldw   (r7)
0009:829D 7E           and   r14
0009:829E 09 09        beq   82A9
0009:82A0 01           nop
0009:82A1 A0 04        ibt   r0,#0004
0009:82A3 25 50        add   r0
0009:82A5 26           with  r6
0009:82A6 05 28        bra   82D0
0009:82A8 50           add   r0
0009:82A9 4B           ldw   (r11)
0009:82AA 03           lsr
0009:82AB 08 F4        bne   82A1
0009:82AD 19 46        ldw   (r6)
0009:82AF D6           inc   r6
0009:82B0 D6           inc   r6
0009:82B1 1A 46        ldw   (r6)
0009:82B3 D6           inc   r6
0009:82B4 D6           inc   r6
0009:82B5 45           ldw   (r5)
0009:82B6 D5           inc   r5
0009:82B7 D5           inc   r5
0009:82B8 13 61        sub   r1
0009:82BA 45           ldw   (r5)
0009:82BB D5           inc   r5
0009:82BC D5           inc   r5
0009:82BD 14 62        sub   r2
0009:82BF B4 5A        add   r10
0009:82C1 3E 5C        add   #0C
0009:82C3 0B 09        bmi   82CE
0009:82C5 6A           sub   r10
0009:82C6 6A           sub   r10
0009:82C7 3E 6C        sub   #0C
0009:82C9 3E 6C        sub   #0C
0009:82CB 0B 0E        bmi   82DB
0009:82CD B3 A0 04     ibt   r0,#0004
0009:82D0 27 50        add   r0
0009:82D2 28 50        add   r0
0009:82D4 2B 50        add   r0
0009:82D6 3C           loop
0009:82D7 2C 10        move  r0,r12
0009:82D9 00           stop
0009:82DA 01           nop
0009:82DB 59           add   r9
0009:82DC 3E 5C        add   #0C
0009:82DE 0B EE        bmi   82CE
0009:82E0 69           sub   r9
0009:82E1 69           sub   r9
0009:82E2 3E 6C        sub   #0C
0009:82E4 3E 6C        sub   #0C
0009:82E6 0A E7        bpl   82CF
0009:82E8 A0 18        ibt   r0,#0018
0009:82EA 6C           sub   r12
0009:82EB 50           add   r0
0009:82EC 11 50        add   r0
0009:82EE D1           inc   r1
0009:82EF 3D A0 B1     lms   r0,(0162)
0009:82F2 3D A5 B4     lms   r5,(0168)
0009:82F5 C5           or    r5
0009:82F6 08 E1        bne   82D9
0009:82F8 01           nop
0009:82F9 3D A6 A8     lms   r6,(0150)
0009:82FC E6           dec   r6
0009:82FD 0B DA        bmi   82D9
0009:82FF D6           inc   r6
0009:8300 3D A0 AF     lms   r0,(015E)
0009:8303 E0           dec   r0
0009:8304 0A 57        bpl   835D
0009:8306 01           nop
0009:8307 F0 FF 0E     iwt   r0,#0EFF
0009:830A 15 51        add   r1
0009:830C 3D A0 A9     lms   r0,(0152)
0009:830F 3D A2 AA     lms   r2,(0154)
0009:8312 C2           or    r2
0009:8313 09 48        beq   835D
0009:8315 01           nop
0009:8316 B6 03        lsr
0009:8318 0C 04        bcc   831E
0009:831A D6           inc   r6
0009:831B 3E A6 A8     sms   (0150),r6
0009:831E 3E A1 B1     sms   (0162),r1
0009:8321 47           ldw   (r7)
0009:8322 95           sex
0009:8323 0A 11        bpl   8336
0009:8325 60           sub   r0
0009:8326 D0           inc   r0
0009:8327 3E A0 AF     sms   (015E),r0
0009:832A A0 14        ibt   r0,#0014
0009:832C 3E A0 B0     sms   (0160),r0
0009:832F A0 3C        ibt   r0,#003C
0009:8331 3E A0 3D     sms   (007A),r0
0009:8334 00           stop
0009:8335 01           nop
0009:8336 3E A3 B2     sms   (0164),r3
0009:8339 3E A4 B3     sms   (0166),r4
0009:833C A0 08        ibt   r0,#0008
0009:833E 35           stw   (r5)
0009:833F D7           inc   r7
0009:8340 D7           inc   r7
0009:8341 47           ldw   (r7)
0009:8342 50           add   r0
0009:8343 0D 18        bcs   835D
0009:8345 50           add   r0
0009:8346 50           add   r0
0009:8347 F2 00 80     iwt   r2,#8000
0009:834A 72           and   r2
0009:834B C1           or    r1
0009:834C 3E A0 B4     sms   (0168),r0
0009:834F 48           ldw   (r8)
0009:8350 3F 7C        bic   #0C
0009:8352 90           sbk
0009:8353 4D           swap
0009:8354 0B 04        bmi   835A
0009:8356 60           sub   r0
0009:8357 F0 B0 04     iwt   r0,#04B0
0009:835A 3E A0 F7     sms   (01EE),r0
0009:835D 00           stop
0009:835E 01           nop
0009:835F A0 4C        ibt   r0,#004C
0009:8361 3F DF        romb
0009:8363 2E 1E        move  r14,r14
0009:8365 3D A4 93     lms   r4,(0126)
0009:8368 3D A5 8C     lms   r5,(0118)
0009:836B A0 60        ibt   r0,#0060
0009:836D 15 55        add   r5
0009:836F F9 28 01     iwt   r9,#0128
0009:8372 A7 00        ibt   r7,#0000
0009:8374 02           cache
0009:8375 2F 1D        move  r13,r15
0009:8377 16 EF        getb
0009:8379 DE           inc   r14
0009:837A B6 03        lsr
0009:837C 03           lsr
0009:837D 03           lsr
0009:837E 03           lsr
0009:837F 1B 3E 72     and   #02
0009:8382 EF           getb
0009:8383 DE           inc   r14
0009:8384 95           sex
0009:8385 A8 00        ibt   r8,#0000
0009:8387 E3           dec   r3
0009:8388 0A 0B        bpl   8395
0009:838A D3           inc   r3
0009:838B 4F           not
0009:838C D0           inc   r0
0009:838D A8 40        ibt   r8,#0040
0009:838F EB           dec   r11
0009:8390 0A 03        bpl   8395
0009:8392 DB           inc   r11
0009:8393 3E 58        add   #08
0009:8395 51           add   r1
0009:8396 35           stw   (r5)
0009:8397 D5           inc   r5
0009:8398 D5           inc   r5
0009:8399 EF           getb
0009:839A DE           inc   r14
0009:839B 95           sex
0009:839C 52           add   r2
0009:839D 35           stw   (r5)
0009:839E D5           inc   r5
0009:839F D5           inc   r5
0009:83A0 F0 C0 00     iwt   r0,#00C0
0009:83A3 76           and   r6
0009:83A4 3D C8        xor   r8
0009:83A6 C4           or    r4
0009:83A7 3D AA 92     lms   r10,(0124)
0009:83AA CA           or    r10
0009:83AB 4D           swap
0009:83AC C7           or    r7
0009:83AD D7           inc   r7
0009:83AE D7           inc   r7
0009:83AF 35           stw   (r5)
0009:83B0 D5           inc   r5
0009:83B1 D5           inc   r5
0009:83B2 BB 35        stw   (r5)
0009:83B4 D5           inc   r5
0009:83B5 D5           inc   r5
0009:83B6 B6 3E 7F     and   #0F
0009:83B9 4D           swap
0009:83BA 3E EF        getbl
0009:83BC DE           inc   r14
0009:83BD 2B 3E 72     and   #02
0009:83C0 09 18        beq   83DA
0009:83C2 01           nop
0009:83C3 FA 90 00     iwt   r10,#0090
0009:83C6 3F 6A        cmp   r10
0009:83C8 0D 10        bcs   83DA
0009:83CA 01           nop
0009:83CB 3D AA B4     lms   r10,(0168)
0009:83CE 3D AB B1     lms   r11,(0162)
0009:83D1 2A CB        or    r11
0009:83D3 08 05        bne   83DA
0009:83D5 01           nop
0009:83D6 FA 00 01     iwt   r10,#0100
0009:83D9 5A           add   r10
0009:83DA FA FF 07     iwt   r10,#07FF
0009:83DD 7A           and   r10
0009:83DE 26 3E 78     and   #08
0009:83E1 A6 52        ibt   r6,#0052
0009:83E3 09 07        beq   83EC
0009:83E5 01           nop
0009:83E6 F6 00 83     iwt   r6,#8300
0009:83E9 56           add   r6
0009:83EA A6 70        ibt   r6,#0070
0009:83EC 50           add   r0
0009:83ED 50           add   r0
0009:83EE 50           add   r0
0009:83EF 50           add   r0
0009:83F0 50           add   r0
0009:83F1 39           stw   (r9)
0009:83F2 D9           inc   r9
0009:83F3 D9           inc   r9
0009:83F4 1A C0        hib
0009:83F6 B6 3D 39     stb   (r9)
0009:83F9 D9           inc   r9
0009:83FA BA 3E 52     add   #02
0009:83FD 3D 39        stb   (r9)
0009:83FF 3C           loop
0009:8400 D9           inc   r9
0009:8401 3D A0 57     lms   r0,(00AE)
0009:8404 50           add   r0
0009:8405 D0           inc   r0
0009:8406 1F 5F        add   r15
0009:8408 FF 31 84     iwt   r15,#8431
0009:840B 01           nop
0009:840C 01           nop
0009:840D 1D 86        mult  r6
0009:840F 01           nop
0009:8410 01           nop
0009:8411 2D 87        mult  r7
0009:8413 01           nop
0009:8414 01           nop
0009:8415 87           mult  r7
0009:8416 87           mult  r7
0009:8417 01           nop
0009:8418 01           nop
0009:8419 89           mult  r9
0009:841A 87           mult  r7
0009:841B 01           nop
0009:841C 01           nop
0009:841D E1           dec   r1
0009:841E 87           mult  r7
0009:841F 01           nop
0009:8420 01           nop
0009:8421 E3           dec   r3
0009:8422 87           mult  r7
0009:8423 01           nop
0009:8424 01           nop
0009:8425 E5           dec   r5
0009:8426 87           mult  r7
0009:8427 01           nop
0009:8428 01           nop
0009:8429 E7           dec   r7
0009:842A 87           mult  r7
0009:842B 01           nop
0009:842C 01           nop
0009:842D E5           dec   r5
0009:842E 87           mult  r7
0009:842F 01           nop
0009:8430 01           nop
0009:8431 F0 09 00     iwt   r0,#0009
0009:8434 3F DF        romb
0009:8436 3D A0 AF     lms   r0,(015E)
0009:8439 FE 3D 85     iwt   r14,#853D
0009:843C 1E 5E        add   r14
0009:843E 1A EF        getb
0009:8440 3D A5 8C     lms   r5,(0118)
0009:8443 24 4D        swap
0009:8445 3D AB A8     lms   r11,(0150)
0009:8448 EB           dec   r11
0009:8449 0B 28        bmi   8473
0009:844B 01           nop
0009:844C BB 3E 67     sub   #07
0009:844F 0D 22        bcs   8473
0009:8451 01           nop
0009:8452 3D A0 AA     lms   r0,(0154)
0009:8455 3E 60        sub   #00
0009:8457 0A 03        bpl   845C
0009:8459 01           nop
0009:845A 4F           not
0009:845B D0           inc   r0
0009:845C 03           lsr
0009:845D 03           lsr
0009:845E 17 03        lsr
0009:8460 3D A0 A9     lms   r0,(0152)
0009:8463 3E 60        sub   #00
0009:8465 0A 03        bpl   846A
0009:8467 01           nop
0009:8468 4F           not
0009:8469 D0           inc   r0
0009:846A 03           lsr
0009:846B 03           lsr
0009:846C 16 03        lsr
0009:846E B6 C7        or    r7
0009:8470 08 03        bne   8475
0009:8472 01           nop
0009:8473 00           stop
0009:8474 01           nop
0009:8475 3D A1 AB     lms   r1,(0156)
0009:8478 3D A2 AC     lms   r2,(0158)
0009:847B BB 03        lsr
0009:847D 09 05        beq   8484
0009:847F 01           nop
0009:8480 FF DE 84     iwt   r15,#84DE
0009:8483 01           nop
0009:8484 A9 08        ibt   r9,#0008
0009:8486 A8 00        ibt   r8,#0000
0009:8488 A7 00        ibt   r7,#0000
0009:848A E3           dec   r3
0009:848B 0A 08        bpl   8495
0009:848D D3           inc   r3
0009:848E A7 08        ibt   r7,#0008
0009:8490 A9 F8        ibt   r9,#FFF8
0009:8492 F8 00 40     iwt   r8,#4000
0009:8495 B1 57        add   r7
0009:8497 35           stw   (r5)
0009:8498 D5           inc   r5
0009:8499 D5           inc   r5
0009:849A B2 35        stw   (r5)
0009:849C D5           inc   r5
0009:849D D5           inc   r5
0009:849E F0 20 0A     iwt   r0,#0A20
0009:84A1 C4           or    r4
0009:84A2 C8           or    r8
0009:84A3 35           stw   (r5)
0009:84A4 D5           inc   r5
0009:84A5 D5           inc   r5
0009:84A6 60           sub   r0
0009:84A7 35           stw   (r5)
0009:84A8 D5           inc   r5
0009:84A9 D5           inc   r5
0009:84AA 02           cache
0009:84AB F0 4D 85     iwt   r0,#854D
0009:84AE 1E 5A        add   r10
0009:84B0 EF           getb
0009:84B1 DE           inc   r14
0009:84B2 3D EF        getbh
0009:84B4 20 1E        move  r14,r0
0009:84B6 E6           dec   r6
0009:84B7 09 23        beq   84DC
0009:84B9 01           nop
0009:84BA 26 1C        move  r12,r6
0009:84BC 2F 1D        move  r13,r15
0009:84BE 21 59        add   r9
0009:84C0 B1 57        add   r7
0009:84C2 35           stw   (r5)
0009:84C3 D5           inc   r5
0009:84C4 D5           inc   r5
0009:84C5 3F EF        getbs
0009:84C7 DE           inc   r14
0009:84C8 52           add   r2
0009:84C9 35           stw   (r5)
0009:84CA D5           inc   r5
0009:84CB D5           inc   r5
0009:84CC EF           getb
0009:84CD DE           inc   r14
0009:84CE 3D EF        getbh
0009:84D0 DE           inc   r14
0009:84D1 C4           or    r4
0009:84D2 3D C8        xor   r8
0009:84D4 35           stw   (r5)
0009:84D5 D5           inc   r5
0009:84D6 D5           inc   r5
0009:84D7 60           sub   r0
0009:84D8 35           stw   (r5)
0009:84D9 D5           inc   r5
0009:84DA 3C           loop
0009:84DB D5           inc   r5
0009:84DC 00           stop
0009:84DD 01           nop
0009:84DE 27 16        move  r6,r7
0009:84E0 A8 00        ibt   r8,#0000
0009:84E2 A7 08        ibt   r7,#0008
0009:84E4 E3           dec   r3
0009:84E5 0A 06        bpl   84ED
0009:84E7 D3           inc   r3
0009:84E8 A7 00        ibt   r7,#0000
0009:84EA F8 00 40     iwt   r8,#4000
0009:84ED B1 57        add   r7
0009:84EF 35           stw   (r5)
0009:84F0 D5           inc   r5
0009:84F1 D5           inc   r5
0009:84F2 B2 35        stw   (r5)
0009:84F4 D5           inc   r5
0009:84F5 D5           inc   r5
0009:84F6 F0 22 0A     iwt   r0,#0A22
0009:84F9 C4           or    r4
0009:84FA C8           or    r8
0009:84FB 35           stw   (r5)
0009:84FC D5           inc   r5
0009:84FD D5           inc   r5
0009:84FE 60           sub   r0
0009:84FF 35           stw   (r5)
0009:8500 D5           inc   r5
0009:8501 D5           inc   r5
0009:8502 02           cache
0009:8503 F0 B5 85     iwt   r0,#85B5
0009:8506 1E 5A        add   r10
0009:8508 EF           getb
0009:8509 DE           inc   r14
0009:850A 3D EF        getbh
0009:850C 20 1E        move  r14,r0
0009:850E E6           dec   r6
0009:850F 09 2A        beq   853B
0009:8511 01           nop
0009:8512 26 1C        move  r12,r6
0009:8514 2F 1D        move  r13,r15
0009:8516 22 3E 58     add   #08
0009:8519 3F EF        getbs
0009:851B DE           inc   r14
0009:851C E3           dec   r3
0009:851D 0A 03        bpl   8522
0009:851F D3           inc   r3
0009:8520 4F           not
0009:8521 D0           inc   r0
0009:8522 51           add   r1
0009:8523 57           add   r7
0009:8524 35           stw   (r5)
0009:8525 D5           inc   r5
0009:8526 D5           inc   r5
0009:8527 B2 35        stw   (r5)
0009:8529 D5           inc   r5
0009:852A D5           inc   r5
0009:852B EF           getb
0009:852C DE           inc   r14
0009:852D 3D EF        getbh
0009:852F DE           inc   r14
0009:8530 C4           or    r4
0009:8531 3D C8        xor   r8
0009:8533 35           stw   (r5)
0009:8534 D5           inc   r5
0009:8535 D5           inc   r5
0009:8536 60           sub   r0
0009:8537 35           stw   (r5)
0009:8538 D5           inc   r5
0009:8539 3C           loop
0009:853A D5           inc   r5
0009:853B 00           stop
0009:853C 01           nop
0009:853D 00           stop
0009:853E 02           cache
0009:853F 02           cache
0009:8540 02           cache
0009:8541 04           rol
0009:8542 04           rol
0009:8543 04           rol
0009:8544 06 06        bge   854C
0009:8546 06 04        bge   854C
0009:8548 04           rol
0009:8549 04           rol
0009:854A 02           cache
0009:854B 02           cache
0009:854C 02           cache
0009:854D 55           add   r5
0009:854E 85           mult  r5
0009:854F 6D           sub   r13
0009:8550 85           mult  r5
0009:8551 85           mult  r5
0009:8552 85           mult  r5
0009:8553 9D           jmp   r13
0009:8554 85           mult  r5
0009:8555 00           stop
0009:8556 21           with  r1
0009:8557 0A 00        bpl   8559
0009:8559 21           with  r1
0009:855A 0A 00        bpl   855C
0009:855C 21           with  r1
0009:855D 0A 00        bpl   855F
0009:855F 21           with  r1
0009:8560 0A 00        bpl   8562
0009:8562 21           with  r1
0009:8563 0A 00        bpl   8565
0009:8565 21           with  r1
0009:8566 0A 00        bpl   8568
0009:8568 21           with  r1
0009:8569 0A 00        bpl   856B
0009:856B 21           with  r1
0009:856C 0A 00        bpl   856E
0009:856E 30           stw   (r0)
0009:856F 0A FF        bpl   8570
0009:8571 30           stw   (r0)
0009:8572 8A           mult  r10
0009:8573 00           stop
0009:8574 30           stw   (r0)
0009:8575 0A FF        bpl   8576
0009:8577 30           stw   (r0)
0009:8578 8A           mult  r10
0009:8579 00           stop
0009:857A 30           stw   (r0)
0009:857B 0A FF        bpl   857C
0009:857D 30           stw   (r0)
0009:857E 8A           mult  r10
0009:857F 00           stop
0009:8580 30           stw   (r0)
0009:8581 0A FF        bpl   8582
0009:8583 30           stw   (r0)
0009:8584 8A           mult  r10
0009:8585 00           stop
0009:8586 31           stw   (r1)
0009:8587 0A FF        bpl   8588
0009:8589 31           stw   (r1)
0009:858A 8A           mult  r10
0009:858B 00           stop
0009:858C 31           stw   (r1)
0009:858D 0A FF        bpl   858E
0009:858F 31           stw   (r1)
0009:8590 8A           mult  r10
0009:8591 00           stop
0009:8592 31           stw   (r1)
0009:8593 0A FF        bpl   8594
0009:8595 31           stw   (r1)
0009:8596 8A           mult  r10
0009:8597 00           stop
0009:8598 31           stw   (r1)
0009:8599 0A FF        bpl   859A
0009:859B 31           stw   (r1)
0009:859C 8A           mult  r10
0009:859D 00           stop
0009:859E 31           stw   (r1)
0009:859F 8A           mult  r10
0009:85A0 01           nop
0009:85A1 31           stw   (r1)
0009:85A2 0A 00        bpl   85A4
0009:85A4 31           stw   (r1)
0009:85A5 8A           mult  r10
0009:85A6 01           nop
0009:85A7 31           stw   (r1)
0009:85A8 0A 00        bpl   85AA
0009:85AA 31           stw   (r1)
0009:85AB 8A           mult  r10
0009:85AC 01           nop
0009:85AD 31           stw   (r1)
0009:85AE 0A 00        bpl   85B0
0009:85B0 31           stw   (r1)
0009:85B1 8A           mult  r10
0009:85B2 01           nop
0009:85B3 31           stw   (r1)
0009:85B4 0A BD        bpl   8573
0009:85B6 85           mult  r5
0009:85B7 D5           inc   r5
0009:85B8 85           mult  r5
0009:85B9 ED           dec   r13
0009:85BA 85           mult  r5
0009:85BB 05 86        bra   8543
0009:85BD 00           stop
0009:85BE 32           stw   (r2)
0009:85BF 0A 00        bpl   85C1
0009:85C1 32           stw   (r2)
0009:85C2 0A 00        bpl   85C4
0009:85C4 32           stw   (r2)
0009:85C5 0A 00        bpl   85C7
0009:85C7 32           stw   (r2)
0009:85C8 0A 00        bpl   85CA
0009:85CA 32           stw   (r2)
0009:85CB 0A 00        bpl   85CD
0009:85CD 32           stw   (r2)
0009:85CE 0A 00        bpl   85D0
0009:85D0 32           stw   (r2)
0009:85D1 0A 00        bpl   85D3
0009:85D3 32           stw   (r2)
0009:85D4 0A FF        bpl   85D5
0009:85D6 23           with  r3
0009:85D7 0A 00        bpl   85D9
0009:85D9 23 4A        ldw   (r10)
0009:85DB FF 23 0A     iwt   r15,#0A23
0009:85DE 00           stop
0009:85DF 23 4A        ldw   (r10)
0009:85E1 FF 23 0A     iwt   r15,#0A23
0009:85E4 00           stop
0009:85E5 23 4A        ldw   (r10)
0009:85E7 FF 23 0A     iwt   r15,#0A23
0009:85EA 00           stop
0009:85EB 23 4A        ldw   (r10)
0009:85ED FF 33 0A     iwt   r15,#0A33
0009:85F0 00           stop
0009:85F1 33           stw   (r3)
0009:85F2 4A           ldw   (r10)
0009:85F3 FF 33 0A     iwt   r15,#0A33
0009:85F6 00           stop
0009:85F7 33           stw   (r3)
0009:85F8 4A           ldw   (r10)
0009:85F9 FF 33 0A     iwt   r15,#0A33
0009:85FC 00           stop
0009:85FD 33           stw   (r3)
0009:85FE 4A           ldw   (r10)
0009:85FF FF 33 0A     iwt   r15,#0A33
0009:8602 00           stop
0009:8603 33           stw   (r3)
0009:8604 4A           ldw   (r10)
0009:8605 00           stop
0009:8606 33           stw   (r3)
0009:8607 4A           ldw   (r10)
0009:8608 FF 33 0A     iwt   r15,#0A33
0009:860B 00           stop
0009:860C 33           stw   (r3)
0009:860D 4A           ldw   (r10)
0009:860E FF 33 0A     iwt   r15,#0A33
0009:8611 00           stop
0009:8612 33           stw   (r3)
0009:8613 4A           ldw   (r10)
0009:8614 FF 33 0A     iwt   r15,#0A33
0009:8617 00           stop
0009:8618 33           stw   (r3)
0009:8619 4A           ldw   (r10)
0009:861A FF 33 0A     iwt   r15,#0A33
0009:861D 3D A0 89     lms   r0,(0112)
0009:8620 9E           lob
0009:8621 08 03        bne   8626
0009:8623 01           nop
0009:8624 00           stop
0009:8625 01           nop
0009:8626 3D A6 8C     lms   r6,(0118)
0009:8629 A0 60        ibt   r0,#0060
0009:862B 15 56        add   r6
0009:862D A0 10        ibt   r0,#0010
0009:862F 26 50        add   r0
0009:8631 F2 00 80     iwt   r2,#8000
0009:8634 AC 04        ibt   r12,#0004
0009:8636 02           cache
0009:8637 2F 1D        move  r13,r15
0009:8639 45           ldw   (r5)
0009:863A B2 90        sbk
0009:863C 36           stw   (r6)
0009:863D D5           inc   r5
0009:863E D5           inc   r5
0009:863F D6           inc   r6
0009:8640 D6           inc   r6
0009:8641 45           ldw   (r5)
0009:8642 36           stw   (r6)
0009:8643 D5           inc   r5
0009:8644 D5           inc   r5
0009:8645 D6           inc   r6
0009:8646 D6           inc   r6
0009:8647 45           ldw   (r5)
0009:8648 36           stw   (r6)
0009:8649 D5           inc   r5
0009:864A D5           inc   r5
0009:864B D6           inc   r6
0009:864C D6           inc   r6
0009:864D 45           ldw   (r5)
0009:864E 36           stw   (r6)
0009:864F D5           inc   r5
0009:8650 D5           inc   r5
0009:8651 D6           inc   r6
0009:8652 3C           loop
0009:8653 D6           inc   r6
0009:8654 B2 35        stw   (r5)
0009:8656 25 3E 54     add   #04
0009:8659 45           ldw   (r5)
0009:865A 25 3E 54     add   #04
0009:865D B2 35        stw   (r5)
0009:865F F9 FF 01     iwt   r9,#01FF
0009:8662 3D 79        bic   r9
0009:8664 A9 08        ibt   r9,#0008
0009:8666 19 C9        or    r9
0009:8668 3D A0 62     lms   r0,(00C4)
0009:866B 50           add   r0
0009:866C 50           add   r0
0009:866D 1E 3E 64     sub   #04
0009:8670 F1 7E 01     iwt   r1,#017E
0009:8673 F2 84 01     iwt   r2,#0184
0009:8676 3D A3 4A     lms   r3,(0094)
0009:8679 3D A4 4E     lms   r4,(009C)
0009:867C A5 10        ibt   r5,#0010
0009:867E 3D A0 89     lms   r0,(0112)
0009:8681 65           sub   r5
0009:8682 3D A5 48     lms   r5,(0090)
0009:8685 55           add   r5
0009:8686 3D A5 CC     lms   r5,(0198)
0009:8689 65           sub   r5
0009:868A 14 64        sub   r4
0009:868C 3D A5 8C     lms   r5,(0118)
0009:868F A0 30        ibt   r0,#0030
0009:8691 16 55        add   r5
0009:8693 FA 02 40     iwt   r10,#4002
0009:8696 AC 02        ibt   r12,#0002
0009:8698 02           cache
0009:8699 2F 1D        move  r13,r15
0009:869B 41           ldw   (r1)
0009:869C 3E 68        sub   #08
0009:869E 63           sub   r3
0009:869F 35           stw   (r5)
0009:86A0 6E           sub   r14
0009:86A1 36           stw   (r6)
0009:86A2 D5           inc   r5
0009:86A3 D5           inc   r5
0009:86A4 D6           inc   r6
0009:86A5 D6           inc   r6
0009:86A6 42           ldw   (r2)
0009:86A7 54           add   r4
0009:86A8 35           stw   (r5)
0009:86A9 36           stw   (r6)
0009:86AA D5           inc   r5
0009:86AB D5           inc   r5
0009:86AC D6           inc   r6
0009:86AD D6           inc   r6
0009:86AE B9 35        stw   (r5)
0009:86B0 B9 36        stw   (r6)
0009:86B2 D5           inc   r5
0009:86B3 D5           inc   r5
0009:86B4 D6           inc   r6
0009:86B5 D6           inc   r6
0009:86B6 BA 9E        lob
0009:86B8 35           stw   (r5)
0009:86B9 BA 36        stw   (r6)
0009:86BB D5           inc   r5
0009:86BC D5           inc   r5
0009:86BD D6           inc   r6
0009:86BE 21 3E 54     add   #04
0009:86C1 22 3E 54     add   #04
0009:86C4 3C           loop
0009:86C5 D6           inc   r6
0009:86C6 3D AB 89     lms   r11,(0112)
0009:86C9 2B 3E 68     sub   #08
0009:86CC 0A 03        bpl   86D1
0009:86CE 01           nop
0009:86CF 00           stop
0009:86D0 01           nop
0009:86D1 A7 1F        ibt   r7,#001F
0009:86D3 B9 3D 77     bic   r7
0009:86D6 19 3E CA     or    #0A
0009:86D9 2A 3F 72     bic   #02
0009:86DC 3D A0 62     lms   r0,(00C4)
0009:86DF E0           dec   r0
0009:86E0 23 50        add   r0
0009:86E2 26 15        move  r5,r6
0009:86E4 A0 30        ibt   r0,#0030
0009:86E6 26 50        add   r0
0009:86E8 24 3E 54     add   #04
0009:86EB 24 3E 68     sub   #08
0009:86EE F1 7E 01     iwt   r1,#017E
0009:86F1 F2 84 01     iwt   r2,#0184
0009:86F4 AC 02        ibt   r12,#0002
0009:86F6 2F 1D        move  r13,r15
0009:86F8 41           ldw   (r1)
0009:86F9 3E 64        sub   #04
0009:86FB 63           sub   r3
0009:86FC 35           stw   (r5)
0009:86FD 6E           sub   r14
0009:86FE 36           stw   (r6)
0009:86FF D5           inc   r5
0009:8700 D5           inc   r5
0009:8701 D6           inc   r6
0009:8702 D6           inc   r6
0009:8703 42           ldw   (r2)
0009:8704 54           add   r4
0009:8705 35           stw   (r5)
0009:8706 36           stw   (r6)
0009:8707 D5           inc   r5
0009:8708 D5           inc   r5
0009:8709 D6           inc   r6
0009:870A D6           inc   r6
0009:870B 29 10        move  r0,r9
0009:870D 35           stw   (r5)
0009:870E 36           stw   (r6)
0009:870F D5           inc   r5
0009:8710 D5           inc   r5
0009:8711 D6           inc   r6
0009:8712 D6           inc   r6
0009:8713 60           sub   r0
0009:8714 35           stw   (r5)
0009:8715 BA 36        stw   (r6)
0009:8717 D5           inc   r5
0009:8718 D5           inc   r5
0009:8719 D6           inc   r6
0009:871A 21 3E 54     add   #04
0009:871D 22 3E 54     add   #04
0009:8720 3C           loop
0009:8721 D6           inc   r6
0009:8722 2B 3E 68     sub   #08
0009:8725 BB 3E 61     sub   #01
0009:8728 0A C2        bpl   86EC
0009:872A 24 00        stop
0009:872C 01           nop
0009:872D 3D A0 5F     lms   r0,(00BE)
0009:8730 F1 98 01     iwt   r1,#0198
0009:8733 61           sub   r1
0009:8734 09 4F        beq   8785
0009:8736 51           add   r1
0009:8737 A0 08        ibt   r0,#0008
0009:8739 3F DF        romb
0009:873B 3D A0 BF     lms   r0,(017E)
0009:873E C0           hib
0009:873F FE 18 AE     iwt   r14,#AE18
0009:8742 1E 5E        add   r14
0009:8744 16 3F EF     getbs
0009:8747 F1 00 F4     iwt   r1,#F400
0009:874A B1 18 9F     fmult
0009:874D F2 00 DC     iwt   r2,#DC00
0009:8750 B2 1A 9F     fmult
0009:8753 23 B3        moves r3,r3
0009:8755 08 06        bne   875D
0009:8757 28 4F        not
0009:8759 D8           inc   r8
0009:875A 2A 4F        not
0009:875C DA           inc   r10
0009:875D A0 40        ibt   r0,#0040
0009:875F 1E 5E        add   r14
0009:8761 16 3F EF     getbs
0009:8764 B1 17 9F     fmult
0009:8767 B2 19 9F     fmult
0009:876A 3D A5 8C     lms   r5,(0118)
0009:876D A0 60        ibt   r0,#0060
0009:876F 15 55        add   r5
0009:8771 45           ldw   (r5)
0009:8772 58           add   r8
0009:8773 90           sbk
0009:8774 D5           inc   r5
0009:8775 D5           inc   r5
0009:8776 45           ldw   (r5)
0009:8777 57           add   r7
0009:8778 90           sbk
0009:8779 A0 26        ibt   r0,#0026
0009:877B 15 55        add   r5
0009:877D 45           ldw   (r5)
0009:877E 5A           add   r10
0009:877F 90           sbk
0009:8780 D5           inc   r5
0009:8781 D5           inc   r5
0009:8782 45           ldw   (r5)
0009:8783 59           add   r9
0009:8784 90           sbk
0009:8785 00           stop
0009:8786 01           nop
0009:8787 00           stop
0009:8788 01           nop
0009:8789 3D A0 5F     lms   r0,(00BE)
0009:878C F1 86 01     iwt   r1,#0186
0009:878F 61           sub   r1
0009:8790 08 4D        bne   87DF
0009:8792 01           nop
0009:8793 A0 08        ibt   r0,#0008
0009:8795 3F DF        romb
0009:8797 3D A0 BF     lms   r0,(017E)
0009:879A C0           hib
0009:879B 20 16        move  r6,r0
0009:879D A7 40        ibt   r7,#0040
0009:879F 57           add   r7
0009:87A0 95           sex
0009:87A1 0A 08        bpl   87AB
0009:87A3 01           nop
0009:87A4 A0 7F        ibt   r0,#007F
0009:87A6 3D C6        xor   r6
0009:87A8 D0           inc   r0
0009:87A9 16 9E        lob
0009:87AB F0 18 AE     iwt   r0,#AE18
0009:87AE 1E 56        add   r6
0009:87B0 3F EF        getbs
0009:87B2 F6 00 F0     iwt   r6,#F000
0009:87B5 17 9F        fmult
0009:87B7 A0 40        ibt   r0,#0040
0009:87B9 1E 5E        add   r14
0009:87BB 3F EF        getbs
0009:87BD 18 9F        fmult
0009:87BF 23 B3        moves r3,r3
0009:87C1 09 03        beq   87C6
0009:87C3 28 4F        not
0009:87C5 D8           inc   r8
0009:87C6 3D A5 8C     lms   r5,(0118)
0009:87C9 A0 60        ibt   r0,#0060
0009:87CB 15 55        add   r5
0009:87CD A6 06        ibt   r6,#0006
0009:87CF 02           cache
0009:87D0 AC 04        ibt   r12,#0004
0009:87D2 2F 1D        move  r13,r15
0009:87D4 45           ldw   (r5)
0009:87D5 58           add   r8
0009:87D6 90           sbk
0009:87D7 D5           inc   r5
0009:87D8 D5           inc   r5
0009:87D9 45           ldw   (r5)
0009:87DA 57           add   r7
0009:87DB 25 56        add   r6
0009:87DD 3C           loop
0009:87DE 90           sbk
0009:87DF 00           stop
0009:87E0 01           nop
0009:87E1 00           stop
0009:87E2 01           nop
0009:87E3 00           stop
0009:87E4 01           nop
0009:87E5 00           stop
0009:87E6 01           nop
0009:87E7 A0 08        ibt   r0,#0008
0009:87E9 3F DF        romb
0009:87EB 3D A0 5F     lms   r0,(00BE)
0009:87EE FE 24 01     iwt   r14,#0124
0009:87F1 6E           sub   r14
0009:87F2 09 44        beq   8838
0009:87F4 01           nop
0009:87F5 3D A0 C0     lms   r0,(0180)
0009:87F8 E0           dec   r0
0009:87F9 0B 3B        bmi   8836
0009:87FB 01           nop
0009:87FC 3D A0 BF     lms   r0,(017E)
0009:87FF FE 18 AE     iwt   r14,#AE18
0009:8802 1E 5E        add   r14
0009:8804 3F EF        getbs
0009:8806 F6 00 D0     iwt   r6,#D000
0009:8809 9F           fmult
0009:880A A7 0E        ibt   r7,#000E
0009:880C 17 57        add   r7
0009:880E A0 40        ibt   r0,#0040
0009:8810 1E 5E        add   r14
0009:8812 3F EF        getbs
0009:8814 18 9F        fmult
0009:8816 23 B3        moves r3,r3
0009:8818 09 03        beq   881D
0009:881A 28 4F        not
0009:881C D8           inc   r8
0009:881D 3D A5 8C     lms   r5,(0118)
0009:8820 A0 60        ibt   r0,#0060
0009:8822 15 55        add   r5
0009:8824 A6 06        ibt   r6,#0006
0009:8826 02           cache
0009:8827 AC 04        ibt   r12,#0004
0009:8829 2F 1D        move  r13,r15
0009:882B 45           ldw   (r5)
0009:882C 58           add   r8
0009:882D 90           sbk
0009:882E D5           inc   r5
0009:882F D5           inc   r5
0009:8830 45           ldw   (r5)
0009:8831 57           add   r7
0009:8832 25 56        add   r6
0009:8834 3C           loop
0009:8835 90           sbk
0009:8836 00           stop
0009:8837 01           nop
0009:8838 3D A0 BF     lms   r0,(017E)
0009:883B FE 18 AE     iwt   r14,#AE18
0009:883E 1E 5E        add   r14
0009:8840 3F EF        getbs
0009:8842 F6 00 30     iwt   r6,#3000
0009:8845 9F           fmult
0009:8846 A7 0A        ibt   r7,#000A
0009:8848 17           to    r7
0009:8849 05 C3        bra   880E
0009:884B 67           sub   r7
0009:884C A0 08        ibt   r0,#0008
0009:884E 3F DF        romb
0009:8850 F1 E0 11     iwt   r1,#11E0
0009:8853 F2 80 12     iwt   r2,#1280
0009:8856 F3 A0 10     iwt   r3,#10A0
0009:8859 F9 40 11     iwt   r9,#1140
0009:885C F7 C0 0E     iwt   r7,#0EC0
0009:885F F8 A0 15     iwt   r8,#15A0
0009:8862 FA 00 15     iwt   r10,#1500
0009:8865 F5 22 18     iwt   r5,#1822
0009:8868 02           cache
0009:8869 AC 28        ibt   r12,#0028
0009:886B 2F 1D        move  r13,r15
0009:886D 3D 47        ldb   (r7)
0009:886F D7           inc   r7
0009:8870 D7           inc   r7
0009:8871 3E 6C        sub   #0C
0009:8873 0D 15        bcs   888A
0009:8875 16 A0 04     ibt   r0,#0004
0009:8878 11 51        add   r1
0009:887A 12 52        add   r2
0009:887C 13 53        add   r3
0009:887E 19 59        add   r9
0009:8880 18 58        add   r8
0009:8882 15 55        add   r5
0009:8884 1A 5A        add   r10
0009:8886 FF 21 89     iwt   r15,#8921
0009:8889 D7           inc   r7
0009:888A 41           ldw   (r1)
0009:888B 47           ldw   (r7)
0009:888C 20 14        move  r4,r0
0009:888E C0           hib
0009:888F 3E 88        mult  #08
0009:8891 1B 50        add   r0
0009:8893 B4 9E        lob
0009:8895 FE 58 AE     iwt   r14,#AE58
0009:8898 1E 5E        add   r14
0009:889A 48           ldw   (r8)
0009:889B 66           sub   r6
0009:889C 0A 03        bpl   88A1
0009:889E 4A           ldw   (r10)
0009:889F 4F           not
0009:88A0 D0           inc   r0
0009:88A1 56           add   r6
0009:88A2 31           stw   (r1)
0009:88A3 5B           add   r11
0009:88A4 50           add   r0
0009:88A5 16 50        add   r0
0009:88A7 EF           getb
0009:88A8 A4 40        ibt   r4,#0040
0009:88AA 2E 64        sub   r4
0009:88AC 4D           swap
0009:88AD 1B 9F        fmult
0009:88AF EF           getb
0009:88B0 4D           swap
0009:88B1 16 9F        fmult
0009:88B3 FE 00 01     iwt   r14,#0100
0009:88B6 45           ldw   (r5)
0009:88B7 E0           dec   r0
0009:88B8 4D           swap
0009:88B9 0B 05        bmi   88C0
0009:88BB 4D           swap
0009:88BC D0           inc   r0
0009:88BD 1E C0        hib
0009:88BF DE           inc   r14
0009:88C0 BE 3D 9F     lmult
0009:88C3 24 C0        hib
0009:88C5 9E           lob
0009:88C6 4D           swap
0009:88C7 C4           or    r4
0009:88C8 20 16        move  r6,r0
0009:88CA 09 0B        beq   88D7
0009:88CC 9E           lob
0009:88CD 14 4D        swap
0009:88CF 43           ldw   (r3)
0009:88D0 54           add   r4
0009:88D1 90           sbk
0009:88D2 B6 C0        hib
0009:88D4 95           sex
0009:88D5 3F 50        adc   #00
0009:88D7 32           stw   (r2)
0009:88D8 D3           inc   r3
0009:88D9 D3           inc   r3
0009:88DA 16 43        ldw   (r3)
0009:88DC 56           add   r6
0009:88DD 90           sbk
0009:88DE D1           inc   r1
0009:88DF D1           inc   r1
0009:88E0 D2           inc   r2
0009:88E1 D2           inc   r2
0009:88E2 D8           inc   r8
0009:88E3 D8           inc   r8
0009:88E4 DA           inc   r10
0009:88E5 DA           inc   r10
0009:88E6 48           ldw   (r8)
0009:88E7 16 41        ldw   (r1)
0009:88E9 66           sub   r6
0009:88EA 0A 03        bpl   88EF
0009:88EC 4A           ldw   (r10)
0009:88ED 4F           not
0009:88EE D0           inc   r0
0009:88EF 56           add   r6
0009:88F0 31           stw   (r1)
0009:88F1 16 5B        add   r11
0009:88F3 BE 3D 9F     lmult
0009:88F6 24 C0        hib
0009:88F8 9E           lob
0009:88F9 4D           swap
0009:88FA C4           or    r4
0009:88FB 20 16        move  r6,r0
0009:88FD 09 0B        beq   890A
0009:88FF 9E           lob
0009:8900 14 4D        swap
0009:8902 49           ldw   (r9)
0009:8903 54           add   r4
0009:8904 90           sbk
0009:8905 B6 C0        hib
0009:8907 95           sex
0009:8908 3F 50        adc   #00
0009:890A 32           stw   (r2)
0009:890B D9           inc   r9
0009:890C D9           inc   r9
0009:890D 16 49        ldw   (r9)
0009:890F 56           add   r6
0009:8910 90           sbk
0009:8911 D1           inc   r1
0009:8912 D1           inc   r1
0009:8913 D2           inc   r2
0009:8914 D2           inc   r2
0009:8915 D8           inc   r8
0009:8916 D8           inc   r8
0009:8917 D3           inc   r3
0009:8918 D3           inc   r3
0009:8919 D9           inc   r9
0009:891A D9           inc   r9
0009:891B DA           inc   r10
0009:891C DA           inc   r10
0009:891D 25 3E 54     add   #04
0009:8920 D7           inc   r7
0009:8921 3C           loop
0009:8922 D7           inc   r7
0009:8923 00           stop
0009:8924 01           nop
0009:8925 3D A0 56     lms   r0,(00AC)
0009:8928 3D F1 2A 1E  lm    r1,(1E2A)
0009:892C C1           or    r1
0009:892D 09 05        beq   8934
0009:892F 01           nop
0009:8930 FF C1 89     iwt   r15,#89C1
0009:8933 01           nop
0009:8934 3D A0 46     lms   r0,(008C)
0009:8937 3D A1 4A     lms   r1,(0094)
0009:893A 61           sub   r1
0009:893B A2 60        ibt   r2,#0060
0009:893D A4 08        ibt   r4,#0008
0009:893F 16 64        sub   r4
0009:8941 0B 20        bmi   8963
0009:8943 01           nop
0009:8944 F2 80 01     iwt   r2,#0180
0009:8947 F4 E8 00     iwt   r4,#00E8
0009:894A 16 64        sub   r4
0009:894C E6           dec   r6
0009:894D 0B 72        bmi   89C1
0009:894F D6           inc   r6
0009:8950 23 B3        moves r3,r3
0009:8952 09 0F        beq   8963
0009:8954 01           nop
0009:8955 F4 F8 00     iwt   r4,#00F8
0009:8958 64           sub   r4
0009:8959 0B 66        bmi   89C1
0009:895B 01           nop
0009:895C A0 16        ibt   r0,#0016
0009:895E 00           stop
0009:895F 01           nop
0009:8960 05 5F        bra   89C1
0009:8962 01           nop
0009:8963 3D F5 28 1E  lm    r5,(1E28)
0009:8967 B6 3D C5     xor   r5
0009:896A 0A 1B        bpl   8987
0009:896C 01           nop
0009:896D 3D A0 7E     lms   r0,(00FC)
0009:8970 72           and   r2
0009:8971 09 14        beq   8987
0009:8973 01           nop
0009:8974 20 B6        moves r0,r6
0009:8976 0A 03        bpl   897B
0009:8978 01           nop
0009:8979 4F           not
0009:897A D0           inc   r0
0009:897B 3E 6F        sub   #0F
0009:897D 0C 42        bcc   89C1
0009:897F 01           nop
0009:8980 A0 12        ibt   r0,#0012
0009:8982 00           stop
0009:8983 01           nop
0009:8984 05 3B        bra   89C1
0009:8986 01           nop
0009:8987 3D A7 54     lms   r7,(00A8)
0009:898A B7 65        sub   r5
0009:898C 3D C7        xor   r7
0009:898E 0B 0D        bmi   899D
0009:8990 01           nop
0009:8991 B5 90        sbk
0009:8993 3E A5 5A     sms   (00B4),r5
0009:8996 3D F0 26 1E  lm    r0,(1E26)
0009:899A 3E A0 45     sms   (008A),r0
0009:899D B6 3E 54     add   #04
0009:89A0 0B 06        bmi   89A8
0009:89A2 01           nop
0009:89A3 3E 68        sub   #08
0009:89A5 0C 05        bcc   89AC
0009:89A7 01           nop
0009:89A8 4F           not
0009:89A9 D0           inc   r0
0009:89AA 16 56        add   r6
0009:89AC 3D A0 46     lms   r0,(008C)
0009:89AF 66           sub   r6
0009:89B0 90           sbk
0009:89B1 3D F5 48 1E  lm    r5,(1E48)
0009:89B5 25 B5        moves r5,r5
0009:89B7 0B 08        bmi   89C1
0009:89B9 01           nop
0009:89BA F0 E2 10     iwt   r0,#10E2
0009:89BD 55           add   r5
0009:89BE 40           ldw   (r0)
0009:89BF 66           sub   r6
0009:89C0 90           sbk
0009:89C1 A0 09        ibt   r0,#0009
0009:89C3 3F DF        romb
0009:89C5 F1 61 14     iwt   r1,#1461
0009:89C8 F2 A2 10     iwt   r2,#10A2
0009:89CB F3 42 11     iwt   r3,#1142
0009:89CE F4 40 16     iwt   r4,#1640
0009:89D1 F6 C0 0E     iwt   r6,#0EC0
0009:89D4 F9 00 10     iwt   r9,#1000
0009:89D7 FA 60 14     iwt   r10,#1460
0009:89DA 02           cache
0009:89DB AC 28        ibt   r12,#0028
0009:89DD 2F 1D        move  r13,r15
0009:89DF 3D 46        ldb   (r6)
0009:89E1 E0           dec   r0
0009:89E2 0A 06        bpl   89EA
0009:89E4 01           nop
0009:89E5 D4           inc   r4
0009:89E6 FF 6A 8A     iwt   r15,#8A6A
0009:89E9 D4           inc   r4
0009:89EA 3D 41        ldb   (r1)
0009:89EC F7 94 00     iwt   r7,#0094
0009:89EF 17 57        add   r7
0009:89F1 17 47        ldw   (r7)
0009:89F3 F8 9C 00     iwt   r8,#009C
0009:89F6 58           add   r8
0009:89F7 18 40        ldw   (r0)
0009:89F9 42           ldw   (r2)
0009:89FA 67           sub   r7
0009:89FB 34           stw   (r4)
0009:89FC 20 17        move  r7,r0
0009:89FE 43           ldw   (r3)
0009:89FF 68           sub   r8
0009:8A00 D4           inc   r4
0009:8A01 D4           inc   r4
0009:8A02 34           stw   (r4)
0009:8A03 20 18        move  r8,r0
0009:8A05 49           ldw   (r9)
0009:8A06 3E 7C        and   #0C
0009:8A08 09 60        beq   8A6A
0009:8A0A 01           nop
0009:8A0B FE 83 8C     iwt   r14,#8C83
0009:8A0E 1E 5E        add   r14
0009:8A10 EF           getb
0009:8A11 DE           inc   r14
0009:8A12 FB F0 00     iwt   r11,#00F0
0009:8A15 3D EF        getbh
0009:8A17 DE           inc   r14
0009:8A18 15 57        add   r7
0009:8A1A 50           add   r0
0009:8A1B 5B           add   r11
0009:8A1C 65           sub   r5
0009:8A1D 0C 10        bcc   8A2F
0009:8A1F 60           sub   r0
0009:8A20 EF           getb
0009:8A21 DE           inc   r14
0009:8A22 FB C8 00     iwt   r11,#00C8
0009:8A25 3D EF        getbh
0009:8A27 15 58        add   r8
0009:8A29 50           add   r0
0009:8A2A 5B           add   r11
0009:8A2B 65           sub   r5
0009:8A2C 0D 3C        bcs   8A6A
0009:8A2E 60           sub   r0
0009:8A2F 36           stw   (r6)
0009:8A30 E0           dec   r0
0009:8A31 D1           inc   r1
0009:8A32 3D 31        stb   (r1)
0009:8A34 E1           dec   r1
0009:8A35 A0 18        ibt   r0,#0018
0009:8A37 6C           sub   r12
0009:8A38 50           add   r0
0009:8A39 18 50        add   r0
0009:8A3B A0 40        ibt   r0,#0040
0009:8A3D 58           add   r8
0009:8A3E F8 E2 16     iwt   r8,#16E2
0009:8A41 58           add   r8
0009:8A42 40           ldw   (r0)
0009:8A43 3E 60        sub   #00
0009:8A45 0B 0D        bmi   8A54
0009:8A47 01           nop
0009:8A48 F8 CE 1E     iwt   r8,#1ECE
0009:8A4B 58           add   r8
0009:8A4C 40           ldw   (r0)
0009:8A4D 4F           not
0009:8A4E 3D F8 CC 1E  lm    r8,(1ECC)
0009:8A52 78           and   r8
0009:8A53 90           sbk
0009:8A54 3D 4A        ldb   (r10)
0009:8A56 F8 CA 28     iwt   r8,#28CA
0009:8A59 18 58        add   r8
0009:8A5B 60           sub   r0
0009:8A5C 3D 38        stb   (r8)
0009:8A5E 3D F0 B6 01  lm    r0,(01B6)
0009:8A62 6C           sub   r12
0009:8A63 08 05        bne   8A6A
0009:8A65 01           nop
0009:8A66 3E F0 B6 01  sm    (01B6),r0
0009:8A6A A0 04        ibt   r0,#0004
0009:8A6C 12 52        add   r2
0009:8A6E 13 53        add   r3
0009:8A70 16 56        add   r6
0009:8A72 19 59        add   r9
0009:8A74 1A 5A        add   r10
0009:8A76 11 51        add   r1
0009:8A78 D4           inc   r4
0009:8A79 3C           loop
0009:8A7A D4           inc   r4
0009:8A7B A0 4D        ibt   r0,#004D
0009:8A7D 3F DF        romb
0009:8A7F AB 00        ibt   r11,#0000
0009:8A81 FD 8F 8A     iwt   r13,#8A8F
0009:8A84 F1 62 14     iwt   r1,#1462
0009:8A87 F2 00 10     iwt   r2,#1000
0009:8A8A 02           cache
0009:8A8B AC 28        ibt   r12,#0028
0009:8A8D AA 00        ibt   r10,#0000
0009:8A8F B1 5A        add   r10
0009:8A91 40           ldw   (r0)
0009:8A92 6B           sub   r11
0009:8A93 09 05        beq   8A9A
0009:8A95 01           nop
0009:8A96 FF E5 8A     iwt   r15,#8AE5
0009:8A99 DA           inc   r10
0009:8A9A F0 C2 13     iwt   r0,#13C2
0009:8A9D 5A           add   r10
0009:8A9E 40           ldw   (r0)
0009:8A9F 20 19        move  r9,r0
0009:8AA1 C0           hib
0009:8AA2 09 1E        beq   8AC2
0009:8AA4 E0           dec   r0
0009:8AA5 08 0B        bne   8AB2
0009:8AA7 19 60        sub   r0
0009:8AA9 3E A9 00     sms   (0000),r9
0009:8AAC FE 14 09     iwt   r14,#0914
0009:8AAF 05 65        bra   8B16
0009:8AB1 EF           getb
0009:8AB2 60           sub   r0
0009:8AB3 3E A9 00     sms   (0000),r9
0009:8AB6 3E AC 2C     sms   (0058),r12
0009:8AB9 AC 04        ibt   r12,#0004
0009:8ABB FE 18 09     iwt   r14,#0918
0009:8ABE FF AE 8B     iwt   r15,#8BAE
0009:8AC1 3E F0 40 11  sm    (1140),r0
0009:8AC5 5A           add   r10
0009:8AC6 3D 40        ldb   (r0)
0009:8AC8 3E 88        mult  #08
0009:8ACA 3E A0 00     sms   (0000),r0
0009:8ACD B2 5A        add   r10
0009:8ACF 40           ldw   (r0)
0009:8AD0 3E 73        and   #03
0009:8AD2 3E 83        mult  #03
0009:8AD4 D0           inc   r0
0009:8AD5 1F 5F        add   r15
0009:8AD7 FF 0B 8B     iwt   r15,#8B0B
0009:8ADA F0 85 8B     iwt   r0,#8B85
0009:8ADD 3E 70        ???
0009:8ADF 8C           mult  r12
0009:8AE0 F0 93 8C     iwt   r0,#8C93
0009:8AE3 3E DA        ???
0009:8AE5 DA           inc   r10
0009:8AE6 DA           inc   r10
0009:8AE7 3C           loop
0009:8AE8 DA           inc   r10
0009:8AE9 DB           inc   r11
0009:8AEA 3D A0 8D     lms   r0,(011A)
0009:8AED 6B           sub   r11
0009:8AEE 09 0C        beq   8AFC
0009:8AF0 BB 3E 68     sub   #08
0009:8AF3 0D 05        bcs   8AFA
0009:8AF5 01           nop
0009:8AF6 FF 8C 8A     iwt   r15,#8A8C
0009:8AF9 AC 00        ibt   r12,#0000
0009:8AFB 01           nop
0009:8AFC 3D A8 49     lms   r8,(0092)
0009:8AFF F0 A0 00     iwt   r0,#00A0
0009:8B02 58           add   r8
0009:8B03 90           sbk
0009:8B04 3E A8 8C     sms   (0118),r8
0009:8B07 FF 8C 8A     iwt   r15,#8A8C
0009:8B0A AC 20        ibt   r12,#0020
0009:8B0C 13 5A        add   r10
0009:8B0E 40           ldw   (r0)
0009:8B0F 50           add   r0
0009:8B10 FE 00 00     iwt   r14,#0000
0009:8B13 1E 5E        add   r14
0009:8B15 EF           getb
0009:8B16 DE           inc   r14
0009:8B17 F6 02 10     iwt   r6,#1002
0009:8B1A 26 5A        add   r10
0009:8B1C 16 46        ldw   (r6)
0009:8B1E 3D EF        getbh
0009:8B20 59           add   r9
0009:8B21 1E 59        add   r9
0009:8B23 F0 C0 13     iwt   r0,#13C0
0009:8B26 5A           add   r10
0009:8B27 3D 40        ldb   (r0)
0009:8B29 50           add   r0
0009:8B2A 50           add   r0
0009:8B2B 3E 88        mult  #08
0009:8B2D 3D C6        xor   r6
0009:8B2F 16 4D        swap
0009:8B31 26 3E EF     getbl
0009:8B34 DE           inc   r14
0009:8B35 F0 A0 10     iwt   r0,#10A0
0009:8B38 5A           add   r10
0009:8B39 3D 40        ldb   (r0)
0009:8B3B 17 4D        swap
0009:8B3D EF           getb
0009:8B3E 20 14        move  r4,r0
0009:8B40 F9 F1 00     iwt   r9,#00F1
0009:8B43 79           and   r9
0009:8B44 4D           swap
0009:8B45 16 3D C6     xor   r6
0009:8B48 A9 00        ibt   r9,#0000
0009:8B4A B4 3E 72     and   #02
0009:8B4D 08 03        bne   8B52
0009:8B4F 01           nop
0009:8B50 A9 04        ibt   r9,#0004
0009:8B52 17 3D C7     xor   r7
0009:8B55 F0 40 16     iwt   r0,#1640
0009:8B58 18 5A        add   r10
0009:8B5A 48           ldw   (r8)
0009:8B5B 14 59        add   r9
0009:8B5D D8           inc   r8
0009:8B5E D8           inc   r8
0009:8B5F 48           ldw   (r8)
0009:8B60 15 59        add   r9
0009:8B62 3D A8 49     lms   r8,(0092)
0009:8B65 F0 22 13     iwt   r0,#1322
0009:8B68 5A           add   r10
0009:8B69 B8 30        stw   (r0)
0009:8B6B B4 38        stw   (r8)
0009:8B6D D8           inc   r8
0009:8B6E D8           inc   r8
0009:8B6F B5 38        stw   (r8)
0009:8B71 D8           inc   r8
0009:8B72 D8           inc   r8
0009:8B73 3D A0 00     lms   r0,(0000)
0009:8B76 56           add   r6
0009:8B77 38           stw   (r8)
0009:8B78 D8           inc   r8
0009:8B79 D8           inc   r8
0009:8B7A B7 38        stw   (r8)
0009:8B7C D8           inc   r8
0009:8B7D D8           inc   r8
0009:8B7E 3E A8 49     sms   (0092),r8
0009:8B81 FF E5 8A     iwt   r15,#8AE5
0009:8B84 DA           inc   r10
0009:8B85 AC 2C        ibt   r12,#002C
0009:8B87 F0 20 13     iwt   r0,#1320
0009:8B8A 5A           add   r10
0009:8B8B 40           ldw   (r0)
0009:8B8C 50           add   r0
0009:8B8D FE 8A 04     iwt   r14,#048A
0009:8B90 1E 5E        add   r14
0009:8B92 F0 01 10     iwt   r0,#1001
0009:8B95 5A           add   r10
0009:8B96 3D 40        ldb   (r0)
0009:8B98 F8 F8 00     iwt   r8,#00F8
0009:8B9B 78           and   r8
0009:8B9C 03           lsr
0009:8B9D 03           lsr
0009:8B9E 03           lsr
0009:8B9F 20 1C        move  r12,r0
0009:8BA1 18 EF        getb
0009:8BA3 DE           inc   r14
0009:8BA4 3F 85        umult #05
0009:8BA6 3D 89        umult r9
0009:8BA8 28 3D EF     getbh
0009:8BAB 1E 58        add   r8
0009:8BAD 3E A1 21     sms   (0042),r1
0009:8BB0 3E A2 22     sms   (0044),r2
0009:8BB3 3E AA 2A     sms   (0054),r10
0009:8BB6 3E AD 2D     sms   (005A),r13
0009:8BB9 F0 E4 8A     iwt   r0,#8AE4
0009:8BBC 3E A0 30     sms   (0060),r0
0009:8BBF F0 02 10     iwt   r0,#1002
0009:8BC2 5A           add   r10
0009:8BC3 13 3D 40     ldb   (r0)
0009:8BC6 F0 C0 13     iwt   r0,#13C0
0009:8BC9 5A           add   r10
0009:8BCA 3D 40        ldb   (r0)
0009:8BCC 50           add   r0
0009:8BCD 50           add   r0
0009:8BCE 3E 88        mult  #08
0009:8BD0 3D C3        xor   r3
0009:8BD2 13 4D        swap
0009:8BD4 3D A4 49     lms   r4,(0092)
0009:8BD7 F0 22 13     iwt   r0,#1322
0009:8BDA 5A           add   r10
0009:8BDB B4 30        stw   (r0)
0009:8BDD F0 A0 10     iwt   r0,#10A0
0009:8BE0 5A           add   r10
0009:8BE1 3D 40        ldb   (r0)
0009:8BE3 1D 4D        swap
0009:8BE5 A0 3C        ibt   r0,#003C
0009:8BE7 6A           sub   r10
0009:8BE8 0D 0D        bcs   8BF7
0009:8BEA 60           sub   r0
0009:8BEB F0 56 1D     iwt   r0,#1D56
0009:8BEE 5A           add   r10
0009:8BEF 40           ldw   (r0)
0009:8BF0 E0           dec   r0
0009:8BF1 0B 04        bmi   8BF7
0009:8BF3 60           sub   r0
0009:8BF4 F0 00 F2     iwt   r0,#F200
0009:8BF7 E0           dec   r0
0009:8BF8 3E A0 27     sms   (004E),r0
0009:8BFB F0 40 16     iwt   r0,#1640
0009:8BFE 5A           add   r10
0009:8BFF 11 40        ldw   (r0)
0009:8C01 D0           inc   r0
0009:8C02 D0           inc   r0
0009:8C03 12 40        ldw   (r0)
0009:8C05 2D 1A        move  r10,r13
0009:8C07 2F 1D        move  r13,r15
0009:8C09 3F EF        getbs
0009:8C0B DE           inc   r14
0009:8C0C F9 00 40     iwt   r9,#4000
0009:8C0F 29 73        and   r3
0009:8C11 09 05        beq   8C18
0009:8C13 01           nop
0009:8C14 4F           not
0009:8C15 D0           inc   r0
0009:8C16 A9 08        ibt   r9,#0008
0009:8C18 15 51        add   r1
0009:8C1A 3F EF        getbs
0009:8C1C DE           inc   r14
0009:8C1D A8 00        ibt   r8,#0000
0009:8C1F 23 B3        moves r3,r3
0009:8C21 0A 05        bpl   8C28
0009:8C23 01           nop
0009:8C24 4F           not
0009:8C25 D0           inc   r0
0009:8C26 A8 08        ibt   r8,#0008
0009:8C28 16 52        add   r2
0009:8C2A EF           getb
0009:8C2B DE           inc   r14
0009:8C2C 3D A7 27     lms   r7,(004E)
0009:8C2F 3D EF        getbh
0009:8C31 DE           inc   r14
0009:8C32 77           and   r7
0009:8C33 17 3D C3     xor   r3
0009:8C36 EF           getb
0009:8C37 3E 72        and   #02
0009:8C39 08 05        bne   8C40
0009:8C3B 01           nop
0009:8C3C 25 59        add   r9
0009:8C3E 26 58        add   r8
0009:8C40 3D EF        getbh
0009:8C42 DE           inc   r14
0009:8C43 B5 34        stw   (r4)
0009:8C45 D4           inc   r4
0009:8C46 D4           inc   r4
0009:8C47 15 3D CA     xor   r10
0009:8C4A B6 34        stw   (r4)
0009:8C4C D4           inc   r4
0009:8C4D D4           inc   r4
0009:8C4E 3D A0 00     lms   r0,(0000)
0009:8C51 57           add   r7
0009:8C52 34           stw   (r4)
0009:8C53 D4           inc   r4
0009:8C54 D4           inc   r4
0009:8C55 B5 34        stw   (r4)
0009:8C57 D4           inc   r4
0009:8C58 3C           loop
0009:8C59 D4           inc   r4
0009:8C5A 3E A4 49     sms   (0092),r4
0009:8C5D 3D A1 21     lms   r1,(0042)
0009:8C60 3D A2 22     lms   r2,(0044)
0009:8C63 3D AA 2A     lms   r10,(0054)
0009:8C66 3D AC 2C     lms   r12,(0058)
0009:8C69 3D AD 2D     lms   r13,(005A)
0009:8C6C 3D AF 30     lms   r15,(0060)
0009:8C6F 01           nop
0009:8C70 01           nop
0009:8C71 10 5A        add   r10
0009:8C73 40           ldw   (r0)
0009:8C74 F7 F8 00     iwt   r7,#00F8
0009:8C77 77           and   r7
0009:8C78 3D A8 49     lms   r8,(0092)
0009:8C7B 58           add   r8
0009:8C7C 90           sbk
0009:8C7D F0 22 13     iwt   r0,#1322
0009:8C80 5A           add   r10
0009:8C81 B8 30        stw   (r0)
0009:8C83 FF E5 8A     iwt   r15,#8AE5
0009:8C86 DA           inc   r10
0009:8C87 60           sub   r0
0009:8C88 00           stop
0009:8C89 60           sub   r0
0009:8C8A 00           stop
0009:8C8B 90           sbk
0009:8C8C 00           stop
0009:8C8D 60           sub   r0
0009:8C8E 00           stop
0009:8C8F 90           sbk
0009:8C90 00           stop
0009:8C91 A0 00        ibt   r0,#0000
0009:8C93 AC 2C        ibt   r12,#002C
0009:8C95 F0 20 13     iwt   r0,#1320
0009:8C98 5A           add   r10
0009:8C99 40           ldw   (r0)
0009:8C9A 50           add   r0
0009:8C9B FE 8A 04     iwt   r14,#048A
0009:8C9E 1E 5E        add   r14
0009:8CA0 F0 01 10     iwt   r0,#1001
0009:8CA3 5A           add   r10
0009:8CA4 3D 40        ldb   (r0)
0009:8CA6 F8 F8 00     iwt   r8,#00F8
0009:8CA9 78           and   r8
0009:8CAA F8 00 01     iwt   r8,#0100
0009:8CAD FF 9C 8B     iwt   r15,#8B9C
0009:8CB0 58           add   r8

0009:8CB1 3F DF        romb
0009:8CB3 F0 22 13     iwt   r0,#1322
0009:8CB6 5A           add   r10
0009:8CB7 40           ldw   (r0)
0009:8CB8 24 B0        moves r4,r0
0009:8CBA 0A 03        bpl   8CBF
0009:8CBC 01           nop
0009:8CBD 00           stop
0009:8CBE 01           nop

0009:8CBF F0 C2 13     iwt   r0,#13C2
0009:8CC2 5A           add   r10
0009:8CC3 3D 40        ldb   (r0)
0009:8CC5 50           add   r0
0009:8CC6 1E 5E        add   r14
0009:8CC8 EF           getb
0009:8CC9 DE           inc   r14
0009:8CCA 1E 3D EF     getbh
0009:8CCD F0 02 10     iwt   r0,#1002
0009:8CD0 5A           add   r10
0009:8CD1 13 3D 40     ldb   (r0)
0009:8CD4 F0 C0 13     iwt   r0,#13C0
0009:8CD7 5A           add   r10
0009:8CD8 3D 40        ldb   (r0)
0009:8CDA 50           add   r0
0009:8CDB 50           add   r0
0009:8CDC 3E 88        mult  #08
0009:8CDE 3D C3        xor   r3
0009:8CE0 13 4D        swap
0009:8CE2 F0 40 16     iwt   r0,#1640
0009:8CE5 5A           add   r10
0009:8CE6 11 40        ldw   (r0)
0009:8CE8 D0           inc   r0
0009:8CE9 D0           inc   r0
0009:8CEA 12 40        ldw   (r0)
0009:8CEC F0 40 11     iwt   r0,#1140
0009:8CEF 5A           add   r10
0009:8CF0 3D 40        ldb   (r0)
0009:8CF2 3E 88        mult  #08
0009:8CF4 3E A0 00     sms   (0000),r0
0009:8CF7 F0 01 10     iwt   r0,#1001
0009:8CFA 5A           add   r10
0009:8CFB 40           ldw   (r0)
0009:8CFC F8 F8 00     iwt   r8,#00F8
0009:8CFF 78           and   r8
0009:8D00 03           lsr
0009:8D01 03           lsr
0009:8D02 1C 03        lsr
0009:8D04 F0 A0 10     iwt   r0,#10A0
0009:8D07 5A           add   r10
0009:8D08 3D 40        ldb   (r0)
0009:8D0A 1A 4D        swap
0009:8D0C 02           cache
0009:8D0D 2F 1D        move  r13,r15
0009:8D0F 3F EF        getbs
0009:8D11 DE           inc   r14
0009:8D12 F9 00 40     iwt   r9,#4000
0009:8D15 29 73        and   r3
0009:8D17 09 05        beq   8D1E
0009:8D19 01           nop
0009:8D1A 4F           not
0009:8D1B D0           inc   r0
0009:8D1C A9 08        ibt   r9,#0008
0009:8D1E 15 51        add   r1
0009:8D20 3F EF        getbs
0009:8D22 DE           inc   r14
0009:8D23 A8 00        ibt   r8,#0000
0009:8D25 23 B3        moves r3,r3
0009:8D27 0A 05        bpl   8D2E
0009:8D29 01           nop
0009:8D2A 4F           not
0009:8D2B D0           inc   r0
0009:8D2C A8 08        ibt   r8,#0008
0009:8D2E 16 52        add   r2
0009:8D30 EF           getb
0009:8D31 DE           inc   r14
0009:8D32 3D EF        getbh
0009:8D34 DE           inc   r14
0009:8D35 17 3D C3     xor   r3
0009:8D38 EF           getb
0009:8D39 3E 72        and   #02
0009:8D3B 08 05        bne   8D42
0009:8D3D 01           nop
0009:8D3E 25 59        add   r9
0009:8D40 26 58        add   r8
0009:8D42 3D EF        getbh
0009:8D44 DE           inc   r14
0009:8D45 B5 34        stw   (r4)
0009:8D47 D4           inc   r4
0009:8D48 D4           inc   r4
0009:8D49 15 3D CA     xor   r10
0009:8D4C B6 34        stw   (r4)
0009:8D4E D4           inc   r4
0009:8D4F D4           inc   r4
0009:8D50 3D A0 00     lms   r0,(0000)
0009:8D53 57           add   r7
0009:8D54 34           stw   (r4)
0009:8D55 D4           inc   r4
0009:8D56 D4           inc   r4
0009:8D57 B5 34        stw   (r4)
0009:8D59 D4           inc   r4
0009:8D5A 3C           loop
0009:8D5B D4           inc   r4
0009:8D5C 00           stop
0009:8D5D 01           nop

0009:8D5E AC 18        ibt   r12,#0018
0009:8D60 3D A2 00     lms   r2,(0000)
0009:8D63 B2 03        lsr
0009:8D65 03           lsr
0009:8D66 BC 11 60     sub   r0
0009:8D69 F4 D6 1C     iwt   r4,#1CD6
0009:8D6C B2 54        add   r4
0009:8D6E 12 40        ldw   (r0)
0009:8D70 3E 52        add   #02
0009:8D72 13 40        ldw   (r0)
0009:8D74 F5 00 0F     iwt   r5,#0F00
0009:8D77 A6 10        ibt   r6,#0010
0009:8D79 F7 A2 0F     iwt   r7,#0FA2
0009:8D7C F8 00 60     iwt   r8,#6000
0009:8D7F A9 FF        ibt   r9,#FFFF
0009:8D81 3E A9 00     sms   (0000),r9
0009:8D84 02           cache
0009:8D85 FD 89 8D     iwt   r13,#8D89
0009:8D88 B1 6C        sub   r12
0009:8D8A 09 33        beq   8DBF
0009:8D8C 01           nop
0009:8D8D 3D 45        ldb   (r5)
0009:8D8F 66           sub   r6
0009:8D90 08 2D        bne   8DBF
0009:8D92 01           nop
0009:8D93 47           ldw   (r7)
0009:8D94 78           and   r8
0009:8D95 08 28        bne   8DBF
0009:8D97 01           nop
0009:8D98 44           ldw   (r4)
0009:8D99 62           sub   r2
0009:8D9A 20 1B        move  r11,r0
0009:8D9C 0A 03        bpl   8DA1
0009:8D9E 01           nop
0009:8D9F 4F           not
0009:8DA0 D0           inc   r0
0009:8DA1 20 1A        move  r10,r0
0009:8DA3 B4 3E 52     add   #02
0009:8DA6 40           ldw   (r0)
0009:8DA7 63           sub   r3
0009:8DA8 20 1E        move  r14,r0
0009:8DAA 0A 03        bpl   8DAF
0009:8DAC 01           nop
0009:8DAD 4F           not
0009:8DAE D0           inc   r0
0009:8DAF 5A           add   r10
0009:8DB0 69           sub   r9
0009:8DB1 0D 0C        bcs   8DBF
0009:8DB3 59           add   r9
0009:8DB4 20 19        move  r9,r0
0009:8DB6 3E AC 00     sms   (0000),r12
0009:8DB9 3E AB 01     sms   (0002),r11
0009:8DBC 3E AE 02     sms   (0004),r14
0009:8DBF A0 04        ibt   r0,#0004
0009:8DC1 15 55        add   r5
0009:8DC3 17 57        add   r7
0009:8DC5 14 54        add   r4
0009:8DC7 3C           loop
0009:8DC8 B1 3D A1 00  lms   r1,(0000)
0009:8DCC D1           inc   r1
0009:8DCD 09 09        beq   8DD8
0009:8DCF E1           dec   r1
0009:8DD0 A0 18        ibt   r0,#0018
0009:8DD2 61           sub   r1
0009:8DD3 50           add   r0
0009:8DD4 50           add   r0
0009:8DD5 3E A0 00     sms   (0000),r0
0009:8DD8 00           stop
0009:8DD9 01           nop
0009:8DDA F2 00 0F     iwt   r2,#0F00
0009:8DDD F3 D6 1C     iwt   r3,#1CD6
0009:8DE0 F4 D8 1C     iwt   r4,#1CD8
0009:8DE3 F5 A2 0F     iwt   r5,#0FA2
0009:8DE6 B3 51        add   r1
0009:8DE8 16 40        ldw   (r0)
0009:8DEA B4 51        add   r1
0009:8DEC 17 40        ldw   (r0)
0009:8DEE A8 FF        ibt   r8,#FFFF
0009:8DF0 28 19        move  r9,r8
0009:8DF2 FB 00 60     iwt   r11,#6000
0009:8DF5 B1 03        lsr
0009:8DF7 03           lsr
0009:8DF8 AC 18        ibt   r12,#0018
0009:8DFA BC 11 60     sub   r0
0009:8DFD 02           cache
0009:8DFE 2F 1D        move  r13,r15
0009:8E00 BC 61        sub   r1
0009:8E02 09 27        beq   8E2B
0009:8E04 01           nop
0009:8E05 3D 42        ldb   (r2)
0009:8E07 3E 6E        sub   #0E
0009:8E09 0C 20        bcc   8E2B
0009:8E0B 01           nop
0009:8E0C 45           ldw   (r5)
0009:8E0D 7B           and   r11
0009:8E0E 6B           sub   r11
0009:8E0F 08 1A        bne   8E2B
0009:8E11 01           nop
0009:8E12 43           ldw   (r3)
0009:8E13 66           sub   r6
0009:8E14 0A 03        bpl   8E19
0009:8E16 01           nop
0009:8E17 4F           not
0009:8E18 D0           inc   r0
0009:8E19 20 1A        move  r10,r0
0009:8E1B 44           ldw   (r4)
0009:8E1C 67           sub   r7
0009:8E1D 0A 03        bpl   8E22
0009:8E1F 01           nop
0009:8E20 4F           not
0009:8E21 D0           inc   r0
0009:8E22 5A           add   r10
0009:8E23 68           sub   r8
0009:8E24 0D 05        bcs   8E2B
0009:8E26 58           add   r8
0009:8E27 20 18        move  r8,r0
0009:8E29 2C 19        move  r9,r12
0009:8E2B A0 04        ibt   r0,#0004
0009:8E2D 12 52        add   r2
0009:8E2F 13 53        add   r3
0009:8E31 14 54        add   r4
0009:8E33 15 55        add   r5
0009:8E35 3C           loop
0009:8E36 BC 21 B9     moves r1,r9
0009:8E39 0B 07        bmi   8E42
0009:8E3B 01           nop
0009:8E3C A0 18        ibt   r0,#0018
0009:8E3E 69           sub   r9
0009:8E3F 50           add   r0
0009:8E40 11 50        add   r0
0009:8E42 00           stop
0009:8E43 01           nop
0009:8E44 FE A1 00     iwt   r14,#00A1
0009:8E47 F2 00 0F     iwt   r2,#0F00
0009:8E4A F3 D6 1C     iwt   r3,#1CD6
0009:8E4D F4 D8 1C     iwt   r4,#1CD8
0009:8E50 F5 60 13     iwt   r5,#1360
0009:8E53 FB 38 1A     iwt   r11,#1A38
0009:8E56 B3 51        add   r1
0009:8E58 16 40        ldw   (r0)
0009:8E5A B4 51        add   r1
0009:8E5C 17 40        ldw   (r0)
0009:8E5E A8 FF        ibt   r8,#FFFF
0009:8E60 28 19        move  r9,r8
0009:8E62 B1 03        lsr
0009:8E64 03           lsr
0009:8E65 AC 18        ibt   r12,#0018
0009:8E67 BC 11 60     sub   r0
0009:8E6A 02           cache
0009:8E6B 2F 1D        move  r13,r15
0009:8E6D BC 61        sub   r1
0009:8E6F 09 33        beq   8EA4
0009:8E71 01           nop
0009:8E72 3D 42        ldb   (r2)
0009:8E74 3E 68        sub   #08
0009:8E76 09 06        beq   8E7E
0009:8E78 01           nop
0009:8E79 3E 67        sub   #07
0009:8E7B 0B 27        bmi   8EA4
0009:8E7D 01           nop
0009:8E7E 45           ldw   (r5)
0009:8E7F 3F 6E        cmp   r14
0009:8E81 08 21        bne   8EA4
0009:8E83 01           nop
0009:8E84 3D 4B        ldb   (r11)
0009:8E86 20 B0        moves r0,r0
0009:8E88 08 1A        bne   8EA4
0009:8E8A 01           nop
0009:8E8B 43           ldw   (r3)
0009:8E8C 66           sub   r6
0009:8E8D 0A 03        bpl   8E92
0009:8E8F 01           nop
0009:8E90 4F           not
0009:8E91 D0           inc   r0
0009:8E92 20 1A        move  r10,r0
0009:8E94 44           ldw   (r4)
0009:8E95 67           sub   r7
0009:8E96 0A 03        bpl   8E9B
0009:8E98 01           nop
0009:8E99 4F           not
0009:8E9A D0           inc   r0
0009:8E9B 5A           add   r10
0009:8E9C 68           sub   r8
0009:8E9D 0D 05        bcs   8EA4
0009:8E9F 58           add   r8
0009:8EA0 20 18        move  r8,r0
0009:8EA2 2C 19        move  r9,r12
0009:8EA4 A0 04        ibt   r0,#0004
0009:8EA6 12 52        add   r2
0009:8EA8 13 53        add   r3
0009:8EAA 14 54        add   r4
0009:8EAC 15 55        add   r5
0009:8EAE 1B 5B        add   r11
0009:8EB0 3C           loop
0009:8EB1 BC 21 B9     moves r1,r9
0009:8EB4 0B 07        bmi   8EBD
0009:8EB6 01           nop
0009:8EB7 A0 18        ibt   r0,#0018
0009:8EB9 69           sub   r9
0009:8EBA 50           add   r0
0009:8EBB 11 50        add   r0
0009:8EBD 00           stop
0009:8EBE 01           nop
0009:8EBF 2E 1B        move  r11,r14
0009:8EC1 DB           inc   r11
0009:8EC2 F2 00 0F     iwt   r2,#0F00
0009:8EC5 F3 D6 1C     iwt   r3,#1CD6
0009:8EC8 F4 D8 1C     iwt   r4,#1CD8
0009:8ECB F5 60 13     iwt   r5,#1360
0009:8ECE B3 51        add   r1
0009:8ED0 16 40        ldw   (r0)
0009:8ED2 B4 51        add   r1
0009:8ED4 17 40        ldw   (r0)
0009:8ED6 A8 FF        ibt   r8,#FFFF
0009:8ED8 28 19        move  r9,r8
0009:8EDA B1 03        lsr
0009:8EDC 03           lsr
0009:8EDD AC 18        ibt   r12,#0018
0009:8EDF BC 11 60     sub   r0
0009:8EE2 02           cache
0009:8EE3 2F 1D        move  r13,r15
0009:8EE5 BC 61        sub   r1
0009:8EE7 09 31        beq   8F1A
0009:8EE9 01           nop
0009:8EEA 3D 42        ldb   (r2)
0009:8EEC 3E 68        sub   #08
0009:8EEE 09 06        beq   8EF6
0009:8EF0 01           nop
0009:8EF1 3E 67        sub   #07
0009:8EF3 0B 25        bmi   8F1A
0009:8EF5 01           nop
0009:8EF6 45           ldw   (r5)
0009:8EF7 3F 6E        cmp   r14
0009:8EF9 0B 1F        bmi   8F1A
0009:8EFB 01           nop
0009:8EFC 3F 6B        cmp   r11
0009:8EFE 0A 1A        bpl   8F1A
0009:8F00 01           nop
0009:8F01 43           ldw   (r3)
0009:8F02 66           sub   r6
0009:8F03 0A 03        bpl   8F08
0009:8F05 01           nop
0009:8F06 4F           not
0009:8F07 D0           inc   r0
0009:8F08 20 1A        move  r10,r0
0009:8F0A 44           ldw   (r4)
0009:8F0B 67           sub   r7
0009:8F0C 0A 03        bpl   8F11
0009:8F0E 01           nop
0009:8F0F 4F           not
0009:8F10 D0           inc   r0
0009:8F11 5A           add   r10
0009:8F12 68           sub   r8
0009:8F13 0D 05        bcs   8F1A
0009:8F15 58           add   r8
0009:8F16 20 18        move  r8,r0
0009:8F18 2C 19        move  r9,r12
0009:8F1A A0 04        ibt   r0,#0004
0009:8F1C 12 52        add   r2
0009:8F1E 13 53        add   r3
0009:8F20 14 54        add   r4
0009:8F22 15 55        add   r5
0009:8F24 3C           loop
0009:8F25 BC 21 B9     moves r1,r9
0009:8F28 0B 07        bmi   8F31
0009:8F2A 01           nop
0009:8F2B A0 18        ibt   r0,#0018
0009:8F2D 69           sub   r9
0009:8F2E 50           add   r0
0009:8F2F 11 50        add   r0
0009:8F31 00           stop
0009:8F32 01           nop

0009:8F33 F2 00 0F     iwt   r2,#0F00
0009:8F36 F3 D6 1C     iwt   r3,#1CD6
0009:8F39 F4 D8 1C     iwt   r4,#1CD8
0009:8F3C F5 38 1D     iwt   r5,#1D38
0009:8F3F B3 51        add   r1
0009:8F41 16 40        ldw   (r0)
0009:8F43 B4 51        add   r1
0009:8F45 17 40        ldw   (r0)
0009:8F47 A8 FF        ibt   r8,#FFFF
0009:8F49 28 19        move  r9,r8
0009:8F4B B1 03        lsr
0009:8F4D 03           lsr
0009:8F4E AC 18        ibt   r12,#0018
0009:8F50 BC 11 60     sub   r0
0009:8F53 02           cache
0009:8F54 EC           dec   r12
0009:8F55 2F 1D        move  r13,r15
0009:8F57 A0 04        ibt   r0,#0004
0009:8F59 12 52        add   r2
0009:8F5B 13 53        add   r3
0009:8F5D 14 54        add   r4
0009:8F5F 15 55        add   r5
0009:8F61 BC 61        sub   r1
0009:8F63 09 28        beq   8F8D
0009:8F65 01           nop
0009:8F66 3D 42        ldb   (r2)
0009:8F68 3E 6E        sub   #0E
0009:8F6A 0C 21        bcc   8F8D
0009:8F6C 01           nop
0009:8F6D 45           ldw   (r5)
0009:8F6E 3E 60        sub   #00
0009:8F70 09 1B        beq   8F8D
0009:8F72 01           nop
0009:8F73 43           ldw   (r3)
0009:8F74 66           sub   r6
0009:8F75 0A 03        bpl   8F7A
0009:8F77 01           nop
0009:8F78 4F           not
0009:8F79 D0           inc   r0
0009:8F7A 20 1A        move  r10,r0
0009:8F7C 44           ldw   (r4)
0009:8F7D 67           sub   r7
0009:8F7E 0A 03        bpl   8F83
0009:8F80 01           nop
0009:8F81 4F           not
0009:8F82 D0           inc   r0
0009:8F83 5A           add   r10
0009:8F84 3F 68        cmp   r8
0009:8F86 0D 05        bcs   8F8D
0009:8F88 01           nop
0009:8F89 20 18        move  r8,r0
0009:8F8B 2C 19        move  r9,r12
0009:8F8D 3C           loop
0009:8F8E BC 21 B9     moves r1,r9
0009:8F91 0B 07        bmi   8F9A
0009:8F93 01           nop
0009:8F94 A0 18        ibt   r0,#0018
0009:8F96 69           sub   r9
0009:8F97 50           add   r0
0009:8F98 11 50        add   r0
0009:8F9A 00           stop
0009:8F9B 01           nop

0009:8F9C F9 5C 0F     iwt   r9,#0F5C
0009:8F9F FA FF 0F     iwt   r10,#0FFF
0009:8FA2 FB 32 1D     iwt   r11,#1D32
0009:8FA5 F8 12 1C     iwt   r8,#1C12
0009:8FA8 A2 04        ibt   r2,#0004
0009:8FAA AE 5C        ibt   r14,#005C
0009:8FAC BE 17 61     sub   r1
0009:8FAF BB 67        sub   r7
0009:8FB1 13 40        ldw   (r0)
0009:8FB3 3E 52        add   #02
0009:8FB5 14 40        ldw   (r0)
0009:8FB7 B8 67        sub   r7
0009:8FB9 15 40        ldw   (r0)
0009:8FBB 3E 52        add   #02
0009:8FBD 16 40        ldw   (r0)
0009:8FBF AC 18        ibt   r12,#0018
0009:8FC1 02           cache
0009:8FC2 2F 1D        move  r13,r15
0009:8FC4 BE 61        sub   r1
0009:8FC6 09 3B        beq   9003
0009:8FC8 01           nop
0009:8FC9 3D 49        ldb   (r9)
0009:8FCB 3E 6E        sub   #0E
0009:8FCD 0C 34        bcc   9003
0009:8FCF 01           nop
0009:8FD0 3D 4A        ldb   (r10)
0009:8FD2 3E 78        and   #08
0009:8FD4 09 2D        beq   9003
0009:8FD6 17 48        ldw   (r8)
0009:8FD8 4B           ldw   (r11)
0009:8FD9 63           sub   r3
0009:8FDA 3E A8 00     sms   (0000),r8
0009:8FDD 55           add   r5
0009:8FDE 57           add   r7
0009:8FDF 0B 22        bmi   9003
0009:8FE1 67           sub   r7
0009:8FE2 67           sub   r7
0009:8FE3 65           sub   r5
0009:8FE4 65           sub   r5
0009:8FE5 0A 1B        bpl   9002
0009:8FE7 DB           inc   r11
0009:8FE8 DB           inc   r11
0009:8FE9 D8           inc   r8
0009:8FEA D8           inc   r8
0009:8FEB 17 48        ldw   (r8)
0009:8FED 4B           ldw   (r11)
0009:8FEE 64           sub   r4
0009:8FEF 3E A0 01     sms   (0002),r0
0009:8FF2 56           add   r6
0009:8FF3 57           add   r7
0009:8FF4 0B 09        bmi   8FFF
0009:8FF6 67           sub   r7
0009:8FF7 67           sub   r7
0009:8FF8 66           sub   r6
0009:8FF9 66           sub   r6
0009:8FFA 0A 03        bpl   8FFF
0009:8FFC 01           nop
0009:8FFD 00           stop
0009:8FFE 01           nop
0009:8FFF E8           dec   r8
0009:9000 E8           dec   r8
0009:9001 EB           dec   r11
0009:9002 EB           dec   r11
0009:9003 2B 62        sub   r2
0009:9005 28 62        sub   r2
0009:9007 29 62        sub   r2
0009:9009 2A 62        sub   r2
0009:900B 2E 62        sub   r2
0009:900D 3C           loop
0009:900E BE 00        stop
0009:9010 01           nop
0009:9011 F9 5C 0F     iwt   r9,#0F5C
0009:9014 FB 32 1D     iwt   r11,#1D32
0009:9017 F8 12 1C     iwt   r8,#1C12
0009:901A A2 04        ibt   r2,#0004
0009:901C AE 5C        ibt   r14,#005C
0009:901E BE 17 61     sub   r1
0009:9021 BB 67        sub   r7
0009:9023 13 40        ldw   (r0)
0009:9025 3E 52        add   #02
0009:9027 14 40        ldw   (r0)
0009:9029 B8 67        sub   r7
0009:902B 15 40        ldw   (r0)
0009:902D 3E 52        add   #02
0009:902F 16 40        ldw   (r0)
0009:9031 AC 18        ibt   r12,#0018
0009:9033 02           cache
0009:9034 2F 1D        move  r13,r15
0009:9036 BE 61        sub   r1
0009:9038 09 36        beq   9070
0009:903A 01           nop
0009:903B 3D 49        ldb   (r9)
0009:903D 3E 6E        sub   #0E
0009:903F 0C 2F        bcc   9070
0009:9041 17 48        ldw   (r8)
0009:9043 B7 55        add   r5
0009:9045 1A 50        add   r0
0009:9047 DA           inc   r10
0009:9048 4B           ldw   (r11)
0009:9049 63           sub   r3
0009:904A 3E A0 00     sms   (0000),r0
0009:904D 55           add   r5
0009:904E 57           add   r7
0009:904F 3F 6A        cmp   r10
0009:9051 0D 1C        bcs   906F
0009:9053 DB           inc   r11
0009:9054 DB           inc   r11
0009:9055 D8           inc   r8
0009:9056 D8           inc   r8
0009:9057 17 48        ldw   (r8)
0009:9059 B7 56        add   r6
0009:905B 1A 50        add   r0
0009:905D DA           inc   r10
0009:905E 4B           ldw   (r11)
0009:905F 64           sub   r4
0009:9060 3E A0 01     sms   (0002),r0
0009:9063 56           add   r6
0009:9064 57           add   r7
0009:9065 3F 6A        cmp   r10
0009:9067 0D 03        bcs   906C
0009:9069 01           nop
0009:906A 00           stop
0009:906B 01           nop
0009:906C E8           dec   r8
0009:906D E8           dec   r8
0009:906E EB           dec   r11
0009:906F EB           dec   r11
0009:9070 2B 62        sub   r2
0009:9072 28 62        sub   r2
0009:9074 29 62        sub   r2
0009:9076 2E 62        sub   r2
0009:9078 3C           loop
0009:9079 BE 00        stop
0009:907B 01           nop

0009:907C B1 63        sub   r3
0009:907E 20 15        move  r5,r0
0009:9080 0A 03        bpl   9085
0009:9082 01           nop
0009:9083 4F           not
0009:9084 D0           inc   r0
0009:9085 20 17        move  r7,r0
0009:9087 B2 64        sub   r4
0009:9089 20 18        move  r8,r0
0009:908B 0A 03        bpl   9090
0009:908D 01           nop
0009:908E 4F           not
0009:908F D0           inc   r0
0009:9090 20 19        move  r9,r0
0009:9092 67           sub   r7
0009:9093 0D 07        bcs   909C
0009:9095 97           ror
0009:9096 27 10        move  r0,r7
0009:9098 29 17        move  r7,r9
0009:909A 20 19        move  r9,r0
0009:909C 20 1A        move  r10,r0
0009:909E 27 3D 9F     lmult
0009:90A1 60           sub   r0
0009:90A2 20 12        move  r2,r0
0009:90A4 AC 20        ibt   r12,#0020
0009:90A6 FD AB 90     iwt   r13,#90AB
0009:90A9 02           cache
0009:90AA 22 52        add   r2
0009:90AC 24 54        add   r4
0009:90AE 27 04        rol
0009:90B0 04           rol
0009:90B1 69           sub   r9
0009:90B2 0C 03        bcc   90B7
0009:90B4 59           add   r9
0009:90B5 69           sub   r9
0009:90B6 D2           inc   r2
0009:90B7 3C           loop
0009:90B8 22 2A BA     moves r10,r10
0009:90BB 0A 07        bpl   90C4
0009:90BD 01           nop
0009:90BE 26 10        move  r0,r6
0009:90C0 22 16        move  r6,r2
0009:90C2 20 12        move  r2,r0
0009:90C4 26 11        move  r1,r6
0009:90C6 25 B5        moves r5,r5
0009:90C8 0A 03        bpl   90CD
0009:90CA 21 4F        not
0009:90CC D1           inc   r1
0009:90CD 28 B8        moves r8,r8
0009:90CF 0A 03        bpl   90D4
0009:90D1 22 4F        not
0009:90D3 D2           inc   r2
0009:90D4 00           stop
0009:90D5 01           nop

0009:90D6 A0 08        ibt   r0,#0008
0009:90D8 3F DF        romb
0009:90DA A2 06        ibt   r2,#0006
0009:90DC A9 55        ibt   r9,#0055
0009:90DE AA 40        ibt   r10,#0040
0009:90E0 FB 18 AE     iwt   r11,#AE18
0009:90E3 BB 1E 57     add   r7
0009:90E6 02           cache
0009:90E7 FC 03 00     iwt   r12,#0003
0009:90EA FD EE 90     iwt   r13,#90EE
0009:90ED EF           getb
0009:90EE 2E 5A        add   r10
0009:90F0 88           mult  r8
0009:90F1 C0           hib
0009:90F2 95           sex
0009:90F3 E6           dec   r6
0009:90F4 0B 03        bmi   90F9
0009:90F6 D6           inc   r6
0009:90F7 4F           not
0009:90F8 D0           inc   r0
0009:90F9 54           add   r4
0009:90FA 31           stw   (r1)
0009:90FB D1           inc   r1
0009:90FC D1           inc   r1
0009:90FD EF           getb
0009:90FE 27 59        add   r9
0009:9100 27 9E        lob
0009:9102 BB 1E 57     add   r7
0009:9105 88           mult  r8
0009:9106 C0           hib
0009:9107 95           sex
0009:9108 55           add   r5
0009:9109 31           stw   (r1)
0009:910A 21 52        add   r2
0009:910C 3C           loop
0009:910D EF           getb
0009:910E 00           stop
0009:910F 01           nop
0009:9110 22 2A 2C 2E+ stop
0009:9116 00           stop
0009:9117 26 00        stop
0009:9119 00           stop
0009:911A 28 00        stop
0009:911C 00           stop
0009:911D 00           stop
0009:911E 02           cache
0009:911F 04           rol
0009:9120 0C 0E        bcc   9130
0009:9122 20           with  r0
0009:9123 06 08        bge   912D
0009:9125 0A A7        bpl   90CE
0009:9127 10 B4 67     sub   r7
0009:912A 03           lsr
0009:912B 22 60        sub   r0
0009:912D B5 67        sub   r7
0009:912F 03           lsr
0009:9130 23 60        sub   r0
0009:9132 A0 09        ibt   r0,#0009
0009:9134 3F DF        romb
0009:9136 B5 67        sub   r7
0009:9138 08 10        bne   914A
0009:913A B4 67        sub   r7
0009:913C 08 07        bne   9145
0009:913E FE 10 91     iwt   r14,#9110
0009:9141 05 13        bra   9156
0009:9143 01           nop
0009:9144 FE 11 91     iwt   r14,#9111
0009:9147 05 0D        bra   9156
0009:9149 01           nop
0009:914A 67           sub   r7
0009:914B 08 07        bne   9154
0009:914D FE 14 91     iwt   r14,#9114
0009:9150 05 04        bra   9156
0009:9152 01           nop
0009:9153 FE 1D 91     iwt   r14,#911D
0009:9156 A9 02        ibt   r9,#0002
0009:9158 FD 00 80     iwt   r13,#8000
0009:915B 02           cache
0009:915C 94           link  #04
0009:915D FF 88 91     iwt   r15,#9188
0009:9160 01           nop
0009:9161 25 67        sub   r7
0009:9163 09 21        beq   9186
0009:9165 01           nop
0009:9166 23 57        add   r7
0009:9168 25 67        sub   r7
0009:916A 09 0F        beq   917B
0009:916C 01           nop
0009:916D 94           link  #04
0009:916E FF 88 91     iwt   r15,#9188
0009:9171 01           nop
0009:9172 2E 3E 63     sub   #03
0009:9175 26 3D CD     xor   r13
0009:9178 05 ED        bra   9167
0009:917A 23 2E 3E 53  add   #03
0009:917E 26 3D 7D     bic   r13
0009:9181 94           link  #04
0009:9182 FF 88 91     iwt   r15,#9188
0009:9185 01           nop
0009:9186 00           stop
0009:9187 01           nop
0009:9188 22 18        move  r8,r2
0009:918A 24 1A        move  r10,r4
0009:918C B8 31        stw   (r1)
0009:918E D1           inc   r1
0009:918F D1           inc   r1
0009:9190 B3 31        stw   (r1)
0009:9192 D1           inc   r1
0009:9193 D1           inc   r1
0009:9194 EF           getb
0009:9195 DE           inc   r14
0009:9196 56           add   r6
0009:9197 31           stw   (r1)
0009:9198 D1           inc   r1
0009:9199 D1           inc   r1
0009:919A B9 31        stw   (r1)
0009:919C 2A 67        sub   r7
0009:919E 09 31        beq   91D1
0009:91A0 D1           inc   r1
0009:91A1 D1           inc   r1
0009:91A2 EF           getb
0009:91A3 DE           inc   r14
0009:91A4 1C 56        add   r6
0009:91A6 28 57        add   r7
0009:91A8 2A 67        sub   r7
0009:91AA 09 12        beq   91BE
0009:91AC B8 31        stw   (r1)
0009:91AE D1           inc   r1
0009:91AF D1           inc   r1
0009:91B0 B3 31        stw   (r1)
0009:91B2 D1           inc   r1
0009:91B3 D1           inc   r1
0009:91B4 BC 31        stw   (r1)
0009:91B6 D1           inc   r1
0009:91B7 D1           inc   r1
0009:91B8 B9 31        stw   (r1)
0009:91BA D1           inc   r1
0009:91BB 05 E9        bra   91A6
0009:91BD D1           inc   r1
0009:91BE B8 31        stw   (r1)
0009:91C0 D1           inc   r1
0009:91C1 D1           inc   r1
0009:91C2 B3 31        stw   (r1)
0009:91C4 D1           inc   r1
0009:91C5 D1           inc   r1
0009:91C6 EF           getb
0009:91C7 DE           inc   r14
0009:91C8 56           add   r6
0009:91C9 31           stw   (r1)
0009:91CA D1           inc   r1
0009:91CB D1           inc   r1
0009:91CC B9 31        stw   (r1)
0009:91CE D1           inc   r1
0009:91CF 9B           jmp   r11
0009:91D0 D1           inc   r1
0009:91D1 DE           inc   r14
0009:91D2 DE           inc   r14
0009:91D3 9B           jmp   r11
0009:91D4 D1           inc   r1
0009:91D5 F4 22 00     iwt   r4,#0022
0009:91D8 F5 2C 00     iwt   r5,#002C
0009:91DB A1 04        ibt   r1,#0004
0009:91DD F2 00 0F     iwt   r2,#0F00
0009:91E0 F3 60 13     iwt   r3,#1360
0009:91E3 A6 00        ibt   r6,#0000
0009:91E5 02           cache
0009:91E6 AC 18        ibt   r12,#0018
0009:91E8 2F 1D        move  r13,r15
0009:91EA 42           ldw   (r2)
0009:91EB 3E 60        sub   #00
0009:91ED 09 0D        beq   91FC
0009:91EF 01           nop
0009:91F0 43           ldw   (r3)
0009:91F1 3F 64        cmp   r4
0009:91F3 0C 07        bcc   91FC
0009:91F5 01           nop
0009:91F6 3F 65        cmp   r5
0009:91F8 0D 02        bcs   91FC
0009:91FA 01           nop
0009:91FB D6           inc   r6
0009:91FC 22 51        add   r1
0009:91FE 23 51        add   r1
0009:9200 3C           loop
0009:9201 01           nop
0009:9202 00           stop
0009:9203 01           nop
0009:9204 F4 22 00     iwt   r4,#0022
0009:9207 F5 2C 00     iwt   r5,#002C
0009:920A F7 1E 00     iwt   r7,#001E
0009:920D F8 33 01     iwt   r8,#0133
0009:9210 F9 9A 01     iwt   r9,#019A
0009:9213 FB F3 00     iwt   r11,#00F3
0009:9216 A1 04        ibt   r1,#0004
0009:9218 F2 00 0F     iwt   r2,#0F00
0009:921B F3 60 13     iwt   r3,#1360
0009:921E A6 00        ibt   r6,#0000
0009:9220 02           cache
0009:9221 AC 18        ibt   r12,#0018
0009:9223 2F 1D        move  r13,r15
0009:9225 42           ldw   (r2)
0009:9226 3E 60        sub   #00
0009:9228 09 21        beq   924B
0009:922A 01           nop
0009:922B 43           ldw   (r3)
0009:922C 3F 64        cmp   r4
0009:922E 0C 06        bcc   9236
0009:9230 01           nop
0009:9231 3F 65        cmp   r5
0009:9233 0C 15        bcc   924A
0009:9235 01           nop
0009:9236 3F 67        cmp   r7
0009:9238 09 10        beq   924A
0009:923A 01           nop
0009:923B 3F 68        cmp   r8
0009:923D 09 0B        beq   924A
0009:923F 01           nop
0009:9240 3F 69        cmp   r9
0009:9242 09 06        beq   924A
0009:9244 01           nop
0009:9245 3F 6B        cmp   r11
0009:9247 08 02        bne   924B
0009:9249 01           nop
0009:924A D6           inc   r6
0009:924B 22 51        add   r1
0009:924D 23 51        add   r1
0009:924F 3C           loop
0009:9250 01           nop
0009:9251 00           stop
0009:9252 01           nop
0009:9253 F5 BC 13     iwt   r5,#13BC
0009:9256 F6 5C 0F     iwt   r6,#0F5C
0009:9259 F7 32 1D     iwt   r7,#1D32
0009:925C F8 34 1D     iwt   r8,#1D34
0009:925F F9 FF 0F     iwt   r9,#0FFF
0009:9262 BA 1E 5A     add   r10
0009:9265 02           cache
0009:9266 AC 18        ibt   r12,#0018
0009:9268 2F 1D        move  r13,r15
0009:926A 3D 46        ldb   (r6)
0009:926C 3E 6F        sub   #0F
0009:926E 0B 0F        bmi   927F
0009:9270 01           nop
0009:9271 47           ldw   (r7)
0009:9272 61           sub   r1
0009:9273 5A           add   r10
0009:9274 6E           sub   r14
0009:9275 0D 08        bcs   927F
0009:9277 01           nop
0009:9278 48           ldw   (r8)
0009:9279 62           sub   r2
0009:927A 5A           add   r10
0009:927B 6E           sub   r14
0009:927C 0C 06        bcc   9284
0009:927E BC FF 2B 93  iwt   r15,#932B
0009:9282 A0 04        ibt   r0,#0004
0009:9284 3E 61        sub   #01
0009:9286 50           add   r0
0009:9287 3E A6 26     sms   (004C),r6
0009:928A 16 50        add   r0
0009:928C F3 08 01     iwt   r3,#0108
0009:928F 45           ldw   (r5)
0009:9290 3F 63        cmp   r3
0009:9292 09 11        beq   92A5
0009:9294 01           nop
0009:9295 F3 20 92     iwt   r3,#9220
0009:9298 3F 63        cmp   r3
0009:929A 09 09        beq   92A5
0009:929C 01           nop
0009:929D F3 20 92     iwt   r3,#9220
0009:92A0 3F 63        cmp   r3
0009:92A2 08 1A        bne   92BE
0009:92A4 01           nop
0009:92A5 F0 D6 19     iwt   r0,#19D6
0009:92A8 56           add   r6
0009:92A9 40           ldw   (r0)
0009:92AA 3E 60        sub   #00
0009:92AC 08 79        bne   9327
0009:92AE 01           nop
0009:92AF F0 40 10     iwt   r0,#1040
0009:92B2 56           add   r6
0009:92B3 1B 40        ldw   (r0)
0009:92B5 F0 00 19     iwt   r0,#1900
0009:92B8 56           add   r6
0009:92B9 BB 30        stw   (r0)
0009:92BB 05 23        bra   92E0
0009:92BD 01           nop
0009:92BE F3 32 01     iwt   r3,#0132
0009:92C1 3F 63        cmp   r3
0009:92C3 08 14        bne   92D9
0009:92C5 01           nop
0009:92C6 F0 D6 19     iwt   r0,#19D6
0009:92C9 56           add   r6
0009:92CA 40           ldw   (r0)
0009:92CB 3E 63        sub   #03
0009:92CD 09 58        beq   9327
0009:92CF 01           nop
0009:92D0 E0           dec   r0
0009:92D1 08 0D        bne   92E0
0009:92D3 01           nop
0009:92D4 05 52        bra   9328
0009:92D6 3D A6 26     lms   r6,(004C)
0009:92D9 3D 49        ldb   (r9)
0009:92DB 3E 78        and   #08
0009:92DD 09 48        beq   9327
0009:92DF 01           nop
0009:92E0 3D A4 00     lms   r4,(0000)
0009:92E3 47           ldw   (r7)
0009:92E4 61           sub   r1
0009:92E5 0A 04        bpl   92EB
0009:92E7 01           nop
0009:92E8 24 4F        not
0009:92EA D4           inc   r4
0009:92EB F0 20 12     iwt   r0,#1220
0009:92EE 56           add   r6
0009:92EF B4 30        stw   (r0)
0009:92F1 3D A4 01     lms   r4,(0002)
0009:92F4 F0 22 12     iwt   r0,#1222
0009:92F7 56           add   r6
0009:92F8 B4 30        stw   (r0)
0009:92FA 24 64        sub   r4
0009:92FC F0 78 19     iwt   r0,#1978
0009:92FF 56           add   r6
0009:9300 B4 30        stw   (r0)
0009:9302 F0 40 15     iwt   r0,#1540
0009:9305 56           add   r6
0009:9306 B4 30        stw   (r0)
0009:9308 D4           inc   r4
0009:9309 F0 38 1D     iwt   r0,#1D38
0009:930C 56           add   r6
0009:930D B4 30        stw   (r0)
0009:930F A4 40        ibt   r4,#0040
0009:9311 F0 42 15     iwt   r0,#1542
0009:9314 56           add   r6
0009:9315 B4 30        stw   (r0)
0009:9317 F4 FC FF     iwt   r4,#FFFC
0009:931A 49           ldw   (r9)
0009:931B 74           and   r4
0009:931C 90           sbk
0009:931D F4 FF F9     iwt   r4,#F9FF
0009:9320 F0 A0 0F     iwt   r0,#0FA0
0009:9323 56           add   r6
0009:9324 40           ldw   (r0)
0009:9325 74           and   r4
0009:9326 90           sbk
0009:9327 3D A6 26     lms   r6,(004C)
0009:932A A0 04        ibt   r0,#0004
0009:932C 25 60        sub   r0
0009:932E 26 60        sub   r0
0009:9330 27 60        sub   r0
0009:9332 28 60        sub   r0
0009:9334 29 60        sub   r0
0009:9336 3C           loop
0009:9337 01           nop
0009:9338 00           stop
0009:9339 01           nop
0009:933A 02           cache
0009:933B AC 18        ibt   r12,#0018
0009:933D 2F 1D        move  r13,r15
0009:933F F2 10 00     iwt   r2,#0010
0009:9342 BC 3E 61     sub   #01
0009:9345 50           add   r0
0009:9346 11 50        add   r0
0009:9348 F0 00 0F     iwt   r0,#0F00
0009:934B 51           add   r1
0009:934C 40           ldw   (r0)
0009:934D 62           sub   r2
0009:934E 08 4E        bne   939E
0009:9350 01           nop
0009:9351 F3 07 00     iwt   r3,#0007
0009:9354 A0 09        ibt   r0,#0009
0009:9356 3F DF        romb
0009:9358 FE A5 93     iwt   r14,#93A5
0009:935B EF           getb
0009:935C DE           inc   r14
0009:935D 12 3D EF     getbh
0009:9360 F0 60 13     iwt   r0,#1360
0009:9363 51           add   r1
0009:9364 40           ldw   (r0)
0009:9365 62           sub   r2
0009:9366 09 07        beq   936F
0009:9368 E3           dec   r3
0009:9369 08 F0        bne   935B
0009:936B DE           inc   r14
0009:936C 05 30        bra   939E
0009:936E 01           nop
0009:936F F0 D6 1C     iwt   r0,#1CD6
0009:9372 51           add   r1
0009:9373 40           ldw   (r0)
0009:9374 12 65        sub   r5
0009:9376 0A 03        bpl   937B
0009:9378 22 4F        not
0009:937A D2           inc   r2
0009:937B F0 B6 1B     iwt   r0,#1BB6
0009:937E 51           add   r1
0009:937F 40           ldw   (r0)
0009:9380 57           add   r7
0009:9381 62           sub   r2
0009:9382 0B 1A        bmi   939E
0009:9384 01           nop
0009:9385 F0 D8 1C     iwt   r0,#1CD8
0009:9388 51           add   r1
0009:9389 40           ldw   (r0)
0009:938A 12 66        sub   r6
0009:938C 0A 03        bpl   9391
0009:938E 22 4F        not
0009:9390 D2           inc   r2
0009:9391 F0 B8 1B     iwt   r0,#1BB8
0009:9394 51           add   r1
0009:9395 40           ldw   (r0)
0009:9396 57           add   r7
0009:9397 62           sub   r2
0009:9398 0B 04        bmi   939E
0009:939A 01           nop
0009:939B 05 06        bra   93A3
0009:939D 01           nop
0009:939E 3C           loop
0009:939F 01           nop
0009:93A0 F1 FF FF     iwt   r1,#FFFF
0009:93A3 00           stop
0009:93A4 01           nop
0009:93A5 DE           inc   r14
0009:93A6 00           stop
0009:93A7 89           mult  r9
0009:93A8 00           stop
0009:93A9 8A           mult  r10
0009:93AA 00           stop
0009:93AB 85           mult  r5
0009:93AC 01           nop
0009:93AD 86           mult  r6
0009:93AE 01           nop
0009:93AF 89           mult  r9
0009:93B0 01           nop
0009:93B1 8A           mult  r10
0009:93B2 01           nop
0009:93B3 3D A1 4A     lms   r1,(0094)
0009:93B6 3D F0 0C 1E  lm    r0,(1E0C)
0009:93BA 12 9E        lob
0009:93BC 26 B8        moves r6,r8
0009:93BE 09 18        beq   93D8
0009:93C0 B2 3D 9F     lmult
0009:93C3 24 C0        hib
0009:93C5 9E           lob
0009:93C6 4D           swap
0009:93C7 13 C4        or    r4
0009:93C9 B1 3D 9F     lmult
0009:93CC 24 53        add   r3
0009:93CE 24 C0        hib
0009:93D0 3F 50        adc   #00
0009:93D2 9E           lob
0009:93D3 4D           swap
0009:93D4 C4           or    r4
0009:93D5 3E A0 4B     sms   (0096),r0
0009:93D8 26 BA        moves r6,r10
0009:93DA 09 18        beq   93F4
0009:93DC B2 3D 9F     lmult
0009:93DF 24 C0        hib
0009:93E1 9E           lob
0009:93E2 4D           swap
0009:93E3 13 C4        or    r4
0009:93E5 B1 3D 9F     lmult
0009:93E8 24 53        add   r3
0009:93EA 24 C0        hib
0009:93EC 3F 50        adc   #00
0009:93EE 9E           lob
0009:93EF 4D           swap
0009:93F0 C4           or    r4
0009:93F1 3E A0 4C     sms   (0098),r0
0009:93F4 26 BC        moves r6,r12
0009:93F6 09 18        beq   9410
0009:93F8 B2 3D 9F     lmult
0009:93FB 24 C0        hib
0009:93FD 9E           lob
0009:93FE 4D           swap
0009:93FF 13 C4        or    r4
0009:9401 B1 3D 9F     lmult
0009:9404 24 53        add   r3
0009:9406 24 C0        hib
0009:9408 3F 50        adc   #00
0009:940A 9E           lob
0009:940B 4D           swap
0009:940C C4           or    r4
0009:940D 3E A0 4D     sms   (009A),r0
0009:9410 F0 0C 07     iwt   r0,#070C
0009:9413 3D A5 4E     lms   r5,(009C)
0009:9416 11 65        sub   r5
0009:9418 3D F0 0E 1E  lm    r0,(1E0E)
0009:941C 12 9E        lob
0009:941E 26 B9        moves r6,r9
0009:9420 09 29        beq   944B
0009:9422 01           nop
0009:9423 0A 06        bpl   942B
0009:9425 B2 25 10     move  r0,r5
0009:9428 05 1E        bra   9448
0009:942A 01           nop
0009:942B 3D 9F        lmult
0009:942D 24 C0        hib
0009:942F 9E           lob
0009:9430 4D           swap
0009:9431 13 C4        or    r4
0009:9433 B1 3D 9F     lmult
0009:9436 24 53        add   r3
0009:9438 24 C0        hib
0009:943A 3F 50        adc   #00
0009:943C 9E           lob
0009:943D 4D           swap
0009:943E 13 C4        or    r4
0009:9440 F0 26 03     iwt   r0,#0326
0009:9443 63           sub   r3
0009:9444 0A 02        bpl   9448
0009:9446 01           nop
0009:9447 60           sub   r0
0009:9448 3E A0 4F     sms   (009E),r0
0009:944B 26 BB        moves r6,r11
0009:944D 09 29        beq   9478
0009:944F 01           nop
0009:9450 0A 06        bpl   9458
0009:9452 B2 25 10     move  r0,r5
0009:9455 05 1E        bra   9475
0009:9457 01           nop
0009:9458 3D 9F        lmult
0009:945A 24 C0        hib
0009:945C 9E           lob
0009:945D 4D           swap
0009:945E 13 C4        or    r4
0009:9460 B1 3D 9F     lmult
0009:9463 24 53        add   r3
0009:9465 24 C0        hib
0009:9467 3F 50        adc   #00
0009:9469 9E           lob
0009:946A 4D           swap
0009:946B 13 C4        or    r4
0009:946D F0 26 01     iwt   r0,#0126
0009:9470 63           sub   r3
0009:9471 0A 02        bpl   9475
0009:9473 01           nop
0009:9474 60           sub   r0
0009:9475 3E A0 50     sms   (00A0),r0
0009:9478 26 BD        moves r6,r13
0009:947A 09 29        beq   94A5
0009:947C 01           nop
0009:947D 0A 06        bpl   9485
0009:947F B2 25 10     move  r0,r5
0009:9482 05 1E        bra   94A2
0009:9484 01           nop
0009:9485 3D 9F        lmult
0009:9487 24 C0        hib
0009:9489 9E           lob
0009:948A 4D           swap
0009:948B 13 C4        or    r4
0009:948D B1 3D 9F     lmult
0009:9490 24 53        add   r3
0009:9492 24 C0        hib
0009:9494 3F 50        adc   #00
0009:9496 9E           lob
0009:9497 4D           swap
0009:9498 13 C4        or    r4
0009:949A F0 26 01     iwt   r0,#0126
0009:949D 63           sub   r3
0009:949E 0A 02        bpl   94A2
0009:94A0 01           nop
0009:94A1 60           sub   r0
0009:94A2 3E A0 51     sms   (00A2),r0
0009:94A5 00           stop
0009:94A6 01           nop
0009:94A7 00           stop
0009:94A8 00           stop
0009:94A9 00           stop
0009:94AA 06 00        bge   94AC
0009:94AC 00           stop
0009:94AD 06 00        bge   94AF
0009:94AF 00           stop
0009:94B0 04           rol
0009:94B1 00           stop
0009:94B2 00           stop
0009:94B3 06 00        bge   94B5
0009:94B5 00           stop
0009:94B6 02           cache
0009:94B7 00           stop
0009:94B8 00           stop
0009:94B9 06 00        bge   94BB
0009:94BB 00           stop
0009:94BC 01           nop
0009:94BD 00           stop
0009:94BE 00           stop
0009:94BF 06 00        bge   94C1
0009:94C1 00           stop
0009:94C2 06 00        bge   94C4
0009:94C4 00           stop
0009:94C5 02           cache
0009:94C6 00           stop
0009:94C7 00           stop
0009:94C8 01           nop
0009:94C9 01           nop
0009:94CA 00           stop
0009:94CB 04           rol
0009:94CC 00           stop
0009:94CD 00           stop
0009:94CE 01           nop
0009:94CF 00           stop
0009:94D0 01           nop
0009:94D1 01           nop
0009:94D2 01           nop
0009:94D3 01           nop
0009:94D4 00           stop
0009:94D5 00           stop
0009:94D6 00           stop
0009:94D7 3D F0 2A 1E  lm    r0,(1E2A)
0009:94DB 3E 60        sub   #00
0009:94DD 09 1A        beq   94F9
0009:94DF 01           nop
0009:94E0 0B 11        bmi   94F3
0009:94E2 60           sub   r0
0009:94E3 3D F0 36 1E  lm    r0,(1E36)
0009:94E7 11 50        add   r0
0009:94E9 FD 00 00     iwt   r13,#0000
0009:94EC 3D F0 2E 1E  lm    r0,(1E2E)
0009:94F0 05 29        bra   951B
0009:94F2 01           nop
0009:94F3 A1 00        ibt   r1,#0000
0009:94F5 FF 8A 95     iwt   r15,#958A
0009:94F8 01           nop
0009:94F9 3D F0 10 1E  lm    r0,(1E10)
0009:94FD 11 9E        lob
0009:94FF 3D F0 12 1E  lm    r0,(1E12)
0009:9503 9E           lob
0009:9504 4D           swap
0009:9505 11 C1        or    r1
0009:9507 3D A0 45     lms   r0,(008A)
0009:950A 13 9E        lob
0009:950C 3D A0 46     lms   r0,(008C)
0009:950F 9E           lob
0009:9510 4D           swap
0009:9511 C3           or    r3
0009:9512 61           sub   r1
0009:9513 11 50        add   r0
0009:9515 FD 00 01     iwt   r13,#0100
0009:9518 3D A0 46     lms   r0,(008C)
0009:951B 3D A3 4A     lms   r3,(0094)
0009:951E 63           sub   r3
0009:951F 3D F4 20 1E  lm    r4,(1E20)
0009:9523 64           sub   r4
0009:9524 0B 29        bmi   954F
0009:9526 01           nop
0009:9527 A3 18        ibt   r3,#0018
0009:9529 63           sub   r3
0009:952A E0           dec   r0
0009:952B 0A 22        bpl   954F
0009:952D D0           inc   r0
0009:952E A0 30        ibt   r0,#0030
0009:9530 3D A3 62     lms   r3,(00C4)
0009:9533 E3           dec   r3
0009:9534 0B 04        bmi   953A
0009:9536 01           nop
0009:9537 F0 A8 00     iwt   r0,#00A8
0009:953A 64           sub   r4
0009:953B A3 50        ibt   r3,#0050
0009:953D 53           add   r3
0009:953E 0B 07        bmi   9547
0009:9540 01           nop
0009:9541 F3 A0 00     iwt   r3,#00A0
0009:9544 63           sub   r3
0009:9545 0C 05        bcc   954C
0009:9547 54           add   r4
0009:9548 3E F0 20 1E  sm    (1E20),r0
0009:954C 05 3C        bra   958A
0009:954E 60           sub   r0
0009:954F 21 B1        moves r1,r1
0009:9551 08 0B        bne   955E
0009:9553 01           nop
0009:9554 2D 11        move  r1,r13
0009:9556 3E 60        sub   #00
0009:9558 0A 04        bpl   955E
0009:955A 01           nop
0009:955B 21 4F        not
0009:955D D1           inc   r1
0009:955E 13 3D C1     xor   r1
0009:9561 0A 04        bpl   9567
0009:9563 14           to    r4
0009:9564 05 22        bra   9588
0009:9566 54           add   r4
0009:9567 20 13        move  r3,r0
0009:9569 2D 14        move  r4,r13
0009:956B 21 B1        moves r1,r1
0009:956D 0A 04        bpl   9573
0009:956F 01           nop
0009:9570 24 4F        not
0009:9572 D4           inc   r4
0009:9573 B1 64        sub   r4
0009:9575 3D C1        xor   r1
0009:9577 0A 03        bpl   957C
0009:9579 01           nop
0009:957A 24 11        move  r1,r4
0009:957C 23 10        move  r0,r3
0009:957E A4 30        ibt   r4,#0030
0009:9580 21 B1        moves r1,r1
0009:9582 0A 05        bpl   9589
0009:9584 B4 F4 A8 00  iwt   r4,#00A8
0009:9588 B4 90        sbk
0009:958A 13 3E 5A     add   #0A
0009:958D 0B 07        bmi   9596
0009:958F 01           nop
0009:9590 13 3E 6A     sub   #0A
0009:9593 0B 02        bmi   9597
0009:9595 01           nop
0009:9596 63           sub   r3
0009:9597 9E           lob
0009:9598 4D           swap
0009:9599 3D C1        xor   r1
0009:959B 0A 02        bpl   959F
0009:959D 01           nop
0009:959E B1 3D C1     xor   r1
0009:95A1 61           sub   r1
0009:95A2 13 3D C1     xor   r1
0009:95A5 0A 03        bpl   95AA
0009:95A7 51           add   r1
0009:95A8 20 11        move  r1,r0
0009:95AA 3D F0 0C 1E  lm    r0,(1E0C)
0009:95AE 9E           lob
0009:95AF 51           add   r1
0009:95B0 90           sbk
0009:95B1 C0           hib
0009:95B2 95           sex
0009:95B3 3D A1 4A     lms   r1,(0094)
0009:95B6 51           add   r1
0009:95B7 3D F1 18 1E  lm    r1,(1E18)
0009:95BB 61           sub   r1
0009:95BC 0A 08        bpl   95C6
0009:95BE 51           add   r1
0009:95BF 60           sub   r0
0009:95C0 3E F0 0C 1E  sm    (1E0C),r0
0009:95C4 21 10        move  r0,r1
0009:95C6 3D F1 1A 1E  lm    r1,(1E1A)
0009:95CA 61           sub   r1
0009:95CB 0B 08        bmi   95D5
0009:95CD 51           add   r1
0009:95CE 60           sub   r0
0009:95CF 3E F0 0C 1E  sm    (1E0C),r0
0009:95D3 21 10        move  r0,r1
0009:95D5 20 11        move  r1,r0
0009:95D7 3D F0 2A 1E  lm    r0,(1E2A)
0009:95DB 3E 60        sub   #00
0009:95DD 09 21        beq   9600
0009:95DF 01           nop
0009:95E0 0B 16        bmi   95F8
0009:95E2 01           nop
0009:95E3 3D F2 38 1E  lm    r2,(1E38)
0009:95E7 B2 3D 96     div2
0009:95EA 3D 96        div2
0009:95EC 12 52        add   r2
0009:95EE FD 00 00     iwt   r13,#0000
0009:95F1 3D F0 30 1E  lm    r0,(1E30)
0009:95F5 05 31        bra   9628
0009:95F7 01           nop
0009:95F8 A3 00        ibt   r3,#0000
0009:95FA A2 00        ibt   r2,#0000
0009:95FC FF 0D 97     iwt   r15,#970D
0009:95FF 01           nop
0009:9600 3D F0 14 1E  lm    r0,(1E14)
0009:9604 12 9E        lob
0009:9606 3D F0 16 1E  lm    r0,(1E16)
0009:960A 9E           lob
0009:960B 4D           swap
0009:960C 12 C2        or    r2
0009:960E 3D A0 47     lms   r0,(008E)
0009:9611 13 9E        lob
0009:9613 3D A0 48     lms   r0,(0090)
0009:9616 9E           lob
0009:9617 4D           swap
0009:9618 C3           or    r3
0009:9619 62           sub   r2
0009:961A 20 12        move  r2,r0
0009:961C 3D 96        div2
0009:961E 3D 96        div2
0009:9620 12 52        add   r2
0009:9622 FD 00 02     iwt   r13,#0200
0009:9625 3D A0 48     lms   r0,(0090)
0009:9628 3D A3 4E     lms   r3,(009C)
0009:962B 63           sub   r3
0009:962C 3D F4 22 1E  lm    r4,(1E22)
0009:9630 13 64        sub   r4
0009:9632 0B 07        bmi   963B
0009:9634 23 3E 68     sub   #08
0009:9637 0A 02        bpl   963B
0009:9639 13 60        sub   r0
0009:963B 3D F0 2A 1E  lm    r0,(1E2A)
0009:963F 3E 60        sub   #00
0009:9641 09 05        beq   9648
0009:9643 01           nop
0009:9644 FF 0D 97     iwt   r15,#970D
0009:9647 01           nop
0009:9648 3D F5 71 00  lm    r5,(0071)
0009:964C B5 3F 7C     bic   #0C
0009:964F 3D AE 54     lms   r14,(00A8)
0009:9652 CE           or    r14
0009:9653 3D AE 60     lms   r14,(00C0)
0009:9656 CE           or    r14
0009:9657 08 31        bne   968A
0009:9659 60           sub   r0
0009:965A 3D A0 57     lms   r0,(00AE)
0009:965D 3E 64        sub   #04
0009:965F 09 29        beq   968A
0009:9661 B5 3E 7C     and   #0C
0009:9664 09 1D        beq   9683
0009:9666 60           sub   r0
0009:9667 3D F0 24 1E  lm    r0,(1E24)
0009:966B D0           inc   r0
0009:966C A4 10        ibt   r4,#0010
0009:966E 64           sub   r4
0009:966F 0C 12        bcc   9683
0009:9671 54           add   r4
0009:9672 F4 A0 00     iwt   r4,#00A0
0009:9675 B5 3E 78     and   #08
0009:9678 08 03        bne   967D
0009:967A 01           nop
0009:967B A4 64        ibt   r4,#0064
0009:967D 60           sub   r0
0009:967E 90           sbk
0009:967F 24           with  r4
0009:9680 05 1A        bra   969C
0009:9682 10 3E F0 24+ sm    (1E24),r0
0009:9687 05 17        bra   96A0
0009:9689 01           nop
0009:968A 3E F0 24 1E  sm    (1E24),r0
0009:968E 23 B3        moves r3,r3
0009:9690 09 68        beq   96FA
0009:9692 01           nop
0009:9693 A0 64        ibt   r0,#0064
0009:9695 64           sub   r4
0009:9696 15 3D C3     xor   r3
0009:9699 0A 05        bpl   96A0
0009:969B 54           add   r4
0009:969C 3E F0 22 1E  sm    (1E22),r0
0009:96A0 23 B3        moves r3,r3
0009:96A2 0A 56        bpl   96FA
0009:96A4 01           nop
0009:96A5 3D A0 60     lms   r0,(00C0)
0009:96A8 3E 60        sub   #00
0009:96AA 09 23        beq   96CF
0009:96AC D0           inc   r0
0009:96AD 3D A0 6A     lms   r0,(00D4)
0009:96B0 E0           dec   r0
0009:96B1 0A 1C        bpl   96CF
0009:96B3 D0           inc   r0
0009:96B4 3D F0 22 1E  lm    r0,(1E22)
0009:96B8 A4 50        ibt   r4,#0050
0009:96BA 64           sub   r4
0009:96BB 14 53        add   r3
0009:96BD 0A 1C        bpl   96DB
0009:96BF 01           nop
0009:96C0 3D A0 69     lms   r0,(00D2)
0009:96C3 F5 02 80     iwt   r5,#8002
0009:96C6 65           sub   r5
0009:96C7 0C 12        bcc   96DB
0009:96C9 01           nop
0009:96CA 24 13        move  r3,r4
0009:96CC 05 40        bra   970E
0009:96CE B3 3E F0 0A+ sm    (1E0A),r0
0009:96D3 BD 4F        not
0009:96D5 D0           inc   r0
0009:96D6 62           sub   r2
0009:96D7 0A 02        bpl   96DB
0009:96D9 12 52        add   r2
0009:96DB 3D F0 0A 1E  lm    r0,(1E0A)
0009:96DF 3D A4 63     lms   r4,(00C6)
0009:96E2 C4           or    r4
0009:96E3 3D A4 A7     lms   r4,(014E)
0009:96E6 C4           or    r4
0009:96E7 3D A4 6D     lms   r4,(00DA)
0009:96EA C4           or    r4
0009:96EB 08 20        bne   970D
0009:96ED 01           nop
0009:96EE 3D A0 57     lms   r0,(00AE)
0009:96F1 3E 66        sub   #06
0009:96F3 09 18        beq   970D
0009:96F5 01           nop
0009:96F6 13           to    r3
0009:96F7 05 14        bra   970D
0009:96F9 60           sub   r0
0009:96FA 3D A0 60     lms   r0,(00C0)
0009:96FD 3E 60        sub   #00
0009:96FF 08 0C        bne   970D
0009:9701 60           sub   r0
0009:9702 3E F0 0A 1E  sm    (1E0A),r0
0009:9706 BD 62        sub   r2
0009:9708 0B 03        bmi   970D
0009:970A 52           add   r2
0009:970B 20 12        move  r2,r0
0009:970D B3 3E 5A     add   #0A
0009:9710 0B 06        bmi   9718
0009:9712 B3 3E 6A     sub   #0A
0009:9715 0B 03        bmi   971A
0009:9717 01           nop
0009:9718 23 60        sub   r0
0009:971A B3 9E        lob
0009:971C 3D F3 2A 1E  lm    r3,(1E2A)
0009:9720 23 B3        moves r3,r3
0009:9722 4D           swap
0009:9723 3D C2        xor   r2
0009:9725 0A 02        bpl   9729
0009:9727 01           nop
0009:9728 B2 3D C2     xor   r2
0009:972B 62           sub   r2
0009:972C 13 3D C2     xor   r2
0009:972F 0A 03        bpl   9734
0009:9731 52           add   r2
0009:9732 20 12        move  r2,r0
0009:9734 3D F0 0E 1E  lm    r0,(1E0E)
0009:9738 9E           lob
0009:9739 52           add   r2
0009:973A 90           sbk
0009:973B C0           hib
0009:973C 95           sex
0009:973D 3D A2 4E     lms   r2,(009C)
0009:9740 52           add   r2
0009:9741 3D F2 1C 1E  lm    r2,(1E1C)
0009:9745 62           sub   r2
0009:9746 0A 08        bpl   9750
0009:9748 52           add   r2
0009:9749 60           sub   r0
0009:974A 3E F0 0E 1E  sm    (1E0E),r0
0009:974E 22 10        move  r0,r2
0009:9750 3D F2 1E 1E  lm    r2,(1E1E)
0009:9754 62           sub   r2
0009:9755 0B 08        bmi   975F
0009:9757 52           add   r2
0009:9758 60           sub   r0
0009:9759 3E F0 0E 1E  sm    (1E0E),r0
0009:975D 22 10        move  r0,r2
0009:975F A2 0C        ibt   r2,#000C
0009:9761 12 62        sub   r2
0009:9763 A5 00        ibt   r5,#0000
0009:9765 F6 AA 0C     iwt   r6,#0CAA
0009:9768 F0 FF 00     iwt   r0,#00FF
0009:976B 13 51        add   r1
0009:976D 14 52        add   r2
0009:976F 20 B2        moves r0,r2
0009:9771 0A 02        bpl   9775
0009:9773 C0           hib
0009:9774 60           sub   r0
0009:9775 50           add   r0
0009:9776 50           add   r0
0009:9777 50           add   r0
0009:9778 17 50        add   r0
0009:977A B1 C0        hib
0009:977C C7           or    r7
0009:977D 56           add   r6
0009:977E 3D 40        ldb   (r0)
0009:9780 95           sex
0009:9781 0B 03        bmi   9786
0009:9783 01           nop
0009:9784 A5 02        ibt   r5,#0002
0009:9786 B3 C0        hib
0009:9788 C7           or    r7
0009:9789 56           add   r6
0009:978A 3D 40        ldb   (r0)
0009:978C 95           sex
0009:978D 0B 02        bmi   9791
0009:978F 01           nop
0009:9790 D5           inc   r5
0009:9791 25 55        add   r5
0009:9793 B4 C0        hib
0009:9795 50           add   r0
0009:9796 50           add   r0
0009:9797 50           add   r0
0009:9798 17 50        add   r0
0009:979A B1 C0        hib
0009:979C C7           or    r7
0009:979D 56           add   r6
0009:979E 3D 40        ldb   (r0)
0009:97A0 95           sex
0009:97A1 0B 02        bmi   97A5
0009:97A3 01           nop
0009:97A4 D5           inc   r5
0009:97A5 25 55        add   r5
0009:97A7 B3 C0        hib
0009:97A9 C7           or    r7
0009:97AA 56           add   r6
0009:97AB 3D 40        ldb   (r0)
0009:97AD 95           sex
0009:97AE 0B 02        bmi   97B2
0009:97B0 01           nop
0009:97B1 D5           inc   r5
0009:97B2 A0 09        ibt   r0,#0009
0009:97B4 3F DF        romb
0009:97B6 F0 A7 94     iwt   r0,#94A7
0009:97B9 55           add   r5
0009:97BA 55           add   r5
0009:97BB 1E 55        add   r5
0009:97BD EF           getb
0009:97BE DE           inc   r14
0009:97BF E0           dec   r0
0009:97C0 0A 05        bpl   97C7
0009:97C2 D0           inc   r0
0009:97C3 FF 4E 98     iwt   r15,#984E
0009:97C6 01           nop
0009:97C7 03           lsr
0009:97C8 0D 24        bcs   97EE
0009:97CA 03           lsr
0009:97CB 0C 13        bcc   97E0
0009:97CD 01           nop
0009:97CE 20 16        move  r6,r0
0009:97D0 60           sub   r0
0009:97D1 3E F0 0C 1E  sm    (1E0C),r0
0009:97D5 F0 80 00     iwt   r0,#0080
0009:97D8 51           add   r1
0009:97D9 C0           hib
0009:97DA 11 4D        swap
0009:97DC E6           dec   r6
0009:97DD 0B 6F        bmi   984E
0009:97DF 01           nop
0009:97E0 60           sub   r0
0009:97E1 3E F0 0E 1E  sm    (1E0E),r0
0009:97E5 F0 80 00     iwt   r0,#0080
0009:97E8 52           add   r2
0009:97E9 C0           hib
0009:97EA 12           to    r2
0009:97EB 05 61        bra   984E
0009:97ED 4D           swap
0009:97EE 13 EF        getb
0009:97F0 DE           inc   r14
0009:97F1 21 10        move  r0,r1
0009:97F3 E3           dec   r3
0009:97F4 0B 02        bmi   97F8
0009:97F6 D3           inc   r3
0009:97F7 4F           not
0009:97F8 17 9E        lob
0009:97FA 15 EF        getb
0009:97FC 22 10        move  r0,r2
0009:97FE E5           dec   r5
0009:97FF 0B 02        bmi   9803
0009:9801 D5           inc   r5
0009:9802 4F           not
0009:9803 9E           lob
0009:9804 20 18        move  r8,r0
0009:9806 57           add   r7
0009:9807 F6 00 01     iwt   r6,#0100
0009:980A 66           sub   r6
0009:980B 0D 41        bcs   984E
0009:980D 56           add   r6
0009:980E 50           add   r0
0009:980F F6 00 22     iwt   r6,#2200
0009:9812 56           add   r6
0009:9813 40           ldw   (r0)
0009:9814 F6 80 7F     iwt   r6,#7F80
0009:9817 3D 9F        lmult
0009:9819 24 54        add   r4
0009:981B 04           rol
0009:981C 24 54        add   r4
0009:981E 16 3F 50     adc   #00
0009:9821 B7 3D 9F     lmult
0009:9824 F0 80 00     iwt   r0,#0080
0009:9827 E3           dec   r3
0009:9828 0B 02        bmi   982C
0009:982A 54           add   r4
0009:982B 4F           not
0009:982C 17 C0        hib
0009:982E B1 C0        hib
0009:9830 4D           swap
0009:9831 11 C7        or    r7
0009:9833 B8 3D 9F     lmult
0009:9836 F0 80 00     iwt   r0,#0080
0009:9839 E5           dec   r5
0009:983A 0B 02        bmi   983E
0009:983C 54           add   r4
0009:983D 4F           not
0009:983E 18 C0        hib
0009:9840 B2 C0        hib
0009:9842 4D           swap
0009:9843 12 C8        or    r8
0009:9845 60           sub   r0
0009:9846 3E F0 0C 1E  sm    (1E0C),r0
0009:984A 3E F0 0E 1E  sm    (1E0E),r0
0009:984E 3E A1 4A     sms   (0094),r1
0009:9851 3E A2 4E     sms   (009C),r2
0009:9854 00           stop
0009:9855 01           nop
0009:9856 F1 67 01     iwt   r1,#0167
0009:9859 F2 69 01     iwt   r2,#0169
0009:985C A5 00        ibt   r5,#0000
0009:985E A6 10        ibt   r6,#0010
0009:9860 A8 FF        ibt   r8,#FFFF
0009:9862 A9 FF        ibt   r9,#FFFF
0009:9864 02           cache
0009:9865 AC 18        ibt   r12,#0018
0009:9867 2F 1D        move  r13,r15
0009:9869 F0 00 0F     iwt   r0,#0F00
0009:986C 55           add   r5
0009:986D 40           ldw   (r0)
0009:986E 66           sub   r6
0009:986F 08 3E        bne   98AF
0009:9871 01           nop
0009:9872 F0 60 13     iwt   r0,#1360
0009:9875 55           add   r5
0009:9876 40           ldw   (r0)
0009:9877 3F 61        cmp   r1
0009:9879 0C 34        bcc   98AF
0009:987B 01           nop
0009:987C 3F 62        cmp   r2
0009:987E 0D 2F        bcs   98AF
0009:9880 01           nop
0009:9881 F0 38 1D     iwt   r0,#1D38
0009:9884 55           add   r5
0009:9885 40           ldw   (r0)
0009:9886 3E 60        sub   #00
0009:9888 08 25        bne   98AF
0009:988A 01           nop
0009:988B F0 E2 10     iwt   r0,#10E2
0009:988E 55           add   r5
0009:988F 40           ldw   (r0)
0009:9890 B3 60        sub   r0
0009:9892 0A 03        bpl   9897
0009:9894 01           nop
0009:9895 4F           not
0009:9896 D0           inc   r0
0009:9897 20 17        move  r7,r0
0009:9899 F0 82 11     iwt   r0,#1182
0009:989C 55           add   r5
0009:989D 40           ldw   (r0)
0009:989E B4 60        sub   r0
0009:98A0 0A 03        bpl   98A5
0009:98A2 01           nop
0009:98A3 4F           not
0009:98A4 D0           inc   r0
0009:98A5 57           add   r7
0009:98A6 3F 68        cmp   r8
0009:98A8 0D 05        bcs   98AF
0009:98AA 01           nop
0009:98AB 20 18        move  r8,r0
0009:98AD 25 19        move  r9,r5
0009:98AF 25 3E 54     add   #04
0009:98B2 3C           loop
0009:98B3 01           nop
0009:98B4 00           stop
0009:98B5 01           nop
0009:98B6 F0 62 13     iwt   r0,#1362
0009:98B9 51           add   r1
0009:98BA 40           ldw   (r0)
0009:98BB A2 30        ibt   r2,#0030
0009:98BD 12 52        add   r2
0009:98BF F0 D6 19     iwt   r0,#19D6
0009:98C2 51           add   r1
0009:98C3 40           ldw   (r0)
0009:98C4 03           lsr
0009:98C5 13 03        lsr
0009:98C7 F0 D8 19     iwt   r0,#19D8
0009:98CA 51           add   r1
0009:98CB 14 40        ldw   (r0)
0009:98CD F0 36 1A     iwt   r0,#1A36
0009:98D0 51           add   r1
0009:98D1 15 40        ldw   (r0)
0009:98D3 F0 80 16     iwt   r0,#1680
0009:98D6 51           add   r1
0009:98D7 19 40        ldw   (r0)
0009:98D9 F0 82 16     iwt   r0,#1682
0009:98DC 51           add   r1
0009:98DD 1A 40        ldw   (r0)
0009:98DF AB 00        ibt   r11,#0000
0009:98E1 F0 80 11     iwt   r0,#1180
0009:98E4 51           add   r1
0009:98E5 3D 40        ldb   (r0)
0009:98E7 3E 88        mult  #08
0009:98E9 3E A0 00     sms   (0000),r0
0009:98EC A0 09        ibt   r0,#0009
0009:98EE 3F DF        romb
0009:98F0 02           cache
0009:98F1 25 55        add   r5
0009:98F3 24 04        rol
0009:98F5 04           rol
0009:98F6 25 55        add   r5
0009:98F8 24 04        rol
0009:98FA 04           rol
0009:98FB 25 55        add   r5
0009:98FD 24 04        rol
0009:98FF 04           rol
0009:9900 3E 77        and   #07
0009:9902 23 3E 68     sub   #08
0009:9905 0C 66        bcc   996D
0009:9907 01           nop
0009:9908 3E 53        add   #03
0009:990A 03           lsr
0009:990B 03           lsr
0009:990C FE D6 99     iwt   r14,#99D6
0009:990F 1E 5E        add   r14
0009:9911 1C EF        getb
0009:9913 3E A4 24     sms   (0048),r4
0009:9916 50           add   r0
0009:9917 FE D9 99     iwt   r14,#99D9
0009:991A 1E 5E        add   r14
0009:991C EF           getb
0009:991D DE           inc   r14
0009:991E 1E 3D EF     getbh
0009:9921 2F 1D        move  r13,r15
0009:9923 3F EF        getbs
0009:9925 DE           inc   r14
0009:9926 26 BB        moves r6,r11
0009:9928 09 05        beq   992F
0009:992A 01           nop
0009:992B 4F           not
0009:992C D0           inc   r0
0009:992D A6 08        ibt   r6,#0008
0009:992F 14 59        add   r9
0009:9931 3F EF        getbs
0009:9933 DE           inc   r14
0009:9934 17 5A        add   r10
0009:9936 EF           getb
0009:9937 DE           inc   r14
0009:9938 3D EF        getbh
0009:993A DE           inc   r14
0009:993B 18 3D CB     xor   r11
0009:993E EF           getb
0009:993F 3E 72        and   #02
0009:9941 08 03        bne   9946
0009:9943 01           nop
0009:9944 24 56        add   r6
0009:9946 B4 32        stw   (r2)
0009:9948 D2           inc   r2
0009:9949 D2           inc   r2
0009:994A B7 32        stw   (r2)
0009:994C D2           inc   r2
0009:994D D2           inc   r2
0009:994E 17 3D EF     getbh
0009:9951 DE           inc   r14
0009:9952 3D A0 00     lms   r0,(0000)
0009:9955 58           add   r8
0009:9956 32           stw   (r2)
0009:9957 D2           inc   r2
0009:9958 D2           inc   r2
0009:9959 B7 32        stw   (r2)
0009:995B D2           inc   r2
0009:995C 3C           loop
0009:995D D2           inc   r2
0009:995E 3D A4 24     lms   r4,(0048)
0009:9961 F0 00 40     iwt   r0,#4000
0009:9964 1B 3D CB     xor   r11
0009:9967 A0 20        ibt   r0,#0020
0009:9969 2A           with  r10
0009:996A 05 85        bra   98F1
0009:996C 60           sub   r0
0009:996D B3 3E 58     add   #08
0009:9970 08 0D        bne   997F
0009:9972 01           nop
0009:9973 F0 38 1A     iwt   r0,#1A38
0009:9976 51           add   r1
0009:9977 40           ldw   (r0)
0009:9978 03           lsr
0009:9979 03           lsr
0009:997A 09 03        beq   997F
0009:997C 01           nop
0009:997D 3E 57        add   #07
0009:997F FE DF 99     iwt   r14,#99DF
0009:9982 1E 5E        add   r14
0009:9984 1C EF        getb
0009:9986 50           add   r0
0009:9987 FE EA 99     iwt   r14,#99EA
0009:998A 1E 5E        add   r14
0009:998C EF           getb
0009:998D DE           inc   r14
0009:998E 1E 3D EF     getbh
0009:9991 F0 62 13     iwt   r0,#1362
0009:9994 51           add   r1
0009:9995 12 40        ldw   (r0)
0009:9997 2F 1D        move  r13,r15
0009:9999 3F EF        getbs
0009:999B DE           inc   r14
0009:999C 26 BB        moves r6,r11
0009:999E 09 05        beq   99A5
0009:99A0 01           nop
0009:99A1 4F           not
0009:99A2 D0           inc   r0
0009:99A3 A6 08        ibt   r6,#0008
0009:99A5 14 59        add   r9
0009:99A7 3F EF        getbs
0009:99A9 DE           inc   r14
0009:99AA 17 5A        add   r10
0009:99AC EF           getb
0009:99AD DE           inc   r14
0009:99AE 3D EF        getbh
0009:99B0 DE           inc   r14
0009:99B1 18 3D CB     xor   r11
0009:99B4 EF           getb
0009:99B5 3E 72        and   #02
0009:99B7 08 03        bne   99BC
0009:99B9 01           nop
0009:99BA 24 56        add   r6
0009:99BC B4 32        stw   (r2)
0009:99BE D2           inc   r2
0009:99BF D2           inc   r2
0009:99C0 B7 32        stw   (r2)
0009:99C2 D2           inc   r2
0009:99C3 D2           inc   r2
0009:99C4 17 3D EF     getbh
0009:99C7 DE           inc   r14
0009:99C8 3D A0 00     lms   r0,(0000)
0009:99CB 58           add   r8
0009:99CC 32           stw   (r2)
0009:99CD D2           inc   r2
0009:99CE D2           inc   r2
0009:99CF B7 32        stw   (r2)
0009:99D1 D2           inc   r2
0009:99D2 3C           loop
0009:99D3 D2           inc   r2
0009:99D4 00           stop
0009:99D5 01           nop
0009:99D6 04           rol
0009:99D7 04           rol
0009:99D8 04           rol
0009:99D9 C3           or    r3
0009:99DA 9A           jmp   r10
0009:99DB D7           inc   r7
0009:99DC 9A           jmp   r10
0009:99DD EB           dec   r11
0009:99DE 9A           jmp   r10
0009:99DF 01           nop
0009:99E0 02           cache
0009:99E1 02           cache
0009:99E2 02           cache
0009:99E3 03           lsr
0009:99E4 04           rol
0009:99E5 04           rol
0009:99E6 05 04        bra   99EC
0009:99E8 06 06        bge   99F0
0009:99EA 00           stop
0009:99EB 9A           jmp   r10
0009:99EC 05 9A        bra   9988
0009:99EE 0F 9A        bvs   998A
0009:99F0 19 9A        jmp   r10
0009:99F2 23 9A        jmp   r10
0009:99F4 32           stw   (r2)
0009:99F5 9A           jmp   r10
0009:99F6 46           ldw   (r6)
0009:99F7 9A           jmp   r10
0009:99F8 5A           add   r10
0009:99F9 9A           jmp   r10
0009:99FA 73           and   r3
0009:99FB 9A           jmp   r10
0009:99FC 87           mult  r7
0009:99FD 9A           jmp   r10
0009:99FE A5 9A        ibt   r5,#FF9A
0009:9A00 01           nop
0009:9A01 00           stop
0009:9A02 0C 22        bcc   9A26
0009:9A04 02           cache
0009:9A05 04           rol
0009:9A06 FC 0C 22     iwt   r12,#220C
0009:9A09 02           cache
0009:9A0A 03           lsr
0009:9A0B 00           stop
0009:9A0C 00           stop
0009:9A0D A2 02        ibt   r2,#0002
0009:9A0F 05 F8        bra   9A09
0009:9A11 0C 22        bcc   9A35
0009:9A13 02           cache
0009:9A14 03           lsr
0009:9A15 00           stop
0009:9A16 00           stop
0009:9A17 A2 02        ibt   r2,#0002
0009:9A19 06 F4        bge   9A0F
0009:9A1B 0C 22        bcc   9A3F
0009:9A1D 02           cache
0009:9A1E 03           lsr
0009:9A1F 00           stop
0009:9A20 00           stop
0009:9A21 A2 02        ibt   r2,#0002
0009:9A23 07 F0        blt   9A15
0009:9A25 0C 22        bcc   9A49
0009:9A27 02           cache
0009:9A28 04           rol
0009:9A29 FC 1A 22     iwt   r12,#221A
0009:9A2C 00           stop
0009:9A2D 03           lsr
0009:9A2E 00           stop
0009:9A2F 00           stop
0009:9A30 A2 02        ibt   r2,#0002
0009:9A32 04           rol
0009:9A33 FC 0A 22     iwt   r12,#220A
0009:9A36 00           stop
0009:9A37 03           lsr
0009:9A38 00           stop
0009:9A39 00           stop
0009:9A3A A2 02        ibt   r2,#0002
0009:9A3C 05 EC        bra   9A2A
0009:9A3E 0C 62        bcc   9AA2
0009:9A40 02           cache
0009:9A41 0B F8        bmi   9A3B
0009:9A43 11 22 00     stop
0009:9A46 FB F7 08     iwt   r11,#08F7
0009:9A49 22 02        cache
0009:9A4B 03           lsr
0009:9A4C 00           stop
0009:9A4D 00           stop
0009:9A4E A2 02        ibt   r2,#0002
0009:9A50 03           lsr
0009:9A51 E8           dec   r8
0009:9A52 0C 62        bcc   9AB6
0009:9A54 02           cache
0009:9A55 03           lsr
0009:9A56 F0 00 22     iwt   r0,#2200
0009:9A59 02           cache
0009:9A5A F3 F7 06     iwt   r3,#06F7
0009:9A5D 22 02        cache
0009:9A5F FB F7 08     iwt   r11,#08F7
0009:9A62 22 02        cache
0009:9A64 03           lsr
0009:9A65 00           stop
0009:9A66 00           stop
0009:9A67 A2 02        ibt   r2,#0002
0009:9A69 01           nop
0009:9A6A E4           dec   r4
0009:9A6B 0C 62        bcc   9ACF
0009:9A6D 02           cache
0009:9A6E 03           lsr
0009:9A6F F0 00 22     iwt   r0,#2200
0009:9A72 02           cache
0009:9A73 05 04        bra   9A79
0009:9A75 0E A2        bvc   9A19
0009:9A77 02           cache
0009:9A78 05 FC        bra   9A76
0009:9A7A 0E 22        bvc   9A9E
0009:9A7C 02           cache
0009:9A7D FD FC 0E     iwt   r13,#0EFC
0009:9A80 62           sub   r2
0009:9A81 02           cache
0009:9A82 FD 04 0E     iwt   r13,#0E04
0009:9A85 E2           dec   r2
0009:9A86 02           cache
0009:9A87 07 07        blt   9A90
0009:9A89 1B 22 00     stop
0009:9A8C 03           lsr
0009:9A8D 07 1B        blt   9AAA
0009:9A8F 62           sub   r2
0009:9A90 00           stop
0009:9A91 07 06        blt   9A99
0009:9A93 0E A2        bvc   9A37
0009:9A95 02           cache
0009:9A96 07 FA        blt   9A92
0009:9A98 0E 22        bvc   9ABC
0009:9A9A 02           cache
0009:9A9B FB FA 0E     iwt   r11,#0EFA
0009:9A9E 62           sub   r2
0009:9A9F 02           cache
0009:9AA0 FB 06 0E     iwt   r11,#0E06
0009:9AA3 E2           dec   r2
0009:9AA4 02           cache
0009:9AA5 09 08        beq   9AAF
0009:9AA7 1B 22 00     stop
0009:9AAA 01           nop
0009:9AAB 08 1B        bne   9AC8
0009:9AAD 62           sub   r2
0009:9AAE 00           stop
0009:9AAF 09 08        beq   9AB9
0009:9AB1 0E A2        bvc   9A55
0009:9AB3 02           cache
0009:9AB4 09 F8        beq   9AAE
0009:9AB6 0E 22        bvc   9ADA
0009:9AB8 02           cache
0009:9AB9 F9 F8 0E     iwt   r9,#0EF8
0009:9ABC 62           sub   r2
0009:9ABD 02           cache
0009:9ABE F9 08 0E     iwt   r9,#0E08
0009:9AC1 E2           dec   r2
0009:9AC2 02           cache
0009:9AC3 EC           dec   r12
0009:9AC4 F7 02 22     iwt   r7,#2202
0009:9AC7 02           cache
0009:9AC8 FC F7 04     iwt   r12,#04F7
0009:9ACB 22 02        cache
0009:9ACD 03           lsr
0009:9ACE 00           stop
0009:9ACF 00           stop
0009:9AD0 A2 02        ibt   r2,#0002
0009:9AD2 03           lsr
0009:9AD3 F0 00 22     iwt   r0,#2200
0009:9AD6 02           cache
0009:9AD7 EC           dec   r12
0009:9AD8 F9 02 22     iwt   r9,#2202
0009:9ADB 02           cache
0009:9ADC FC F8 04     iwt   r12,#04F8
0009:9ADF 22 02        cache
0009:9AE1 03           lsr
0009:9AE2 00           stop
0009:9AE3 00           stop
0009:9AE4 A2 02        ibt   r2,#0002
0009:9AE6 03           lsr
0009:9AE7 F0 00 22     iwt   r0,#2200
0009:9AEA 02           cache
0009:9AEB FC F9 04     iwt   r12,#04F9
0009:9AEE 22 02        cache
0009:9AF0 EC           dec   r12
0009:9AF1 FA 02 22     iwt   r10,#2202
0009:9AF4 02           cache
0009:9AF5 03           lsr
0009:9AF6 00           stop
0009:9AF7 00           stop
0009:9AF8 A2 02        ibt   r2,#0002
0009:9AFA 03           lsr
0009:9AFB F0 00 22     iwt   r0,#2200
0009:9AFE 02           cache
0009:9AFF 00           stop
0009:9B00 10 20 30     stw   (r0)
0009:9B03 30           stw   (r0)
0009:9B04 40           ldw   (r0)
0009:9B05 50           add   r0
0009:9B06 50           add   r0
0009:9B07 60           sub   r0
0009:9B08 60           sub   r0
0009:9B09 70           merge
0009:9B0A 70           merge
0009:9B0B 70           merge
0009:9B0C 80           mult  r0
0009:9B0D 80           mult  r0
0009:9B0E 80           mult  r0
0009:9B0F 80           mult  r0
0009:9B10 80           mult  r0
0009:9B11 80           mult  r0
0009:9B12 80           mult  r0
0009:9B13 80           mult  r0
0009:9B14 80           mult  r0
0009:9B15 80           mult  r0
0009:9B16 80           mult  r0
0009:9B17 80           mult  r0
0009:9B18 70           merge
0009:9B19 70           merge
0009:9B1A 60           sub   r0
0009:9B1B 60           sub   r0
0009:9B1C 50           add   r0
0009:9B1D 50           add   r0
0009:9B1E 40           ldw   (r0)
0009:9B1F 40           ldw   (r0)
0009:9B20 30           stw   (r0)
0009:9B21 20 10        move  r0,r0
0009:9B23 60           sub   r0
0009:9B24 3E A0 00     sms   (0000),r0
0009:9B27 F0 D6 19     iwt   r0,#19D6
0009:9B2A 51           add   r1
0009:9B2B 40           ldw   (r0)
0009:9B2C 03           lsr
0009:9B2D 03           lsr
0009:9B2E 03           lsr
0009:9B2F 03           lsr
0009:9B30 12 03        lsr
0009:9B32 F0 D8 19     iwt   r0,#19D8
0009:9B35 51           add   r1
0009:9B36 13 40        ldw   (r0)
0009:9B38 F0 36 1A     iwt   r0,#1A36
0009:9B3B 51           add   r1
0009:9B3C 14 40        ldw   (r0)
0009:9B3E F0 D6 1C     iwt   r0,#1CD6
0009:9B41 51           add   r1
0009:9B42 40           ldw   (r0)
0009:9B43 A5 20        ibt   r5,#0020
0009:9B45 15 65        sub   r5
0009:9B47 F0 82 11     iwt   r0,#1182
0009:9B4A 51           add   r1
0009:9B4B 40           ldw   (r0)
0009:9B4C 16 3E 54     add   #04
0009:9B4F A7 1C        ibt   r7,#001C
0009:9B51 AC 00        ibt   r12,#0000
0009:9B53 AD 01        ibt   r13,#0001
0009:9B55 A0 09        ibt   r0,#0009
0009:9B57 3F DF        romb
0009:9B59 02           cache
0009:9B5A 24 54        add   r4
0009:9B5C 23 04        rol
0009:9B5E 04           rol
0009:9B5F 24 54        add   r4
0009:9B61 23 04        rol
0009:9B63 04           rol
0009:9B64 24 54        add   r4
0009:9B66 23 04        rol
0009:9B68 04           rol
0009:9B69 1B 3E 77     and   #07
0009:9B6C A0 10        ibt   r0,#0010
0009:9B6E 18 6B        sub   r11
0009:9B70 3D A0 55     lms   r0,(00AA)
0009:9B73 3E 60        sub   #00
0009:9B75 0B 40        bmi   9BB7
0009:9B77 01           nop
0009:9B78 3D A0 8E     lms   r0,(011C)
0009:9B7B 65           sub   r5
0009:9B7C 0B 39        bmi   9BB7
0009:9B7E 01           nop
0009:9B7F A9 24        ibt   r9,#0024
0009:9B81 69           sub   r9
0009:9B82 0D 33        bcs   9BB7
0009:9B84 59           add   r9
0009:9B85 27 B7        moves r7,r7
0009:9B87 0B 03        bmi   9B8C
0009:9B89 B9 3D 60     sbc   r0
0009:9B8C FE FF 9A     iwt   r14,#9AFF
0009:9B8F 1E 5E        add   r14
0009:9B91 3D A9 48     lms   r9,(0090)
0009:9B94 A0 20        ibt   r0,#0020
0009:9B96 1A 59        add   r9
0009:9B98 EF           getb
0009:9B99 3D 88        umult r8
0009:9B9B C0           hib
0009:9B9C B6 60        sub   r0
0009:9B9E 6A           sub   r10
0009:9B9F 0A 16        bpl   9BB7
0009:9BA1 01           nop
0009:9BA2 3E 59        add   #09
0009:9BA4 0B 11        bmi   9BB7
0009:9BA6 01           nop
0009:9BA7 3E 68        sub   #08
0009:9BA9 59           add   r9
0009:9BAA 90           sbk
0009:9BAB F0 00 01     iwt   r0,#0100
0009:9BAE 3E A0 55     sms   (00AA),r0
0009:9BB1 3E A0 DA     sms   (01B4),r0
0009:9BB4 2B 3E C8     or    #08
0009:9BB7 BB 3E 77     and   #07
0009:9BBA 6B           sub   r11
0009:9BBB 08 07        bne   9BC4
0009:9BBD 5B           add   r11
0009:9BBE 09 14        beq   9BD4
0009:9BC0 01           nop
0009:9BC1 05 11        bra   9BD4
0009:9BC3 E0           dec   r0
0009:9BC4 19 3E 67     sub   #07
0009:9BC7 0D 0B        bcs   9BD4
0009:9BC9 01           nop
0009:9BCA E0           dec   r0
0009:9BCB 0A 06        bpl   9BD3
0009:9BCD D0           inc   r0
0009:9BCE A9 1D        ibt   r9,#001D
0009:9BD0 3E A9 00     sms   (0000),r9
0009:9BD3 D0           inc   r0
0009:9BD4 3E 88        mult  #08
0009:9BD6 50           add   r0
0009:9BD7 50           add   r0
0009:9BD8 4D           swap
0009:9BD9 50           add   r0
0009:9BDA 2D 04        rol
0009:9BDC 2C 04        rol
0009:9BDE 50           add   r0
0009:9BDF 2D 04        rol
0009:9BE1 2C 04        rol
0009:9BE3 50           add   r0
0009:9BE4 2D 04        rol
0009:9BE6 2C 04        rol
0009:9BE8 25 57        add   r7
0009:9BEA A0 E0        ibt   r0,#FFE0
0009:9BEC 16 56        add   r6
0009:9BEE 27 4F        not
0009:9BF0 E2           dec   r2
0009:9BF1 09 05        beq   9BF8
0009:9BF3 D7           inc   r7
0009:9BF4 FF 5B 9B     iwt   r15,#9B5B
0009:9BF7 24 2D 5D     add   r13
0009:9BFA 2C 04        rol
0009:9BFC 0C FB        bcc   9BF9
0009:9BFE 2D F0 D8 19  iwt   r0,#19D8
0009:9C02 51           add   r1
0009:9C03 BC 30        stw   (r0)
0009:9C05 F0 36 1A     iwt   r0,#1A36
0009:9C08 51           add   r1
0009:9C09 BD 30        stw   (r0)
0009:9C0B 00           stop
0009:9C0C 01           nop
0009:9C0D A0 08        ibt   r0,#0008
0009:9C0F 3F DF        romb
0009:9C11 3D F1 72 19  lm    r1,(1972)
0009:9C15 3D A0 1F     lms   r0,(003E)
0009:9C18 15 C0        hib
0009:9C1A F0 18 AE     iwt   r0,#AE18
0009:9C1D 1E 55        add   r5
0009:9C1F F0 B6 1B     iwt   r0,#1BB6
0009:9C22 51           add   r1
0009:9C23 12 40        ldw   (r0)
0009:9C25 B2 4F        not
0009:9C27 13 3E 51     add   #01
0009:9C2A F0 B8 1B     iwt   r0,#1BB8
0009:9C2D 51           add   r1
0009:9C2E 14 40        ldw   (r0)
0009:9C30 16 EF        getb
0009:9C32 F0 58 AE     iwt   r0,#AE58
0009:9C35 1E 55        add   r5
0009:9C37 17 EF        getb
0009:9C39 B4 18 86     mult  r6
0009:9C3C B4 19 87     mult  r7
0009:9C3F FB 80 00     iwt   r11,#0080
0009:9C42 B3 86        mult  r6
0009:9C44 59           add   r9
0009:9C45 50           add   r0
0009:9C46 50           add   r0
0009:9C47 5B           add   r11
0009:9C48 C0           hib
0009:9C49 1A 95        sex
0009:9C4B F0 E2 10     iwt   r0,#10E2
0009:9C4E 51           add   r1
0009:9C4F 40           ldw   (r0)
0009:9C50 5A           add   r10
0009:9C51 3E A0 00     sms   (0000),r0
0009:9C54 B3 87        mult  r7
0009:9C56 B8 60        sub   r0
0009:9C58 50           add   r0
0009:9C59 50           add   r0
0009:9C5A 5B           add   r11
0009:9C5B C0           hib
0009:9C5C 1A 95        sex
0009:9C5E F0 82 11     iwt   r0,#1182
0009:9C61 51           add   r1
0009:9C62 40           ldw   (r0)
0009:9C63 5A           add   r10
0009:9C64 3E A0 01     sms   (0002),r0
0009:9C67 B2 86        mult  r6
0009:9C69 59           add   r9
0009:9C6A 50           add   r0
0009:9C6B 50           add   r0
0009:9C6C 5B           add   r11
0009:9C6D C0           hib
0009:9C6E 1A 95        sex
0009:9C70 F0 E2 10     iwt   r0,#10E2
0009:9C73 51           add   r1
0009:9C74 40           ldw   (r0)
0009:9C75 5A           add   r10
0009:9C76 3E A0 02     sms   (0004),r0
0009:9C79 B2 87        mult  r7
0009:9C7B B8 60        sub   r0
0009:9C7D 50           add   r0
0009:9C7E 50           add   r0
0009:9C7F 5B           add   r11
0009:9C80 C0           hib
0009:9C81 1A 95        sex
0009:9C83 F0 82 11     iwt   r0,#1182
0009:9C86 51           add   r1
0009:9C87 40           ldw   (r0)
0009:9C88 5A           add   r10
0009:9C89 3E A0 03     sms   (0006),r0
0009:9C8C 3D A8 00     lms   r8,(0000)
0009:9C8F 3D A9 02     lms   r9,(0004)
0009:9C92 3D FA 1C 01  lm    r10,(011C)
0009:9C96 BA 17 68     sub   r8
0009:9C99 0B 7D        bmi   9D18
0009:9C9B BA 69        sub   r9
0009:9C9D 0A 79        bpl   9D18
0009:9C9F 01           nop
0009:9CA0 3D F0 AA 00  lm    r0,(00AA)
0009:9CA4 3E 60        sub   #00
0009:9CA6 0B 70        bmi   9D18
0009:9CA8 01           nop
0009:9CA9 B9 68        sub   r8
0009:9CAB 19 50        add   r0
0009:9CAD F0 00 22     iwt   r0,#2200
0009:9CB0 59           add   r9
0009:9CB1 16 40        ldw   (r0)
0009:9CB3 3D A8 01     lms   r8,(0002)
0009:9CB6 3D A0 03     lms   r0,(0006)
0009:9CB9 68           sub   r8
0009:9CBA 9E           lob
0009:9CBB 4D           swap
0009:9CBC 16 9F        fmult
0009:9CBE B7 9E        lob
0009:9CC0 4D           swap
0009:9CC1 9F           fmult
0009:9CC2 18 58        add   r8
0009:9CC4 A6 20        ibt   r6,#0020
0009:9CC6 3D F7 90 00  lm    r7,(0090)
0009:9CCA B7 56        add   r6
0009:9CCC 68           sub   r8
0009:9CCD 0B 49        bmi   9D18
0009:9CCF 01           nop
0009:9CD0 20 18        move  r8,r0
0009:9CD2 3E 69        sub   #09
0009:9CD4 0A 42        bpl   9D18
0009:9CD6 01           nop
0009:9CD7 B7 68        sub   r8
0009:9CD9 3E F0 90 00  sm    (0090),r0
0009:9CDD A0 01        ibt   r0,#0001
0009:9CDF 3E F0 B4 01  sm    (01B4),r0
0009:9CE3 F0 00 01     iwt   r0,#0100
0009:9CE6 3E F0 AA 00  sm    (00AA),r0
0009:9CEA F0 D8 19     iwt   r0,#19D8
0009:9CED 51           add   r1
0009:9CEE 16 40        ldw   (r0)
0009:9CF0 F0 78 19     iwt   r0,#1978
0009:9CF3 51           add   r1
0009:9CF4 17 40        ldw   (r0)
0009:9CF6 3D F0 1C 01  lm    r0,(011C)
0009:9CFA 67           sub   r7
0009:9CFB 3D 96        div2
0009:9CFD 3D 96        div2
0009:9CFF 01           nop
0009:9D00 01           nop
0009:9D01 26 50        add   r0
0009:9D03 F0 D8 19     iwt   r0,#19D8
0009:9D06 51           add   r1
0009:9D07 B6 30        stw   (r0)
0009:9D09 F0 76 19     iwt   r0,#1976
0009:9D0C 51           add   r1
0009:9D0D 40           ldw   (r0)
0009:9D0E C0           hib
0009:9D0F 3F 65        cmp   r5
0009:9D11 08 09        bne   9D1C
0009:9D13 01           nop
0009:9D14 A0 01        ibt   r0,#0001
0009:9D16 00           stop
0009:9D17 01           nop
0009:9D18 A0 00        ibt   r0,#0000
0009:9D1A 00           stop
0009:9D1B 01           nop
0009:9D1C B5 4F        not
0009:9D1E D0           inc   r0
0009:9D1F 15 9E        lob
0009:9D21 F0 18 AE     iwt   r0,#AE18
0009:9D24 1E 55        add   r5
0009:9D26 3D F8 8C 00  lm    r8,(008C)
0009:9D2A F0 E2 10     iwt   r0,#10E2
0009:9D2D 51           add   r1
0009:9D2E 1C 40        ldw   (r0)
0009:9D30 28 6C        sub   r12
0009:9D32 3D F9 90 00  lm    r9,(0090)
0009:9D36 F0 82 11     iwt   r0,#1182
0009:9D39 51           add   r1
0009:9D3A 1D 40        ldw   (r0)
0009:9D3C 29 6D        sub   r13
0009:9D3E 16 EF        getb
0009:9D40 F0 58 AE     iwt   r0,#AE58
0009:9D43 1E 55        add   r5
0009:9D45 B8 1A 86     mult  r6
0009:9D48 B9 1B 86     mult  r6
0009:9D4B 17 EF        getb
0009:9D4D F2 80 00     iwt   r2,#0080
0009:9D50 B9 87        mult  r7
0009:9D52 5A           add   r10
0009:9D53 50           add   r0
0009:9D54 50           add   r0
0009:9D55 52           add   r2
0009:9D56 C0           hib
0009:9D57 1A 95        sex
0009:9D59 B8 87        mult  r7
0009:9D5B BB 60        sub   r0
0009:9D5D 50           add   r0
0009:9D5E 50           add   r0
0009:9D5F 52           add   r2
0009:9D60 C0           hib
0009:9D61 1B 95        sex
0009:9D63 F0 76 19     iwt   r0,#1976
0009:9D66 51           add   r1
0009:9D67 40           ldw   (r0)
0009:9D68 15 C0        hib
0009:9D6A F0 18 AE     iwt   r0,#AE18
0009:9D6D 1E 55        add   r5
0009:9D6F 16 EF        getb
0009:9D71 F0 58 AE     iwt   r0,#AE58
0009:9D74 1E 55        add   r5
0009:9D76 BA 18 86     mult  r6
0009:9D79 BB 19 86     mult  r6
0009:9D7C 17 EF        getb
0009:9D7E BB 87        mult  r7
0009:9D80 58           add   r8
0009:9D81 50           add   r0
0009:9D82 50           add   r0
0009:9D83 52           add   r2
0009:9D84 C0           hib
0009:9D85 95           sex
0009:9D86 5C           add   r12
0009:9D87 3E F0 8C 00  sm    (008C),r0
0009:9D8B BA 87        mult  r7
0009:9D8D B9 60        sub   r0
0009:9D8F 50           add   r0
0009:9D90 50           add   r0
0009:9D91 52           add   r2
0009:9D92 C0           hib
0009:9D93 95           sex
0009:9D94 5D           add   r13
0009:9D95 3E F0 90 00  sm    (0090),r0
0009:9D99 A0 01        ibt   r0,#0001
0009:9D9B 00           stop
0009:9D9C 01           nop
0009:9D9D A0 08        ibt   r0,#0008
0009:9D9F 3F DF        romb
0009:9DA1 3D F1 72 19  lm    r1,(1972)
0009:9DA5 3D A0 1F     lms   r0,(003E)
0009:9DA8 15 C0        hib
0009:9DAA F0 18 AE     iwt   r0,#AE18
0009:9DAD 1E 55        add   r5
0009:9DAF F0 B6 1B     iwt   r0,#1BB6
0009:9DB2 51           add   r1
0009:9DB3 12 40        ldw   (r0)
0009:9DB5 B2 4F        not
0009:9DB7 13 3E 51     add   #01
0009:9DBA F0 B8 1B     iwt   r0,#1BB8
0009:9DBD 51           add   r1
0009:9DBE 14 40        ldw   (r0)
0009:9DC0 16 EF        getb
0009:9DC2 F0 58 AE     iwt   r0,#AE58
0009:9DC5 1E 55        add   r5
0009:9DC7 17 EF        getb
0009:9DC9 B4 18 86     mult  r6
0009:9DCC B4 19 87     mult  r7
0009:9DCF FB 80 00     iwt   r11,#0080
0009:9DD2 B3 86        mult  r6
0009:9DD4 59           add   r9
0009:9DD5 50           add   r0
0009:9DD6 50           add   r0
0009:9DD7 5B           add   r11
0009:9DD8 C0           hib
0009:9DD9 1A 95        sex
0009:9DDB F0 E2 10     iwt   r0,#10E2
0009:9DDE 51           add   r1
0009:9DDF 40           ldw   (r0)
0009:9DE0 5A           add   r10
0009:9DE1 3E A0 00     sms   (0000),r0
0009:9DE4 B3 87        mult  r7
0009:9DE6 B8 60        sub   r0
0009:9DE8 50           add   r0
0009:9DE9 50           add   r0
0009:9DEA 5B           add   r11
0009:9DEB C0           hib
0009:9DEC 1A 95        sex
0009:9DEE F0 82 11     iwt   r0,#1182
0009:9DF1 51           add   r1
0009:9DF2 40           ldw   (r0)
0009:9DF3 5A           add   r10
0009:9DF4 3E A0 01     sms   (0002),r0
0009:9DF7 B2 86        mult  r6
0009:9DF9 59           add   r9
0009:9DFA 50           add   r0
0009:9DFB 50           add   r0
0009:9DFC 5B           add   r11
0009:9DFD C0           hib
0009:9DFE 1A 95        sex
0009:9E00 F0 E2 10     iwt   r0,#10E2
0009:9E03 51           add   r1
0009:9E04 40           ldw   (r0)
0009:9E05 5A           add   r10
0009:9E06 3E A0 02     sms   (0004),r0
0009:9E09 B2 87        mult  r7
0009:9E0B B8 60        sub   r0
0009:9E0D 50           add   r0
0009:9E0E 50           add   r0
0009:9E0F 5B           add   r11
0009:9E10 C0           hib
0009:9E11 1A 95        sex
0009:9E13 F0 82 11     iwt   r0,#1182
0009:9E16 51           add   r1
0009:9E17 40           ldw   (r0)
0009:9E18 5A           add   r10
0009:9E19 3E A0 03     sms   (0006),r0
0009:9E1C 3D A8 00     lms   r8,(0000)
0009:9E1F 3D A9 02     lms   r9,(0004)
0009:9E22 3D FA D6 1C  lm    r10,(1CD6)
0009:9E26 BA 17 68     sub   r8
0009:9E29 0B 71        bmi   9E9C
0009:9E2B BA 69        sub   r9
0009:9E2D 0A 6D        bpl   9E9C
0009:9E2F 01           nop
0009:9E30 3D F0 22 12  lm    r0,(1222)
0009:9E34 3E 60        sub   #00
0009:9E36 0B 64        bmi   9E9C
0009:9E38 01           nop
0009:9E39 B9 68        sub   r8
0009:9E3B 19 50        add   r0
0009:9E3D F0 00 22     iwt   r0,#2200
0009:9E40 59           add   r9
0009:9E41 16 40        ldw   (r0)
0009:9E43 3D A8 01     lms   r8,(0002)
0009:9E46 3D A0 03     lms   r0,(0006)
0009:9E49 68           sub   r8
0009:9E4A 9E           lob
0009:9E4B 4D           swap
0009:9E4C 16 9F        fmult
0009:9E4E B7 9E        lob
0009:9E50 4D           swap
0009:9E51 9F           fmult
0009:9E52 18 58        add   r8
0009:9E54 A6 20        ibt   r6,#0020
0009:9E56 3D F7 82 11  lm    r7,(1182)
0009:9E5A B7 56        add   r6
0009:9E5C 68           sub   r8
0009:9E5D 0B 3D        bmi   9E9C
0009:9E5F 01           nop
0009:9E60 20 18        move  r8,r0
0009:9E62 3E 69        sub   #09
0009:9E64 0A 36        bpl   9E9C
0009:9E66 01           nop
0009:9E67 B7 68        sub   r8
0009:9E69 3E F0 82 11  sm    (1182),r0
0009:9E6D F0 00 01     iwt   r0,#0100
0009:9E70 3E F0 22 12  sm    (1222),r0
0009:9E74 F0 D8 19     iwt   r0,#19D8
0009:9E77 51           add   r1
0009:9E78 16 40        ldw   (r0)
0009:9E7A F0 78 19     iwt   r0,#1978
0009:9E7D 51           add   r1
0009:9E7E 17 40        ldw   (r0)
0009:9E80 3D F0 D6 1C  lm    r0,(1CD6)
0009:9E84 67           sub   r7
0009:9E85 26 50        add   r0
0009:9E87 F0 D8 19     iwt   r0,#19D8
0009:9E8A 51           add   r1
0009:9E8B B6 30        stw   (r0)
0009:9E8D F0 76 19     iwt   r0,#1976
0009:9E90 51           add   r1
0009:9E91 40           ldw   (r0)
0009:9E92 C0           hib
0009:9E93 3F 65        cmp   r5
0009:9E95 08 09        bne   9EA0
0009:9E97 01           nop
0009:9E98 A0 01        ibt   r0,#0001
0009:9E9A 00           stop
0009:9E9B 01           nop
0009:9E9C A0 00        ibt   r0,#0000
0009:9E9E 00           stop
0009:9E9F 01           nop
0009:9EA0 B5 4F        not
0009:9EA2 D0           inc   r0
0009:9EA3 15 9E        lob
0009:9EA5 F0 18 AE     iwt   r0,#AE18
0009:9EA8 1E 55        add   r5
0009:9EAA 3D F8 E2 10  lm    r8,(10E2)
0009:9EAE F0 E2 10     iwt   r0,#10E2
0009:9EB1 51           add   r1
0009:9EB2 1C 40        ldw   (r0)
0009:9EB4 28 6C        sub   r12
0009:9EB6 3D F9 82 11  lm    r9,(1182)
0009:9EBA F0 82 11     iwt   r0,#1182
0009:9EBD 51           add   r1
0009:9EBE 1D 40        ldw   (r0)
0009:9EC0 29 6D        sub   r13
0009:9EC2 16 EF        getb
0009:9EC4 F0 58 AE     iwt   r0,#AE58
0009:9EC7 1E 55        add   r5
0009:9EC9 B8 1A 86     mult  r6
0009:9ECC B9 1B 86     mult  r6
0009:9ECF 17 EF        getb
0009:9ED1 F2 80 00     iwt   r2,#0080
0009:9ED4 B9 87        mult  r7
0009:9ED6 5A           add   r10
0009:9ED7 50           add   r0
0009:9ED8 50           add   r0
0009:9ED9 52           add   r2
0009:9EDA C0           hib
0009:9EDB 1A 95        sex
0009:9EDD B8 87        mult  r7
0009:9EDF BB 60        sub   r0
0009:9EE1 50           add   r0
0009:9EE2 50           add   r0
0009:9EE3 52           add   r2
0009:9EE4 C0           hib
0009:9EE5 1B 95        sex
0009:9EE7 F0 76 19     iwt   r0,#1976
0009:9EEA 51           add   r1
0009:9EEB 40           ldw   (r0)
0009:9EEC 15 C0        hib
0009:9EEE F0 18 AE     iwt   r0,#AE18
0009:9EF1 1E 55        add   r5
0009:9EF3 16 EF        getb
0009:9EF5 F0 58 AE     iwt   r0,#AE58
0009:9EF8 1E 55        add   r5
0009:9EFA BA 18 86     mult  r6
0009:9EFD BB 19 86     mult  r6
0009:9F00 17 EF        getb
0009:9F02 BB 87        mult  r7
0009:9F04 58           add   r8
0009:9F05 50           add   r0
0009:9F06 50           add   r0
0009:9F07 52           add   r2
0009:9F08 C0           hib
0009:9F09 95           sex
0009:9F0A 5C           add   r12
0009:9F0B 3E F0 E2 10  sm    (10E2),r0
0009:9F0F BA 87        mult  r7
0009:9F11 B9 60        sub   r0
0009:9F13 50           add   r0
0009:9F14 50           add   r0
0009:9F15 52           add   r2
0009:9F16 C0           hib
0009:9F17 95           sex
0009:9F18 5D           add   r13
0009:9F19 3E F0 82 11  sm    (1182),r0
0009:9F1D A0 01        ibt   r0,#0001
0009:9F1F 00           stop
0009:9F20 01           nop
0009:9F21 A0 08        ibt   r0,#0008
0009:9F23 3F DF        romb
0009:9F25 3D F1 72 19  lm    r1,(1972)
0009:9F29 F0 76 19     iwt   r0,#1976
0009:9F2C 51           add   r1
0009:9F2D 40           ldw   (r0)
0009:9F2E 12 C0        hib
0009:9F30 F0 18 AE     iwt   r0,#AE18
0009:9F33 1E 52        add   r2
0009:9F35 F0 36 1A     iwt   r0,#1A36
0009:9F38 51           add   r1
0009:9F39 13 40        ldw   (r0)
0009:9F3B F0 78 19     iwt   r0,#1978
0009:9F3E 51           add   r1
0009:9F3F 1C 40        ldw   (r0)
0009:9F41 23 6C        sub   r12
0009:9F43 F0 38 1A     iwt   r0,#1A38
0009:9F46 51           add   r1
0009:9F47 14 40        ldw   (r0)
0009:9F49 F0 D6 19     iwt   r0,#19D6
0009:9F4C 51           add   r1
0009:9F4D 1D 40        ldw   (r0)
0009:9F4F 24 6D        sub   r13
0009:9F51 15 EF        getb
0009:9F53 F0 58 AE     iwt   r0,#AE58
0009:9F56 1E 52        add   r2
0009:9F58 B3 18 85     mult  r5
0009:9F5B B4 19 85     mult  r5
0009:9F5E 17 EF        getb
0009:9F60 FA 80 00     iwt   r10,#0080
0009:9F63 B4 87        mult  r7
0009:9F65 58           add   r8
0009:9F66 50           add   r0
0009:9F67 50           add   r0
0009:9F68 5A           add   r10
0009:9F69 C0           hib
0009:9F6A 95           sex
0009:9F6B 1A 5C        add   r12
0009:9F6D F0 E2 10     iwt   r0,#10E2
0009:9F70 51           add   r1
0009:9F71 40           ldw   (r0)
0009:9F72 BA 1B 60     sub   r0
0009:9F75 F0 C0 12     iwt   r0,#12C0
0009:9F78 51           add   r1
0009:9F79 BB 30        stw   (r0)
0009:9F7B F0 E2 10     iwt   r0,#10E2
0009:9F7E 51           add   r1
0009:9F7F BA 30        stw   (r0)
0009:9F81 FA 80 00     iwt   r10,#0080
0009:9F84 B3 87        mult  r7
0009:9F86 B9 60        sub   r0
0009:9F88 50           add   r0
0009:9F89 50           add   r0
0009:9F8A 5A           add   r10
0009:9F8B C0           hib
0009:9F8C 95           sex
0009:9F8D 1A 5D        add   r13
0009:9F8F F0 82 11     iwt   r0,#1182
0009:9F92 51           add   r1
0009:9F93 40           ldw   (r0)
0009:9F94 BA 1B 60     sub   r0
0009:9F97 F0 C2 12     iwt   r0,#12C2
0009:9F9A 51           add   r1
0009:9F9B BB 30        stw   (r0)
0009:9F9D F0 82 11     iwt   r0,#1182
0009:9FA0 51           add   r1
0009:9FA1 BA 30        stw   (r0)
0009:9FA3 00           stop
0009:9FA4 01           nop
0009:9FA5 A1 FF        ibt   r1,#FFFF
0009:9FA7 F2 00 0F     iwt   r2,#0F00
0009:9FAA F3 60 13     iwt   r3,#1360
0009:9FAD F4 10 00     iwt   r4,#0010
0009:9FB0 A5 FF        ibt   r5,#FFFF
0009:9FB2 A6 FF        ibt   r6,#FFFF
0009:9FB4 A7 00        ibt   r7,#0000
0009:9FB6 F0 D6 1C     iwt   r0,#1CD6
0009:9FB9 5A           add   r10
0009:9FBA 18 40        ldw   (r0)
0009:9FBC F0 D8 1C     iwt   r0,#1CD8
0009:9FBF 5A           add   r10
0009:9FC0 19 40        ldw   (r0)
0009:9FC2 02           cache
0009:9FC3 AC 18        ibt   r12,#0018
0009:9FC5 2F 1D        move  r13,r15
0009:9FC7 42           ldw   (r2)
0009:9FC8 64           sub   r4
0009:9FC9 08 52        bne   A01D
0009:9FCB 01           nop
0009:9FCC 43           ldw   (r3)
0009:9FCD 3F 6E        cmp   r14
0009:9FCF 0C 4C        bcc   A01D
0009:9FD1 01           nop
0009:9FD2 3F 6B        cmp   r11
0009:9FD4 0D 47        bcs   A01D
0009:9FD6 01           nop
0009:9FD7 F0 38 1D     iwt   r0,#1D38
0009:9FDA 57           add   r7
0009:9FDB 40           ldw   (r0)
0009:9FDC 3E 60        sub   #00
0009:9FDE 08 3D        bne   A01D
0009:9FE0 01           nop
0009:9FE1 F0 D8 19     iwt   r0,#19D8
0009:9FE4 57           add   r7
0009:9FE5 3D 40        ldb   (r0)
0009:9FE7 95           sex
0009:9FE8 0B 33        bmi   A01D
0009:9FEA 01           nop
0009:9FEB F0 36 1A     iwt   r0,#1A36
0009:9FEE 57           add   r7
0009:9FEF 40           ldw   (r0)
0009:9FF0 3E 60        sub   #00
0009:9FF2 08 29        bne   A01D
0009:9FF4 01           nop
0009:9FF5 F0 D6 1C     iwt   r0,#1CD6
0009:9FF8 57           add   r7
0009:9FF9 40           ldw   (r0)
0009:9FFA 1A 68        sub   r8
0009:9FFC 0A 04        bpl   A002
0009:9FFE 2A 4F        not
0009:A000 DA           inc   r10
0009:A001 BA 3F 65     cmp   r5
0009:A004 0D 17        bcs   A01D
0009:A006 01           nop
0009:A007 F0 D8 1C     iwt   r0,#1CD8
0009:A00A 57           add   r7
0009:A00B 40           ldw   (r0)
0009:A00C 69           sub   r9
0009:A00D 0A 03        bpl   A012
0009:A00F 01           nop
0009:A010 4F           not
0009:A011 D0           inc   r0
0009:A012 3F 66        cmp   r6
0009:A014 0D 07        bcs   A01D
0009:A016 01           nop
0009:A017 20 16        move  r6,r0
0009:A019 2A 15        move  r5,r10
0009:A01B 27 11        move  r1,r7
0009:A01D 22 3E 54     add   #04
0009:A020 23 3E 54     add   #04
0009:A023 27 3E 54     add   #04
0009:A026 3C           loop
0009:A027 01           nop
0009:A028 00           stop
0009:A029 01           nop
0009:A02A A4 06        ibt   r4,#0006
0009:A02C 02           cache
0009:A02D AC 1D        ibt   r12,#001D
0009:A02F 2F 1D        move  r13,r15
0009:A031 43           ldw   (r3)
0009:A032 51           add   r1
0009:A033 90           sbk
0009:A034 D3           inc   r3
0009:A035 D3           inc   r3
0009:A036 43           ldw   (r3)
0009:A037 52           add   r2
0009:A038 23 54        add   r4
0009:A03A 3C           loop
0009:A03B 90           sbk
0009:A03C 00           stop
0009:A03D 01           nop
0009:A03E 04           rol
0009:A03F 00           stop
0009:A040 F0 F0 00     iwt   r0,#00F0
0009:A043 F0 F0 00     iwt   r0,#00F0
0009:A046 00           stop
0009:A047 00           stop
0009:A048 00           stop
0009:A049 00           stop
0009:A04A F0 00 00     iwt   r0,#0000
0009:A04D F0 F0 F0     iwt   r0,#F0F0
0009:A050 FC 00 00     iwt   r12,#0000
0009:A053 F0 F0 F0     iwt   r0,#F0F0
0009:A056 00           stop
0009:A057 00           stop
0009:A058 F0 00 F0     iwt   r0,#F000
0009:A05B 00           stop
0009:A05C 00           stop
0009:A05D 00           stop
0009:A05E F0 F0 00     iwt   r0,#00F0
0009:A061 F0 DB 92     iwt   r0,#92DB
0009:A064 0C 00        bcc   A066
0009:A066 FC 00 0C     iwt   r12,#0C00
0009:A069 F0 FC F0     iwt   r0,#F0FC
0009:A06C E4           dec   r4
0009:A06D F0 F4 F0     iwt   r0,#F0F4
0009:A070 E4           dec   r4
0009:A071 00           stop
0009:A072 F4 00 05     iwt   r4,#0500
0009:A075 8D           mult  r13
0009:A076 F6 8D 19     iwt   r6,#198D
0009:A079 8D           mult  r13
0009:A07A 10 9C        jmp   r12
0009:A07C F0 F0 00     iwt   r0,#00F0
0009:A07F F0 F0 00     iwt   r0,#00F0
0009:A082 00           stop
0009:A083 00           stop
0009:A084 21 C8        or    r8
0009:A086 F0 F0 2C     iwt   r0,#2CF0
0009:A089 00           stop
0009:A08A F0 6E F0     iwt   r0,#F06E
0009:A08D 00           stop
0009:A08E 2C 00        stop
0009:A090 00           stop
0009:A091 6E           sub   r14
0009:A092 DE           inc   r14
0009:A093 92           link  #02
0009:A094 0C 00        bcc   A096
0009:A096 FC 00 0C     iwt   r12,#0C00
0009:A099 F0 FC F0     iwt   r0,#F0FC
0009:A09C E4           dec   r4
0009:A09D F0 F4 F0     iwt   r0,#F0F4
0009:A0A0 E4           dec   r4
0009:A0A1 00           stop
0009:A0A2 F4 00 05     iwt   r4,#0500
0009:A0A5 8D           mult  r13
0009:A0A6 F6 8D 14     iwt   r6,#148D
0009:A0A9 8D           mult  r13
0009:A0AA 18 9C        jmp   r12
0009:A0AC F0 F0 00     iwt   r0,#00F0
0009:A0AF F0 F0 00     iwt   r0,#00F0
0009:A0B2 00           stop
0009:A0B3 00           stop
0009:A0B4 28 C8        or    r8
0009:A0B6 F0 F0 2C     iwt   r0,#2CF0
0009:A0B9 00           stop
0009:A0BA F0 6E F0     iwt   r0,#F06E
0009:A0BD 00           stop
0009:A0BE 2C 00        stop
0009:A0C0 00           stop
0009:A0C1 6E           sub   r14
0009:A0C2 E4           dec   r4
0009:A0C3 92           link  #02
0009:A0C4 0C 00        bcc   A0C6
0009:A0C6 FC 00 0C     iwt   r12,#0C00
0009:A0C9 F0 FC F0     iwt   r0,#F0FC
0009:A0CC E4           dec   r4
0009:A0CD F0 F4 F0     iwt   r0,#F0F4
0009:A0D0 E4           dec   r4
0009:A0D1 00           stop
0009:A0D2 F4 00 06     iwt   r4,#0600
0009:A0D5 8D           mult  r13
0009:A0D6 F7 8D 0B     iwt   r7,#0B8D
0009:A0D9 8D           mult  r13
0009:A0DA 1E 9C        jmp   r12
0009:A0DC F0 F0 00     iwt   r0,#00F0
0009:A0DF F0 F0 00     iwt   r0,#00F0
0009:A0E2 00           stop
0009:A0E3 00           stop
0009:A0E4 30           stw   (r0)
0009:A0E5 C8           or    r8
0009:A0E6 F0 F0 2C     iwt   r0,#2CF0
0009:A0E9 00           stop
0009:A0EA F0 6E F0     iwt   r0,#F06E
0009:A0ED 00           stop
0009:A0EE 2C 00        stop
0009:A0F0 00           stop
0009:A0F1 6E           sub   r14
0009:A0F2 EE           dec   r14
0009:A0F3 92           link  #02
0009:A0F4 0C 00        bcc   A0F6
0009:A0F6 FC 00 0C     iwt   r12,#0C00
0009:A0F9 F0 FC F0     iwt   r0,#F0FC
0009:A0FC E4           dec   r4
0009:A0FD F0 F4 F0     iwt   r0,#F0F4
0009:A100 E4           dec   r4
0009:A101 00           stop
0009:A102 F4 00 07     iwt   r4,#0700
0009:A105 8D           mult  r13
0009:A106 F8 8D FF     iwt   r8,#FF8D
0009:A109 8D           mult  r13
0009:A10A 22 9C        jmp   r12
0009:A10C F0 F0 00     iwt   r0,#00F0
0009:A10F F0 F0 00     iwt   r0,#00F0
0009:A112 00           stop
0009:A113 00           stop
0009:A114 36           stw   (r6)
0009:A115 C8           or    r8
0009:A116 F0 F0 2C     iwt   r0,#2CF0
0009:A119 00           stop
0009:A11A F0 6E F0     iwt   r0,#F06E
0009:A11D 00           stop
0009:A11E 2C 00        stop
0009:A120 00           stop
0009:A121 6E           sub   r14
0009:A122 02           cache
0009:A123 3D F1 72 19  lm    r1,(1972)
0009:A127 3D AB 49     lms   r11,(0092)
0009:A12A A0 08        ibt   r0,#0008
0009:A12C 3F DF        romb
0009:A12E F0 76 19     iwt   r0,#1976
0009:A131 51           add   r1
0009:A132 40           ldw   (r0)
0009:A133 4F           not
0009:A134 D0           inc   r0
0009:A135 14 C0        hib
0009:A137 F0 18 AE     iwt   r0,#AE18
0009:A13A 1E 54        add   r4
0009:A13C F5 58 AE     iwt   r5,#AE58
0009:A13F 3F EF        getbs
0009:A141 B5 1E 54     add   r4
0009:A144 50           add   r0
0009:A145 12 50        add   r0
0009:A147 3F EF        getbs
0009:A149 50           add   r0
0009:A14A 13 50        add   r0
0009:A14C A0 09        ibt   r0,#0009
0009:A14E 3F DF        romb
0009:A150 FE 3E A0     iwt   r14,#A03E
0009:A153 F0 37 1A     iwt   r0,#1A37
0009:A156 51           add   r1
0009:A157 19 3D 40     ldb   (r0)
0009:A15A F0 78 19     iwt   r0,#1978
0009:A15D 51           add   r1
0009:A15E 16 40        ldw   (r0)
0009:A160 F0 80 16     iwt   r0,#1680
0009:A163 51           add   r1
0009:A164 14 40        ldw   (r0)
0009:A166 EF           getb
0009:A167 DE           inc   r14
0009:A168 4D           swap
0009:A169 9F           fmult
0009:A16A 14 54        add   r4
0009:A16C F0 D6 19     iwt   r0,#19D6
0009:A16F 51           add   r1
0009:A170 16 40        ldw   (r0)
0009:A172 F0 82 16     iwt   r0,#1682
0009:A175 51           add   r1
0009:A176 15 40        ldw   (r0)
0009:A178 EF           getb
0009:A179 DE           inc   r14
0009:A17A 4D           swap
0009:A17B 9F           fmult
0009:A17C 15 55        add   r5
0009:A17E F6 00 0C     iwt   r6,#0C00
0009:A181 E9           dec   r9
0009:A182 0B 0A        bmi   A18E
0009:A184 D9           inc   r9
0009:A185 F0 78 19     iwt   r0,#1978
0009:A188 51           add   r1
0009:A189 40           ldw   (r0)
0009:A18A 9F           fmult
0009:A18B 9E           lob
0009:A18C 16 4D        swap
0009:A18E B2 9F        fmult
0009:A190 17 54        add   r4
0009:A192 B3 9F        fmult
0009:A194 18 55        add   r5
0009:A196 FA 00 00     iwt   r10,#0000
0009:A199 AC 04        ibt   r12,#0004
0009:A19B 2F 1D        move  r13,r15
0009:A19D 3F EF        getbs
0009:A19F DE           inc   r14
0009:A1A0 57           add   r7
0009:A1A1 3B           stw   (r11)
0009:A1A2 DB           inc   r11
0009:A1A3 DB           inc   r11
0009:A1A4 3F EF        getbs
0009:A1A6 DE           inc   r14
0009:A1A7 58           add   r8
0009:A1A8 3B           stw   (r11)
0009:A1A9 DB           inc   r11
0009:A1AA DB           inc   r11
0009:A1AB 16 4A        ldw   (r10)
0009:A1AD DA           inc   r10
0009:A1AE DA           inc   r10
0009:A1AF F0 00 3E     iwt   r0,#3E00
0009:A1B2 C6           or    r6
0009:A1B3 3B           stw   (r11)
0009:A1B4 DB           inc   r11
0009:A1B5 DB           inc   r11
0009:A1B6 A0 02        ibt   r0,#0002
0009:A1B8 3B           stw   (r11)
0009:A1B9 DB           inc   r11
0009:A1BA 3C           loop
0009:A1BB DB           inc   r11
0009:A1BC F6 00 24     iwt   r6,#2400
0009:A1BF E9           dec   r9
0009:A1C0 0B 0A        bmi   A1CC
0009:A1C2 D9           inc   r9
0009:A1C3 F0 78 19     iwt   r0,#1978
0009:A1C6 51           add   r1
0009:A1C7 40           ldw   (r0)
0009:A1C8 9F           fmult
0009:A1C9 9E           lob
0009:A1CA 16 4D        swap
0009:A1CC B2 9F        fmult
0009:A1CE 17 54        add   r4
0009:A1D0 B3 9F        fmult
0009:A1D2 18 55        add   r5
0009:A1D4 FA 00 00     iwt   r10,#0000
0009:A1D7 AC 04        ibt   r12,#0004
0009:A1D9 2F 1D        move  r13,r15
0009:A1DB 3F EF        getbs
0009:A1DD DE           inc   r14
0009:A1DE 57           add   r7
0009:A1DF 3B           stw   (r11)
0009:A1E0 DB           inc   r11
0009:A1E1 DB           inc   r11
0009:A1E2 3F EF        getbs
0009:A1E4 DE           inc   r14
0009:A1E5 58           add   r8
0009:A1E6 3B           stw   (r11)
0009:A1E7 DB           inc   r11
0009:A1E8 DB           inc   r11
0009:A1E9 16 4A        ldw   (r10)
0009:A1EB DA           inc   r10
0009:A1EC DA           inc   r10
0009:A1ED F0 00 FC     iwt   r0,#FC00
0009:A1F0 C6           or    r6
0009:A1F1 3B           stw   (r11)
0009:A1F2 DB           inc   r11
0009:A1F3 DB           inc   r11
0009:A1F4 A0 02        ibt   r0,#0002
0009:A1F6 3B           stw   (r11)
0009:A1F7 DB           inc   r11
0009:A1F8 3C           loop
0009:A1F9 DB           inc   r11
0009:A1FA 22 4F        not
0009:A1FC D2           inc   r2
0009:A1FD F0 78 19     iwt   r0,#1978
0009:A200 51           add   r1
0009:A201 16 40        ldw   (r0)
0009:A203 F0 80 16     iwt   r0,#1680
0009:A206 51           add   r1
0009:A207 14 40        ldw   (r0)
0009:A209 EF           getb
0009:A20A DE           inc   r14
0009:A20B 4D           swap
0009:A20C 9F           fmult
0009:A20D 14 54        add   r4
0009:A20F F0 D6 19     iwt   r0,#19D6
0009:A212 51           add   r1
0009:A213 16 40        ldw   (r0)
0009:A215 F0 82 16     iwt   r0,#1682
0009:A218 51           add   r1
0009:A219 15 40        ldw   (r0)
0009:A21B EF           getb
0009:A21C DE           inc   r14
0009:A21D 4D           swap
0009:A21E 9F           fmult
0009:A21F 15 55        add   r5
0009:A221 F6 00 0C     iwt   r6,#0C00
0009:A224 E9           dec   r9
0009:A225 0B 0A        bmi   A231
0009:A227 D9           inc   r9
0009:A228 F0 78 19     iwt   r0,#1978
0009:A22B 51           add   r1
0009:A22C 40           ldw   (r0)
0009:A22D 9F           fmult
0009:A22E 9E           lob
0009:A22F 16 4D        swap
0009:A231 B2 9F        fmult
0009:A233 17 54        add   r4
0009:A235 B3 9F        fmult
0009:A237 18 55        add   r5
0009:A239 FA 00 00     iwt   r10,#0000
0009:A23C AC 04        ibt   r12,#0004
0009:A23E 2F 1D        move  r13,r15
0009:A240 3F EF        getbs
0009:A242 DE           inc   r14
0009:A243 57           add   r7
0009:A244 3B           stw   (r11)
0009:A245 DB           inc   r11
0009:A246 DB           inc   r11
0009:A247 3F EF        getbs
0009:A249 DE           inc   r14
0009:A24A 58           add   r8
0009:A24B 3B           stw   (r11)
0009:A24C DB           inc   r11
0009:A24D DB           inc   r11
0009:A24E 16 4A        ldw   (r10)
0009:A250 DA           inc   r10
0009:A251 DA           inc   r10
0009:A252 F0 00 7E     iwt   r0,#7E00
0009:A255 C6           or    r6
0009:A256 3B           stw   (r11)
0009:A257 DB           inc   r11
0009:A258 DB           inc   r11
0009:A259 A0 02        ibt   r0,#0002
0009:A25B 3B           stw   (r11)
0009:A25C DB           inc   r11
0009:A25D 3C           loop
0009:A25E DB           inc   r11
0009:A25F F6 00 24     iwt   r6,#2400
0009:A262 E9           dec   r9
0009:A263 0B 0A        bmi   A26F
0009:A265 D9           inc   r9
0009:A266 F0 78 19     iwt   r0,#1978
0009:A269 51           add   r1
0009:A26A 40           ldw   (r0)
0009:A26B 9F           fmult
0009:A26C 9E           lob
0009:A26D 16 4D        swap
0009:A26F B2 9F        fmult
0009:A271 17 54        add   r4
0009:A273 B3 9F        fmult
0009:A275 18 55        add   r5
0009:A277 FA 00 00     iwt   r10,#0000
0009:A27A AC 04        ibt   r12,#0004
0009:A27C 2F 1D        move  r13,r15
0009:A27E 3F EF        getbs
0009:A280 DE           inc   r14
0009:A281 57           add   r7
0009:A282 3B           stw   (r11)
0009:A283 DB           inc   r11
0009:A284 DB           inc   r11
0009:A285 3F EF        getbs
0009:A287 DE           inc   r14
0009:A288 58           add   r8
0009:A289 3B           stw   (r11)
0009:A28A DB           inc   r11
0009:A28B DB           inc   r11
0009:A28C 16 4A        ldw   (r10)
0009:A28E DA           inc   r10
0009:A28F DA           inc   r10
0009:A290 F0 00 BC     iwt   r0,#BC00
0009:A293 C6           or    r6
0009:A294 3B           stw   (r11)
0009:A295 DB           inc   r11
0009:A296 DB           inc   r11
0009:A297 A0 02        ibt   r0,#0002
0009:A299 3B           stw   (r11)
0009:A29A DB           inc   r11
0009:A29B 3C           loop
0009:A29C DB           inc   r11
0009:A29D F0 02 14     iwt   r0,#1402
0009:A2A0 51           add   r1
0009:A2A1 16 40        ldw   (r0)
0009:A2A3 F0 30 00     iwt   r0,#0030
0009:A2A6 86           mult  r6
0009:A2A7 1E 5E        add   r14
0009:A2A9 F0 00 14     iwt   r0,#1400
0009:A2AC 51           add   r1
0009:A2AD 12 40        ldw   (r0)
0009:A2AF F0 80 16     iwt   r0,#1680
0009:A2B2 51           add   r1
0009:A2B3 13 40        ldw   (r0)
0009:A2B5 F0 82 16     iwt   r0,#1682
0009:A2B8 51           add   r1
0009:A2B9 14 40        ldw   (r0)
0009:A2BB F0 78 19     iwt   r0,#1978
0009:A2BE 51           add   r1
0009:A2BF 16 40        ldw   (r0)
0009:A2C1 EF           getb
0009:A2C2 DE           inc   r14
0009:A2C3 4D           swap
0009:A2C4 E2           dec   r2
0009:A2C5 0B 03        bmi   A2CA
0009:A2C7 D2           inc   r2
0009:A2C8 4F           not
0009:A2C9 D0           inc   r0
0009:A2CA 17 9F        fmult
0009:A2CC F0 D6 19     iwt   r0,#19D6
0009:A2CF 51           add   r1
0009:A2D0 16 40        ldw   (r0)
0009:A2D2 EF           getb
0009:A2D3 DE           inc   r14
0009:A2D4 4D           swap
0009:A2D5 18 9F        fmult
0009:A2D7 FA 08 00     iwt   r10,#0008
0009:A2DA AC 04        ibt   r12,#0004
0009:A2DC 2F 1D        move  r13,r15
0009:A2DE 3F EF        getbs
0009:A2E0 DE           inc   r14
0009:A2E1 E2           dec   r2
0009:A2E2 0B 04        bmi   A2E8
0009:A2E4 D2           inc   r2
0009:A2E5 4F           not
0009:A2E6 3E 6F        sub   #0F
0009:A2E8 57           add   r7
0009:A2E9 53           add   r3
0009:A2EA 3B           stw   (r11)
0009:A2EB DB           inc   r11
0009:A2EC DB           inc   r11
0009:A2ED 3F EF        getbs
0009:A2EF DE           inc   r14
0009:A2F0 58           add   r8
0009:A2F1 54           add   r4
0009:A2F2 3B           stw   (r11)
0009:A2F3 DB           inc   r11
0009:A2F4 DB           inc   r11
0009:A2F5 16 4A        ldw   (r10)
0009:A2F7 DA           inc   r10
0009:A2F8 DA           inc   r10
0009:A2F9 F0 00 FE     iwt   r0,#FE00
0009:A2FC E2           dec   r2
0009:A2FD 0B 04        bmi   A303
0009:A2FF D2           inc   r2
0009:A300 F0 00 BE     iwt   r0,#BE00
0009:A303 C6           or    r6
0009:A304 3B           stw   (r11)
0009:A305 DB           inc   r11
0009:A306 DB           inc   r11
0009:A307 A0 02        ibt   r0,#0002
0009:A309 3B           stw   (r11)
0009:A30A DB           inc   r11
0009:A30B 3C           loop
0009:A30C DB           inc   r11
0009:A30D FA 08 00     iwt   r10,#0008
0009:A310 AC 04        ibt   r12,#0004
0009:A312 2F 1D        move  r13,r15
0009:A314 3F EF        getbs
0009:A316 DE           inc   r14
0009:A317 E2           dec   r2
0009:A318 0B 04        bmi   A31E
0009:A31A D2           inc   r2
0009:A31B 4F           not
0009:A31C 3E 6F        sub   #0F
0009:A31E 57           add   r7
0009:A31F 53           add   r3
0009:A320 3B           stw   (r11)
0009:A321 DB           inc   r11
0009:A322 DB           inc   r11
0009:A323 3F EF        getbs
0009:A325 DE           inc   r14
0009:A326 58           add   r8
0009:A327 54           add   r4
0009:A328 3B           stw   (r11)
0009:A329 DB           inc   r11
0009:A32A DB           inc   r11
0009:A32B 16 4A        ldw   (r10)
0009:A32D DA           inc   r10
0009:A32E DA           inc   r10
0009:A32F F0 00 3C     iwt   r0,#3C00
0009:A332 E2           dec   r2
0009:A333 0B 04        bmi   A339
0009:A335 D2           inc   r2
0009:A336 F0 00 7C     iwt   r0,#7C00
0009:A339 C6           or    r6
0009:A33A 3B           stw   (r11)
0009:A33B DB           inc   r11
0009:A33C DB           inc   r11
0009:A33D A0 02        ibt   r0,#0002
0009:A33F 3B           stw   (r11)
0009:A340 DB           inc   r11
0009:A341 3C           loop
0009:A342 DB           inc   r11
0009:A343 02           cache
0009:A344 F0 78 19     iwt   r0,#1978
0009:A347 51           add   r1
0009:A348 16 40        ldw   (r0)
0009:A34A EF           getb
0009:A34B DE           inc   r14
0009:A34C 4D           swap
0009:A34D E2           dec   r2
0009:A34E 0B 03        bmi   A353
0009:A350 D2           inc   r2
0009:A351 4F           not
0009:A352 D0           inc   r0
0009:A353 9F           fmult
0009:A354 3E 68        sub   #08
0009:A356 53           add   r3
0009:A357 3B           stw   (r11)
0009:A358 DB           inc   r11
0009:A359 DB           inc   r11
0009:A35A F0 D6 19     iwt   r0,#19D6
0009:A35D 51           add   r1
0009:A35E 16 40        ldw   (r0)
0009:A360 EF           getb
0009:A361 DE           inc   r14
0009:A362 4D           swap
0009:A363 9F           fmult
0009:A364 3E 6F        sub   #0F
0009:A366 54           add   r4
0009:A367 3B           stw   (r11)
0009:A368 DB           inc   r11
0009:A369 DB           inc   r11
0009:A36A 3D A6 08     lms   r6,(0010)
0009:A36D F0 00 3C     iwt   r0,#3C00
0009:A370 E2           dec   r2
0009:A371 0B 04        bmi   A377
0009:A373 D2           inc   r2
0009:A374 F0 00 7C     iwt   r0,#7C00
0009:A377 C6           or    r6
0009:A378 3B           stw   (r11)
0009:A379 DB           inc   r11
0009:A37A DB           inc   r11
0009:A37B A0 02        ibt   r0,#0002
0009:A37D 3B           stw   (r11)
0009:A37E DB           inc   r11
0009:A37F DB           inc   r11
0009:A380 F0 78 19     iwt   r0,#1978
0009:A383 51           add   r1
0009:A384 16 40        ldw   (r0)
0009:A386 EF           getb
0009:A387 DE           inc   r14
0009:A388 4D           swap
0009:A389 E2           dec   r2
0009:A38A 0B 03        bmi   A38F
0009:A38C D2           inc   r2
0009:A38D 4F           not
0009:A38E D0           inc   r0
0009:A38F 9F           fmult
0009:A390 3E 68        sub   #08
0009:A392 53           add   r3
0009:A393 3B           stw   (r11)
0009:A394 DB           inc   r11
0009:A395 DB           inc   r11
0009:A396 F0 D6 19     iwt   r0,#19D6
0009:A399 51           add   r1
0009:A39A 16 40        ldw   (r0)
0009:A39C EF           getb
0009:A39D DE           inc   r14
0009:A39E 4D           swap
0009:A39F 9F           fmult
0009:A3A0 3E 6F        sub   #0F
0009:A3A2 54           add   r4
0009:A3A3 3B           stw   (r11)
0009:A3A4 DB           inc   r11
0009:A3A5 DB           inc   r11
0009:A3A6 3D A6 08     lms   r6,(0010)
0009:A3A9 F0 00 3C     iwt   r0,#3C00
0009:A3AC E2           dec   r2
0009:A3AD 0B 04        bmi   A3B3
0009:A3AF D2           inc   r2
0009:A3B0 F0 00 7C     iwt   r0,#7C00
0009:A3B3 C6           or    r6
0009:A3B4 3B           stw   (r11)
0009:A3B5 DB           inc   r11
0009:A3B6 DB           inc   r11
0009:A3B7 A0 02        ibt   r0,#0002
0009:A3B9 3B           stw   (r11)
0009:A3BA DB           inc   r11
0009:A3BB DB           inc   r11
0009:A3BC F0 78 19     iwt   r0,#1978
0009:A3BF 51           add   r1
0009:A3C0 16 40        ldw   (r0)
0009:A3C2 EF           getb
0009:A3C3 DE           inc   r14
0009:A3C4 4D           swap
0009:A3C5 E2           dec   r2
0009:A3C6 0B 03        bmi   A3CB
0009:A3C8 D2           inc   r2
0009:A3C9 4F           not
0009:A3CA D0           inc   r0
0009:A3CB 9F           fmult
0009:A3CC 3E 68        sub   #08
0009:A3CE 53           add   r3
0009:A3CF 3B           stw   (r11)
0009:A3D0 DB           inc   r11
0009:A3D1 DB           inc   r11
0009:A3D2 F0 D6 19     iwt   r0,#19D6
0009:A3D5 51           add   r1
0009:A3D6 16 40        ldw   (r0)
0009:A3D8 EF           getb
0009:A3D9 DE           inc   r14
0009:A3DA 4D           swap
0009:A3DB 9F           fmult
0009:A3DC 3E 6F        sub   #0F
0009:A3DE 54           add   r4
0009:A3DF 3B           stw   (r11)
0009:A3E0 DB           inc   r11
0009:A3E1 DB           inc   r11
0009:A3E2 3D A6 09     lms   r6,(0012)
0009:A3E5 F0 00 1C     iwt   r0,#1C00
0009:A3E8 E2           dec   r2
0009:A3E9 0B 04        bmi   A3EF
0009:A3EB D2           inc   r2
0009:A3EC F0 00 5C     iwt   r0,#5C00
0009:A3EF C6           or    r6
0009:A3F0 3B           stw   (r11)
0009:A3F1 DB           inc   r11
0009:A3F2 DB           inc   r11
0009:A3F3 A0 02        ibt   r0,#0002
0009:A3F5 3B           stw   (r11)
0009:A3F6 DB           inc   r11
0009:A3F7 DB           inc   r11
0009:A3F8 F0 78 19     iwt   r0,#1978
0009:A3FB 51           add   r1
0009:A3FC 16 40        ldw   (r0)
0009:A3FE EF           getb
0009:A3FF DE           inc   r14
0009:A400 4D           swap
0009:A401 E2           dec   r2
0009:A402 0B 03        bmi   A407
0009:A404 D2           inc   r2
0009:A405 4F           not
0009:A406 D0           inc   r0
0009:A407 17 9F        fmult
0009:A409 F0 D6 19     iwt   r0,#19D6
0009:A40C 51           add   r1
0009:A40D 16 40        ldw   (r0)
0009:A40F EF           getb
0009:A410 DE           inc   r14
0009:A411 4D           swap
0009:A412 18 9F        fmult
0009:A414 FA 14 00     iwt   r10,#0014
0009:A417 AC 04        ibt   r12,#0004
0009:A419 2F 1D        move  r13,r15
0009:A41B 3F EF        getbs
0009:A41D DE           inc   r14
0009:A41E E2           dec   r2
0009:A41F 0B 04        bmi   A425
0009:A421 D2           inc   r2
0009:A422 4F           not
0009:A423 3E 6F        sub   #0F
0009:A425 57           add   r7
0009:A426 53           add   r3
0009:A427 3B           stw   (r11)
0009:A428 DB           inc   r11
0009:A429 DB           inc   r11
0009:A42A 3F EF        getbs
0009:A42C DE           inc   r14
0009:A42D 58           add   r8
0009:A42E 54           add   r4
0009:A42F 3B           stw   (r11)
0009:A430 DB           inc   r11
0009:A431 DB           inc   r11
0009:A432 16 4A        ldw   (r10)
0009:A434 DA           inc   r10
0009:A435 DA           inc   r10
0009:A436 F0 00 2C     iwt   r0,#2C00
0009:A439 E2           dec   r2
0009:A43A 0B 04        bmi   A440
0009:A43C D2           inc   r2
0009:A43D F0 00 6C     iwt   r0,#6C00
0009:A440 C6           or    r6
0009:A441 3B           stw   (r11)
0009:A442 DB           inc   r11
0009:A443 DB           inc   r11
0009:A444 A0 02        ibt   r0,#0002
0009:A446 3B           stw   (r11)
0009:A447 DB           inc   r11
0009:A448 3C           loop
0009:A449 DB           inc   r11
0009:A44A F0 78 19     iwt   r0,#1978
0009:A44D 51           add   r1
0009:A44E 16 40        ldw   (r0)
0009:A450 EF           getb
0009:A451 DE           inc   r14
0009:A452 4D           swap
0009:A453 E2           dec   r2
0009:A454 0B 03        bmi   A459
0009:A456 D2           inc   r2
0009:A457 4F           not
0009:A458 D0           inc   r0
0009:A459 17 9F        fmult
0009:A45B F0 D6 19     iwt   r0,#19D6
0009:A45E 51           add   r1
0009:A45F 16 40        ldw   (r0)
0009:A461 EF           getb
0009:A462 DE           inc   r14
0009:A463 4D           swap
0009:A464 18 9F        fmult
0009:A466 F9 00 40     iwt   r9,#4000
0009:A469 FA 1C 00     iwt   r10,#001C
0009:A46C AC 04        ibt   r12,#0004
0009:A46E 2F 1D        move  r13,r15
0009:A470 3F EF        getbs
0009:A472 DE           inc   r14
0009:A473 E2           dec   r2
0009:A474 0B 04        bmi   A47A
0009:A476 D2           inc   r2
0009:A477 4F           not
0009:A478 3E 6F        sub   #0F
0009:A47A 57           add   r7
0009:A47B 53           add   r3
0009:A47C 3B           stw   (r11)
0009:A47D DB           inc   r11
0009:A47E DB           inc   r11
0009:A47F 3F EF        getbs
0009:A481 DE           inc   r14
0009:A482 58           add   r8
0009:A483 54           add   r4
0009:A484 3B           stw   (r11)
0009:A485 DB           inc   r11
0009:A486 DB           inc   r11
0009:A487 16 4A        ldw   (r10)
0009:A489 DA           inc   r10
0009:A48A DA           inc   r10
0009:A48B EF           getb
0009:A48C DE           inc   r14
0009:A48D 4D           swap
0009:A48E E2           dec   r2
0009:A48F 0B 03        bmi   A494
0009:A491 D2           inc   r2
0009:A492 3D C9        xor   r9
0009:A494 C6           or    r6
0009:A495 3B           stw   (r11)
0009:A496 DB           inc   r11
0009:A497 DB           inc   r11
0009:A498 A0 02        ibt   r0,#0002
0009:A49A 3B           stw   (r11)
0009:A49B DB           inc   r11
0009:A49C 3C           loop
0009:A49D DB           inc   r11
0009:A49E 3E AB 49     sms   (0092),r11
0009:A4A1 02           cache
0009:A4A2 F1 03 10     iwt   r1,#1003
0009:A4A5 F2 00 30     iwt   r2,#3000
0009:A4A8 A3 04        ibt   r3,#0004
0009:A4AA FC 28 00     iwt   r12,#0028
0009:A4AD 2F 1D        move  r13,r15
0009:A4AF 41           ldw   (r1)
0009:A4B0 C2           or    r2
0009:A4B1 21 53        add   r3
0009:A4B3 3C           loop
0009:A4B4 90           sbk
0009:A4B5 00           stop
0009:A4B6 01           nop
0009:A4B7 00           stop
0009:A4B8 F8 FC 9E     iwt   r8,#9EFC
0009:A4BB 2C 00        stop
0009:A4BD 00           stop
0009:A4BE FC 9E 6C     iwt   r12,#6C9E
0009:A4C1 02           cache
0009:A4C2 F0 E5 C0     iwt   r0,#C0E5
0009:A4C5 2D 02        cache
0009:A4C7 00           stop
0009:A4C8 E5           dec   r5
0009:A4C9 C2           or    r2
0009:A4CA 2D 02        cache
0009:A4CC F0 F5 E0     iwt   r0,#E0F5
0009:A4CF 2D 02        cache
0009:A4D1 00           stop
0009:A4D2 F5 E2 2D     iwt   r5,#2DE2
0009:A4D5 00           stop
0009:A4D6 F8 FD 2E     iwt   r8,#2EFD
0009:A4D9 6C           sub   r12
0009:A4DA 00           stop
0009:A4DB 00           stop
0009:A4DC FD 2E 2C     iwt   r13,#2C2E
0009:A4DF 02           cache
0009:A4E0 F0 E5 C0     iwt   r0,#C0E5
0009:A4E3 2D 02        cache
0009:A4E5 00           stop
0009:A4E6 E5           dec   r5
0009:A4E7 C2           or    r2
0009:A4E8 2D 02        cache
0009:A4EA F0 F5 E0     iwt   r0,#E0F5
0009:A4ED 2D 02        cache
0009:A4EF 00           stop
0009:A4F0 F5 E2 2D     iwt   r5,#2DE2
0009:A4F3 00           stop
0009:A4F4 F8 01 2F     iwt   r8,#2F01
0009:A4F7 6C           sub   r12
0009:A4F8 00           stop
0009:A4F9 00           stop
0009:A4FA 01           nop
0009:A4FB 2F 2C 02     cache
0009:A4FE F0 E5 C0     iwt   r0,#C0E5
0009:A501 2D 02        cache
0009:A503 00           stop
0009:A504 E5           dec   r5
0009:A505 C2           or    r2
0009:A506 2D 02        cache
0009:A508 F0 F5 E0     iwt   r0,#E0F5
0009:A50B 2D 02        cache
0009:A50D 00           stop
0009:A50E F5 E2 2D     iwt   r5,#2DE2
0009:A511 A0 09        ibt   r0,#0009
0009:A513 3F DF        romb
0009:A515 02           cache
0009:A516 3D F1 72 19  lm    r1,(1972)
0009:A51A F0 02 14     iwt   r0,#1402
0009:A51D 51           add   r1
0009:A51E 16 40        ldw   (r0)
0009:A520 A0 1E        ibt   r0,#001E
0009:A522 86           mult  r6
0009:A523 F2 B7 A4     iwt   r2,#A4B7
0009:A526 1E 52        add   r2
0009:A528 F0 80 16     iwt   r0,#1680
0009:A52B 51           add   r1
0009:A52C 12 40        ldw   (r0)
0009:A52E F0 82 16     iwt   r0,#1682
0009:A531 51           add   r1
0009:A532 13 40        ldw   (r0)
0009:A534 F0 00 14     iwt   r0,#1400
0009:A537 51           add   r1
0009:A538 14 40        ldw   (r0)
0009:A53A F5 00 40     iwt   r5,#4000
0009:A53D 3D AB 49     lms   r11,(0092)
0009:A540 AC 06        ibt   r12,#0006
0009:A542 2F 1D        move  r13,r15
0009:A544 16 EF        getb
0009:A546 DE           inc   r14
0009:A547 3F EF        getbs
0009:A549 DE           inc   r14
0009:A54A E4           dec   r4
0009:A54B 0B 09        bmi   A556
0009:A54D D4           inc   r4
0009:A54E 4F           not
0009:A54F D0           inc   r0
0009:A550 E6           dec   r6
0009:A551 0A 03        bpl   A556
0009:A553 D6           inc   r6
0009:A554 3E 58        add   #08
0009:A556 52           add   r2
0009:A557 3B           stw   (r11)
0009:A558 DB           inc   r11
0009:A559 DB           inc   r11
0009:A55A 3F EF        getbs
0009:A55C DE           inc   r14
0009:A55D 53           add   r3
0009:A55E 3B           stw   (r11)
0009:A55F DB           inc   r11
0009:A560 DB           inc   r11
0009:A561 EF           getb
0009:A562 DE           inc   r14
0009:A563 3D EF        getbh
0009:A565 DE           inc   r14
0009:A566 E4           dec   r4
0009:A567 0B 03        bmi   A56C
0009:A569 D4           inc   r4
0009:A56A 3D C5        xor   r5
0009:A56C 3B           stw   (r11)
0009:A56D DB           inc   r11
0009:A56E DB           inc   r11
0009:A56F B6 3B        stw   (r11)
0009:A571 DB           inc   r11
0009:A572 3C           loop
0009:A573 DB           inc   r11
0009:A574 FF 9E A4     iwt   r15,#A49E
0009:A577 01           nop
0009:A578 02           cache
0009:A579 A0 08        ibt   r0,#0008
0009:A57B 3F DF        romb
0009:A57D F0 C0 00     iwt   r0,#00C0
0009:A580 51           add   r1
0009:A581 1B 9E        lob
0009:A583 F0 18 AE     iwt   r0,#AE18
0009:A586 1E 5B        add   r11
0009:A588 F3 58 AE     iwt   r3,#AE58
0009:A58B 3F EF        getbs
0009:A58D B3 1E 5B     add   r11
0009:A590 50           add   r0
0009:A591 12 50        add   r0
0009:A593 FB 18 AE     iwt   r11,#AE18
0009:A596 3F EF        getbs
0009:A598 BB 1E 51     add   r1
0009:A59B 50           add   r0
0009:A59C 13 50        add   r0
0009:A59E FB 58 AE     iwt   r11,#AE58
0009:A5A1 3F EF        getbs
0009:A5A3 BB 1E 51     add   r1
0009:A5A6 50           add   r0
0009:A5A7 50           add   r0
0009:A5A8 3E A0 06     sms   (000C),r0
0009:A5AB 3F EF        getbs
0009:A5AD 50           add   r0
0009:A5AE 50           add   r0
0009:A5AF 3E A0 07     sms   (000E),r0
0009:A5B2 B4 3F DF     romb
0009:A5B5 B7 3D 86     umult r6
0009:A5B8 1E 55        add   r5
0009:A5BA 3D F1 72 19  lm    r1,(1972)
0009:A5BE F0 00 14     iwt   r0,#1400
0009:A5C1 51           add   r1
0009:A5C2 17 40        ldw   (r0)
0009:A5C4 3D AB 49     lms   r11,(0092)
0009:A5C7 3D A6 00     lms   r6,(0000)
0009:A5CA B8 9F        fmult
0009:A5CC 9E           lob
0009:A5CD 4D           swap
0009:A5CE 22 16        move  r6,r2
0009:A5D0 19 9F        fmult
0009:A5D2 E7           dec   r7
0009:A5D3 0B 04        bmi   A5D9
0009:A5D5 D7           inc   r7
0009:A5D6 29 4F        not
0009:A5D8 D9           inc   r9
0009:A5D9 3D A6 01     lms   r6,(0002)
0009:A5DC B8 9F        fmult
0009:A5DE 9E           lob
0009:A5DF 20 15        move  r5,r0
0009:A5E1 4D           swap
0009:A5E2 23 16        move  r6,r3
0009:A5E4 9F           fmult
0009:A5E5 1A 65        sub   r5
0009:A5E7 3D A2 06     lms   r2,(000C)
0009:A5EA 3D A3 07     lms   r3,(000E)
0009:A5ED EF           getb
0009:A5EE DE           inc   r14
0009:A5EF 16 4D        swap
0009:A5F1 26 15        move  r5,r6
0009:A5F3 3D A8 02     lms   r8,(0004)
0009:A5F6 E8           dec   r8
0009:A5F7 0B 08        bmi   A601
0009:A5F9 D8           inc   r8
0009:A5FA 3D A0 00     lms   r0,(0000)
0009:A5FD 9F           fmult
0009:A5FE 9E           lob
0009:A5FF 16 4D        swap
0009:A601 B2 9F        fmult
0009:A603 20 14        move  r4,r0
0009:A605 E7           dec   r7
0009:A606 0B 04        bmi   A60C
0009:A608 D7           inc   r7
0009:A609 24 4F        not
0009:A60B D4           inc   r4
0009:A60C 25 16        move  r6,r5
0009:A60E E8           dec   r8
0009:A60F 0B 08        bmi   A619
0009:A611 D8           inc   r8
0009:A612 3D A0 01     lms   r0,(0002)
0009:A615 9F           fmult
0009:A616 9E           lob
0009:A617 16 4D        swap
0009:A619 B3 9F        fmult
0009:A61B 20 15        move  r5,r0
0009:A61D 3E A4 03     sms   (0006),r4
0009:A620 3E A5 04     sms   (0008),r5
0009:A623 3D A0 08     lms   r0,(0010)
0009:A626 59           add   r9
0009:A627 14 54        add   r4
0009:A629 3D A0 09     lms   r0,(0012)
0009:A62C 5A           add   r10
0009:A62D 15 55        add   r5
0009:A62F AC 04        ibt   r12,#0004
0009:A631 BF 3E 57     add   #07
0009:A634 3E A0 30     sms   (0060),r0
0009:A637 FF 69 A7     iwt   r15,#A769
0009:A63A 01           nop
0009:A63B EF           getb
0009:A63C DE           inc   r14
0009:A63D 16 4D        swap
0009:A63F 26 15        move  r5,r6
0009:A641 3D A8 02     lms   r8,(0004)
0009:A644 E8           dec   r8
0009:A645 0B 08        bmi   A64F
0009:A647 D8           inc   r8
0009:A648 3D A0 00     lms   r0,(0000)
0009:A64B 9F           fmult
0009:A64C 9E           lob
0009:A64D 16 4D        swap
0009:A64F B2 9F        fmult
0009:A651 20 14        move  r4,r0
0009:A653 E7           dec   r7
0009:A654 0B 04        bmi   A65A
0009:A656 D7           inc   r7
0009:A657 24 4F        not
0009:A659 D4           inc   r4
0009:A65A 25 16        move  r6,r5
0009:A65C E8           dec   r8
0009:A65D 0B 08        bmi   A667
0009:A65F D8           inc   r8
0009:A660 3D A0 01     lms   r0,(0002)
0009:A663 9F           fmult
0009:A664 9E           lob
0009:A665 16 4D        swap
0009:A667 B3 9F        fmult
0009:A669 20 15        move  r5,r0
0009:A66B 3E A4 05     sms   (000A),r4
0009:A66E 3E A5 06     sms   (000C),r5
0009:A671 3D A0 08     lms   r0,(0010)
0009:A674 59           add   r9
0009:A675 14 54        add   r4
0009:A677 3D A0 09     lms   r0,(0012)
0009:A67A 5A           add   r10
0009:A67B 15 55        add   r5
0009:A67D AC 04        ibt   r12,#0004
0009:A67F BF 3E 57     add   #07
0009:A682 3E A0 30     sms   (0060),r0
0009:A685 FF 69 A7     iwt   r15,#A769
0009:A688 01           nop
0009:A689 29 4F        not
0009:A68B D9           inc   r9
0009:A68C 3D A0 03     lms   r0,(0006)
0009:A68F 14 4F        not
0009:A691 D4           inc   r4
0009:A692 3D A5 04     lms   r5,(0008)
0009:A695 3D A0 08     lms   r0,(0010)
0009:A698 59           add   r9
0009:A699 14 54        add   r4
0009:A69B 3D A0 09     lms   r0,(0012)
0009:A69E 5A           add   r10
0009:A69F 15 55        add   r5
0009:A6A1 AC 04        ibt   r12,#0004
0009:A6A3 BF 3E 57     add   #07
0009:A6A6 3E A0 30     sms   (0060),r0
0009:A6A9 FF 69 A7     iwt   r15,#A769
0009:A6AC 01           nop
0009:A6AD 3D A0 05     lms   r0,(000A)
0009:A6B0 14 4F        not
0009:A6B2 D4           inc   r4
0009:A6B3 3D A5 06     lms   r5,(000C)
0009:A6B6 3D A0 08     lms   r0,(0010)
0009:A6B9 59           add   r9
0009:A6BA 14 54        add   r4
0009:A6BC 3D A0 09     lms   r0,(0012)
0009:A6BF 5A           add   r10
0009:A6C0 15 55        add   r5
0009:A6C2 AC 04        ibt   r12,#0004
0009:A6C4 BF 3E 57     add   #07
0009:A6C7 3E A0 30     sms   (0060),r0
0009:A6CA FF 69 A7     iwt   r15,#A769
0009:A6CD 01           nop
0009:A6CE F0 02 14     iwt   r0,#1402
0009:A6D1 51           add   r1
0009:A6D2 40           ldw   (r0)
0009:A6D3 3E 69        sub   #09
0009:A6D5 0D 60        bcs   A737
0009:A6D7 01           nop
0009:A6D8 EF           getb
0009:A6D9 DE           inc   r14
0009:A6DA 4D           swap
0009:A6DB 3D A6 00     lms   r6,(0000)
0009:A6DE 19 9F        fmult
0009:A6E0 E7           dec   r7
0009:A6E1 0B 04        bmi   A6E7
0009:A6E3 D7           inc   r7
0009:A6E4 29 4F        not
0009:A6E6 D9           inc   r9
0009:A6E7 EF           getb
0009:A6E8 DE           inc   r14
0009:A6E9 4D           swap
0009:A6EA 3D A6 01     lms   r6,(0002)
0009:A6ED 1A 9F        fmult
0009:A6EF 3D A0 08     lms   r0,(0010)
0009:A6F2 14 59        add   r9
0009:A6F4 3D A0 09     lms   r0,(0012)
0009:A6F7 15 5A        add   r10
0009:A6F9 AC 08        ibt   r12,#0008
0009:A6FB BF 3E 57     add   #07
0009:A6FE 3E A0 30     sms   (0060),r0
0009:A701 FF 69 A7     iwt   r15,#A769
0009:A704 01           nop
0009:A705 EF           getb
0009:A706 DE           inc   r14
0009:A707 4D           swap
0009:A708 3D A6 00     lms   r6,(0000)
0009:A70B 19 9F        fmult
0009:A70D E7           dec   r7
0009:A70E 0B 04        bmi   A714
0009:A710 D7           inc   r7
0009:A711 29 4F        not
0009:A713 D9           inc   r9
0009:A714 EF           getb
0009:A715 DE           inc   r14
0009:A716 4D           swap
0009:A717 3D A6 01     lms   r6,(0002)
0009:A71A 1A 9F        fmult
0009:A71C 3D A0 08     lms   r0,(0010)
0009:A71F 14 59        add   r9
0009:A721 3D A0 09     lms   r0,(0012)
0009:A724 15 5A        add   r10
0009:A726 AC 04        ibt   r12,#0004
0009:A728 BF 3E 57     add   #07
0009:A72B 3E A0 30     sms   (0060),r0
0009:A72E FF 69 A7     iwt   r15,#A769
0009:A731 01           nop
0009:A732 3E AB 49     sms   (0092),r11
0009:A735 00           stop
0009:A736 01           nop
0009:A737 EF           getb
0009:A738 DE           inc   r14
0009:A739 4D           swap
0009:A73A 3D A6 00     lms   r6,(0000)
0009:A73D 19 9F        fmult
0009:A73F E7           dec   r7
0009:A740 0B 04        bmi   A746
0009:A742 D7           inc   r7
0009:A743 29 4F        not
0009:A745 D9           inc   r9
0009:A746 EF           getb
0009:A747 DE           inc   r14
0009:A748 4D           swap
0009:A749 3D A6 01     lms   r6,(0002)
0009:A74C 1A 9F        fmult
0009:A74E 3D A0 08     lms   r0,(0010)
0009:A751 14 59        add   r9
0009:A753 3D A0 09     lms   r0,(0012)
0009:A756 15 5A        add   r10
0009:A758 AC 10        ibt   r12,#0010
0009:A75A BF 3E 57     add   #07
0009:A75D 3E A0 30     sms   (0060),r0
0009:A760 FF 69 A7     iwt   r15,#A769
0009:A763 01           nop
0009:A764 3E AB 49     sms   (0092),r11
0009:A767 00           stop
0009:A768 01           nop
0009:A769 02           cache
0009:A76A 2F 1D        move  r13,r15
0009:A76C 16 EF        getb
0009:A76E DE           inc   r14
0009:A76F A8 07        ibt   r8,#0007
0009:A771 B6 3E 72     and   #02
0009:A774 09 03        beq   A779
0009:A776 01           nop
0009:A777 A8 0F        ibt   r8,#000F
0009:A779 3F EF        getbs
0009:A77B DE           inc   r14
0009:A77C E7           dec   r7
0009:A77D 0B 03        bmi   A782
0009:A77F D7           inc   r7
0009:A780 4F           not
0009:A781 68           sub   r8
0009:A782 54           add   r4
0009:A783 3B           stw   (r11)
0009:A784 DB           inc   r11
0009:A785 DB           inc   r11
0009:A786 3F EF        getbs
0009:A788 DE           inc   r14
0009:A789 55           add   r5
0009:A78A 3B           stw   (r11)
0009:A78B DB           inc   r11
0009:A78C DB           inc   r11
0009:A78D EF           getb
0009:A78E DE           inc   r14
0009:A78F F8 00 40     iwt   r8,#4000
0009:A792 3D EF        getbh
0009:A794 DE           inc   r14
0009:A795 E7           dec   r7
0009:A796 0B 03        bmi   A79B
0009:A798 D7           inc   r7
0009:A799 3D C8        xor   r8
0009:A79B 3B           stw   (r11)
0009:A79C DB           inc   r11
0009:A79D DB           inc   r11
0009:A79E B6 3B        stw   (r11)
0009:A7A0 DB           inc   r11
0009:A7A1 3C           loop
0009:A7A2 DB           inc   r11
0009:A7A3 3D AF 30     lms   r15,(0060)
0009:A7A6 01           nop
0009:A7A7 3F DF        romb
0009:A7A9 3D F2 72 19  lm    r2,(1972)
0009:A7AD F0 40 10     iwt   r0,#1040
0009:A7B0 52           add   r2
0009:A7B1 40           ldw   (r0)
0009:A7B2 C0           hib
0009:A7B3 03           lsr
0009:A7B4 03           lsr
0009:A7B5 1C 03        lsr
0009:A7B7 F0 02 14     iwt   r0,#1402
0009:A7BA 52           add   r2
0009:A7BB 40           ldw   (r0)
0009:A7BC 8C           mult  r12
0009:A7BD 3E 85        mult  #05
0009:A7BF 1E 51        add   r1
0009:A7C1 F0 00 14     iwt   r0,#1400
0009:A7C4 52           add   r2
0009:A7C5 13 40        ldw   (r0)
0009:A7C7 B3 03        lsr
0009:A7C9 03           lsr
0009:A7CA 97           ror
0009:A7CB 14 03        lsr
0009:A7CD F0 42 10     iwt   r0,#1042
0009:A7D0 52           add   r2
0009:A7D1 40           ldw   (r0)
0009:A7D2 4D           swap
0009:A7D3 14 3D C4     xor   r4
0009:A7D6 F0 80 16     iwt   r0,#1680
0009:A7D9 52           add   r2
0009:A7DA 15 40        ldw   (r0)
0009:A7DC F0 82 16     iwt   r0,#1682
0009:A7DF 52           add   r2
0009:A7E0 16 40        ldw   (r0)
0009:A7E2 F0 62 13     iwt   r0,#1362
0009:A7E5 52           add   r2
0009:A7E6 17 40        ldw   (r0)
0009:A7E8 B4 54        add   r4
0009:A7EA 04           rol
0009:A7EB 3E 71        and   #01
0009:A7ED 18 50        add   r0
0009:A7EF 02           cache
0009:A7F0 2F 1D        move  r13,r15
0009:A7F2 11 EF        getb
0009:A7F4 DE           inc   r14
0009:A7F5 3F EF        getbs
0009:A7F7 DE           inc   r14
0009:A7F8 E3           dec   r3
0009:A7F9 0B 09        bmi   A804
0009:A7FB D3           inc   r3
0009:A7FC 4F           not
0009:A7FD D0           inc   r0
0009:A7FE E1           dec   r1
0009:A7FF 0A 03        bpl   A804
0009:A801 D1           inc   r1
0009:A802 3E 58        add   #08
0009:A804 55           add   r5
0009:A805 37           stw   (r7)
0009:A806 D7           inc   r7
0009:A807 D7           inc   r7
0009:A808 3F EF        getbs
0009:A80A DE           inc   r14
0009:A80B E8           dec   r8
0009:A80C 0B 09        bmi   A817
0009:A80E D8           inc   r8
0009:A80F 4F           not
0009:A810 D0           inc   r0
0009:A811 E1           dec   r1
0009:A812 0A 03        bpl   A817
0009:A814 D1           inc   r1
0009:A815 3E 58        add   #08
0009:A817 56           add   r6
0009:A818 37           stw   (r7)
0009:A819 D7           inc   r7
0009:A81A D7           inc   r7
0009:A81B EF           getb
0009:A81C DE           inc   r14
0009:A81D 3D EF        getbh
0009:A81F DE           inc   r14
0009:A820 3D C4        xor   r4
0009:A822 37           stw   (r7)
0009:A823 D7           inc   r7
0009:A824 D7           inc   r7
0009:A825 B1 37        stw   (r7)
0009:A827 D7           inc   r7
0009:A828 3C           loop
0009:A829 D7           inc   r7
0009:A82A 00           stop
0009:A82B 01           nop
0009:A82C 3E A1 01     sms   (0002),r1
0009:A82F 3E A2 02     sms   (0004),r2
0009:A832 F3 02 3A     iwt   r3,#3A02
0009:A835 F4 09 00     iwt   r4,#0009
0009:A838 B4 3F DF     romb
0009:A83B F4 D2 00     iwt   r4,#00D2
0009:A83E F5 DA AA     iwt   r5,#AADA
0009:A841 3E 60        sub   #00
0009:A843 09 05        beq   A84A
0009:A845 01           nop
0009:A846 FF 74 A9     iwt   r15,#A974
0009:A849 01           nop
0009:A84A 02           cache
0009:A84B A0 10        ibt   r0,#0010
0009:A84D B2 1C 60     sub   r0
0009:A850 0A 59        bpl   A8AB
0009:A852 01           nop
0009:A853 A2 00        ibt   r2,#0000
0009:A855 BC 16 4F     not
0009:A858 D6           inc   r6
0009:A859 A0 20        ibt   r0,#0020
0009:A85B B6 60        sub   r0
0009:A85D 0A 34        bpl   A893
0009:A85F 01           nop
0009:A860 B6 56        add   r6
0009:A862 50           add   r0
0009:A863 50           add   r0
0009:A864 16 50        add   r0
0009:A866 F0 50 00     iwt   r0,#0050
0009:A869 B6 60        sub   r0
0009:A86B 0B 68        bmi   A8D5
0009:A86D 01           nop
0009:A86E BC 4F        not
0009:A870 D0           inc   r0
0009:A871 F9 06 00     iwt   r9,#0006
0009:A874 69           sub   r9
0009:A875 B1 60        sub   r0
0009:A877 1A 3E 6B     sub   #0B
0009:A87A F0 B0 01     iwt   r0,#01B0
0009:A87D B6 60        sub   r0
0009:A87F 0B 54        bmi   A8D5
0009:A881 01           nop
0009:A882 BC 4F        not
0009:A884 D0           inc   r0
0009:A885 F9 1B 00     iwt   r9,#001B
0009:A888 69           sub   r9
0009:A889 51           add   r1
0009:A88A 15 3E 5B     add   #0B
0009:A88D 2A 16        move  r6,r10
0009:A88F FF 37 A9     iwt   r15,#A937
0009:A892 01           nop
0009:A893 A0 05        ibt   r0,#0005
0009:A895 B6 60        sub   r0
0009:A897 B1 60        sub   r0
0009:A899 18 3E 6B     sub   #0B
0009:A89C A0 1B        ibt   r0,#001B
0009:A89E B6 60        sub   r0
0009:A8A0 B1 60        sub   r0
0009:A8A2 15 3E 5B     add   #0B
0009:A8A5 28 16        move  r6,r8
0009:A8A7 FF 37 A9     iwt   r15,#A937
0009:A8AA 01           nop
0009:A8AB 09 19        beq   A8C6
0009:A8AD 01           nop
0009:A8AE AB 00        ibt   r11,#0000
0009:A8B0 F0 FF 00     iwt   r0,#00FF
0009:A8B3 2F 1D        move  r13,r15
0009:A8B5 BB 3F 64     cmp   r4
0009:A8B8 0B 05        bmi   A8BF
0009:A8BA 01           nop
0009:A8BB FF 70 A9     iwt   r15,#A970
0009:A8BE 01           nop
0009:A8BF 33           stw   (r3)
0009:A8C0 D3           inc   r3
0009:A8C1 D3           inc   r3
0009:A8C2 D3           inc   r3
0009:A8C3 D3           inc   r3
0009:A8C4 3C           loop
0009:A8C5 DB           inc   r11
0009:A8C6 A6 00        ibt   r6,#0000
0009:A8C8 A0 10        ibt   r0,#0010
0009:A8CA 22 60        sub   r0
0009:A8CC B2 64        sub   r4
0009:A8CE 0B 05        bmi   A8D5
0009:A8D0 01           nop
0009:A8D1 FF 70 A9     iwt   r15,#A970
0009:A8D4 01           nop
0009:A8D5 B5 1E 56     add   r6
0009:A8D8 EF           getb
0009:A8D9 03           lsr
0009:A8DA 03           lsr
0009:A8DB 03           lsr
0009:A8DC 19 03        lsr
0009:A8DE F0 50 00     iwt   r0,#0050
0009:A8E1 B6 60        sub   r0
0009:A8E3 0B 0C        bmi   A8F1
0009:A8E5 01           nop
0009:A8E6 F0 B0 01     iwt   r0,#01B0
0009:A8E9 B6 60        sub   r0
0009:A8EB 0A 3F        bpl   A92C
0009:A8ED 01           nop
0009:A8EE 05 04        bra   A8F4
0009:A8F0 EA           dec   r10
0009:A8F1 B1 1A 69     sub   r9
0009:A8F4 0A 07        bpl   A8FD
0009:A8F6 01           nop
0009:A8F7 F0 00 FF     iwt   r0,#FF00
0009:A8FA 05 0C        bra   A908
0009:A8FC 01           nop
0009:A8FD BA C0        hib
0009:A8FF 09 07        beq   A908
0009:A901 BA F0 FF 00  iwt   r0,#00FF
0009:A905 05 19        bra   A920
0009:A907 01           nop
0009:A908 18 4D        swap
0009:A90A B1 17 59     add   r9
0009:A90D 0A 07        bpl   A916
0009:A90F B7 F0 FF 00  iwt   r0,#00FF
0009:A913 05 0B        bra   A920
0009:A915 01           nop
0009:A916 C0           hib
0009:A917 09 04        beq   A91D
0009:A919 01           nop
0009:A91A F7 FF 00     iwt   r7,#00FF
0009:A91D 27 4D        swap
0009:A91F 70           merge
0009:A920 33           stw   (r3)
0009:A921 D3           inc   r3
0009:A922 D3           inc   r3
0009:A923 D3           inc   r3
0009:A924 D3           inc   r3
0009:A925 A0 10        ibt   r0,#0010
0009:A927 16 56        add   r6
0009:A929 05 A1        bra   A8CC
0009:A92B D2           inc   r2
0009:A92C F0 0B 00     iwt   r0,#000B
0009:A92F 15 51        add   r1
0009:A931 F0 21 00     iwt   r0,#0021
0009:A934 B1 16 60     sub   r0
0009:A937 B2 64        sub   r4
0009:A939 0A 35        bpl   A970
0009:A93B 01           nop
0009:A93C B6 C0        hib
0009:A93E 0A 07        bpl   A947
0009:A940 01           nop
0009:A941 F0 00 FF     iwt   r0,#FF00
0009:A944 05 0A        bra   A950
0009:A946 01           nop
0009:A947 09 07        beq   A950
0009:A949 B6 F0 FF 00  iwt   r0,#00FF
0009:A94D 05 17        bra   A966
0009:A94F 01           nop
0009:A950 18 4D        swap
0009:A952 B5 C0        hib
0009:A954 0A 07        bpl   A95D
0009:A956 01           nop
0009:A957 F0 FF 00     iwt   r0,#00FF
0009:A95A 05 0A        bra   A966
0009:A95C 01           nop
0009:A95D 09 04        beq   A963
0009:A95F B5 F0 FF 00  iwt   r0,#00FF
0009:A963 17 4D        swap
0009:A965 70           merge
0009:A966 33           stw   (r3)
0009:A967 D3           inc   r3
0009:A968 D3           inc   r3
0009:A969 D3           inc   r3
0009:A96A D3           inc   r3
0009:A96B E5           dec   r5
0009:A96C E6           dec   r6
0009:A96D 05 C8        bra   A937
0009:A96F D2           inc   r2
0009:A970 FF 84 AA     iwt   r15,#AA84
0009:A973 01           nop
0009:A974 02           cache
0009:A975 A0 10        ibt   r0,#0010
0009:A977 52           add   r2
0009:A978 09 04        beq   A97E
0009:A97A 01           nop
0009:A97B 0A 08        bpl   A985
0009:A97D 01           nop
0009:A97E FC D2 00     iwt   r12,#00D2
0009:A981 FF 79 AA     iwt   r15,#AA79
0009:A984 01           nop
0009:A985 F0 0B 00     iwt   r0,#000B
0009:A988 1B 52        add   r2
0009:A98A 3E AB 03     sms   (0006),r11
0009:A98D 0A 10        bpl   A99F
0009:A98F 01           nop
0009:A990 F0 05 00     iwt   r0,#0005
0009:A993 5B           add   r11
0009:A994 50           add   r0
0009:A995 50           add   r0
0009:A996 50           add   r0
0009:A997 16 50        add   r0
0009:A999 A2 00        ibt   r2,#0000
0009:A99B FF 22 AA     iwt   r15,#AA22
0009:A99E 01           nop
0009:A99F F0 0B 00     iwt   r0,#000B
0009:A9A2 51           add   r1
0009:A9A3 19 5B        add   r11
0009:A9A5 F0 0B 00     iwt   r0,#000B
0009:A9A8 B2 1B 60     sub   r0
0009:A9AB 3E AB 04     sms   (0008),r11
0009:A9AE 0A 0D        bpl   A9BD
0009:A9B0 01           nop
0009:A9B1 F0 1B 00     iwt   r0,#001B
0009:A9B4 5B           add   r11
0009:A9B5 50           add   r0
0009:A9B6 50           add   r0
0009:A9B7 50           add   r0
0009:A9B8 16 50        add   r0
0009:A9BA 05 0B        bra   A9C7
0009:A9BC 01           nop
0009:A9BD F0 0B 00     iwt   r0,#000B
0009:A9C0 B1 60        sub   r0
0009:A9C2 1A 5B        add   r11
0009:A9C4 F6 A0 01     iwt   r6,#01A0
0009:A9C7 A2 00        ibt   r2,#0000
0009:A9C9 B2 64        sub   r4
0009:A9CB 0B 05        bmi   A9D2
0009:A9CD 01           nop
0009:A9CE FF 70 A9     iwt   r15,#A970
0009:A9D1 01           nop
0009:A9D2 3D A0 04     lms   r0,(0008)
0009:A9D5 B2 60        sub   r0
0009:A9D7 0B 1B        bmi   A9F4
0009:A9D9 01           nop
0009:A9DA 3D A0 03     lms   r0,(0006)
0009:A9DD B2 60        sub   r0
0009:A9DF 0A 41        bpl   AA22
0009:A9E1 01           nop
0009:A9E2 B6 1E 55     add   r5
0009:A9E5 A0 10        ibt   r0,#0010
0009:A9E7 26 60        sub   r0
0009:A9E9 EF           getb
0009:A9EA 03           lsr
0009:A9EB 03           lsr
0009:A9EC 03           lsr
0009:A9ED 03           lsr
0009:A9EE 3E A0 05     sms   (000A),r0
0009:A9F1 B1 1A 60     sub   r0
0009:A9F4 BA C0        hib
0009:A9F6 09 10        beq   AA08
0009:A9F8 BA           from  r10
0009:A9F9 0A 07        bpl   AA02
0009:A9FB 01           nop
0009:A9FC F0 00 00     iwt   r0,#0000
0009:A9FF 05 07        bra   AA08
0009:AA01 01           nop
0009:AA02 F0 FF 00     iwt   r0,#00FF
0009:AA05 05 11        bra   AA18
0009:AA07 01           nop
0009:AA08 18 4D        swap
0009:AA0A B9 C0        hib
0009:AA0C 09 07        beq   AA15
0009:AA0E B9           from  r9
0009:AA0F 0B F1        bmi   AA02
0009:AA11 01           nop
0009:AA12 F0 FF 00     iwt   r0,#00FF
0009:AA15 17 4D        swap
0009:AA17 70           merge
0009:AA18 33           stw   (r3)
0009:AA19 D3           inc   r3
0009:AA1A D3           inc   r3
0009:AA1B D3           inc   r3
0009:AA1C D3           inc   r3
0009:AA1D E9           dec   r9
0009:AA1E EA           dec   r10
0009:AA1F 05 A8        bra   A9C9
0009:AA21 D2           inc   r2
0009:AA22 B2 64        sub   r4
0009:AA24 0A 5E        bpl   AA84
0009:AA26 01           nop
0009:AA27 B6 1E 55     add   r5
0009:AA2A EF           getb
0009:AA2B 03           lsr
0009:AA2C 03           lsr
0009:AA2D 03           lsr
0009:AA2E 1B 03        lsr
0009:AA30 B1 6B        sub   r11
0009:AA32 B1 1A 6B     sub   r11
0009:AA35 0A 06        bpl   AA3D
0009:AA37 BA A0 00     ibt   r0,#0000
0009:AA3A 05 0B        bra   AA47
0009:AA3C 01           nop
0009:AA3D C0           hib
0009:AA3E 09 07        beq   AA47
0009:AA40 BA F0 FF 00  iwt   r0,#00FF
0009:AA44 05 18        bra   AA5E
0009:AA46 01           nop
0009:AA47 18 4D        swap
0009:AA49 B1 1A 5B     add   r11
0009:AA4C 0A 07        bpl   AA55
0009:AA4E BA F0 FF 00  iwt   r0,#00FF
0009:AA52 05 0A        bra   AA5E
0009:AA54 01           nop
0009:AA55 C0           hib
0009:AA56 09 03        beq   AA5B
0009:AA58 BA A0 FF     ibt   r0,#FFFF
0009:AA5B 17 4D        swap
0009:AA5D 70           merge
0009:AA5E 33           stw   (r3)
0009:AA5F D3           inc   r3
0009:AA60 D3           inc   r3
0009:AA61 D3           inc   r3
0009:AA62 D3           inc   r3
0009:AA63 A0 10        ibt   r0,#0010
0009:AA65 26 60        sub   r0
0009:AA67 0A B9        bpl   AA22
0009:AA69 D2           inc   r2
0009:AA6A B4 1C 62     sub   r2
0009:AA6D 09 15        beq   AA84
0009:AA6F 01           nop
0009:AA70 0B 12        bmi   AA84
0009:AA72 01           nop
0009:AA73 05 04        bra   AA79
0009:AA75 01           nop
0009:AA76 FC D2 00     iwt   r12,#00D2
0009:AA79 F0 FF 00     iwt   r0,#00FF
0009:AA7C 2F 1D        move  r13,r15
0009:AA7E 33           stw   (r3)
0009:AA7F D3           inc   r3
0009:AA80 D3           inc   r3
0009:AA81 D3           inc   r3
0009:AA82 3C           loop
0009:AA83 D3           inc   r3
0009:AA84 02           cache
0009:AA85 3D A1 01     lms   r1,(0002)
0009:AA88 3D A2 02     lms   r2,(0004)
0009:AA8B F3 04 3A     iwt   r3,#3A04
0009:AA8E FC D2 00     iwt   r12,#00D2
0009:AA91 A0 16        ibt   r0,#0016
0009:AA93 51           add   r1
0009:AA94 11 52        add   r2
0009:AA96 0A 07        bpl   AA9F
0009:AA98 01           nop
0009:AA99 F0 00 FF     iwt   r0,#FF00
0009:AA9C 05 32        bra   AAD0
0009:AA9E 01           nop
0009:AA9F F0 D2 01     iwt   r0,#01D2
0009:AAA2 B1 60        sub   r0
0009:AAA4 0A 27        bpl   AACD
0009:AAA6 01           nop
0009:AAA7 F7 00 FF     iwt   r7,#FF00
0009:AAAA 2F 1D        move  r13,r15
0009:AAAC B1 3E 60     sub   #00
0009:AAAF 0A 07        bpl   AAB8
0009:AAB1 B1 F0 00 FF  iwt   r0,#FF00
0009:AAB5 05 0D        bra   AAC4
0009:AAB7 01           nop
0009:AAB8 C0           hib
0009:AAB9 09 07        beq   AAC2
0009:AABB 01           nop
0009:AABC F0 FF 00     iwt   r0,#00FF
0009:AABF 05 03        bra   AAC4
0009:AAC1 01           nop
0009:AAC2 B1 C7        or    r7
0009:AAC4 33           stw   (r3)
0009:AAC5 D3           inc   r3
0009:AAC6 D3           inc   r3
0009:AAC7 D3           inc   r3
0009:AAC8 D3           inc   r3
0009:AAC9 3C           loop
0009:AACA E1           dec   r1
0009:AACB 00           stop
0009:AACC 01           nop
0009:AACD F0 FF 00     iwt   r0,#00FF
0009:AAD0 2F 1D        move  r13,r15
0009:AAD2 33           stw   (r3)
0009:AAD3 D3           inc   r3
0009:AAD4 D3           inc   r3
0009:AAD5 D3           inc   r3
0009:AAD6 3C           loop
0009:AAD7 D3           inc   r3
0009:AAD8 00           stop
0009:AAD9 01           nop
0009:AADA 16 1F 27 2D+ stw   (r2)
0009:AADF 37           stw   (r7)
0009:AAE0 3B           stw   (r11)
0009:AAE1 3F 43        ???
0009:AAE3 46           ldw   (r6)
0009:AAE4 4A           ldw   (r10)
0009:AAE5 4D           swap
0009:AAE6 50           add   r0
0009:AAE7 53           add   r3
0009:AAE8 56           add   r6
0009:AAE9 59           add   r9
0009:AAEA 5B           add   r11
0009:AAEB 5E           add   r14
0009:AAEC 60           sub   r0
0009:AAED 63           sub   r3
0009:AAEE 65           sub   r5
0009:AAEF 67           sub   r7
0009:AAF0 6A           sub   r10
0009:AAF1 6C           sub   r12
0009:AAF2 6E           sub   r14
0009:AAF3 70           merge
0009:AAF4 72           and   r2
0009:AAF5 74           and   r4
0009:AAF6 76           and   r6
0009:AAF7 78           and   r8
0009:AAF8 7A           and   r10
0009:AAF9 7B           and   r11
0009:AAFA 7D           and   r13
0009:AAFB 7F           and   r15
0009:AAFC 81           mult  r1
0009:AAFD 82           mult  r2
0009:AAFE 84           mult  r4
0009:AAFF 86           mult  r6
0009:AB00 87           mult  r7
0009:AB01 89           mult  r9
0009:AB02 8A           mult  r10
0009:AB03 8C           mult  r12
0009:AB04 8E           mult  r14
0009:AB05 8F           mult  r15
0009:AB06 90           sbk
0009:AB07 92           link  #02
0009:AB08 93           link  #03
0009:AB09 95           sex
0009:AB0A 96           asr
0009:AB0B 97           ror
0009:AB0C 99           jmp   r9
0009:AB0D 9A           jmp   r10
0009:AB0E 9B           jmp   r11
0009:AB0F 9D           jmp   r13
0009:AB10 9E           lob
0009:AB11 9F           fmult
0009:AB12 A1 A2        ibt   r1,#FFA2
0009:AB14 A3 A4        ibt   r3,#FFA4
0009:AB16 A5 A7        ibt   r5,#FFA7
0009:AB18 A8 A9        ibt   r8,#FFA9
0009:AB1A AA AB        ibt   r10,#FFAB
0009:AB1C AC AD        ibt   r12,#FFAD
0009:AB1E AE AF        ibt   r14,#FFAF
0009:AB20 B0 B1 B3 B4+ hib
0009:AB31 C1           or    r1
0009:AB32 C2           or    r2
0009:AB33 C2           or    r2
0009:AB34 C3           or    r3
0009:AB35 C4           or    r4
0009:AB36 C5           or    r5
0009:AB37 C6           or    r6
0009:AB38 C7           or    r7
0009:AB39 C7           or    r7
0009:AB3A C8           or    r8
0009:AB3B C9           or    r9
0009:AB3C CA           or    r10
0009:AB3D CA           or    r10
0009:AB3E CB           or    r11
0009:AB3F CC           or    r12
0009:AB40 CD           or    r13
0009:AB41 CD           or    r13
0009:AB42 CE           or    r14
0009:AB43 CF           or    r15
0009:AB44 D0           inc   r0
0009:AB45 D0           inc   r0
0009:AB46 D1           inc   r1
0009:AB47 D2           inc   r2
0009:AB48 D2           inc   r2
0009:AB49 D3           inc   r3
0009:AB4A D4           inc   r4
0009:AB4B D5           inc   r5
0009:AB4C D5           inc   r5
0009:AB4D D6           inc   r6
0009:AB4E D6           inc   r6
0009:AB4F D7           inc   r7
0009:AB50 D8           inc   r8
0009:AB51 D8           inc   r8
0009:AB52 D9           inc   r9
0009:AB53 DA           inc   r10
0009:AB54 DA           inc   r10
0009:AB55 DB           inc   r11
0009:AB56 DB           inc   r11
0009:AB57 DC           inc   r12
0009:AB58 DD           inc   r13
0009:AB59 DD           inc   r13
0009:AB5A DE           inc   r14
0009:AB5B DE           inc   r14
0009:AB5C DF           getc
0009:AB5D DF           getc
0009:AB5E E0           dec   r0
0009:AB5F E1           dec   r1
0009:AB60 E1           dec   r1
0009:AB61 E2           dec   r2
0009:AB62 E2           dec   r2
0009:AB63 E3           dec   r3
0009:AB64 E3           dec   r3
0009:AB65 E4           dec   r4
0009:AB66 E4           dec   r4
0009:AB67 E5           dec   r5
0009:AB68 E5           dec   r5
0009:AB69 E6           dec   r6
0009:AB6A E6           dec   r6
0009:AB6B E7           dec   r7
0009:AB6C E7           dec   r7
0009:AB6D E8           dec   r8
0009:AB6E E8           dec   r8
0009:AB6F E9           dec   r9
0009:AB70 E9           dec   r9
0009:AB71 E9           dec   r9
0009:AB72 EA           dec   r10
0009:AB73 EA           dec   r10
0009:AB74 EB           dec   r11
0009:AB75 EB           dec   r11
0009:AB76 EC           dec   r12
0009:AB77 EC           dec   r12
0009:AB78 EC           dec   r12
0009:AB79 ED           dec   r13
0009:AB7A ED           dec   r13
0009:AB7B EE           dec   r14
0009:AB7C EE           dec   r14
0009:AB7D EE           dec   r14
0009:AB7E EF           getb
0009:AB7F EF           getb
0009:AB80 F0 F0 F0     iwt   r0,#F0F0
0009:AB83 F1 F1 F1     iwt   r1,#F1F1
0009:AB86 F2 F2 F2     iwt   r2,#F2F2
0009:AB89 F3 F3 F3     iwt   r3,#F3F3
0009:AB8C F4 F4 F4     iwt   r4,#F4F4
0009:AB8F F5 F5 F5     iwt   r5,#F5F5
0009:AB92 F5 F6 F6     iwt   r5,#F6F6
0009:AB95 F6 F7 F7     iwt   r6,#F7F7
0009:AB98 F7 F7 F8     iwt   r7,#F8F7
0009:AB9B F8 F8 F8     iwt   r8,#F8F8
0009:AB9E F9 F9 F9     iwt   r9,#F9F9
0009:ABA1 F9 FA FA     iwt   r9,#FAFA
0009:ABA4 FA FA FA     iwt   r10,#FAFA
0009:ABA7 FB FB FB     iwt   r11,#FBFB
0009:ABAA FB FB FC     iwt   r11,#FCFB
0009:ABAD FC FC FC     iwt   r12,#FCFC
0009:ABB0 FC FC FD     iwt   r12,#FDFC
0009:ABB3 FD FD FD     iwt   r13,#FDFD
0009:ABB6 FD FD FD     iwt   r13,#FDFD
0009:ABB9 FD FE FE     iwt   r13,#FEFE
0009:ABBC FE FE FE     iwt   r14,#FEFE
0009:ABBF FE FE FE     iwt   r14,#FEFE
0009:ABC2 FE FF FF     iwt   r14,#FFFF
0009:ABC5 FF FF FF     iwt   r15,#FFFF
0009:ABC8 FF FF FF     iwt   r15,#FFFF
0009:ABCB FF FF FF     iwt   r15,#FFFF
0009:ABCE FF FF FF     iwt   r15,#FFFF
0009:ABD1 FF FF FF     iwt   r15,#FFFF
0009:ABD4 FF FF FF     iwt   r15,#FFFF
0009:ABD7 FF FF FF     iwt   r15,#FFFF
0009:ABDA FF FF FF     iwt   r15,#FFFF
0009:ABDD FF FF FF     iwt   r15,#FFFF
0009:ABE0 FF FF FF     iwt   r15,#FFFF
0009:ABE3 FF FF FF     iwt   r15,#FFFF
0009:ABE6 FF FF FF     iwt   r15,#FFFF
0009:ABE9 FF FF FF     iwt   r15,#FFFF
0009:ABEC FF FF FF     iwt   r15,#FFFF
0009:ABEF FF FF FE     iwt   r15,#FEFF
0009:ABF2 FE FE FE     iwt   r14,#FEFE
0009:ABF5 FE FE FE     iwt   r14,#FEFE
0009:ABF8 FE FE FD     iwt   r14,#FDFE
0009:ABFB FD FD FD     iwt   r13,#FDFD
0009:ABFE FD FD FD     iwt   r13,#FDFD
0009:AC01 FD FC FC     iwt   r13,#FCFC
0009:AC04 FC FC FC     iwt   r12,#FCFC
0009:AC07 FC FB FB     iwt   r12,#FBFB
0009:AC0A FB FB FB     iwt   r11,#FBFB
0009:AC0D FA FA FA     iwt   r10,#FAFA
0009:AC10 FA FA F9     iwt   r10,#F9FA
0009:AC13 F9 F9 F9     iwt   r9,#F9F9
0009:AC16 F8 F8 F8     iwt   r8,#F8F8
0009:AC19 F8 F7 F7     iwt   r8,#F7F7
0009:AC1C F7 F7 F6     iwt   r7,#F6F7
0009:AC1F F6 F6 F5     iwt   r6,#F5F6
0009:AC22 F5 F5 F5     iwt   r5,#F5F5
0009:AC25 F4 F4 F4     iwt   r4,#F4F4
0009:AC28 F3 F3 F3     iwt   r3,#F3F3
0009:AC2B F2 F2 F2     iwt   r2,#F2F2
0009:AC2E F1 F1 F1     iwt   r1,#F1F1
0009:AC31 F0 F0 F0     iwt   r0,#F0F0
0009:AC34 EF           getb
0009:AC35 EF           getb
0009:AC36 EE           dec   r14
0009:AC37 EE           dec   r14
0009:AC38 EE           dec   r14
0009:AC39 ED           dec   r13
0009:AC3A ED           dec   r13
0009:AC3B EC           dec   r12
0009:AC3C EC           dec   r12
0009:AC3D EC           dec   r12
0009:AC3E EB           dec   r11
0009:AC3F EB           dec   r11
0009:AC40 EA           dec   r10
0009:AC41 EA           dec   r10
0009:AC42 E9           dec   r9
0009:AC43 E9           dec   r9
0009:AC44 E9           dec   r9
0009:AC45 E8           dec   r8
0009:AC46 E8           dec   r8
0009:AC47 E7           dec   r7
0009:AC48 E7           dec   r7
0009:AC49 E6           dec   r6
0009:AC4A E6           dec   r6
0009:AC4B E5           dec   r5
0009:AC4C E5           dec   r5
0009:AC4D E4           dec   r4
0009:AC4E E4           dec   r4
0009:AC4F E3           dec   r3
0009:AC50 E3           dec   r3
0009:AC51 E2           dec   r2
0009:AC52 E2           dec   r2
0009:AC53 E1           dec   r1
0009:AC54 E1           dec   r1
0009:AC55 E0           dec   r0
0009:AC56 DF           getc
0009:AC57 DF           getc
0009:AC58 DE           inc   r14
0009:AC59 DE           inc   r14
0009:AC5A DD           inc   r13
0009:AC5B DD           inc   r13
0009:AC5C DC           inc   r12
0009:AC5D DB           inc   r11
0009:AC5E DB           inc   r11
0009:AC5F DA           inc   r10
0009:AC60 DA           inc   r10
0009:AC61 D9           inc   r9
0009:AC62 D8           inc   r8
0009:AC63 D8           inc   r8
0009:AC64 D7           inc   r7
0009:AC65 D6           inc   r6
0009:AC66 D6           inc   r6
0009:AC67 D5           inc   r5
0009:AC68 D5           inc   r5
0009:AC69 D4           inc   r4
0009:AC6A D3           inc   r3
0009:AC6B D2           inc   r2
0009:AC6C D2           inc   r2
0009:AC6D D1           inc   r1
0009:AC6E D0           inc   r0
0009:AC6F D0           inc   r0
0009:AC70 CF           or    r15
0009:AC71 CE           or    r14
0009:AC72 CD           or    r13
0009:AC73 CD           or    r13
0009:AC74 CC           or    r12
0009:AC75 CB           or    r11
0009:AC76 CA           or    r10
0009:AC77 CA           or    r10
0009:AC78 C9           or    r9
0009:AC79 C8           or    r8
0009:AC7A C7           or    r7
0009:AC7B C7           or    r7
0009:AC7C C6           or    r6
0009:AC7D C5           or    r5
0009:AC7E C4           or    r4
0009:AC7F C3           or    r3
0009:AC80 C2           or    r2
0009:AC81 C2           or    r2
0009:AC82 C1           or    r1
0009:AC83 C0           hib
0009:AC84 BF BE BD BC+ ibt   r15,#FFAE
0009:AC96 AD AC        ibt   r13,#FFAC
0009:AC98 AB AA        ibt   r11,#FFAA
0009:AC9A A9 A8        ibt   r9,#FFA8
0009:AC9C A7 A5        ibt   r7,#FFA5
0009:AC9E A4 A3        ibt   r4,#FFA3
0009:ACA0 A2 A1        ibt   r2,#FFA1
0009:ACA2 9F           fmult
0009:ACA3 9E           lob
0009:ACA4 9D           jmp   r13
0009:ACA5 9B           jmp   r11
0009:ACA6 9A           jmp   r10
0009:ACA7 99           jmp   r9
0009:ACA8 97           ror
0009:ACA9 96           asr
0009:ACAA 95           sex
0009:ACAB 93           link  #03
0009:ACAC 92           link  #02
0009:ACAD 90           sbk
0009:ACAE 8F           mult  r15
0009:ACAF 8E           mult  r14
0009:ACB0 8C           mult  r12
0009:ACB1 8A           mult  r10
0009:ACB2 89           mult  r9
0009:ACB3 87           mult  r7
0009:ACB4 86           mult  r6
0009:ACB5 84           mult  r4
0009:ACB6 82           mult  r2
0009:ACB7 81           mult  r1
0009:ACB8 7F           and   r15
0009:ACB9 7D           and   r13
0009:ACBA 7B           and   r11
0009:ACBB 7A           and   r10
0009:ACBC 78           and   r8
0009:ACBD 76           and   r6
0009:ACBE 74           and   r4
0009:ACBF 72           and   r2
0009:ACC0 70           merge
0009:ACC1 6E           sub   r14
0009:ACC2 6C           sub   r12
0009:ACC3 6A           sub   r10
0009:ACC4 67           sub   r7
0009:ACC5 65           sub   r5
0009:ACC6 63           sub   r3
0009:ACC7 60           sub   r0
0009:ACC8 5E           add   r14
0009:ACC9 5B           add   r11
0009:ACCA 59           add   r9
0009:ACCB 56           add   r6
0009:ACCC 53           add   r3
0009:ACCD 50           add   r0
0009:ACCE 4D           swap
0009:ACCF 4A           ldw   (r10)
0009:ACD0 46           ldw   (r6)
0009:ACD1 43           ldw   (r3)
0009:ACD2 3F 3B        ???
0009:ACD4 37           stw   (r7)
0009:ACD5 32           stw   (r2)
0009:ACD6 2D 27 1F     move  r15,r7
0009:ACD9 16 02        cache
0009:ACDB 3D F1 72 19  lm    r1,(1972)
0009:ACDF 3D F2 92 00  lm    r2,(0092)
0009:ACE3 F0 80 16     iwt   r0,#1680
0009:ACE6 51           add   r1
0009:ACE7 13 40        ldw   (r0)
0009:ACE9 F0 82 16     iwt   r0,#1682
0009:ACEC 51           add   r1
0009:ACED 14 40        ldw   (r0)
0009:ACEF E5           dec   r5
0009:ACF0 0B 64        bmi   AD56
0009:ACF2 01           nop
0009:ACF3 F0 08 00     iwt   r0,#0008
0009:ACF6 3F DF        romb
0009:ACF8 F0 58 AE     iwt   r0,#AE58
0009:ACFB 1E 59        add   r9
0009:ACFD 3F EF        getbs
0009:ACFF 96           asr
0009:AD00 96           asr
0009:AD01 96           asr
0009:AD02 96           asr
0009:AD03 8A           mult  r10
0009:AD04 50           add   r0
0009:AD05 50           add   r0
0009:AD06 C0           hib
0009:AD07 95           sex
0009:AD08 18 54        add   r4
0009:AD0A F0 09 00     iwt   r0,#0009
0009:AD0D 3F DF        romb
0009:AD0F F0 5C AD     iwt   r0,#AD5C
0009:AD12 59           add   r9
0009:AD13 19 9E        lob
0009:AD15 F0 61 AD     iwt   r0,#AD61
0009:AD18 1E 55        add   r5
0009:AD1A EF           getb
0009:AD1B 3D 86        umult r6
0009:AD1D 50           add   r0
0009:AD1E C0           hib
0009:AD1F B3 17 60     sub   r0
0009:AD22 F0 66 AD     iwt   r0,#AD66
0009:AD25 1E 55        add   r5
0009:AD27 1C EF        getb
0009:AD29 F0 6B AD     iwt   r0,#AD6B
0009:AD2C 55           add   r5
0009:AD2D 1E 55        add   r5
0009:AD2F EF           getb
0009:AD30 DE           inc   r14
0009:AD31 3D EF        getbh
0009:AD33 20 1E        move  r14,r0
0009:AD35 2F 1D        move  r13,r15
0009:AD37 3F EF        getbs
0009:AD39 DE           inc   r14
0009:AD3A 57           add   r7
0009:AD3B 32           stw   (r2)
0009:AD3C D2           inc   r2
0009:AD3D D2           inc   r2
0009:AD3E 3F EF        getbs
0009:AD40 DE           inc   r14
0009:AD41 58           add   r8
0009:AD42 32           stw   (r2)
0009:AD43 D2           inc   r2
0009:AD44 D2           inc   r2
0009:AD45 EF           getb
0009:AD46 DE           inc   r14
0009:AD47 3D EF        getbh
0009:AD49 DE           inc   r14
0009:AD4A 32           stw   (r2)
0009:AD4B D2           inc   r2
0009:AD4C D2           inc   r2
0009:AD4D EF           getb
0009:AD4E DE           inc   r14
0009:AD4F 32           stw   (r2)
0009:AD50 D2           inc   r2
0009:AD51 3C           loop
0009:AD52 D2           inc   r2
0009:AD53 05 9A        bra   ACEF
0009:AD55 01           nop
0009:AD56 3E F2 92 00  sm    (0092),r2
0009:AD5A 00           stop
0009:AD5B 01           nop
0009:AD5C A0 10        ibt   r0,#0010
0009:AD5E D0           inc   r0
0009:AD5F 40           ldw   (r0)
0009:AD60 00           stop
0009:AD61 00           stop
0009:AD62 28 4E        color
0009:AD64 72           and   r2
0009:AD65 98           jmp   r8
0009:AD66 06 0B        bge   AD73
0009:AD68 08 0C        bne   AD76
0009:AD6A 11 65        sub   r5
0009:AD6C AE 2E        ibt   r14,#002E
0009:AD6E AE 06        ibt   r14,#0006
0009:AD70 AE CA        ibt   r14,#FFCA
0009:AD72 AD 75        ibt   r13,#0075
0009:AD74 AD 20        ibt   r13,#0020
0009:AD76 20 BA        moves r0,r10
0009:AD78 37           stw   (r7)
0009:AD79 00           stop
0009:AD7A 20 18        move  r8,r0
0009:AD7C BA 37        stw   (r7)
0009:AD7E 00           stop
0009:AD7F 1A 10 A3 37  ibt   r3,#0037
0009:AD83 00           stop
0009:AD84 12 10 A2 37  ibt   r2,#0037
0009:AD88 00           stop
0009:AD89 18 20 B4     moves r0,r4
0009:AD8C 37           stw   (r7)
0009:AD8D 00           stop
0009:AD8E 10 18 B2 37  stw   (r7)
0009:AD92 00           stop
0009:AD93 18 18 B3 37  stw   (r7)
0009:AD97 00           stop
0009:AD98 10 20 A2 37  ibt   r2,#0037
0009:AD9C 00           stop
0009:AD9D 20 28 95     sex
0009:ADA0 37           stw   (r7)
0009:ADA1 00           stop
0009:ADA2 00           stop
0009:ADA3 28 BB        moves r8,r11
0009:ADA5 37           stw   (r7)
0009:ADA6 00           stop
0009:ADA7 18 28 94     link  #04
0009:ADAA 37           stw   (r7)
0009:ADAB 00           stop
0009:ADAC 10 28 85     mult  r5
0009:ADAF 37           stw   (r7)
0009:ADB0 00           stop
0009:ADB1 08 28        bne   ADDB
0009:ADB3 84           mult  r4
0009:ADB4 37           stw   (r7)
0009:ADB5 00           stop
0009:ADB6 08 00        bne   ADB8
0009:ADB8 96           asr
0009:ADB9 37           stw   (r7)
0009:ADBA 00           stop
0009:ADBB 10 00        stop
0009:ADBD 82           mult  r2
0009:ADBE 37           stw   (r7)
0009:ADBF 02           cache
0009:ADC0 00           stop
0009:ADC1 18 A0 37     ibt   r0,#0037
0009:ADC4 02           cache
0009:ADC5 00           stop
0009:ADC6 08 80        bne   AD48
0009:ADC8 37           stw   (r7)
0009:ADC9 02           cache
0009:ADCA 18           to    r8
0009:ADCB 08 80        bne   AD4D
0009:ADCD 77           and   r7
0009:ADCE 02           cache
0009:ADCF 10 20 A2 37  ibt   r2,#0037
0009:ADD3 00           stop
0009:ADD4 00           stop
0009:ADD5 28 BB        moves r8,r11
0009:ADD7 37           stw   (r7)
0009:ADD8 00           stop
0009:ADD9 20 28 95     sex
0009:ADDC 37           stw   (r7)
0009:ADDD 00           stop
0009:ADDE 18 28 94     link  #04
0009:ADE1 37           stw   (r7)
0009:ADE2 00           stop
0009:ADE3 10 28 85     mult  r5
0009:ADE6 37           stw   (r7)
0009:ADE7 00           stop
0009:ADE8 08 28        bne   AE12
0009:ADEA 84           mult  r4
0009:ADEB 37           stw   (r7)
0009:ADEC 00           stop
0009:ADED 18 18 A4 37  ibt   r4,#0037
0009:ADF1 02           cache
0009:ADF2 08 00        bne   ADF4
0009:ADF4 96           asr
0009:ADF5 37           stw   (r7)
0009:ADF6 00           stop
0009:ADF7 10 00        stop
0009:ADF9 82           mult  r2
0009:ADFA 37           stw   (r7)
0009:ADFB 02           cache
0009:ADFC 00           stop
0009:ADFD 08 80        bne   AD7F
0009:ADFF 37           stw   (r7)
0009:AE00 02           cache
0009:AE01 00           stop
0009:AE02 18 A0 37     ibt   r0,#0037
0009:AE05 02           cache
0009:AE06 0F 00        bvs   AE08
0009:AE08 86           mult  r6
0009:AE09 37           stw   (r7)
0009:AE0A 00           stop
0009:AE0B 17 00        stop
0009:AE0D 87           mult  r7
0009:AE0E 37           stw   (r7)
0009:AE0F 00           stop
0009:AE10 18           to    r8
0009:AE11 08 88        bne   AD9B
0009:AE13 37           stw   (r7)
0009:AE14 00           stop
0009:AE15 18 20 AB 37  ibt   r11,#0037
0009:AE19 02           cache
0009:AE1A 18 10 8B     mult  r11
0009:AE1D 37           stw   (r7)
0009:AE1E 02           cache
0009:AE1F 08 08        bne   AE29
0009:AE21 89           mult  r9
0009:AE22 37           stw   (r7)
0009:AE23 02           cache
0009:AE24 08 18        bne   AE3E
0009:AE26 97           ror
0009:AE27 37           stw   (r7)
0009:AE28 02           cache
0009:AE29 00           stop
0009:AE2A 20 A6 37     ibt   r6,#0037
0009:AE2D 02           cache
0009:AE2E 08 18        bne   AE48
0009:AE30 B8 37        stw   (r7)
0009:AE32 00           stop
0009:AE33 08 10        bne   AE45
0009:AE35 B8 37        stw   (r7)
0009:AE37 00           stop
0009:AE38 18 20 A2 37  ibt   r2,#0037
0009:AE3C 00           stop
0009:AE3D 18 28 85     mult  r5
0009:AE40 37           stw   (r7)
0009:AE41 00           stop
0009:AE42 20 28 BD     moves r8,r13
0009:AE45 37           stw   (r7)
0009:AE46 00           stop
0009:AE47 20 20 AD 37  ibt   r13,#0037
0009:AE4B 00           stop
0009:AE4C 10 10 BA 37  stw   (r7)
0009:AE50 00           stop
0009:AE51 10 18 BA 37  stw   (r7)
0009:AE55 00           stop
0009:AE56 08 00        bne   AE58
0009:AE58 A9 37        ibt   r9,#0037
0009:AE5A 02           cache
0009:AE5B 08 20        bne   AE7D
0009:AE5D 8E           mult  r14
0009:AE5E 37           stw   (r7)
0009:AE5F 02           cache
0009:AE60 00           stop
0009:AE61 20 8D        mult  r13
0009:AE63 37           stw   (r7)
0009:AE64 02           cache
0009:AE65 00           stop
0009:AE66 18 B8 37     stw   (r7)
0009:AE69 00           stop
0009:AE6A 00           stop
0009:AE6B 10 B8 37     stw   (r7)
0009:AE6E 00           stop
0009:AE6F 08 10        bne   AE81
0009:AE71 BA 37        stw   (r7)
0009:AE73 00           stop
0009:AE74 08 18        bne   AE8E
0009:AE76 BA 37        stw   (r7)
0009:AE78 00           stop
0009:AE79 00           stop
0009:AE7A 20 AE 37     ibt   r14,#0037
0009:AE7D 02           cache
0009:AE7E 00           stop
0009:AE7F 00           stop
0009:AE80 A9 37        ibt   r9,#0037
0009:AE82 02           cache
0009:AE83 3F DF        romb
0009:AE85 25 1E        move  r14,r5
0009:AE87 02           cache
0009:AE88 3D F1 72 19  lm    r1,(1972)
0009:AE8C 3D F2 92 00  lm    r2,(0092)
0009:AE90 F0 80 16     iwt   r0,#1680
0009:AE93 51           add   r1
0009:AE94 13 40        ldw   (r0)
0009:AE96 F0 82 16     iwt   r0,#1682
0009:AE99 51           add   r1
0009:AE9A 14 40        ldw   (r0)
0009:AE9C 2F 1D        move  r13,r15
0009:AE9E 3F EF        getbs
0009:AEA0 DE           inc   r14
0009:AEA1 53           add   r3
0009:AEA2 32           stw   (r2)
0009:AEA3 D2           inc   r2
0009:AEA4 D2           inc   r2
0009:AEA5 3F EF        getbs
0009:AEA7 DE           inc   r14
0009:AEA8 54           add   r4
0009:AEA9 32           stw   (r2)
0009:AEAA D2           inc   r2
0009:AEAB D2           inc   r2
0009:AEAC EF           getb
0009:AEAD DE           inc   r14
0009:AEAE 3D EF        getbh
0009:AEB0 DE           inc   r14
0009:AEB1 32           stw   (r2)
0009:AEB2 D2           inc   r2
0009:AEB3 D2           inc   r2
0009:AEB4 EF           getb
0009:AEB5 DE           inc   r14
0009:AEB6 32           stw   (r2)
0009:AEB7 D2           inc   r2
0009:AEB8 D2           inc   r2
0009:AEB9 3C           loop
0009:AEBA 01           nop
0009:AEBB 3E F2 92 00  sm    (0092),r2
0009:AEBF 00           stop
0009:AEC0 01           nop
0009:AEC1 3F DF        romb
0009:AEC3 3D F2 72 19  lm    r2,(1972)
0009:AEC7 F0 40 10     iwt   r0,#1040
0009:AECA 52           add   r2
0009:AECB 40           ldw   (r0)
0009:AECC C0           hib
0009:AECD 03           lsr
0009:AECE 03           lsr
0009:AECF 1C 03        lsr
0009:AED1 F0 02 14     iwt   r0,#1402
0009:AED4 52           add   r2
0009:AED5 40           ldw   (r0)
0009:AED6 8C           mult  r12
0009:AED7 3E 85        mult  #05
0009:AED9 1E 51        add   r1
0009:AEDB F0 00 14     iwt   r0,#1400
0009:AEDE 52           add   r2
0009:AEDF 13 40        ldw   (r0)
0009:AEE1 B3 03        lsr
0009:AEE3 03           lsr
0009:AEE4 97           ror
0009:AEE5 14 03        lsr
0009:AEE7 F0 80 16     iwt   r0,#1680
0009:AEEA 52           add   r2
0009:AEEB 15 40        ldw   (r0)
0009:AEED F0 82 16     iwt   r0,#1682
0009:AEF0 52           add   r2
0009:AEF1 16 40        ldw   (r0)
0009:AEF3 F0 62 13     iwt   r0,#1362
0009:AEF6 52           add   r2
0009:AEF7 17 40        ldw   (r0)
0009:AEF9 F0 42 10     iwt   r0,#1042
0009:AEFC 52           add   r2
0009:AEFD 40           ldw   (r0)
0009:AEFE 18 4D        swap
0009:AF00 F0 FF CF     iwt   r0,#CFFF
0009:AF03 78           and   r8
0009:AF04 14 3D C4     xor   r4
0009:AF07 F0 00 30     iwt   r0,#3000
0009:AF0A 18 78        and   r8
0009:AF0C A9 05        ibt   r9,#0005
0009:AF0E 02           cache
0009:AF0F 2F 1D        move  r13,r15
0009:AF11 11 EF        getb
0009:AF13 DE           inc   r14
0009:AF14 3F EF        getbs
0009:AF16 DE           inc   r14
0009:AF17 E9           dec   r9
0009:AF18 0B 0D        bmi   AF27
0009:AF1A D9           inc   r9
0009:AF1B E3           dec   r3
0009:AF1C 0B 09        bmi   AF27
0009:AF1E D3           inc   r3
0009:AF1F 4F           not
0009:AF20 D0           inc   r0
0009:AF21 E1           dec   r1
0009:AF22 0A 03        bpl   AF27
0009:AF24 D1           inc   r1
0009:AF25 3E 58        add   #08
0009:AF27 55           add   r5
0009:AF28 37           stw   (r7)
0009:AF29 D7           inc   r7
0009:AF2A D7           inc   r7
0009:AF2B 3F EF        getbs
0009:AF2D DE           inc   r14
0009:AF2E 56           add   r6
0009:AF2F 37           stw   (r7)
0009:AF30 D7           inc   r7
0009:AF31 D7           inc   r7
0009:AF32 EF           getb
0009:AF33 DE           inc   r14
0009:AF34 3D EF        getbh
0009:AF36 DE           inc   r14
0009:AF37 E9           dec   r9
0009:AF38 0B 03        bmi   AF3D
0009:AF3A D9           inc   r9
0009:AF3B 3D C4        xor   r4
0009:AF3D 3D C8        xor   r8
0009:AF3F 37           stw   (r7)
0009:AF40 D7           inc   r7
0009:AF41 D7           inc   r7
0009:AF42 B1 37        stw   (r7)
0009:AF44 D7           inc   r7
0009:AF45 D7           inc   r7
0009:AF46 3C           loop
0009:AF47 E9           dec   r9
0009:AF48 00           stop
0009:AF49 01           nop
0009:AF4A 02           cache
0009:AF4B F1 00 0F     iwt   r1,#0F00
0009:AF4E F2 A2 0F     iwt   r2,#0FA2
0009:AF51 F3 00 60     iwt   r3,#6000
0009:AF54 A4 04        ibt   r4,#0004
0009:AF56 AB 00        ibt   r11,#0000
0009:AF58 AC 18        ibt   r12,#0018
0009:AF5A 2F 1D        move  r13,r15
0009:AF5C 41           ldw   (r1)
0009:AF5D 3E 60        sub   #00
0009:AF5F 09 06        beq   AF67
0009:AF61 01           nop
0009:AF62 42           ldw   (r2)
0009:AF63 73           and   r3
0009:AF64 09 08        beq   AF6E
0009:AF66 01           nop
0009:AF67 21 54        add   r4
0009:AF69 22 54        add   r4
0009:AF6B 3C           loop
0009:AF6C 01           nop
0009:AF6D EB           dec   r11
0009:AF6E 00           stop
0009:AF6F 01           nop
0009:AF70 01           nop
0009:AF71 01           nop
0009:AF72 01           nop
0009:AF73 01           nop
0009:AF74 01           nop
0009:AF75 01           nop
0009:AF76 01           nop
0009:AF77 01           nop
0009:AF78 01           nop
0009:AF79 01           nop
0009:AF7A 01           nop
0009:AF7B 01           nop
0009:AF7C 01           nop
0009:AF7D 01           nop
0009:AF7E 01           nop
0009:AF7F 01           nop
0009:AF80 01           nop
0009:AF81 01           nop
0009:AF82 01           nop
0009:AF83 01           nop
0009:AF84 01           nop
0009:AF85 01           nop
0009:AF86 01           nop
0009:AF87 01           nop
0009:AF88 01           nop
0009:AF89 01           nop
0009:AF8A 01           nop
0009:AF8B 01           nop
0009:AF8C 01           nop
0009:AF8D 01           nop
0009:AF8E 01           nop
0009:AF8F 01           nop
0009:AF90 01           nop
0009:AF91 01           nop
0009:AF92 01           nop
0009:AF93 01           nop
0009:AF94 01           nop
0009:AF95 01           nop
0009:AF96 01           nop
0009:AF97 01           nop
0009:AF98 01           nop
0009:AF99 01           nop
0009:AF9A 01           nop
0009:AF9B 01           nop
0009:AF9C 01           nop
0009:AF9D 01           nop
0009:AF9E 01           nop
0009:AF9F 01           nop
0009:AFA0 01           nop
0009:AFA1 01           nop
0009:AFA2 01           nop
0009:AFA3 01           nop
0009:AFA4 01           nop
0009:AFA5 01           nop
0009:AFA6 01           nop
0009:AFA7 01           nop
0009:AFA8 01           nop
0009:AFA9 01           nop
0009:AFAA 01           nop
0009:AFAB 01           nop
0009:AFAC 01           nop
0009:AFAD 01           nop
0009:AFAE 01           nop
0009:AFAF 01           nop
0009:AFB0 01           nop
0009:AFB1 01           nop
0009:AFB2 01           nop
0009:AFB3 01           nop
0009:AFB4 01           nop
0009:AFB5 01           nop
0009:AFB6 01           nop
0009:AFB7 01           nop
0009:AFB8 01           nop
0009:AFB9 01           nop
0009:AFBA 01           nop
0009:AFBB 01           nop
0009:AFBC 01           nop
0009:AFBD 01           nop
0009:AFBE 01           nop
0009:AFBF 01           nop
0009:AFC0 01           nop
0009:AFC1 01           nop
0009:AFC2 01           nop
0009:AFC3 01           nop
0009:AFC4 01           nop
0009:AFC5 01           nop
0009:AFC6 01           nop
0009:AFC7 01           nop
0009:AFC8 01           nop
0009:AFC9 01           nop
0009:AFCA 01           nop
0009:AFCB 01           nop
0009:AFCC 01           nop
0009:AFCD 01           nop
0009:AFCE 01           nop
0009:AFCF 01           nop
0009:AFD0 01           nop
0009:AFD1 01           nop
0009:AFD2 01           nop
0009:AFD3 01           nop
0009:AFD4 01           nop
0009:AFD5 01           nop
0009:AFD6 01           nop
0009:AFD7 01           nop
0009:AFD8 01           nop
0009:AFD9 01           nop
0009:AFDA 01           nop
0009:AFDB 01           nop
0009:AFDC 01           nop
0009:AFDD 01           nop
0009:AFDE 01           nop
0009:AFDF 01           nop
0009:AFE0 01           nop
0009:AFE1 01           nop
0009:AFE2 01           nop
0009:AFE3 01           nop
0009:AFE4 01           nop
0009:AFE5 01           nop
0009:AFE6 01           nop
0009:AFE7 01           nop
0009:AFE8 01           nop
0009:AFE9 01           nop
0009:AFEA 01           nop
0009:AFEB 01           nop
0009:AFEC 01           nop
0009:AFED 01           nop
0009:AFEE 01           nop
0009:AFEF 01           nop
0009:AFF0 01           nop
0009:AFF1 01           nop
0009:AFF2 01           nop
0009:AFF3 01           nop
0009:AFF4 01           nop
0009:AFF5 01           nop
0009:AFF6 01           nop
0009:AFF7 01           nop
0009:AFF8 01           nop
0009:AFF9 01           nop
0009:AFFA 01           nop
0009:AFFB 01           nop
0009:AFFC 01           nop
0009:AFFD 01           nop
0009:AFFE 01           nop
0009:AFFF 01           nop
0009:B000 01           nop
0009:B001 01           nop
0009:B002 01           nop
0009:B003 01           nop
0009:B004 01           nop
0009:B005 01           nop
0009:B006 01           nop
0009:B007 01           nop
0009:B008 01           nop
0009:B009 01           nop
0009:B00A 01           nop
0009:B00B 01           nop
0009:B00C 01           nop
0009:B00D 01           nop
0009:B00E 01           nop
0009:B00F 01           nop
0009:B010 01           nop
0009:B011 01           nop
0009:B012 01           nop
0009:B013 01           nop
0009:B014 01           nop
0009:B015 01           nop
0009:B016 01           nop
0009:B017 01           nop
0009:B018 01           nop
0009:B019 01           nop
0009:B01A 01           nop
0009:B01B 01           nop
0009:B01C 01           nop
0009:B01D 01           nop
0009:B01E 01           nop
0009:B01F 01           nop
0009:B020 01           nop
0009:B021 01           nop
0009:B022 01           nop
0009:B023 01           nop
0009:B024 01           nop
0009:B025 01           nop
0009:B026 01           nop
0009:B027 01           nop
0009:B028 01           nop
0009:B029 01           nop
0009:B02A 01           nop
0009:B02B 01           nop
0009:B02C 01           nop
0009:B02D 01           nop
0009:B02E 01           nop
0009:B02F 01           nop
0009:B030 01           nop
0009:B031 01           nop
0009:B032 01           nop
0009:B033 01           nop
0009:B034 01           nop
0009:B035 01           nop
0009:B036 01           nop
0009:B037 01           nop
0009:B038 01           nop
0009:B039 01           nop
0009:B03A 01           nop
0009:B03B 01           nop
0009:B03C 01           nop
0009:B03D 01           nop
0009:B03E A0 09        ibt   r0,#0009
0009:B040 3F DF        romb
0009:B042 A0 00        ibt   r0,#0000
0009:B044 3D 4E        cmode
0009:B046 A0 03        ibt   r0,#0003
0009:B048 4E           color
0009:B049 3D F0 6E 40  lm    r0,(406E)
0009:B04D 50           add   r0
0009:B04E 50           add   r0
0009:B04F D0           inc   r0
0009:B050 1F 5F        add   r15
0009:B052 FF 5F B0     iwt   r15,#B05F
0009:B055 01           nop
0009:B056 01           nop
0009:B057 9F           fmult
0009:B058 B0 01        nop
0009:B05A 01           nop
0009:B05B E1           dec   r1
0009:B05C B4 01        nop
0009:B05E 01           nop
0009:B05F A0 01        ibt   r0,#0001
0009:B061 3E F0 6E 40  sm    (406E),r0
0009:B065 60           sub   r0
0009:B066 3E F0 7E 40  sm    (407E),r0
0009:B06A 3E F0 84 40  sm    (4084),r0
0009:B06E 3E F0 88 40  sm    (4088),r0
0009:B072 3E F0 8A 40  sm    (408A),r0
0009:B076 3E F0 80 40  sm    (4080),r0
0009:B07A 3E F0 82 40  sm    (4082),r0
0009:B07E 3E F0 94 40  sm    (4094),r0
0009:B082 A0 10        ibt   r0,#0010
0009:B084 3E F0 86 40  sm    (4086),r0
0009:B088 3D F0 96 40  lm    r0,(4096)
0009:B08C 3E F0 7C 40  sm    (407C),r0
0009:B090 F0 FF 00     iwt   r0,#00FF
0009:B093 F1 00 4E     iwt   r1,#4E00
0009:B096 FC 00 05     iwt   r12,#0500
0009:B099 2F 1D        move  r13,r15
0009:B09B 31           stw   (r1)
0009:B09C D1           inc   r1
0009:B09D 3C           loop
0009:B09E D1           inc   r1
0009:B09F 60           sub   r0
0009:B0A0 3E A0 3D     sms   (007A),r0
0009:B0A3 3D F0 88 40  lm    r0,(4088)
0009:B0A7 E0           dec   r0
0009:B0A8 0B 05        bmi   B0AF
0009:B0AA 90           sbk
0009:B0AB FF 99 BA     iwt   r15,#BA99
0009:B0AE 01           nop
0009:B0AF 3D F0 8A 40  lm    r0,(408A)
0009:B0B3 3E F0 88 40  sm    (4088),r0
0009:B0B7 3D F0 98 40  lm    r0,(4098)
0009:B0BB 3F DF        romb
0009:B0BD 3D FE 7C 40  lm    r14,(407C)
0009:B0C1 EF           getb
0009:B0C2 DE           inc   r14
0009:B0C3 3D EF        getbh
0009:B0C5 3E F0 72 40  sm    (4072),r0
0009:B0C9 A1 09        ibt   r1,#0009
0009:B0CB B1 3F DF     romb
0009:B0CE 20 11        move  r1,r0
0009:B0D0 D0           inc   r0
0009:B0D1 9E           lob
0009:B0D2 09 05        beq   B0D9
0009:B0D4 01           nop
0009:B0D5 FF E3 B4     iwt   r15,#B4E3
0009:B0D8 01           nop
0009:B0D9 B1 C0        hib
0009:B0DB 50           add   r0
0009:B0DC 50           add   r0
0009:B0DD D0           inc   r0
0009:B0DE 1F 5F        add   r15
0009:B0E0 FF 57 B6     iwt   r15,#B657
0009:B0E3 01           nop
0009:B0E4 01           nop
0009:B0E5 60           sub   r0
0009:B0E6 B6 01        nop
0009:B0E8 01           nop
0009:B0E9 69           sub   r9
0009:B0EA B6 01        nop
0009:B0EC 01           nop
0009:B0ED 72           and   r2
0009:B0EE B6 01        nop
0009:B0F0 01           nop
0009:B0F1 7B           and   r11
0009:B0F2 B6 01        nop
0009:B0F4 01           nop
0009:B0F5 91           link  #01
0009:B0F6 B6 01        nop
0009:B0F8 01           nop
0009:B0F9 A1 B6        ibt   r1,#FFB6
0009:B0FB 01           nop
0009:B0FC 01           nop
0009:B0FD B1 B6 01     nop
0009:B100 01           nop
0009:B101 C1           or    r1
0009:B102 B6 01        nop
0009:B104 01           nop
0009:B105 D1           inc   r1
0009:B106 B6 01        nop
0009:B108 01           nop
0009:B109 E6           dec   r6
0009:B10A B6 01        nop
0009:B10C 01           nop
0009:B10D 0C B7        bcc   B0C6
0009:B10F 01           nop
0009:B110 01           nop
0009:B111 0C B7        bcc   B0CA
0009:B113 01           nop
0009:B114 01           nop
0009:B115 0C B7        bcc   B0CE
0009:B117 01           nop
0009:B118 01           nop
0009:B119 0C B7        bcc   B0D2
0009:B11B 01           nop
0009:B11C 01           nop
0009:B11D F6 B6 01     iwt   r6,#01B6
0009:B120 01           nop
0009:B121 2B B7        moves r11,r7
0009:B123 01           nop
0009:B124 01           nop
0009:B125 54           add   r4
0009:B126 B7 01        nop
0009:B128 01           nop
0009:B129 5B           add   r11
0009:B12A B7 01        nop
0009:B12C 01           nop
0009:B12D 61           sub   r1
0009:B12E B7 01        nop
0009:B130 01           nop
0009:B131 67           sub   r7
0009:B132 B7 01        nop
0009:B134 01           nop
0009:B135 6D           sub   r13
0009:B136 B7 01        nop
0009:B138 01           nop
0009:B139 6D           sub   r13
0009:B13A B7 01        nop
0009:B13C 01           nop
0009:B13D 6D           sub   r13
0009:B13E B7 01        nop
0009:B140 01           nop
0009:B141 6D           sub   r13
0009:B142 B7 01        nop
0009:B144 01           nop
0009:B145 6D           sub   r13
0009:B146 B7 01        nop
0009:B148 01           nop
0009:B149 6D           sub   r13
0009:B14A B7 01        nop
0009:B14C 01           nop
0009:B14D 6D           sub   r13
0009:B14E B7 01        nop
0009:B150 01           nop
0009:B151 6D           sub   r13
0009:B152 B7 01        nop
0009:B154 01           nop
0009:B155 6D           sub   r13
0009:B156 B7 01        nop
0009:B158 01           nop
0009:B159 6D           sub   r13
0009:B15A B7 01        nop
0009:B15C 01           nop
0009:B15D 6D           sub   r13
0009:B15E B7 01        nop
0009:B160 01           nop
0009:B161 C2           or    r2
0009:B162 B7 01        nop
0009:B164 01           nop
0009:B165 C2           or    r2
0009:B166 B7 01        nop
0009:B168 01           nop
0009:B169 C2           or    r2
0009:B16A B7 01        nop
0009:B16C 01           nop
0009:B16D C2           or    r2
0009:B16E B7 01        nop
0009:B170 01           nop
0009:B171 C2           or    r2
0009:B172 B7 01        nop
0009:B174 01           nop
0009:B175 C2           or    r2
0009:B176 B7 01        nop
0009:B178 01           nop
0009:B179 C2           or    r2
0009:B17A B7 01        nop
0009:B17C 01           nop
0009:B17D C2           or    r2
0009:B17E B7 01        nop
0009:B180 01           nop
0009:B181 C2           or    r2
0009:B182 B7 01        nop
0009:B184 01           nop
0009:B185 C2           or    r2
0009:B186 B7 01        nop
0009:B188 01           nop
0009:B189 C2           or    r2
0009:B18A B7 01        nop
0009:B18C 01           nop
0009:B18D C2           or    r2
0009:B18E B7 01        nop
0009:B190 01           nop
0009:B191 C2           or    r2
0009:B192 B7 01        nop
0009:B194 01           nop
0009:B195 C2           or    r2
0009:B196 B7 01        nop
0009:B198 01           nop
0009:B199 C2           or    r2
0009:B19A B7 01        nop
0009:B19C 01           nop
0009:B19D C2           or    r2
0009:B19E B7 01        nop
0009:B1A0 01           nop
0009:B1A1 C2           or    r2
0009:B1A2 B7 01        nop
0009:B1A4 01           nop
0009:B1A5 D0           inc   r0
0009:B1A6 B7 01        nop
0009:B1A8 01           nop
0009:B1A9 DE           inc   r14
0009:B1AA B7 01        nop
0009:B1AC 01           nop
0009:B1AD EC           dec   r12
0009:B1AE B7 01        nop
0009:B1B0 01           nop
0009:B1B1 FA B7 01     iwt   r10,#01B7
0009:B1B4 01           nop
0009:B1B5 04           rol
0009:B1B6 B8 01        nop
0009:B1B8 01           nop
0009:B1B9 0E B8        bvc   B173
0009:B1BB 01           nop
0009:B1BC 01           nop
0009:B1BD 18 B8 01     nop
0009:B1C0 01           nop
0009:B1C1 22 B8        moves r2,r8
0009:B1C3 01           nop
0009:B1C4 01           nop
0009:B1C5 2C B8        moves r12,r8
0009:B1C7 01           nop
0009:B1C8 01           nop
0009:B1C9 36           stw   (r6)
0009:B1CA B8 01        nop
0009:B1CC 01           nop
0009:B1CD 40           ldw   (r0)
0009:B1CE B8 01        nop
0009:B1D0 01           nop
0009:B1D1 4A           ldw   (r10)
0009:B1D2 B8 01        nop
0009:B1D4 01           nop
0009:B1D5 4A           ldw   (r10)
0009:B1D6 B8 01        nop
0009:B1D8 01           nop
0009:B1D9 77           and   r7
0009:B1DA B8 01        nop
0009:B1DC 01           nop
0009:B1DD 91           link  #01
0009:B1DE B8 01        nop
0009:B1E0 01           nop
0009:B1E1 AC B8        ibt   r12,#FFB8
0009:B1E3 01           nop
0009:B1E4 01           nop
0009:B1E5 AC B8        ibt   r12,#FFB8
0009:B1E7 01           nop
0009:B1E8 01           nop
0009:B1E9 AC B8        ibt   r12,#FFB8
0009:B1EB 01           nop
0009:B1EC 01           nop
0009:B1ED AC B8        ibt   r12,#FFB8
0009:B1EF 01           nop
0009:B1F0 01           nop
0009:B1F1 AC B8        ibt   r12,#FFB8
0009:B1F3 01           nop
0009:B1F4 01           nop
0009:B1F5 AC B8        ibt   r12,#FFB8
0009:B1F7 01           nop
0009:B1F8 01           nop
0009:B1F9 AC B8        ibt   r12,#FFB8
0009:B1FB 01           nop
0009:B1FC 01           nop
0009:B1FD AC B8        ibt   r12,#FFB8
0009:B1FF 01           nop
0009:B200 01           nop
0009:B201 AC B8        ibt   r12,#FFB8
0009:B203 01           nop
0009:B204 01           nop
0009:B205 AC B8        ibt   r12,#FFB8
0009:B207 01           nop
0009:B208 01           nop
0009:B209 AC B8        ibt   r12,#FFB8
0009:B20B 01           nop
0009:B20C 01           nop
0009:B20D AC B8        ibt   r12,#FFB8
0009:B20F 01           nop
0009:B210 01           nop
0009:B211 AC B8        ibt   r12,#FFB8
0009:B213 01           nop
0009:B214 01           nop
0009:B215 AC B8        ibt   r12,#FFB8
0009:B217 01           nop
0009:B218 01           nop
0009:B219 AC B8        ibt   r12,#FFB8
0009:B21B 01           nop
0009:B21C 01           nop
0009:B21D AC B8        ibt   r12,#FFB8
0009:B21F 01           nop
0009:B220 01           nop
0009:B221 BC B8 01     nop
0009:B224 01           nop
0009:B225 BC B8 01     nop
0009:B228 01           nop
0009:B229 CE           or    r14
0009:B22A B9 01        nop
0009:B22C 01           nop
0009:B22D F0 B9 01     iwt   r0,#01B9
0009:B230 01           nop
0009:B231 F0 B9 01     iwt   r0,#01B9
0009:B234 01           nop
0009:B235 F0 B9 01     iwt   r0,#01B9
0009:B238 01           nop
0009:B239 F0 B9 01     iwt   r0,#01B9
0009:B23C 01           nop
0009:B23D F0 B9 01     iwt   r0,#01B9
0009:B240 01           nop
0009:B241 F0 B9 01     iwt   r0,#01B9
0009:B244 01           nop
0009:B245 F0 B9 01     iwt   r0,#01B9
0009:B248 01           nop
0009:B249 F0 B9 01     iwt   r0,#01B9
0009:B24C 01           nop
0009:B24D F0 B9 01     iwt   r0,#01B9
0009:B250 01           nop
0009:B251 F0 B9 01     iwt   r0,#01B9
0009:B254 01           nop
0009:B255 F0 B9 01     iwt   r0,#01B9
0009:B258 01           nop
0009:B259 F0 B9 01     iwt   r0,#01B9
0009:B25C 01           nop
0009:B25D F0 B9 01     iwt   r0,#01B9
0009:B260 01           nop
0009:B261 F4 B9 01     iwt   r4,#01B9
0009:B264 01           nop
0009:B265 84           mult  r4
0009:B266 BA 01        nop
0009:B268 01           nop
0009:B269 84           mult  r4
0009:B26A BA 01        nop
0009:B26C 01           nop
0009:B26D 84           mult  r4
0009:B26E BA 01        nop
0009:B270 01           nop
0009:B271 84           mult  r4
0009:B272 BA 01        nop
0009:B274 01           nop
0009:B275 84           mult  r4
0009:B276 BA 01        nop
0009:B278 01           nop
0009:B279 84           mult  r4
0009:B27A BA 01        nop
0009:B27C 01           nop
0009:B27D 84           mult  r4
0009:B27E BA 01        nop
0009:B280 01           nop
0009:B281 84           mult  r4
0009:B282 BA 01        nop
0009:B284 01           nop
0009:B285 84           mult  r4
0009:B286 BA 01        nop
0009:B288 01           nop
0009:B289 84           mult  r4
0009:B28A BA 01        nop
0009:B28C 01           nop
0009:B28D 84           mult  r4
0009:B28E BA 01        nop
0009:B290 01           nop
0009:B291 84           mult  r4
0009:B292 BA 01        nop
0009:B294 01           nop
0009:B295 84           mult  r4
0009:B296 BA 01        nop
0009:B298 01           nop
0009:B299 84           mult  r4
0009:B29A BA 01        nop
0009:B29C 01           nop
0009:B29D 84           mult  r4
0009:B29E BA 01        nop
0009:B2A0 01           nop
0009:B2A1 84           mult  r4
0009:B2A2 BA 01        nop
0009:B2A4 01           nop
0009:B2A5 84           mult  r4
0009:B2A6 BA 01        nop
0009:B2A8 01           nop
0009:B2A9 84           mult  r4
0009:B2AA BA 01        nop
0009:B2AC 01           nop
0009:B2AD 84           mult  r4
0009:B2AE BA 01        nop
0009:B2B0 01           nop
0009:B2B1 84           mult  r4
0009:B2B2 BA 01        nop
0009:B2B4 01           nop
0009:B2B5 84           mult  r4
0009:B2B6 BA 01        nop
0009:B2B8 01           nop
0009:B2B9 84           mult  r4
0009:B2BA BA 01        nop
0009:B2BC 01           nop
0009:B2BD 84           mult  r4
0009:B2BE BA 01        nop
0009:B2C0 01           nop
0009:B2C1 84           mult  r4
0009:B2C2 BA 01        nop
0009:B2C4 01           nop
0009:B2C5 84           mult  r4
0009:B2C6 BA 01        nop
0009:B2C8 01           nop
0009:B2C9 84           mult  r4
0009:B2CA BA 01        nop
0009:B2CC 01           nop
0009:B2CD 84           mult  r4
0009:B2CE BA 01        nop
0009:B2D0 01           nop
0009:B2D1 84           mult  r4
0009:B2D2 BA 01        nop
0009:B2D4 01           nop
0009:B2D5 84           mult  r4
0009:B2D6 BA 01        nop
0009:B2D8 01           nop
0009:B2D9 84           mult  r4
0009:B2DA BA 01        nop
0009:B2DC 01           nop
0009:B2DD 84           mult  r4
0009:B2DE BA 01        nop
0009:B2E0 01           nop
0009:B2E1 84           mult  r4
0009:B2E2 BA 01        nop
0009:B2E4 01           nop
0009:B2E5 84           mult  r4
0009:B2E6 BA 01        nop
0009:B2E8 01           nop
0009:B2E9 84           mult  r4
0009:B2EA BA 01        nop
0009:B2EC 01           nop
0009:B2ED 84           mult  r4
0009:B2EE BA 01        nop
0009:B2F0 01           nop
0009:B2F1 84           mult  r4
0009:B2F2 BA 01        nop
0009:B2F4 01           nop
0009:B2F5 84           mult  r4
0009:B2F6 BA 01        nop
0009:B2F8 01           nop
0009:B2F9 84           mult  r4
0009:B2FA BA 01        nop
0009:B2FC 01           nop
0009:B2FD 84           mult  r4
0009:B2FE BA 01        nop
0009:B300 01           nop
0009:B301 84           mult  r4
0009:B302 BA 01        nop
0009:B304 01           nop
0009:B305 84           mult  r4
0009:B306 BA 01        nop
0009:B308 01           nop
0009:B309 84           mult  r4
0009:B30A BA 01        nop
0009:B30C 01           nop
0009:B30D 84           mult  r4
0009:B30E BA 01        nop
0009:B310 01           nop
0009:B311 84           mult  r4
0009:B312 BA 01        nop
0009:B314 01           nop
0009:B315 84           mult  r4
0009:B316 BA 01        nop
0009:B318 01           nop
0009:B319 84           mult  r4
0009:B31A BA 01        nop
0009:B31C 01           nop
0009:B31D 84           mult  r4
0009:B31E BA 01        nop
0009:B320 01           nop
0009:B321 84           mult  r4
0009:B322 BA 01        nop
0009:B324 01           nop
0009:B325 84           mult  r4
0009:B326 BA 01        nop
0009:B328 01           nop
0009:B329 84           mult  r4
0009:B32A BA 01        nop
0009:B32C 01           nop
0009:B32D 84           mult  r4
0009:B32E BA 01        nop
0009:B330 01           nop
0009:B331 84           mult  r4
0009:B332 BA 01        nop
0009:B334 01           nop
0009:B335 84           mult  r4
0009:B336 BA 01        nop
0009:B338 01           nop
0009:B339 84           mult  r4
0009:B33A BA 01        nop
0009:B33C 01           nop
0009:B33D 84           mult  r4
0009:B33E BA 01        nop
0009:B340 01           nop
0009:B341 84           mult  r4
0009:B342 BA 01        nop
0009:B344 01           nop
0009:B345 84           mult  r4
0009:B346 BA 01        nop
0009:B348 01           nop
0009:B349 84           mult  r4
0009:B34A BA 01        nop
0009:B34C 01           nop
0009:B34D 84           mult  r4
0009:B34E BA 01        nop
0009:B350 01           nop
0009:B351 84           mult  r4
0009:B352 BA 01        nop
0009:B354 01           nop
0009:B355 84           mult  r4
0009:B356 BA 01        nop
0009:B358 01           nop
0009:B359 84           mult  r4
0009:B35A BA 01        nop
0009:B35C 01           nop
0009:B35D 84           mult  r4
0009:B35E BA 01        nop
0009:B360 01           nop
0009:B361 84           mult  r4
0009:B362 BA 01        nop
0009:B364 01           nop
0009:B365 84           mult  r4
0009:B366 BA 01        nop
0009:B368 01           nop
0009:B369 84           mult  r4
0009:B36A BA 01        nop
0009:B36C 01           nop
0009:B36D 84           mult  r4
0009:B36E BA 01        nop
0009:B370 01           nop
0009:B371 84           mult  r4
0009:B372 BA 01        nop
0009:B374 01           nop
0009:B375 84           mult  r4
0009:B376 BA 01        nop
0009:B378 01           nop
0009:B379 84           mult  r4
0009:B37A BA 01        nop
0009:B37C 01           nop
0009:B37D 84           mult  r4
0009:B37E BA 01        nop
0009:B380 01           nop
0009:B381 84           mult  r4
0009:B382 BA 01        nop
0009:B384 01           nop
0009:B385 84           mult  r4
0009:B386 BA 01        nop
0009:B388 01           nop
0009:B389 84           mult  r4
0009:B38A BA 01        nop
0009:B38C 01           nop
0009:B38D 84           mult  r4
0009:B38E BA 01        nop
0009:B390 01           nop
0009:B391 84           mult  r4
0009:B392 BA 01        nop
0009:B394 01           nop
0009:B395 84           mult  r4
0009:B396 BA 01        nop
0009:B398 01           nop
0009:B399 84           mult  r4
0009:B39A BA 01        nop
0009:B39C 01           nop
0009:B39D 84           mult  r4
0009:B39E BA 01        nop
0009:B3A0 01           nop
0009:B3A1 84           mult  r4
0009:B3A2 BA 01        nop
0009:B3A4 01           nop
0009:B3A5 84           mult  r4
0009:B3A6 BA 01        nop
0009:B3A8 01           nop
0009:B3A9 84           mult  r4
0009:B3AA BA 01        nop
0009:B3AC 01           nop
0009:B3AD 84           mult  r4
0009:B3AE BA 01        nop
0009:B3B0 01           nop
0009:B3B1 84           mult  r4
0009:B3B2 BA 01        nop
0009:B3B4 01           nop
0009:B3B5 84           mult  r4
0009:B3B6 BA 01        nop
0009:B3B8 01           nop
0009:B3B9 84           mult  r4
0009:B3BA BA 01        nop
0009:B3BC 01           nop
0009:B3BD 84           mult  r4
0009:B3BE BA 01        nop
0009:B3C0 01           nop
0009:B3C1 84           mult  r4
0009:B3C2 BA 01        nop
0009:B3C4 01           nop
0009:B3C5 84           mult  r4
0009:B3C6 BA 01        nop
0009:B3C8 01           nop
0009:B3C9 84           mult  r4
0009:B3CA BA 01        nop
0009:B3CC 01           nop
0009:B3CD 84           mult  r4
0009:B3CE BA 01        nop
0009:B3D0 01           nop
0009:B3D1 84           mult  r4
0009:B3D2 BA 01        nop
0009:B3D4 01           nop
0009:B3D5 84           mult  r4
0009:B3D6 BA 01        nop
0009:B3D8 01           nop
0009:B3D9 84           mult  r4
0009:B3DA BA 01        nop
0009:B3DC 01           nop
0009:B3DD 84           mult  r4
0009:B3DE BA 01        nop
0009:B3E0 01           nop
0009:B3E1 84           mult  r4
0009:B3E2 BA 01        nop
0009:B3E4 01           nop
0009:B3E5 84           mult  r4
0009:B3E6 BA 01        nop
0009:B3E8 01           nop
0009:B3E9 84           mult  r4
0009:B3EA BA 01        nop
0009:B3EC 01           nop
0009:B3ED 84           mult  r4
0009:B3EE BA 01        nop
0009:B3F0 01           nop
0009:B3F1 84           mult  r4
0009:B3F2 BA 01        nop
0009:B3F4 01           nop
0009:B3F5 84           mult  r4
0009:B3F6 BA 01        nop
0009:B3F8 01           nop
0009:B3F9 84           mult  r4
0009:B3FA BA 01        nop
0009:B3FC 01           nop
0009:B3FD 84           mult  r4
0009:B3FE BA 01        nop
0009:B400 01           nop
0009:B401 84           mult  r4
0009:B402 BA 01        nop
0009:B404 01           nop
0009:B405 84           mult  r4
0009:B406 BA 01        nop
0009:B408 01           nop
0009:B409 84           mult  r4
0009:B40A BA 01        nop
0009:B40C 01           nop
0009:B40D 84           mult  r4
0009:B40E BA 01        nop
0009:B410 01           nop
0009:B411 84           mult  r4
0009:B412 BA 01        nop
0009:B414 01           nop
0009:B415 84           mult  r4
0009:B416 BA 01        nop
0009:B418 01           nop
0009:B419 84           mult  r4
0009:B41A BA 01        nop
0009:B41C 01           nop
0009:B41D 84           mult  r4
0009:B41E BA 01        nop
0009:B420 01           nop
0009:B421 84           mult  r4
0009:B422 BA 01        nop
0009:B424 01           nop
0009:B425 84           mult  r4
0009:B426 BA 01        nop
0009:B428 01           nop
0009:B429 84           mult  r4
0009:B42A BA 01        nop
0009:B42C 01           nop
0009:B42D 84           mult  r4
0009:B42E BA 01        nop
0009:B430 01           nop
0009:B431 84           mult  r4
0009:B432 BA 01        nop
0009:B434 01           nop
0009:B435 84           mult  r4
0009:B436 BA 01        nop
0009:B438 01           nop
0009:B439 84           mult  r4
0009:B43A BA 01        nop
0009:B43C 01           nop
0009:B43D 84           mult  r4
0009:B43E BA 01        nop
0009:B440 01           nop
0009:B441 84           mult  r4
0009:B442 BA 01        nop
0009:B444 01           nop
0009:B445 84           mult  r4
0009:B446 BA 01        nop
0009:B448 01           nop
0009:B449 84           mult  r4
0009:B44A BA 01        nop
0009:B44C 01           nop
0009:B44D 84           mult  r4
0009:B44E BA 01        nop
0009:B450 01           nop
0009:B451 84           mult  r4
0009:B452 BA 01        nop
0009:B454 01           nop
0009:B455 84           mult  r4
0009:B456 BA 01        nop
0009:B458 01           nop
0009:B459 84           mult  r4
0009:B45A BA 01        nop
0009:B45C 01           nop
0009:B45D 84           mult  r4
0009:B45E BA 01        nop
0009:B460 01           nop
0009:B461 84           mult  r4
0009:B462 BA 01        nop
0009:B464 01           nop
0009:B465 84           mult  r4
0009:B466 BA 01        nop
0009:B468 01           nop
0009:B469 84           mult  r4
0009:B46A BA 01        nop
0009:B46C 01           nop
0009:B46D 84           mult  r4
0009:B46E BA 01        nop
0009:B470 01           nop
0009:B471 84           mult  r4
0009:B472 BA 01        nop
0009:B474 01           nop
0009:B475 84           mult  r4
0009:B476 BA 01        nop
0009:B478 01           nop
0009:B479 84           mult  r4
0009:B47A BA 01        nop
0009:B47C 01           nop
0009:B47D 84           mult  r4
0009:B47E BA 01        nop
0009:B480 01           nop
0009:B481 84           mult  r4
0009:B482 BA 01        nop
0009:B484 01           nop
0009:B485 84           mult  r4
0009:B486 BA 01        nop
0009:B488 01           nop
0009:B489 84           mult  r4
0009:B48A BA 01        nop
0009:B48C 01           nop
0009:B48D 84           mult  r4
0009:B48E BA 01        nop
0009:B490 01           nop
0009:B491 84           mult  r4
0009:B492 BA 01        nop
0009:B494 01           nop
0009:B495 84           mult  r4
0009:B496 BA 01        nop
0009:B498 01           nop
0009:B499 84           mult  r4
0009:B49A BA 01        nop
0009:B49C 01           nop
0009:B49D 84           mult  r4
0009:B49E BA 01        nop
0009:B4A0 01           nop
0009:B4A1 84           mult  r4
0009:B4A2 BA 01        nop
0009:B4A4 01           nop
0009:B4A5 84           mult  r4
0009:B4A6 BA 01        nop
0009:B4A8 01           nop
0009:B4A9 84           mult  r4
0009:B4AA BA 01        nop
0009:B4AC 01           nop
0009:B4AD 84           mult  r4
0009:B4AE BA 01        nop
0009:B4B0 01           nop
0009:B4B1 84           mult  r4
0009:B4B2 BA 01        nop
0009:B4B4 01           nop
0009:B4B5 84           mult  r4
0009:B4B6 BA 01        nop
0009:B4B8 01           nop
0009:B4B9 84           mult  r4
0009:B4BA BA 01        nop
0009:B4BC 01           nop
0009:B4BD 84           mult  r4
0009:B4BE BA 01        nop
0009:B4C0 01           nop
0009:B4C1 84           mult  r4
0009:B4C2 BA 01        nop
0009:B4C4 01           nop
0009:B4C5 84           mult  r4
0009:B4C6 BA 01        nop
0009:B4C8 01           nop
0009:B4C9 84           mult  r4
0009:B4CA BA 01        nop
0009:B4CC 01           nop
0009:B4CD 84           mult  r4
0009:B4CE BA 01        nop
0009:B4D0 01           nop
0009:B4D1 84           mult  r4
0009:B4D2 BA 01        nop
0009:B4D4 01           nop
0009:B4D5 84           mult  r4
0009:B4D6 BA 01        nop
0009:B4D8 01           nop
0009:B4D9 84           mult  r4
0009:B4DA BA 01        nop
0009:B4DC 01           nop
0009:B4DD 84           mult  r4
0009:B4DE BA 01        nop
0009:B4E0 01           nop
0009:B4E1 00           stop
0009:B4E2 01           nop
0009:B4E3 3D F0 82 40  lm    r0,(4082)
0009:B4E7 50           add   r0
0009:B4E8 50           add   r0
0009:B4E9 3D F1 80 40  lm    r1,(4080)
0009:B4ED C1           or    r1
0009:B4EE 50           add   r0
0009:B4EF 50           add   r0
0009:B4F0 D0           inc   r0
0009:B4F1 1F 5F        add   r15
0009:B4F3 FF 34 B5     iwt   r15,#B534
0009:B4F6 01           nop
0009:B4F7 01           nop
0009:B4F8 C4           or    r4
0009:B4F9 B5 01        nop
0009:B4FB 01           nop
0009:B4FC C4           or    r4
0009:B4FD B5 01        nop
0009:B4FF 01           nop
0009:B500 C4           or    r4
0009:B501 B5 01        nop
0009:B503 01           nop
0009:B504 C4           or    r4
0009:B505 B5 01        nop
0009:B507 01           nop
0009:B508 C4           or    r4
0009:B509 B5 01        nop
0009:B50B 01           nop
0009:B50C C4           or    r4
0009:B50D B5 01        nop
0009:B50F 01           nop
0009:B510 C4           or    r4
0009:B511 B5 01        nop
0009:B513 01           nop
0009:B514 C4           or    r4
0009:B515 B5 01        nop
0009:B517 01           nop
0009:B518 C4           or    r4
0009:B519 B5 01        nop
0009:B51B 01           nop
0009:B51C C4           or    r4
0009:B51D B5 01        nop
0009:B51F 01           nop
0009:B520 C4           or    r4
0009:B521 B5 01        nop
0009:B523 01           nop
0009:B524 C4           or    r4
0009:B525 B5 01        nop
0009:B527 01           nop
0009:B528 C4           or    r4
0009:B529 B5 01        nop
0009:B52B 01           nop
0009:B52C C4           or    r4
0009:B52D B5 01        nop
0009:B52F 01           nop
0009:B530 C4           or    r4
0009:B531 B5 01        nop
0009:B533 01           nop
0009:B534 02           cache
0009:B535 3D F0 72 40  lm    r0,(4072)
0009:B539 9E           lob
0009:B53A 3F 8C        umult #0C
0009:B53C F1 2F BD     iwt   r1,#BD2F
0009:B53F 1E 51        add   r1
0009:B541 3D F0 86 40  lm    r0,(4086)
0009:B545 12 3E 53     add   #03
0009:B548 3D F3 84 40  lm    r3,(4084)
0009:B54C AC 0C        ibt   r12,#000C
0009:B54E 2F 1D        move  r13,r15
0009:B550 23 11        move  r1,r3
0009:B552 EF           getb
0009:B553 DE           inc   r14
0009:B554 4D           swap
0009:B555 50           add   r0
0009:B556 0C 03        bcc   B55B
0009:B558 D1           inc   r1
0009:B559 E1           dec   r1
0009:B55A 4C           plot
0009:B55B 50           add   r0
0009:B55C 0C 03        bcc   B561
0009:B55E D1           inc   r1
0009:B55F E1           dec   r1
0009:B560 4C           plot
0009:B561 50           add   r0
0009:B562 0C 03        bcc   B567
0009:B564 D1           inc   r1
0009:B565 E1           dec   r1
0009:B566 4C           plot
0009:B567 50           add   r0
0009:B568 0C 03        bcc   B56D
0009:B56A D1           inc   r1
0009:B56B E1           dec   r1
0009:B56C 4C           plot
0009:B56D 50           add   r0
0009:B56E 0C 03        bcc   B573
0009:B570 D1           inc   r1
0009:B571 E1           dec   r1
0009:B572 4C           plot
0009:B573 50           add   r0
0009:B574 0C 03        bcc   B579
0009:B576 D1           inc   r1
0009:B577 E1           dec   r1
0009:B578 4C           plot
0009:B579 50           add   r0
0009:B57A 0C 03        bcc   B57F
0009:B57C D1           inc   r1
0009:B57D E1           dec   r1
0009:B57E 4C           plot
0009:B57F 50           add   r0
0009:B580 0C 03        bcc   B585
0009:B582 D1           inc   r1
0009:B583 E1           dec   r1
0009:B584 4C           plot
0009:B585 3C           loop
0009:B586 D2           inc   r2
0009:B587 3D 4C        rpix
0009:B589 3D F0 7C 40  lm    r0,(407C)
0009:B58D D0           inc   r0
0009:B58E 90           sbk
0009:B58F 3D F0 72 40  lm    r0,(4072)
0009:B593 9E           lob
0009:B594 F1 2F BC     iwt   r1,#BC2F
0009:B597 1E 51        add   r1
0009:B599 EF           getb
0009:B59A 11 53        add   r3
0009:B59C F0 82 00     iwt   r0,#0082
0009:B59F B1 60        sub   r0
0009:B5A1 0C 19        bcc   B5BC
0009:B5A3 01           nop
0009:B5A4 A1 00        ibt   r1,#0000
0009:B5A6 3D F0 86 40  lm    r0,(4086)
0009:B5AA D0           inc   r0
0009:B5AB 12 3E 5F     add   #0F
0009:B5AE F0 40 00     iwt   r0,#0040
0009:B5B1 B2 60        sub   r0
0009:B5B3 0C 03        bcc   B5B8
0009:B5B5 01           nop
0009:B5B6 A2 10        ibt   r2,#0010
0009:B5B8 3E F2 86 40  sm    (4086),r2
0009:B5BC 3E F1 84 40  sm    (4084),r1
0009:B5C0 FF 9F B0     iwt   r15,#B09F
0009:B5C3 01           nop
0009:B5C4 02           cache
0009:B5C5 3D F5 80 40  lm    r5,(4080)
0009:B5C9 D5           inc   r5
0009:B5CA 3D F6 82 40  lm    r6,(4082)
0009:B5CE D6           inc   r6
0009:B5CF 3D F4 86 40  lm    r4,(4086)
0009:B5D3 B6 3F 83     umult #03
0009:B5D6 14 54        add   r4
0009:B5D8 3D F9 84 40  lm    r9,(4084)
0009:B5DC 3D F0 72 40  lm    r0,(4072)
0009:B5E0 9E           lob
0009:B5E1 3F 8C        umult #0C
0009:B5E3 F1 2F BD     iwt   r1,#BD2F
0009:B5E6 1E 51        add   r1
0009:B5E8 FD F5 B5     iwt   r13,#B5F5
0009:B5EB AB 0C        ibt   r11,#000C
0009:B5ED EF           getb
0009:B5EE DE           inc   r14
0009:B5EF 1A 4D        swap
0009:B5F1 AC 08        ibt   r12,#0008
0009:B5F3 A3 00        ibt   r3,#0000
0009:B5F5 2A 5A        add   r10
0009:B5F7 0C 14        bcc   B60D
0009:B5F9 01           nop
0009:B5FA B9 17 53     add   r3
0009:B5FD 24 12        move  r2,r4
0009:B5FF 26 18        move  r8,r6
0009:B601 27 11        move  r1,r7
0009:B603 25 10        move  r0,r5
0009:B605 E0           dec   r0
0009:B606 08 FD        bne   B605
0009:B608 4C           plot
0009:B609 E8           dec   r8
0009:B60A 08 F5        bne   B601
0009:B60C D2           inc   r2
0009:B60D 23 55        add   r5
0009:B60F 3C           loop
0009:B610 01           nop
0009:B611 24 56        add   r6
0009:B613 EB           dec   r11
0009:B614 08 D7        bne   B5ED
0009:B616 01           nop
0009:B617 3D 4C        rpix
0009:B619 3D F0 7C 40  lm    r0,(407C)
0009:B61D D0           inc   r0
0009:B61E 90           sbk
0009:B61F 3D F0 72 40  lm    r0,(4072)
0009:B623 9E           lob
0009:B624 F1 2F BC     iwt   r1,#BC2F
0009:B627 1E 51        add   r1
0009:B629 EF           getb
0009:B62A 3D 85        umult r5
0009:B62C 11 59        add   r9
0009:B62E F0 82 00     iwt   r0,#0082
0009:B631 B1 60        sub   r0
0009:B633 0C 1A        bcc   B64F
0009:B635 01           nop
0009:B636 A1 00        ibt   r1,#0000
0009:B638 3D F0 86 40  lm    r0,(4086)
0009:B63C A2 10        ibt   r2,#0010
0009:B63E 22 3D 86     umult r6
0009:B641 F0 40 00     iwt   r0,#0040
0009:B644 B2 60        sub   r0
0009:B646 0C 03        bcc   B64B
0009:B648 01           nop
0009:B649 A2 10        ibt   r2,#0010
0009:B64B 3E F2 86 40  sm    (4086),r2
0009:B64F 3E F1 84 40  sm    (4084),r1
0009:B653 FF 9F B0     iwt   r15,#B09F
0009:B656 01           nop
0009:B657 F1 00 4E     iwt   r1,#4E00
0009:B65A FC 00 05     iwt   r12,#0500
0009:B65D 05 25        bra   B684
0009:B65F 01           nop
0009:B660 F1 00 4E     iwt   r1,#4E00
0009:B663 FC 00 01     iwt   r12,#0100
0009:B666 05 1C        bra   B684
0009:B668 01           nop
0009:B669 F1 00 50     iwt   r1,#5000
0009:B66C FC 00 01     iwt   r12,#0100
0009:B66F 05 13        bra   B684
0009:B671 01           nop
0009:B672 F1 00 52     iwt   r1,#5200
0009:B675 FC 00 01     iwt   r12,#0100
0009:B678 05 0A        bra   B684
0009:B67A 01           nop
0009:B67B F1 00 54     iwt   r1,#5400
0009:B67E FC 00 01     iwt   r12,#0100
0009:B681 05 01        bra   B684
0009:B683 01           nop
0009:B684 F0 FF 00     iwt   r0,#00FF
0009:B687 2F 1D        move  r13,r15
0009:B689 31           stw   (r1)
0009:B68A D1           inc   r1
0009:B68B 3C           loop
0009:B68C D1           inc   r1
0009:B68D FF 8E BA     iwt   r15,#BA8E
0009:B690 01           nop
0009:B691 A0 00        ibt   r0,#0000
0009:B693 3E F0 84 40  sm    (4084),r0
0009:B697 A0 10        ibt   r0,#0010
0009:B699 3E F0 86 40  sm    (4086),r0
0009:B69D FF 8E BA     iwt   r15,#BA8E
0009:B6A0 01           nop
0009:B6A1 A0 00        ibt   r0,#0000
0009:B6A3 3E F0 84 40  sm    (4084),r0
0009:B6A7 A0 20        ibt   r0,#0020
0009:B6A9 3E F0 86 40  sm    (4086),r0
0009:B6AD FF 8E BA     iwt   r15,#BA8E
0009:B6B0 01           nop
0009:B6B1 A0 00        ibt   r0,#0000
0009:B6B3 3E F0 84 40  sm    (4084),r0
0009:B6B7 A0 30        ibt   r0,#0030
0009:B6B9 3E F0 86 40  sm    (4086),r0
0009:B6BD FF 8E BA     iwt   r15,#BA8E
0009:B6C0 01           nop
0009:B6C1 A0 00        ibt   r0,#0000
0009:B6C3 3E F0 84 40  sm    (4084),r0
0009:B6C7 A0 40        ibt   r0,#0040
0009:B6C9 3E F0 86 40  sm    (4086),r0
0009:B6CD FF 8E BA     iwt   r15,#BA8E
0009:B6D0 01           nop
0009:B6D1 3D F0 86 40  lm    r0,(4086)
0009:B6D5 A1 40        ibt   r1,#0040
0009:B6D7 D0           inc   r0
0009:B6D8 3E 5F        add   #0F
0009:B6DA 3F 61        cmp   r1
0009:B6DC 0C 03        bcc   B6E1
0009:B6DE 01           nop
0009:B6DF A0 10        ibt   r0,#0010
0009:B6E1 90           sbk
0009:B6E2 FF 8E BA     iwt   r15,#BA8E
0009:B6E5 01           nop
0009:B6E6 F0 C0 04     iwt   r0,#04C0
0009:B6E9 3D F1 76 40  lm    r1,(4076)
0009:B6ED 71           and   r1
0009:B6EE 09 06        beq   B6F6
0009:B6F0 01           nop
0009:B6F1 A0 5C        ibt   r0,#005C
0009:B6F3 3E A0 3D     sms   (007A),r0
0009:B6F6 F0 C0 04     iwt   r0,#04C0
0009:B6F9 3D F1 76 40  lm    r1,(4076)
0009:B6FD 71           and   r1
0009:B6FE 09 08        beq   B708
0009:B700 01           nop
0009:B701 3D F0 7C 40  lm    r0,(407C)
0009:B705 D0           inc   r0
0009:B706 D0           inc   r0
0009:B707 90           sbk
0009:B708 FF E1 B4     iwt   r15,#B4E1
0009:B70B 01           nop
0009:B70C F1 00 56     iwt   r1,#5600
0009:B70F FC 00 01     iwt   r12,#0100
0009:B712 F0 FF 00     iwt   r0,#00FF
0009:B715 2F 1D        move  r13,r15
0009:B717 31           stw   (r1)
0009:B718 D1           inc   r1
0009:B719 3C           loop
0009:B71A D1           inc   r1
0009:B71B A0 00        ibt   r0,#0000
0009:B71D 3E F0 84 40  sm    (4084),r0
0009:B721 A0 50        ibt   r0,#0050
0009:B723 3E F0 86 40  sm    (4086),r0
0009:B727 FF 8E BA     iwt   r15,#BA8E
0009:B72A 01           nop
0009:B72B FC 00 01     iwt   r12,#0100
0009:B72E F1 00 4E     iwt   r1,#4E00
0009:B731 F2 00 50     iwt   r2,#5000
0009:B734 F3 00 52     iwt   r3,#5200
0009:B737 F4 00 54     iwt   r4,#5400
0009:B73A F5 FF 00     iwt   r5,#00FF
0009:B73D 2F 1D        move  r13,r15
0009:B73F 42           ldw   (r2)
0009:B740 31           stw   (r1)
0009:B741 D1           inc   r1
0009:B742 D1           inc   r1
0009:B743 43           ldw   (r3)
0009:B744 32           stw   (r2)
0009:B745 D2           inc   r2
0009:B746 D2           inc   r2
0009:B747 44           ldw   (r4)
0009:B748 33           stw   (r3)
0009:B749 D3           inc   r3
0009:B74A D3           inc   r3
0009:B74B B5 34        stw   (r4)
0009:B74D D4           inc   r4
0009:B74E 3C           loop
0009:B74F D4           inc   r4
0009:B750 FF 8E BA     iwt   r15,#BA8E
0009:B753 01           nop
0009:B754 F0 01 00     iwt   r0,#0001
0009:B757 FF 6D B7     iwt   r15,#B76D
0009:B75A 01           nop
0009:B75B A0 02        ibt   r0,#0002
0009:B75D FF 6D B7     iwt   r15,#B76D
0009:B760 01           nop
0009:B761 A0 03        ibt   r0,#0003
0009:B763 FF 6D B7     iwt   r15,#B76D
0009:B766 01           nop
0009:B767 A0 04        ibt   r0,#0004
0009:B769 FF 6D B7     iwt   r15,#B76D
0009:B76C 01           nop
0009:B76D 3D 50        adc   r0
0009:B76F F1 00 4E     iwt   r1,#4E00
0009:B772 21 12        move  r2,r1
0009:B774 12 3D 52     adc   r2
0009:B777 A5 10        ibt   r5,#0010
0009:B779 F6 00 58     iwt   r6,#5800
0009:B77C FD 85 B7     iwt   r13,#B785
0009:B77F 25 1C        move  r12,r5
0009:B781 22 14        move  r4,r2
0009:B783 21 13        move  r3,r1
0009:B785 44           ldw   (r4)
0009:B786 33           stw   (r3)
0009:B787 24 3D 55     adc   r5
0009:B78A 23 3D 55     adc   r5
0009:B78D 3C           loop
0009:B78E 01           nop
0009:B78F D2           inc   r2
0009:B790 D2           inc   r2
0009:B791 B5 72        and   r2
0009:B793 09 0B        beq   B7A0
0009:B795 01           nop
0009:B796 F0 00 FF     iwt   r0,#FF00
0009:B799 72           and   r2
0009:B79A F2 00 01     iwt   r2,#0100
0009:B79D 12 3D 52     adc   r2
0009:B7A0 D1           inc   r1
0009:B7A1 D1           inc   r1
0009:B7A2 B5 71        and   r1
0009:B7A4 09 0B        beq   B7B1
0009:B7A6 01           nop
0009:B7A7 F0 00 FF     iwt   r0,#FF00
0009:B7AA 71           and   r1
0009:B7AB F1 00 01     iwt   r1,#0100
0009:B7AE 11 3D 51     adc   r1
0009:B7B1 B1 3F 66     cmp   r6
0009:B7B4 0C C9        bcc   B77F
0009:B7B6 01           nop
0009:B7B7 3D F0 7C 40  lm    r0,(407C)
0009:B7BB D0           inc   r0
0009:B7BC D0           inc   r0
0009:B7BD 90           sbk
0009:B7BE FF E1 B4     iwt   r15,#B4E1
0009:B7C1 01           nop
0009:B7C2 A0 00        ibt   r0,#0000
0009:B7C4 3E F0 80 40  sm    (4080),r0
0009:B7C8 3E F0 82 40  sm    (4082),r0
0009:B7CC FF 8E BA     iwt   r15,#BA8E
0009:B7CF 01           nop
0009:B7D0 A0 01        ibt   r0,#0001
0009:B7D2 3E F0 80 40  sm    (4080),r0
0009:B7D6 3E F0 82 40  sm    (4082),r0
0009:B7DA FF 8E BA     iwt   r15,#BA8E
0009:B7DD 01           nop
0009:B7DE A0 02        ibt   r0,#0002
0009:B7E0 3E F0 80 40  sm    (4080),r0
0009:B7E4 3E F0 82 40  sm    (4082),r0
0009:B7E8 FF 8E BA     iwt   r15,#BA8E
0009:B7EB 01           nop
0009:B7EC A0 03        ibt   r0,#0003
0009:B7EE 3E F0 80 40  sm    (4080),r0
0009:B7F2 3E F0 82 40  sm    (4082),r0
0009:B7F6 FF 8E BA     iwt   r15,#BA8E
0009:B7F9 01           nop
0009:B7FA A0 00        ibt   r0,#0000
0009:B7FC 3E F0 82 40  sm    (4082),r0
0009:B800 FF 8E BA     iwt   r15,#BA8E
0009:B803 01           nop
0009:B804 A0 01        ibt   r0,#0001
0009:B806 3E F0 82 40  sm    (4082),r0
0009:B80A FF 8E BA     iwt   r15,#BA8E
0009:B80D 01           nop
0009:B80E A0 02        ibt   r0,#0002
0009:B810 3E F0 82 40  sm    (4082),r0
0009:B814 FF 8E BA     iwt   r15,#BA8E
0009:B817 01           nop
0009:B818 A0 03        ibt   r0,#0003
0009:B81A 3E F0 82 40  sm    (4082),r0
0009:B81E FF 8E BA     iwt   r15,#BA8E
0009:B821 01           nop
0009:B822 A0 00        ibt   r0,#0000
0009:B824 3E F0 80 40  sm    (4080),r0
0009:B828 FF 8E BA     iwt   r15,#BA8E
0009:B82B 01           nop
0009:B82C A0 01        ibt   r0,#0001
0009:B82E 3E F0 80 40  sm    (4080),r0
0009:B832 FF 8E BA     iwt   r15,#BA8E
0009:B835 01           nop
0009:B836 A0 02        ibt   r0,#0002
0009:B838 3E F0 80 40  sm    (4080),r0
0009:B83C FF 8E BA     iwt   r15,#BA8E
0009:B83F 01           nop
0009:B840 A0 03        ibt   r0,#0003
0009:B842 3E F0 80 40  sm    (4080),r0
0009:B846 FF 8E BA     iwt   r15,#BA8E
0009:B849 01           nop
0009:B84A F6 A0 00     iwt   r6,#00A0
0009:B84D F5 D0 00     iwt   r5,#00D0
0009:B850 A1 64        ibt   r1,#0064
0009:B852 A2 0A        ibt   r2,#000A
0009:B854 A3 00        ibt   r3,#0000
0009:B856 A4 00        ibt   r4,#0000
0009:B858 3D F0 9A 40  lm    r0,(409A)
0009:B85C 61           sub   r1
0009:B85D 0A FD        bpl   B85C
0009:B85F D3           inc   r3
0009:B860 51           add   r1
0009:B861 E3           dec   r3
0009:B862 09 04        beq   B868
0009:B864 01           nop
0009:B865 B6 15 53     add   r3
0009:B868 62           sub   r2
0009:B869 0A FD        bpl   B868
0009:B86B D4           inc   r4
0009:B86C E4           dec   r4
0009:B86D 52           add   r2
0009:B86E 4D           swap
0009:B86F C4           or    r4
0009:B870 3E F0 9C 40  sm    (409C),r0
0009:B874 05 25        bra   B89B
0009:B876 01           nop
0009:B877 3D F0 9C 40  lm    r0,(409C)
0009:B87B F4 A0 00     iwt   r4,#00A0
0009:B87E F5 D0 00     iwt   r5,#00D0
0009:B881 3D F1 9A 40  lm    r1,(409A)
0009:B885 A2 0A        ibt   r2,#000A
0009:B887 B1 3F 62     cmp   r2
0009:B88A 0C 0F        bcc   B89B
0009:B88C 15 54        add   r4
0009:B88E 05 0B        bra   B89B
0009:B890 01           nop
0009:B891 3D F0 9C 40  lm    r0,(409C)
0009:B895 C0           hib
0009:B896 F4 A0 00     iwt   r4,#00A0
0009:B899 15 54        add   r4
0009:B89B 3E F5 72 40  sm    (4072),r5
0009:B89F 3D F0 7C 40  lm    r0,(407C)
0009:B8A3 D0           inc   r0
0009:B8A4 3E F0 7C 40  sm    (407C),r0
0009:B8A8 FF E3 B4     iwt   r15,#B4E3
0009:B8AB 01           nop
0009:B8AC FF E1 B4     iwt   r15,#B4E1
0009:B8AF 01           nop
0009:B8B0 07 40        blt   B8F2
0009:B8B2 02           cache
0009:B8B3 20 34        stw   (r4)
0009:B8B5 40           ldw   (r0)
0009:B8B6 02           cache
0009:B8B7 30           stw   (r0)
0009:B8B8 02           cache
0009:B8B9 08 01        bne   B8BC
0009:B8BB 04           rol
0009:B8BC 3D F1 76 40  lm    r1,(4076)
0009:B8C0 21 4D        swap
0009:B8C2 F0 C0 C0     iwt   r0,#C0C0
0009:B8C5 71           and   r1
0009:B8C6 09 22        beq   B8EA
0009:B8C8 01           nop
0009:B8C9 A1 43        ibt   r1,#0043
0009:B8CB 3D F0 94 40  lm    r0,(4094)
0009:B8CF 3E 71        and   #01
0009:B8D1 09 09        beq   B8DC
0009:B8D3 01           nop
0009:B8D4 A1 2E        ibt   r1,#002E
0009:B8D6 A0 02        ibt   r0,#0002
0009:B8D8 3E F0 6E 40  sm    (406E),r0
0009:B8DC 3E A1 3D     sms   (007A),r1
0009:B8DF 3D F0 7C 40  lm    r0,(407C)
0009:B8E3 D0           inc   r0
0009:B8E4 D0           inc   r0
0009:B8E5 90           sbk
0009:B8E6 FF E1 B4     iwt   r15,#B4E1
0009:B8E9 01           nop
0009:B8EA 3D F0 72 40  lm    r0,(4072)
0009:B8EE 4D           swap
0009:B8EF 3E 71        and   #01
0009:B8F1 FE B8 B8     iwt   r14,#B8B8
0009:B8F4 1E 5E        add   r14
0009:B8F6 EF           getb
0009:B8F7 71           and   r1
0009:B8F8 09 60        beq   B95A
0009:B8FA 01           nop
0009:B8FB A0 5C        ibt   r0,#005C
0009:B8FD 3E A0 3D     sms   (007A),r0
0009:B900 A0 00        ibt   r0,#0000
0009:B902 3E F0 94 40  sm    (4094),r0
0009:B906 F0 D4 00     iwt   r0,#00D4
0009:B909 3E F0 90 40  sm    (4090),r0
0009:B90D 3D F0 72 40  lm    r0,(4072)
0009:B911 4D           swap
0009:B912 3E 71        and   #01
0009:B914 50           add   r0
0009:B915 FE B0 B8     iwt   r14,#B8B0
0009:B918 1E 5E        add   r14
0009:B91A EF           getb
0009:B91B 3E F0 8C 40  sm    (408C),r0
0009:B91F DE           inc   r14
0009:B920 EF           getb
0009:B921 3E F0 8E 40  sm    (408E),r0
0009:B925 F0 30 B9     iwt   r0,#B930
0009:B928 3E F0 92 40  sm    (4092),r0
0009:B92C FF 9B BA     iwt   r15,#BA9B
0009:B92F 01           nop
0009:B930 F0 D0 00     iwt   r0,#00D0
0009:B933 3E F0 90 40  sm    (4090),r0
0009:B937 3D F0 72 40  lm    r0,(4072)
0009:B93B 4D           swap
0009:B93C 3E 71        and   #01
0009:B93E 50           add   r0
0009:B93F FE B4 B8     iwt   r14,#B8B4
0009:B942 1E 5E        add   r14
0009:B944 EF           getb
0009:B945 3E F0 8C 40  sm    (408C),r0
0009:B949 DE           inc   r14
0009:B94A EF           getb
0009:B94B 3E F0 8E 40  sm    (408E),r0
0009:B94F F0 E1 B4     iwt   r0,#B4E1
0009:B952 3E F0 92 40  sm    (4092),r0
0009:B956 FF 9B BA     iwt   r15,#BA9B
0009:B959 01           nop
0009:B95A 3D F0 72 40  lm    r0,(4072)
0009:B95E 4D           swap
0009:B95F 3E 71        and   #01
0009:B961 FE BA B8     iwt   r14,#B8BA
0009:B964 1E 5E        add   r14
0009:B966 EF           getb
0009:B967 71           and   r1
0009:B968 09 60        beq   B9CA
0009:B96A 01           nop
0009:B96B A0 5C        ibt   r0,#005C
0009:B96D 3E A0 3D     sms   (007A),r0
0009:B970 A0 01        ibt   r0,#0001
0009:B972 3E F0 94 40  sm    (4094),r0
0009:B976 F0 D4 00     iwt   r0,#00D4
0009:B979 3E F0 90 40  sm    (4090),r0
0009:B97D 3D F0 72 40  lm    r0,(4072)
0009:B981 4D           swap
0009:B982 3E 71        and   #01
0009:B984 50           add   r0
0009:B985 FE B4 B8     iwt   r14,#B8B4
0009:B988 1E 5E        add   r14
0009:B98A EF           getb
0009:B98B 3E F0 8C 40  sm    (408C),r0
0009:B98F DE           inc   r14
0009:B990 EF           getb
0009:B991 3E F0 8E 40  sm    (408E),r0
0009:B995 F0 A0 B9     iwt   r0,#B9A0
0009:B998 3E F0 92 40  sm    (4092),r0
0009:B99C FF 9B BA     iwt   r15,#BA9B
0009:B99F 01           nop
0009:B9A0 F0 D0 00     iwt   r0,#00D0
0009:B9A3 3E F0 90 40  sm    (4090),r0
0009:B9A7 3D F0 72 40  lm    r0,(4072)
0009:B9AB 4D           swap
0009:B9AC 3E 71        and   #01
0009:B9AE 50           add   r0
0009:B9AF FE B0 B8     iwt   r14,#B8B0
0009:B9B2 1E 5E        add   r14
0009:B9B4 EF           getb
0009:B9B5 3E F0 8C 40  sm    (408C),r0
0009:B9B9 DE           inc   r14
0009:B9BA EF           getb
0009:B9BB 3E F0 8E 40  sm    (408E),r0
0009:B9BF F0 E1 B4     iwt   r0,#B4E1
0009:B9C2 3E F0 92 40  sm    (4092),r0
0009:B9C6 FF 9B BA     iwt   r15,#BA9B
0009:B9C9 01           nop
0009:B9CA FF E1 B4     iwt   r15,#B4E1
0009:B9CD 01           nop
0009:B9CE 3D F0 76 40  lm    r0,(4076)
0009:B9D2 F1 C0 C0     iwt   r1,#C0C0
0009:B9D5 71           and   r1
0009:B9D6 09 14        beq   B9EC
0009:B9D8 01           nop
0009:B9D9 3D F0 94 40  lm    r0,(4094)
0009:B9DD 3E 71        and   #01
0009:B9DF 09 0B        beq   B9EC
0009:B9E1 01           nop
0009:B9E2 3D F0 82 00  lm    r0,(0082)
0009:B9E6 3F C2        xor   #02
0009:B9E8 3E F0 82 00  sm    (0082),r0
0009:B9EC FF BC B8     iwt   r15,#B8BC
0009:B9EF 01           nop
0009:B9F0 FF E1 B4     iwt   r15,#B4E1
0009:B9F3 01           nop
0009:B9F4 02           cache
0009:B9F5 3D F0 98 40  lm    r0,(4098)
0009:B9F9 3F DF        romb
0009:B9FB 3D F0 7C 40  lm    r0,(407C)
0009:B9FF 1E 3E 52     add   #02
0009:BA02 EF           getb
0009:BA03 DE           inc   r14
0009:BA04 03           lsr
0009:BA05 03           lsr
0009:BA06 03           lsr
0009:BA07 20 1B        move  r11,r0
0009:BA09 20 1A        move  r10,r0
0009:BA0B EF           getb
0009:BA0C DE           inc   r14
0009:BA0D 3D EF        getbh
0009:BA0F DE           inc   r14
0009:BA10 50           add   r0
0009:BA11 50           add   r0
0009:BA12 50           add   r0
0009:BA13 19 50        add   r0
0009:BA15 EF           getb
0009:BA16 DE           inc   r14
0009:BA17 3E 57        add   #07
0009:BA19 03           lsr
0009:BA1A 03           lsr
0009:BA1B 18 03        lsr
0009:BA1D 17 EF        getb
0009:BA1F DE           inc   r14
0009:BA20 13 EF        getb
0009:BA22 DE           inc   r14
0009:BA23 EF           getb
0009:BA24 12 3E 5F     add   #0F
0009:BA27 D1           inc   r1
0009:BA28 A0 09        ibt   r0,#0009
0009:BA2A 3F DF        romb
0009:BA2C 23 11        move  r1,r3
0009:BA2E 2A 1B        move  r11,r10
0009:BA30 28 1C        move  r12,r8
0009:BA32 2F 1D        move  r13,r15
0009:BA34 F0 2F C9     iwt   r0,#C92F
0009:BA37 59           add   r9
0009:BA38 1E 5B        add   r11
0009:BA3A 3D EF        getbh
0009:BA3C 50           add   r0
0009:BA3D 0C 03        bcc   BA42
0009:BA3F D1           inc   r1
0009:BA40 E1           dec   r1
0009:BA41 4C           plot
0009:BA42 50           add   r0
0009:BA43 0C 03        bcc   BA48
0009:BA45 D1           inc   r1
0009:BA46 E1           dec   r1
0009:BA47 4C           plot
0009:BA48 50           add   r0
0009:BA49 0C 03        bcc   BA4E
0009:BA4B D1           inc   r1
0009:BA4C E1           dec   r1
0009:BA4D 4C           plot
0009:BA4E 50           add   r0
0009:BA4F 0C 03        bcc   BA54
0009:BA51 D1           inc   r1
0009:BA52 E1           dec   r1
0009:BA53 4C           plot
0009:BA54 50           add   r0
0009:BA55 0C 03        bcc   BA5A
0009:BA57 D1           inc   r1
0009:BA58 E1           dec   r1
0009:BA59 4C           plot
0009:BA5A 50           add   r0
0009:BA5B 0C 03        bcc   BA60
0009:BA5D D1           inc   r1
0009:BA5E E1           dec   r1
0009:BA5F 4C           plot
0009:BA60 50           add   r0
0009:BA61 0C 03        bcc   BA66
0009:BA63 D1           inc   r1
0009:BA64 E1           dec   r1
0009:BA65 4C           plot
0009:BA66 50           add   r0
0009:BA67 0C 03        bcc   BA6C
0009:BA69 D1           inc   r1
0009:BA6A E1           dec   r1
0009:BA6B 4C           plot
0009:BA6C 3C           loop
0009:BA6D DB           inc   r11
0009:BA6E 29 3E 5F     add   #0F
0009:BA71 D9           inc   r9
0009:BA72 E7           dec   r7
0009:BA73 08 B7        bne   BA2C
0009:BA75 D2           inc   r2
0009:BA76 3D F0 7C 40  lm    r0,(407C)
0009:BA7A 3E 59        add   #09
0009:BA7C 3E F0 7C 40  sm    (407C),r0
0009:BA80 FF E1 B4     iwt   r15,#B4E1
0009:BA83 01           nop
0009:BA84 A0 02        ibt   r0,#0002
0009:BA86 3E F0 6E 40  sm    (406E),r0
0009:BA8A FF 99 BA     iwt   r15,#BA99
0009:BA8D 01           nop
0009:BA8E 3D F0 7C 40  lm    r0,(407C)
0009:BA92 D0           inc   r0
0009:BA93 D0           inc   r0
0009:BA94 90           sbk
0009:BA95 FF 9F B0     iwt   r15,#B09F
0009:BA98 01           nop
0009:BA99 00           stop
0009:BA9A 01           nop
0009:BA9B A0 01        ibt   r0,#0001
0009:BA9D 4E           color
0009:BA9E 3D F8 8C 40  lm    r8,(408C)
0009:BAA2 3D F2 8E 40  lm    r2,(408E)
0009:BAA6 A0 0A        ibt   r0,#000A
0009:BAA8 3D F1 80 40  lm    r1,(4080)
0009:BAAC D1           inc   r1
0009:BAAD 16 81        mult  r1
0009:BAAF A0 10        ibt   r0,#0010
0009:BAB1 3D F1 82 40  lm    r1,(4082)
0009:BAB5 D1           inc   r1
0009:BAB6 17 81        mult  r1
0009:BAB8 28 11        move  r1,r8
0009:BABA 26 1C        move  r12,r6
0009:BABC 2F 1D        move  r13,r15
0009:BABE 3C           loop
0009:BABF 4C           plot
0009:BAC0 E7           dec   r7
0009:BAC1 08 F5        bne   BAB8
0009:BAC3 D2           inc   r2
0009:BAC4 A0 03        ibt   r0,#0003
0009:BAC6 4E           color
0009:BAC7 3D F0 82 40  lm    r0,(4082)
0009:BACB 50           add   r0
0009:BACC 50           add   r0
0009:BACD 3D F1 80 40  lm    r1,(4080)
0009:BAD1 C1           or    r1
0009:BAD2 50           add   r0
0009:BAD3 50           add   r0
0009:BAD4 D0           inc   r0
0009:BAD5 1F 5F        add   r15
0009:BAD7 FF 18 BB     iwt   r15,#BB18
0009:BADA 01           nop
0009:BADB 01           nop
0009:BADC A2 BB        ibt   r2,#FFBB
0009:BADE 01           nop
0009:BADF 01           nop
0009:BAE0 A2 BB        ibt   r2,#FFBB
0009:BAE2 01           nop
0009:BAE3 01           nop
0009:BAE4 A2 BB        ibt   r2,#FFBB
0009:BAE6 01           nop
0009:BAE7 01           nop
0009:BAE8 A2 BB        ibt   r2,#FFBB
0009:BAEA 01           nop
0009:BAEB 01           nop
0009:BAEC A2 BB        ibt   r2,#FFBB
0009:BAEE 01           nop
0009:BAEF 01           nop
0009:BAF0 A2 BB        ibt   r2,#FFBB
0009:BAF2 01           nop
0009:BAF3 01           nop
0009:BAF4 A2 BB        ibt   r2,#FFBB
0009:BAF6 01           nop
0009:BAF7 01           nop
0009:BAF8 A2 BB        ibt   r2,#FFBB
0009:BAFA 01           nop
0009:BAFB 01           nop
0009:BAFC A2 BB        ibt   r2,#FFBB
0009:BAFE 01           nop
0009:BAFF 01           nop
0009:BB00 A2 BB        ibt   r2,#FFBB
0009:BB02 01           nop
0009:BB03 01           nop
0009:BB04 A2 BB        ibt   r2,#FFBB
0009:BB06 01           nop
0009:BB07 01           nop
0009:BB08 A2 BB        ibt   r2,#FFBB
0009:BB0A 01           nop
0009:BB0B 01           nop
0009:BB0C A2 BB        ibt   r2,#FFBB
0009:BB0E 01           nop
0009:BB0F 01           nop
0009:BB10 A2 BB        ibt   r2,#FFBB
0009:BB12 01           nop
0009:BB13 01           nop
0009:BB14 A2 BB        ibt   r2,#FFBB
0009:BB16 01           nop
0009:BB17 01           nop
0009:BB18 3D F0 90 40  lm    r0,(4090)
0009:BB1C 9E           lob
0009:BB1D 3F 8C        umult #0C
0009:BB1F F1 2F BD     iwt   r1,#BD2F
0009:BB22 1E 51        add   r1
0009:BB24 3D F0 8E 40  lm    r0,(408E)
0009:BB28 12 3E 53     add   #03
0009:BB2B 3D F3 8C 40  lm    r3,(408C)
0009:BB2F AC 0C        ibt   r12,#000C
0009:BB31 2F 1D        move  r13,r15
0009:BB33 23 11        move  r1,r3
0009:BB35 EF           getb
0009:BB36 DE           inc   r14
0009:BB37 4D           swap
0009:BB38 50           add   r0
0009:BB39 0C 03        bcc   BB3E
0009:BB3B D1           inc   r1
0009:BB3C E1           dec   r1
0009:BB3D 4C           plot
0009:BB3E 50           add   r0
0009:BB3F 0C 03        bcc   BB44
0009:BB41 D1           inc   r1
0009:BB42 E1           dec   r1
0009:BB43 4C           plot
0009:BB44 50           add   r0
0009:BB45 0C 03        bcc   BB4A
0009:BB47 D1           inc   r1
0009:BB48 E1           dec   r1
0009:BB49 4C           plot
0009:BB4A 50           add   r0
0009:BB4B 0C 03        bcc   BB50
0009:BB4D D1           inc   r1
0009:BB4E E1           dec   r1
0009:BB4F 4C           plot
0009:BB50 50           add   r0
0009:BB51 0C 03        bcc   BB56
0009:BB53 D1           inc   r1
0009:BB54 E1           dec   r1
0009:BB55 4C           plot
0009:BB56 50           add   r0
0009:BB57 0C 03        bcc   BB5C
0009:BB59 D1           inc   r1
0009:BB5A E1           dec   r1
0009:BB5B 4C           plot
0009:BB5C 50           add   r0
0009:BB5D 0C 03        bcc   BB62
0009:BB5F D1           inc   r1
0009:BB60 E1           dec   r1
0009:BB61 4C           plot
0009:BB62 50           add   r0
0009:BB63 0C 03        bcc   BB68
0009:BB65 D1           inc   r1
0009:BB66 E1           dec   r1
0009:BB67 4C           plot
0009:BB68 3C           loop
0009:BB69 D2           inc   r2
0009:BB6A 3D 4C        rpix
0009:BB6C 3D F0 90 40  lm    r0,(4090)
0009:BB70 9E           lob
0009:BB71 F1 2F BC     iwt   r1,#BC2F
0009:BB74 1E 51        add   r1
0009:BB76 EF           getb
0009:BB77 11 53        add   r3
0009:BB79 F0 82 00     iwt   r0,#0082
0009:BB7C B1 60        sub   r0
0009:BB7E 0C 19        bcc   BB99
0009:BB80 01           nop
0009:BB81 A1 00        ibt   r1,#0000
0009:BB83 3D F0 86 40  lm    r0,(4086)
0009:BB87 D0           inc   r0
0009:BB88 12 3E 5F     add   #0F
0009:BB8B F0 40 00     iwt   r0,#0040
0009:BB8E B2 60        sub   r0
0009:BB90 0C 03        bcc   BB95
0009:BB92 01           nop
0009:BB93 A2 10        ibt   r2,#0010
0009:BB95 3E F2 86 40  sm    (4086),r2
0009:BB99 3E F1 84 40  sm    (4084),r1
0009:BB9D 3D FF 92 40  lm    r15,(4092)
0009:BBA1 01           nop
0009:BBA2 3D F5 80 40  lm    r5,(4080)
0009:BBA6 D5           inc   r5
0009:BBA7 3D F6 82 40  lm    r6,(4082)
0009:BBAB D6           inc   r6
0009:BBAC 3D F4 8E 40  lm    r4,(408E)
0009:BBB0 B6 3F 83     umult #03
0009:BBB3 14 54        add   r4
0009:BBB5 3D F9 8C 40  lm    r9,(408C)
0009:BBB9 3D F0 90 40  lm    r0,(4090)
0009:BBBD 9E           lob
0009:BBBE 3F 8C        umult #0C
0009:BBC0 F1 2F BD     iwt   r1,#BD2F
0009:BBC3 1E 51        add   r1
0009:BBC5 FD D2 BB     iwt   r13,#BBD2
0009:BBC8 AB 0C        ibt   r11,#000C
0009:BBCA EF           getb
0009:BBCB DE           inc   r14
0009:BBCC 1A 4D        swap
0009:BBCE AC 08        ibt   r12,#0008
0009:BBD0 A3 00        ibt   r3,#0000
0009:BBD2 2A 5A        add   r10
0009:BBD4 0C 14        bcc   BBEA
0009:BBD6 01           nop
0009:BBD7 B9 17 53     add   r3
0009:BBDA 24 12        move  r2,r4
0009:BBDC 26 18        move  r8,r6
0009:BBDE 27 11        move  r1,r7
0009:BBE0 25 10        move  r0,r5
0009:BBE2 E0           dec   r0
0009:BBE3 08 FD        bne   BBE2
0009:BBE5 4C           plot
0009:BBE6 E8           dec   r8
0009:BBE7 08 F5        bne   BBDE
0009:BBE9 D2           inc   r2
0009:BBEA 23 55        add   r5
0009:BBEC 3C           loop
0009:BBED 01           nop
0009:BBEE 24 56        add   r6
0009:BBF0 EB           dec   r11
0009:BBF1 08 D7        bne   BBCA
0009:BBF3 01           nop
0009:BBF4 3D 4C        rpix
0009:BBF6 3D F0 90 40  lm    r0,(4090)
0009:BBFA 9E           lob
0009:BBFB F1 2F BC     iwt   r1,#BC2F
0009:BBFE 1E 51        add   r1
0009:BC00 EF           getb
0009:BC01 3D 85        umult r5
0009:BC03 11 59        add   r9
0009:BC05 F0 82 00     iwt   r0,#0082
0009:BC08 B1 60        sub   r0
0009:BC0A 0C 1A        bcc   BC26
0009:BC0C 01           nop
0009:BC0D A1 00        ibt   r1,#0000
0009:BC0F 3D F0 86 40  lm    r0,(4086)
0009:BC13 A2 10        ibt   r2,#0010
0009:BC15 22 3D 86     umult r6
0009:BC18 F0 40 00     iwt   r0,#0040
0009:BC1B B2 60        sub   r0
0009:BC1D 0C 03        bcc   BC22
0009:BC1F 01           nop
0009:BC20 A2 10        ibt   r2,#0010
0009:BC22 3E F2 86 40  sm    (4086),r2
0009:BC26 3E F1 84 40  sm    (4084),r1
0009:BC2A 3D FF 92 40  lm    r15,(4092)
0009:BC2E 01           nop

; width of each character in the font (height is always $0C)
; DATA_09BC2F:         db $08, $08, $08, $08, $08, $08, $05, $08
; DATA_09BC37:         db $08, $08, $08, $08, $08, $08, $08, $08
; DATA_09BC3F:         db $08, $08, $08, $08, $08, $08, $08, $08
; DATA_09BC47:         db $08, $08, $08, $08, $08, $08, $08, $08
; DATA_09BC4F:         db $08, $08, $08, $08, $08, $08, $04, $04
; DATA_09BC57:         db $08, $08, $08, $08, $08, $08, $08, $08
; DATA_09BC5F:         db $08, $08, $08, $08, $08, $08, $08, $04
; DATA_09BC67:         db $06, $03, $07, $06, $07, $06, $07, $03
; DATA_09BC6F:         db $08, $08, $08, $08, $08, $08, $08, $08
; DATA_09BC77:         db $08, $08, $08, $08, $08, $08, $08, $08
; DATA_09BC7F:         db $08, $08, $08, $08, $08, $08, $08, $08
; DATA_09BC87:         db $08, $08, $08, $08, $08, $08, $08, $08
; DATA_09BC8F:         db $08, $08, $08, $08, $08, $08, $08, $08
; DATA_09BC97:         db $08, $08, $08, $08, $08, $08, $08, $08
; DATA_09BC9F:         db $08, $08, $08, $08, $08, $08, $08, $08
; DATA_09BCA7:         db $08, $08, $08, $08, $08, $08, $08, $08
; DATA_09BCAF:         db $08, $08, $08, $08, $08, $08, $08, $08
; DATA_09BCB7:         db $08, $08, $08, $08, $08, $08, $08, $08
; DATA_09BCBF:         db $08, $08, $08, $08, $08, $08, $08, $08
; DATA_09BCC7:         db $08, $08, $08, $08, $08, $08, $08, $08
; DATA_09BCCF:         db $08, $08, $08, $08, $08, $08, $08, $08
; DATA_09BCD7:         db $08, $08, $08, $08, $08, $08, $07, $07
; DATA_09BCDF:         db $08, $08, $05, $08, $08, $07, $08, $08
; DATA_09BCE7:         db $08, $08, $08, $08, $08, $08, $08, $08
; DATA_09BCEF:         db $08, $08, $08, $08, $08, $08, $08, $08
; DATA_09BCF7:         db $08, $08, $08, $08, $08, $08, $08, $08
; DATA_09BCFF:         db $04, $08, $08, $08, $08, $08, $08, $08
; DATA_09BD07:         db $08, $08, $08, $08, $07, $07, $08, $08
; DATA_09BD0F:         db $04, $07, $08, $04, $08, $08, $08, $08
; DATA_09BD17:         db $08, $07, $08, $08, $08, $08, $08, $08
; DATA_09BD1F:         db $08, $08, $08, $08, $08, $08, $08, $08
; DATA_09BD27:         db $08, $08, $08, $08, $08, $08, $08, $08

; font graphics (1bpp)
; DATA_09BD2F:         db $18, $04, $00, $1C, $02, $3A, $44, $4E
; DATA_09BD37:         db $3B, $00, $00, $00, $0C, $16, $00, $1C
; DATA_09BD3F:         db $02, $3A, $44, $4E, $3B, $00, $00, $00
; DATA_09BD47:         db $00, $00, $00, $3C, $62, $40, $40, $63
; DATA_09BD4F:         db $3E, $08, $04, $38, $18, $04, $00, $1C
; DATA_09BD57:         db $22, $7E, $40, $62, $3C, $00, $00, $00
; DATA_09BD5F:         db $0C, $10, $00, $1C, $22, $7E, $40, $62
; DATA_09BD67:         db $3C, $00, $00, $00, $0C, $16, $00, $1C
; DATA_09BD6F:         db $22, $7E, $40, $62, $3C, $00, $00, $00
; DATA_09BD77:         db $30, $58, $00, $20, $20, $20, $40, $40
; DATA_09BD7F:         db $20, $00, $00, $00, $0C, $16, $00, $3C
; DATA_09BD87:         db $62, $41, $41, $23, $1E, $00, $00, $00
; DATA_09BD8F:         db $18, $04, $00, $40, $42, $42, $42, $67
; DATA_09BD97:         db $3D, $00, $00, $00, $0C, $16, $00, $40
; DATA_09BD9F:         db $42, $42, $42, $67, $3D, $00, $00, $00
; DATA_09BDA7:         db $00, $00, $00, $00, $00, $00, $00, $00
; DATA_09BDAF:         db $00, $00, $00, $00, $00, $00, $00, $00
; DATA_09BDB7:         db $00, $00, $00, $00, $00, $00, $00, $00
; DATA_09BDBF:         db $00, $00, $00, $00, $00, $00, $00, $00
; DATA_09BDC7:         db $00, $00, $00, $00, $00, $00, $00, $00
; DATA_09BDCF:         db $00, $00, $00, $00, $00, $00, $00, $00
; DATA_09BDD7:         db $00, $00, $00, $00, $00, $00, $00, $00
; DATA_09BDDF:         db $00, $00, $00, $00, $00, $00, $00, $00
; DATA_09BDE7:         db $00, $00, $00, $00, $00, $00, $00, $00
; DATA_09BDEF:         db $14, $14, $00, $1C, $02, $3A, $44, $4E
; DATA_09BDF7:         db $3B, $00, $00, $00, $14, $14, $00, $3C
; DATA_09BDFF:         db $62, $41, $41, $23, $1E, $00, $00, $00
; DATA_09BE07:         db $14, $14, $00, $40, $42, $42, $42, $67
; DATA_09BE0F:         db $3D, $00, $00, $00, $1C, $22, $22, $3C
; DATA_09BE17:         db $22, $21, $21, $29, $26, $40, $00, $00
; DATA_09BE1F:         db $14, $00, $1C, $26, $22, $43, $7F, $41
; DATA_09BE27:         db $41, $41, $01, $00, $14, $00, $1C, $26
; DATA_09BE2F:         db $43, $41, $41, $41, $23, $1E, $00, $00
; DATA_09BE37:         db $14, $00, $22, $21, $41, $41, $41, $43
; DATA_09BE3F:         db $66, $3C, $00, $00, $00, $00, $00, $00
; DATA_09BE47:         db $00, $00, $00, $00, $00, $00, $00, $00
; DATA_09BE4F:         db $03, $0F, $1C, $19, $39, $39, $38, $39
; DATA_09BE57:         db $19, $19, $0F, $03, $C0, $F0, $38, $98
; DATA_09BE5F:         db $9C, $9C, $1C, $9C, $98, $98, $F0, $C0
; DATA_09BE67:         db $03, $0F, $18, $19, $39, $38, $39, $39
; DATA_09BE6F:         db $19, $18, $0F, $03, $C0, $F0, $38, $98
; DATA_09BE77:         db $9C, $3C, $DC, $CC, $88, $18, $F0, $C0
; DATA_09BE7F:         db $03, $0F, $19, $19, $39, $3C, $3E, $3E
; DATA_09BE87:         db $1E, $1E, $0F, $03, $C0, $F0, $98, $98
; DATA_09BE8F:         db $9C, $3C, $7C, $7C, $78, $78, $F0, $C0
; DATA_09BE97:         db $03, $0F, $19, $19, $38, $3C, $3E, $3D
; DATA_09BE9F:         db $1B, $1B, $0F, $03, $C0, $F0, $D8, $D8
; DATA_09BEA7:         db $BC, $7C, $3C, $1C, $98, $98, $F0, $C0
; DATA_09BEAF:         db $00, $1F, $3F, $72, $76, $72, $7A, $72
; DATA_09BEB7:         db $3F, $1F, $00, $00, $00, $FF, $FF, $59
; DATA_09BEBF:         db $DB, $59, $DB, $49, $FF, $FF, $00, $00
; DATA_09BEC7:         db $00, $FC, $FE, $23, $77, $77, $77, $37
; DATA_09BECF:         db $FE, $FC, $00, $00, $00, $1F, $3F, $7F
; DATA_09BED7:         db $7F, $7F, $7F, $7F, $3F, $1F, $00, $00
; DATA_09BEDF:         db $00, $FF, $FF, $9F, $9F, $9F, $9F, $81
; DATA_09BEE7:         db $FF, $FF, $00, $00, $00, $FC, $FE, $FF
; DATA_09BEEF:         db $FF, $FF, $FF, $FF, $FE, $FC, $00, $00
; DATA_09BEF7:         db $00, $00, $30, $30, $00, $00, $00, $30
; DATA_09BEFF:         db $30, $00, $00, $00, $00, $00, $30, $30
; DATA_09BF07:         db $00, $00, $30, $30, $10, $20, $00, $00
; DATA_09BF0F:         db $00, $1F, $3F, $7F, $7F, $7F, $7F, $7F
; DATA_09BF17:         db $3F, $1F, $00, $00, $00, $FF, $FF, $83
; DATA_09BF1F:         db $99, $83, $99, $99, $FF, $FF, $00, $00
; DATA_09BF27:         db $00, $FC, $FE, $FF, $FF, $FF, $FF, $FF
; DATA_09BF2F:         db $FE, $FC, $00, $00, $30, $10, $20, $40
; DATA_09BF37:         db $00, $00, $00, $00, $00, $00, $00, $00
; DATA_09BF3F:         db $14, $22, $41, $77, $14, $14, $14, $14
; DATA_09BF47:         db $14, $1C, $00, $00, $00, $04, $0C, $1F
; DATA_09BF4F:         db $3F, $7F, $3F, $1F, $0C, $04, $00, $00
; DATA_09BF57:         db $00, $20, $30, $F8, $FC, $FE, $FC, $F8
; DATA_09BF5F:         db $30, $20, $00, $00, $00, $00, $08, $1C
; DATA_09BF67:         db $3E, $7F, $3E, $3E, $3E, $3E, $00, $00
; DATA_09BF6F:         db $00, $00, $3E, $3E, $3E, $3E, $7F, $3E
; DATA_09BF77:         db $1C, $08, $00, $00, $00, $1F, $3F, $72
; DATA_09BF7F:         db $77, $73, $7B, $73, $3F, $1F, $00, $00
; DATA_09BF87:         db $00, $FF, $FF, $36, $6A, $62, $6A, $6A
; DATA_09BF8F:         db $FF, $FF, $00, $00, $00, $FC, $FE, $63
; DATA_09BF97:         db $B7, $77, $B7, $B7, $FE, $FC, $00, $00
; DATA_09BF9F:         db $0D, $12, $21, $43, $47, $2F, $43, $43
; DATA_09BFA7:         db $23, $18, $07, $00, $C0, $30, $88, $CC
; DATA_09BFAF:         db $E2, $F2, $C2, $C4, $C4, $18, $E0, $00
; DATA_09BFB7:         db $00, $00, $00, $3E, $00, $00, $3E, $00
; DATA_09BFBF:         db $00, $00, $00, $00, $00, $00, $00, $00
; DATA_09BFC7:         db $00, $00, $00, $00, $30, $10, $20, $40
; DATA_09BFCF:         db $00, $00, $00, $18, $24, $7C, $40, $64
; DATA_09BFD7:         db $38, $00, $00, $00, $00, $20, $00, $40
; DATA_09BFDF:         db $40, $40, $40, $40, $20, $00, $00, $00
; DATA_09BFE7:         db $00, $10, $20, $78, $20, $20, $20, $34
; DATA_09BFEF:         db $18, $00, $00, $00, $00, $00, $00, $58
; DATA_09BFF7:         db $34, $20, $20, $20, $20, $00, $00, $00
; DATA_09BFFF:         db $40, $20, $20, $2C, $32, $22, $24, $24
; DATA_09C007:         db $22, $00, $00, $00, $18, $30, $20, $78
; DATA_09C00F:         db $20, $20, $20, $10, $10, $00, $00, $00
; DATA_09C017:         db $00, $00, $00, $58, $2C, $24, $24, $24
; DATA_09C01F:         db $22, $00, $00, $00, $00, $00, $00, $00
; DATA_09C027:         db $00, $00, $00, $00, $60, $60, $00, $00
; DATA_09C02F:         db $18, $06, $00, $1C, $26, $22, $43, $7F
; DATA_09C037:         db $41, $41, $41, $01, $1C, $16, $00, $1C
; DATA_09C03F:         db $26, $22, $43, $7F, $41, $41, $41, $01
; DATA_09C047:         db $1C, $22, $40, $40, $40, $40, $41, $23
; DATA_09C04F:         db $1E, $08, $04, $38, $1C, $06, $00, $3E
; DATA_09C057:         db $40, $40, $7C, $40, $40, $40, $7F, $00
; DATA_09C05F:         db $1C, $30, $00, $3E, $40, $40, $7C, $40
; DATA_09C067:         db $40, $40, $7F, $00, $1C, $16, $00, $3E
; DATA_09C06F:         db $40, $40, $7C, $40, $40, $40, $7F, $00
; DATA_09C077:         db $38, $2C, $00, $38, $10, $10, $10, $20
; DATA_09C07F:         db $20, $20, $70, $00, $1C, $16, $00, $1C
; DATA_09C087:         db $26, $43, $41, $41, $41, $23, $1E, $00
; DATA_09C08F:         db $06, $18, $00, $21, $21, $41, $41, $41
; DATA_09C097:         db $43, $66, $3C, $00, $18, $06, $00, $21
; DATA_09C09F:         db $21, $41, $41, $41, $43, $66, $3C, $00
; DATA_09C0A7:         db $14, $00, $38, $10, $10, $20, $20, $20
; DATA_09C0AF:         db $20, $70, $00, $00, $50, $50, $00, $20
; DATA_09C0B7:         db $20, $20, $20, $30, $18, $00, $00, $00
; DATA_09C0BF:         db $00, $00, $00, $00, $00, $00, $00, $00
; DATA_09C0C7:         db $00, $00, $00, $00, $00, $00, $00, $00
; DATA_09C0CF:         db $00, $00, $00, $00, $00, $00, $00, $00
; DATA_09C0D7:         db $00, $00, $00, $00, $00, $00, $00, $00
; DATA_09C0DF:         db $00, $00, $00, $00, $00, $00, $00, $00
; DATA_09C0E7:         db $00, $00, $00, $00, $00, $00, $00, $00
; DATA_09C0EF:         db $00, $00, $00, $00, $00, $00, $00, $00
; DATA_09C0F7:         db $00, $00, $00, $00, $00, $00, $00, $00
; DATA_09C0FF:         db $00, $00, $00, $00, $00, $00, $00, $00
; DATA_09C107:         db $00, $00, $00, $00, $00, $00, $00, $00
; DATA_09C10F:         db $00, $00, $00, $00, $00, $00, $00, $00
; DATA_09C117:         db $00, $00, $00, $00, $00, $00, $00, $00
; DATA_09C11F:         db $00, $00, $00, $00, $00, $00, $00, $00
; DATA_09C127:         db $00, $00, $00, $00, $00, $00, $00, $00
; DATA_09C12F:         db $00, $00, $00, $00, $00, $00, $00, $00
; DATA_09C137:         db $00, $00, $00, $00, $00, $00, $00, $00
; DATA_09C13F:         db $00, $00, $00, $00, $00, $00, $00, $00
; DATA_09C147:         db $00, $00, $00, $00, $00, $00, $00, $00
; DATA_09C14F:         db $00, $00, $00, $00, $00, $00, $00, $00
; DATA_09C157:         db $00, $00, $00, $00, $00, $00, $00, $00
; DATA_09C15F:         db $00, $00, $00, $00, $00, $00, $00, $00
; DATA_09C167:         db $00, $00, $00, $00, $00, $00, $00, $00
; DATA_09C16F:         db $00, $00, $00, $00, $00, $00, $00, $00
; DATA_09C177:         db $00, $00, $00, $00, $00, $00, $00, $00
; DATA_09C17F:         db $00, $00, $00, $00, $00, $00, $00, $00
; DATA_09C187:         db $00, $00, $00, $00, $00, $00, $00, $00
; DATA_09C18F:         db $00, $00, $00, $00, $00, $00, $00, $00
; DATA_09C197:         db $00, $00, $00, $00, $00, $00, $00, $00
; DATA_09C19F:         db $00, $00, $00, $00, $00, $00, $00, $00
; DATA_09C1A7:         db $00, $00, $00, $00, $00, $00, $00, $00
; DATA_09C1AF:         db $00, $00, $00, $00, $00, $00, $00, $00
; DATA_09C1B7:         db $00, $00, $00, $00, $00, $00, $00, $00
; DATA_09C1BF:         db $00, $00, $00, $00, $00, $00, $00, $00
; DATA_09C1C7:         db $00, $00, $00, $00, $00, $00, $00, $00
; DATA_09C1CF:         db $00, $00, $00, $00, $00, $00, $00, $00
; DATA_09C1D7:         db $00, $00, $00, $00, $00, $00, $00, $00
; DATA_09C1DF:         db $00, $00, $00, $00, $00, $00, $00, $00
; DATA_09C1E7:         db $00, $00, $00, $00, $00, $00, $00, $00
; DATA_09C1EF:         db $00, $00, $00, $00, $00, $00, $00, $00
; DATA_09C1F7:         db $00, $00, $00, $00, $00, $00, $00, $00
; DATA_09C1FF:         db $00, $00, $00, $00, $00, $00, $00, $00
; DATA_09C207:         db $00, $00, $00, $00, $00, $00, $00, $00
; DATA_09C20F:         db $00, $00, $00, $00, $00, $00, $00, $00
; DATA_09C217:         db $00, $00, $00, $00, $00, $00, $00, $00
; DATA_09C21F:         db $00, $00, $00, $00, $00, $00, $00, $00
; DATA_09C227:         db $00, $00, $00, $00, $00, $00, $00, $00
; DATA_09C22F:         db $00, $00, $00, $00, $00, $00, $00, $00
; DATA_09C237:         db $00, $00, $00, $00, $00, $00, $00, $00
; DATA_09C23F:         db $00, $00, $00, $00, $00, $00, $00, $00
; DATA_09C247:         db $00, $00, $00, $00, $00, $00, $00, $00
; DATA_09C24F:         db $00, $00, $00, $00, $00, $00, $00, $00
; DATA_09C257:         db $00, $00, $00, $00, $00, $00, $00, $00
; DATA_09C25F:         db $00, $00, $00, $00, $00, $00, $00, $00
; DATA_09C267:         db $00, $00, $00, $00, $00, $00, $00, $00
; DATA_09C26F:         db $00, $00, $00, $00, $00, $00, $00, $00
; DATA_09C277:         db $00, $00, $00, $00, $00, $00, $00, $00
; DATA_09C27F:         db $00, $00, $00, $00, $00, $00, $00, $00
; DATA_09C287:         db $00, $00, $00, $00, $00, $00, $00, $00
; DATA_09C28F:         db $00, $00, $00, $00, $00, $00, $00, $00
; DATA_09C297:         db $00, $00, $00, $00, $00, $00, $00, $00
; DATA_09C29F:         db $00, $00, $00, $00, $00, $00, $00, $00
; DATA_09C2A7:         db $00, $00, $00, $00, $00, $00, $00, $00
; DATA_09C2AF:         db $00, $00, $00, $00, $00, $00, $00, $00
; DATA_09C2B7:         db $00, $00, $00, $00, $00, $00, $00, $00
; DATA_09C2BF:         db $00, $00, $00, $00, $00, $00, $00, $00
; DATA_09C2C7:         db $00, $00, $00, $00, $00, $00, $00, $00
; DATA_09C2CF:         db $00, $00, $00, $00, $00, $00, $00, $00
; DATA_09C2D7:         db $00, $00, $00, $00, $00, $00, $00, $00
; DATA_09C2DF:         db $00, $00, $00, $00, $00, $00, $00, $00
; DATA_09C2E7:         db $00, $00, $00, $00, $00, $00, $00, $00
; DATA_09C2EF:         db $00, $00, $00, $00, $00, $00, $00, $00
; DATA_09C2F7:         db $00, $00, $00, $00, $00, $00, $00, $00
; DATA_09C2FF:         db $00, $00, $00, $00, $00, $00, $00, $00
; DATA_09C307:         db $00, $00, $00, $00, $00, $00, $00, $00
; DATA_09C30F:         db $00, $00, $00, $00, $00, $00, $00, $00
; DATA_09C317:         db $00, $00, $00, $00, $00, $00, $00, $00
; DATA_09C31F:         db $00, $00, $00, $00, $00, $00, $00, $00
; DATA_09C327:         db $00, $00, $00, $00, $00, $00, $00, $00
; DATA_09C32F:         db $00, $00, $00, $00, $00, $00, $00, $00
; DATA_09C337:         db $00, $00, $00, $00, $00, $00, $00, $00
; DATA_09C33F:         db $00, $00, $00, $00, $00, $00, $00, $00
; DATA_09C347:         db $00, $00, $00, $00, $00, $00, $00, $00
; DATA_09C34F:         db $00, $00, $00, $00, $00, $00, $00, $00
; DATA_09C357:         db $00, $00, $00, $00, $00, $00, $00, $00
; DATA_09C35F:         db $00, $00, $00, $00, $00, $00, $00, $00
; DATA_09C367:         db $00, $00, $00, $00, $00, $00, $00, $00
; DATA_09C36F:         db $00, $00, $00, $00, $00, $00, $00, $00
; DATA_09C377:         db $00, $00, $00, $00, $00, $00, $00, $00
; DATA_09C37F:         db $00, $00, $00, $00, $00, $00, $00, $00
; DATA_09C387:         db $00, $00, $00, $00, $00, $00, $00, $00
; DATA_09C38F:         db $00, $00, $00, $00, $00, $00, $00, $00
; DATA_09C397:         db $00, $00, $00, $00, $00, $00, $00, $00
; DATA_09C39F:         db $00, $00, $00, $00, $00, $00, $00, $00
; DATA_09C3A7:         db $00, $00, $00, $00, $00, $00, $00, $00
; DATA_09C3AF:         db $00, $00, $00, $00, $00, $00, $00, $00
; DATA_09C3B7:         db $00, $00, $00, $00, $00, $00, $00, $00
; DATA_09C3BF:         db $00, $00, $00, $00, $00, $00, $00, $00
; DATA_09C3C7:         db $00, $00, $00, $00, $00, $00, $00, $00
; DATA_09C3CF:         db $00, $00, $00, $00, $00, $00, $00, $00
; DATA_09C3D7:         db $00, $00, $00, $00, $00, $00, $00, $00
; DATA_09C3DF:         db $00, $00, $00, $00, $00, $00, $00, $00
; DATA_09C3E7:         db $00, $00, $00, $00, $00, $00, $00, $00
; DATA_09C3EF:         db $00, $00, $00, $00, $00, $00, $00, $00
; DATA_09C3F7:         db $00, $00, $00, $00, $00, $00, $00, $00
; DATA_09C3FF:         db $00, $00, $00, $00, $00, $00, $00, $00
; DATA_09C407:         db $00, $00, $00, $00, $00, $00, $00, $00
; DATA_09C40F:         db $00, $00, $00, $00, $00, $00, $00, $00
; DATA_09C417:         db $00, $00, $00, $00, $00, $00, $00, $00
; DATA_09C41F:         db $00, $00, $00, $00, $00, $00, $00, $00
; DATA_09C427:         db $00, $00, $00, $00, $00, $00, $00, $00
; DATA_09C42F:         db $00, $00, $00, $00, $00, $00, $00, $00
; DATA_09C437:         db $00, $00, $00, $00, $00, $00, $00, $00
; DATA_09C43F:         db $00, $00, $00, $00, $00, $00, $00, $00
; DATA_09C447:         db $00, $00, $00, $00, $00, $00, $00, $00
; DATA_09C44F:         db $00, $00, $00, $00, $00, $00, $00, $00
; DATA_09C457:         db $00, $00, $00, $00, $00, $00, $00, $00
; DATA_09C45F:         db $00, $00, $00, $00, $00, $00, $00, $00
; DATA_09C467:         db $00, $00, $00, $00, $00, $00, $00, $00
; DATA_09C46F:         db $00, $00, $00, $00, $00, $00, $00, $00
; DATA_09C477:         db $00, $00, $00, $00, $00, $00, $00, $00
; DATA_09C47F:         db $00, $00, $00, $00, $00, $00, $00, $00
; DATA_09C487:         db $00, $00, $00, $00, $00, $00, $00, $00
; DATA_09C48F:         db $00, $00, $00, $00, $00, $00, $00, $00
; DATA_09C497:         db $00, $00, $00, $00, $00, $00, $00, $00
; DATA_09C49F:         db $00, $00, $00, $00, $00, $00, $00, $00
; DATA_09C4A7:         db $00, $00, $00, $00, $00, $00, $00, $00
; DATA_09C4AF:         db $1C, $32, $21, $41, $41, $41, $41, $22
; DATA_09C4B7:         db $1C, $00, $00, $00, $0C, $14, $04, $04
; DATA_09C4BF:         db $04, $08, $08, $08, $1C, $00, $00, $00
; DATA_09C4C7:         db $1E, $31, $21, $01, $06, $18, $20, $42
; DATA_09C4CF:         db $7E, $00, $00, $00, $1C, $22, $02, $0C
; DATA_09C4D7:         db $02, $01, $41, $63, $3E, $00, $00, $00
; DATA_09C4DF:         db $22, $22, $44, $44, $64, $3F, $08, $08
; DATA_09C4E7:         db $08, $00, $00, $00, $20, $3E, $20, $20
; DATA_09C4EF:         db $3E, $03, $01, $43, $3E, $00, $00, $00
; DATA_09C4F7:         db $1C, $20, $40, $5E, $63, $41, $41, $23
; DATA_09C4FF:         db $1E, $00, $00, $00, $3F, $61, $42, $04
; DATA_09C507:         db $04, $08, $08, $08, $08, $00, $00, $00
; DATA_09C50F:         db $1C, $22, $22, $1C, $22, $41, $41, $63
; DATA_09C517:         db $3E, $00, $00, $00, $3E, $61, $41, $42
; DATA_09C51F:         db $3E, $04, $04, $08, $08, $00, $00, $00
; DATA_09C527:         db $1C, $26, $22, $43, $7F, $41, $41, $41
; DATA_09C52F:         db $01, $00, $00, $00, $7C, $22, $22, $3C
; DATA_09C537:         db $22, $21, $21, $23, $3E, $00, $00, $00
; DATA_09C53F:         db $1C, $22, $40, $40, $40, $40, $41, $23
; DATA_09C547:         db $1E, $00, $00, $00, $7C, $26, $23, $21
; DATA_09C54F:         db $21, $21, $21, $22, $7C, $00, $00, $00
; DATA_09C557:         db $3E, $40, $40, $40, $7C, $40, $40, $40
; DATA_09C55F:         db $7E, $00, $00, $00, $3E, $40, $40, $40
; DATA_09C567:         db $7C, $40, $40, $40, $20, $00, $00, $00
; DATA_09C56F:         db $1C, $22, $40, $40, $4F, $41, $41, $23
; DATA_09C577:         db $1E, $00, $00, $00, $21, $41, $41, $41
; DATA_09C57F:         db $7F, $41, $41, $41, $41, $00, $00, $00
; DATA_09C587:         db $38, $10, $10, $10, $20, $20, $20, $20
; DATA_09C58F:         db $70, $00, $00, $00, $01, $01, $01, $21
; DATA_09C597:         db $41, $41, $41, $62, $3C, $00, $00, $00
; DATA_09C59F:         db $42, $44, $48, $50, $70, $58, $4C, $46
; DATA_09C5A7:         db $43, $00, $00, $00, $40, $40, $40, $40
; DATA_09C5AF:         db $40, $40, $40, $40, $7E, $00, $00, $00
; DATA_09C5B7:         db $20, $21, $73, $55, $49, $41, $41, $41
; DATA_09C5BF:         db $21, $00, $00, $00, $42, $61, $61, $51
; DATA_09C5C7:         db $51, $49, $49, $45, $43, $00, $00, $00
; DATA_09C5CF:         db $1C, $26, $43, $41, $41, $41, $41, $23
; DATA_09C5D7:         db $1E, $00, $00, $00, $7E, $43, $41, $43
; DATA_09C5DF:         db $3E, $20, $20, $20, $20, $00, $00, $00
; DATA_09C5E7:         db $1C, $26, $43, $41, $41, $41, $51, $2A
; DATA_09C5EF:         db $1C, $02, $01, $00, $7C, $42, $41, $43
; DATA_09C5F7:         db $7E, $48, $44, $42, $41, $00, $00, $00
; DATA_09C5FF:         db $1C, $22, $20, $30, $1C, $02, $41, $43
; DATA_09C607:         db $3E, $00, $00, $00, $3F, $48, $08, $08
; DATA_09C60F:         db $08, $04, $04, $04, $04, $00, $00, $00
; DATA_09C617:         db $22, $21, $41, $41, $41, $41, $43, $66
; DATA_09C61F:         db $3C, $00, $00, $00, $40, $41, $21, $23
; DATA_09C627:         db $22, $16, $14, $1C, $08, $00, $00, $00
; DATA_09C62F:         db $42, $41, $41, $49, $49, $5D, $55, $77
; DATA_09C637:         db $22, $00, $00, $00, $40, $41, $23, $16
; DATA_09C63F:         db $0C, $1C, $32, $61, $41, $00, $00, $00
; DATA_09C647:         db $41, $43, $26, $1C, $08, $08, $08, $08
; DATA_09C64F:         db $08, $00, $00, $00, $70, $0F, $02, $04
; DATA_09C657:         db $08, $10, $20, $40, $7F, $00, $00, $00
; DATA_09C65F:         db $7E, $82, $BE, $A0, $A0, $A0, $E0, $00
; DATA_09C667:         db $00, $00, $00, $00, $00, $00, $00, $00
; DATA_09C66F:         db $00, $07, $05, $05, $05, $7D, $41, $7E
; DATA_09C677:         db $3C, $62, $42, $06, $0C, $18, $10, $00
; DATA_09C67F:         db $10, $10, $00, $00, $30, $30, $20, $60
; DATA_09C687:         db $40, $40, $40, $00, $40, $40, $00, $00
; DATA_09C68F:         db $00, $00, $00, $00, $00, $00, $00, $00
; DATA_09C697:         db $80, $C0, $60, $20, $00, $00, $00, $00
; DATA_09C69F:         db $00, $7F, $00, $00, $00, $00, $00, $00
; DATA_09C6A7:         db $03, $03, $03, $1F, $1F, $1E, $1F, $1F
; DATA_09C6AF:         db $03, $03, $03, $00, $E0, $E0, $E0, $FC
; DATA_09C6B7:         db $7C, $BC, $7C, $FC, $E0, $E0, $E0, $00
; DATA_09C6BF:         db $00, $00, $00, $00, $2A, $2A, $00, $00
; DATA_09C6C7:         db $00, $00, $00, $00, $00, $00, $00, $00
; DATA_09C6CF:         db $00, $00, $00, $00, $60, $90, $90, $60
; DATA_09C6D7:         db $00, $00, $00, $00, $00, $30, $49, $06
; DATA_09C6DF:         db $00, $00, $00, $00, $00, $00, $00, $00
; DATA_09C6E7:         db $00, $00, $00, $00, $30, $10, $20, $40
; DATA_09C6EF:         db $00, $00, $00, $00, $00, $00, $00, $00
; DATA_09C6F7:         db $00, $00, $00, $00, $48, $48, $6C, $24
; DATA_09C6FF:         db $00, $00, $00, $00, $00, $00, $00, $00
; DATA_09C707:         db $24, $24, $6C, $48, $00, $00, $00, $00
; DATA_09C70F:         db $00, $00, $00, $00, $00, $00, $00, $00
; DATA_09C717:         db $00, $18, $18, $00, $00, $00, $00, $00
; DATA_09C71F:         db $60, $70, $78, $7C, $7E, $7F, $7E, $7C
; DATA_09C727:         db $78, $70, $60, $00, $01, $1A, $27, $21
; DATA_09C72F:         db $20, $11, $0E, $02, $01, $00, $00, $00
; DATA_09C737:         db $80, $40, $60, $10, $10, $26, $3A, $12
; DATA_09C73F:         db $84, $58, $F0, $00, $00, $00, $44, $68
; DATA_09C747:         db $30, $18, $2C, $44, $00, $00, $00, $00
; DATA_09C74F:         db $00, $00, $00, $1C, $02, $3A, $44, $4E
; DATA_09C757:         db $3B, $00, $00, $00, $40, $20, $20, $2E
; DATA_09C75F:         db $31, $21, $21, $33, $5E, $00, $00, $00
; DATA_09C767:         db $00, $00, $00, $3C, $62, $40, $40, $63
; DATA_09C76F:         db $3E, $00, $00, $00, $02, $01, $01, $39
; DATA_09C777:         db $66, $42, $42, $46, $3B, $00, $00, $00
; DATA_09C77F:         db $00, $00, $00, $1C, $22, $7E, $40, $62
; DATA_09C787:         db $3C, $00, $00, $00, $0C, $1A, $10, $7E
; DATA_09C78F:         db $10, $10, $10, $08, $08, $00, $00, $00
; DATA_09C797:         db $00, $00, $02, $1E, $31, $23, $1E, $08
; DATA_09C79F:         db $3E, $61, $43, $3E, $40, $20, $20, $2E
; DATA_09C7A7:         db $31, $21, $22, $22, $21, $00, $00, $00
; DATA_09C7AF:         db $00, $20, $00, $40, $40, $40, $40, $60
; DATA_09C7B7:         db $30, $00, $00, $00, $00, $02, $00, $02
; DATA_09C7BF:         db $02, $02, $02, $02, $46, $4C, $38, $00
; DATA_09C7C7:         db $40, $40, $42, $64, $28, $38, $2C, $26
; DATA_09C7CF:         db $23, $00, $00, $00, $20, $20, $40, $40
; DATA_09C7D7:         db $40, $40, $40, $60, $30, $00, $00, $00
; DATA_09C7DF:         db $00, $00, $40, $56, $6B, $49, $49, $49
; DATA_09C7E7:         db $49, $00, $00, $00, $00, $00, $00, $5C
; DATA_09C7EF:         db $26, $22, $22, $22, $21, $00, $00, $00
; DATA_09C7F7:         db $00, $00, $00, $3C, $62, $41, $41, $23
; DATA_09C7FF:         db $1E, $00, $00, $00, $00, $00, $00, $5E
; DATA_09C807:         db $23, $21, $21, $13, $1E, $10, $10, $10
; DATA_09C80F:         db $00, $00, $00, $1D, $22, $46, $44, $4C
; DATA_09C817:         db $38, $08, $08, $04, $00, $00, $00, $5C
; DATA_09C81F:         db $32, $22, $20, $20, $20, $00, $00, $00
; DATA_09C827:         db $00, $00, $38, $44, $60, $3C, $06, $42
; DATA_09C82F:         db $3C, $00, $00, $00, $00, $08, $10, $7C
; DATA_09C837:         db $10, $10, $10, $19, $0E, $00, $00, $00
; DATA_09C83F:         db $00, $00, $00, $40, $42, $42, $42, $67
; DATA_09C847:         db $3D, $00, $00, $00, $00, $00, $01, $42
; DATA_09C84F:         db $62, $24, $34, $18, $08, $00, $00, $00
; DATA_09C857:         db $00, $00, $00, $21, $41, $49, $49, $5B
; DATA_09C85F:         db $36, $00, $00, $00, $00, $00, $01, $62
; DATA_09C867:         db $34, $18, $18, $2C, $43, $00, $00, $00
; DATA_09C86F:         db $00, $00, $00, $41, $21, $22, $12, $16
; DATA_09C877:         db $0C, $18, $30, $C0, $00, $00, $00, $3C
; DATA_09C87F:         db $03, $06, $18, $30, $7C, $03, $00, $00
; DATA_09C887:         db $03, $07, $0F, $1F, $3F, $7F, $3F, $1F
; DATA_09C88F:         db $0F, $07, $03, $00, $00, $00, $00, $00
; DATA_09C897:         db $00, $00, $00, $00, $60, $60, $00, $00
; DATA_09C89F:         db $0D, $12, $20, $43, $44, $40, $41, $20
; DATA_09C8A7:         db $11, $0C, $03, $00, $C0, $30, $08, $C4
; DATA_09C8AF:         db $22, $E2, $82, $0C, $84, $18, $E0, $00
; DATA_09C8B7:         db $00, $01, $02, $3C, $11, $09, $04, $04
; DATA_09C8BF:         db $38, $3D, $1E, $00, $80, $40, $20, $1E
; DATA_09C8C7:         db $44, $48, $10, $10, $8E, $5E, $3C, $00
; DATA_09C8CF:         db $01, $06, $09, $11, $10, $20, $20, $20
; DATA_09C8D7:         db $3F, $2B, $3F, $00, $C0, $30, $C8, $C4
; DATA_09C8DF:         db $84, $02, $82, $02, $FE, $02, $FE, $00
; DATA_09C8E7:         db $1C, $14, $14, $14, $14, $14, $77, $41
; DATA_09C8EF:         db $22, $14, $08, $00, $00, $00, $00, $00
; DATA_09C8F7:         db $00, $00, $00, $00, $00, $00, $00, $00
; DATA_09C8FF:         db $00, $00, $00, $00, $00, $00, $00, $00
; DATA_09C907:         db $00, $00, $00, $00, $00, $00, $00, $00
; DATA_09C90F:         db $00, $00, $00, $00, $00, $00, $00, $00
; DATA_09C917:         db $00, $00, $00, $00, $00, $00, $00, $00
; DATA_09C91F:         db $00, $00, $00, $00, $00, $00, $00, $00
; DATA_09C927:         db $00, $00, $00, $00, $00, $00, $00, $00

; message box pictures (1bpp)
; DATA_09C930:         db $00, $00, $00, $00, $00, $00, $00, $00
; DATA_09C938:         db $00, $00, $00, $00, $00, $00, $00, $00
; DATA_09C940:         db $00, $00, $00, $00, $00, $00, $00, $00
; DATA_09C948:         db $00, $00, $00, $00, $00, $00, $00, $00
; DATA_09C950:         db $00, $00, $00, $00, $00, $00, $00, $00
; DATA_09C958:         db $00, $00, $00, $00, $00, $00, $00, $00
; DATA_09C960:         db $00, $00, $00, $00, $00, $00, $00, $00
; DATA_09C968:         db $00, $00, $00, $00, $00, $00, $00, $00
; DATA_09C970:         db $00, $00, $00, $00, $00, $00, $00, $00
; DATA_09C978:         db $00, $00, $00, $00, $00, $00, $00, $00
; DATA_09C980:         db $00, $00, $03, $F8, $00, $00, $00, $00
; DATA_09C988:         db $00, $00, $00, $00, $00, $00, $00, $00
; DATA_09C990:         db $00, $03, $0C, $0E, $00, $00, $00, $00
; DATA_09C998:         db $00, $00, $00, $00, $00, $00, $00, $00
; DATA_09C9A0:         db $00, $03, $98, $03, $00, $00, $00, $00
; DATA_09C9A8:         db $00, $00, $00, $00, $00, $00, $00, $00
; DATA_09C9B0:         db $00, $1B, $B0, $01, $80, $00, $00, $00
; DATA_09C9B8:         db $00, $00, $00, $00, $04, $08, $00, $00
; DATA_09C9C0:         db $00, $19, $C0, $00, $C0, $00, $00, $00
; DATA_09C9C8:         db $00, $00, $00, $00, $04, $10, $00, $00
; DATA_09C9D0:         db $00, $1C, $C0, $00, $40, $00, $00, $00
; DATA_09C9D8:         db $00, $00, $00, $00, $02, $10, $00, $00
; DATA_09C9E0:         db $00, $0F, $00, $00, $60, $00, $00, $00
; DATA_09C9E8:         db $00, $00, $00, $00, $03, $20, $00, $00
; DATA_09C9F0:         db $00, $1F, $F8, $00, $20, $00, $00, $00
; DATA_09C9F8:         db $00, $00, $00, $00, $01, $C0, $00, $00
; DATA_09CA00:         db $00, $30, $0C, $00, $20, $1F, $F0, $00
; DATA_09CA08:         db $00, $00, $00, $00, $00, $80, $00, $00
; DATA_09CA10:         db $00, $60, $02, $00, $20, $1F, $F0, $00
; DATA_09CA18:         db $00, $00, $00, $00, $02, $30, $00, $00
; DATA_09CA20:         db $00, $40, $01, $00, $20, $1F, $B0, $00
; DATA_09CA28:         db $00, $00, $00, $00, $03, $30, $00, $00
; DATA_09CA30:         db $00, $C0, $00, $80, $20, $1F, $A0, $00
; DATA_09CA38:         db $00, $00, $00, $00, $03, $33, $FF, $00
; DATA_09CA40:         db $03, $80, $00, $C0, $20, $0F, $A0, $60
; DATA_09CA48:         db $00, $00, $00, $01, $C3, $BE, $01, $C0
; DATA_09CA50:         db $04, $80, $00, $40, $20, $0F, $E3, $E0
; DATA_09CA58:         db $00, $00, $00, $03, $6F, $38, $00, $60
; DATA_09CA60:         db $04, $80, $00, $40, $20, $0F, $FF, $E0
; DATA_09CA68:         db $00, $00, $00, $02, $33, $30, $04, $30
; DATA_09CA70:         db $04, $80, $00, $40, $67, $FF, $FF, $A0
; DATA_09CA78:         db $00, $00, $00, $02, $30, $00, $48, $10
; DATA_09CA80:         db $03, $C0, $00, $00, $47, $FC, $7F, $E0
; DATA_09CA88:         db $00, $00, $00, $02, $64, $0C, $90, $08
; DATA_09CA90:         db $01, $40, $00, $00, $C7, $F8, $3F, $A0
; DATA_09CA98:         db $00, $00, $02, $02, $44, $19, $21, $08
; DATA_09CAA0:         db $02, $40, $00, $00, $87, $F8, $3F, $A0
; DATA_09CAA8:         db $00, $00, $03, $03, $4E, $32, $62, $08
; DATA_09CAB0:         db $02, $60, $00, $03, $07, $F8, $3C, $20
; DATA_09CAB8:         db $7C, $00, $05, $06, $4A, $26, $C2, $08
; DATA_09CAC0:         db $02, $20, $00, $1C, $07, $3C, $7F, $E1
; DATA_09CAC8:         db $C7, $00, $0C, $CC, $4A, $04, $00, $08
; DATA_09CAD0:         db $01, $F0, $00, $04, $04, $FF, $C0, $03
; DATA_09CAD8:         db $C1, $80, $08, $78, $44, $00, $00, $08
; DATA_09CAE0:         db $00, $38, $00, $04, $07, $8F, $E0, $03
; DATA_09CAE8:         db $C2, $80, $08, $4C, $40, $00, $00, $08
; DATA_09CAF0:         db $00, $36, $04, $0C, $00, $0F, $E0, $07
; DATA_09CAF8:         db $C1, $80, $10, $47, $A0, $00, $00, $08
; DATA_09CB00:         db $00, $1E, $07, $F0, $00, $1F, $F0, $0F
; DATA_09CB08:         db $87, $40, $10, $40, $B0, $00, $00, $10
; DATA_09CB10:         db $00, $06, $06, $00, $00, $1F, $F0, $0F
; DATA_09CB18:         db $8F, $C0, $10, $67, $F8, $00, $00, $30
; DATA_09CB20:         db $00, $7C, $83, $C0, $00, $1F, $D0, $1E
; DATA_09CB28:         db $0F, $C0, $10, $3C, $B8, $00, $00, $60
; DATA_09CB30:         db $0F, $D9, $83, $60, $00, $1F, $10, $10
; DATA_09CB38:         db $0F, $C0, $10, $60, $00, $00, $00, $80
; DATA_09CB40:         db $08, $11, $01, $30, $00, $1F, $F0, $10
; DATA_09CB48:         db $0F, $C0, $10, $40, $C0, $10, $03, $80
; DATA_09CB50:         db $08, $23, $01, $10, $00, $00, $00, $10
; DATA_09CB58:         db $07, $40, $10, $C0, $81, $08, $06, $00
; DATA_09CB60:         db $08, $61, $81, $30, $00, $00, $00, $10
; DATA_09CB68:         db $02, $C0, $18, $81, $03, $07, $F8, $00
; DATA_09CB70:         db $04, $60, $43, $E0, $00, $00, $00, $1B
; DATA_09CB78:         db $89, $C0, $28, $81, $02, $01, $80, $00
; DATA_09CB80:         db $04, $20, $42, $C0, $00, $3F, $F0, $0F
; DATA_09CB88:         db $E5, $80, $44, $82, $06, $00, $00, $00
; DATA_09CB90:         db $02, $30, $C4, $00, $00, $1F, $E0, $0F
; DATA_09CB98:         db $F3, $80, $92, $66, $18, $00, $00, $00
; DATA_09CBA0:         db $01, $19, $88, $00, $00, $1F, $C0, $07
; DATA_09CBA8:         db $F7, $00, $A1, $9C, $70, $00, $00, $00
; DATA_09CBB0:         db $00, $CE, $10, $00, $00, $0F, $80, $03
; DATA_09CBB8:         db $FE, $61, $20, $E0, $F8, $00, $00, $00
; DATA_09CBC0:         db $00, $30, $60, $00, $00, $07, $00, $00
; DATA_09CBC8:         db $F8, $11, $41, $FF, $BF, $00, $00, $00
; DATA_09CBD0:         db $00, $FF, $BC, $00, $00, $07, $00, $00
; DATA_09CBD8:         db $01, $8A, $47, $C0, $C0, $E0, $00, $00
; DATA_09CBE0:         db $03, $1C, $03, $80, $00, $02, $00, $00
; DATA_09CBE8:         db $00, $64, $8C, $31, $80, $10, $00, $00
; DATA_09CBF0:         db $04, $02, $00, $C0, $00, $00, $00, $00
; DATA_09CBF8:         db $00, $10, $98, $0D, $80, $10, $00, $00
; DATA_09CC00:         db $08, $01, $00, $40, $00, $00, $00, $00
; DATA_09CC08:         db $00, $09, $10, $04, $E0, $70, $00, $00
; DATA_09CC10:         db $0C, $01, $FF, $C0, $00, $00, $00, $00
; DATA_09CC18:         db $00, $00, $13, $FE, $1F, $C0, $00, $00
; DATA_09CC20:         db $07, $FE, $00, $00, $00, $00, $00, $00
; DATA_09CC28:         db $00, $00, $1C, $00, $00, $00, $00, $00
; DATA_09CC30:         db $00, $00, $00, $00, $00, $00, $00, $00
; DATA_09CC38:         db $00, $00, $00, $00, $00, $00, $00, $00
; DATA_09CC40:         db $00, $00, $00, $00, $00, $00, $00, $00
; DATA_09CC48:         db $00, $00, $00, $02, $00, $00, $00, $00
; DATA_09CC50:         db $00, $00, $00, $18, $00, $00, $00, $00
; DATA_09CC58:         db $00, $00, $00, $02, $00, $00, $00, $00
; DATA_09CC60:         db $00, $00, $01, $9B, $E0, $00, $00, $00
; DATA_09CC68:         db $00, $00, $21, $02, $00, $00, $00, $00
; DATA_09CC70:         db $00, $00, $01, $9F, $F8, $00, $00, $00
; DATA_09CC78:         db $00, $00, $20, $81, $00, $00, $00, $00
; DATA_09CC80:         db $00, $00, $01, $CE, $0C, $00, $00, $00
; DATA_09CC88:         db $00, $00, $20, $81, $00, $00, $00, $00
; DATA_09CC90:         db $00, $00, $00, $D8, $06, $00, $00, $00
; DATA_09CC98:         db $00, $00, $10, $81, $00, $00, $00, $00
; DATA_09CCA0:         db $00, $00, $30, $D0, $02, $00, $00, $00
; DATA_09CCA8:         db $00, $00, $08, $80, $80, $00, $00, $00
; DATA_09CCB0:         db $00, $00, $4C, $10, $03, $00, $00, $00
; DATA_09CCB8:         db $00, $00, $08, $40, $80, $00, $00, $00
; DATA_09CCC0:         db $00, $00, $C3, $00, $03, $00, $00, $00
; DATA_09CCC8:         db $00, $00, $08, $40, $80, $00, $00, $00
; DATA_09CCD0:         db $00, $00, $8C, $80, $03, $00, $00, $00
; DATA_09CCD8:         db $00, $00, $08, $40, $00, $00, $00, $00
; DATA_09CCE0:         db $00, $00, $74, $00, $03, $00, $00, $00
; DATA_09CCE8:         db $00, $00, $08, $40, $40, $00, $00, $00
; DATA_09CCF0:         db $00, $00, $38, $00, $03, $00, $00, $00
; DATA_09CCF8:         db $00, $00, $01, $E0, $E6, $00, $00, $00
; DATA_09CD00:         db $00, $00, $28, $00, $02, $00, $00, $00
; DATA_09CD08:         db $00, $00, $03, $30, $EE, $00, $00, $00
; DATA_09CD10:         db $00, $00, $68, $40, $02, $00, $00, $00
; DATA_09CD18:         db $00, $00, $02, $11, $CE, $00, $00, $00
; DATA_09CD20:         db $00, $00, $78, $20, $0C, $00, $00, $00
; DATA_09CD28:         db $00, $00, $02, $19, $9C, $00, $00, $00
; DATA_09CD30:         db $00, $00, $3C, $30, $08, $00, $00, $00
; DATA_09CD38:         db $00, $00, $03, $E0, $3F, $C0, $00, $00
; DATA_09CD40:         db $00, $00, $3C, $1C, $30, $00, $00, $00
; DATA_09CD48:         db $00, $00, $04, $C0, $00, $30, $00, $00
; DATA_09CD50:         db $00, $00, $0F, $07, $E0, $00, $00, $00
; DATA_09CD58:         db $00, $00, $09, $80, $00, $18, $00, $00
; DATA_09CD60:         db $00, $00, $03, $F2, $00, $00, $00, $00
; DATA_09CD68:         db $00, $00, $09, $00, $00, $08, $00, $00
; DATA_09CD70:         db $00, $00, $00, $63, $00, $00, $01, $00
; DATA_09CD78:         db $00, $00, $07, $0C, $00, $0C, $00, $00
; DATA_09CD80:         db $00, $00, $00, $41, $00, $00, $03, $00
; DATA_09CD88:         db $00, $00, $07, $18, $00, $04, $00, $00
; DATA_09CD90:         db $00, $00, $00, $81, $00, $03, $03, $00
; DATA_09CD98:         db $00, $00, $35, $88, $00, $04, $00, $00
; DATA_09CDA0:         db $00, $00, $03, $C1, $00, $03, $C3, $80
; DATA_09CDA8:         db $00, $00, $FB, $C8, $00, $04, $00, $00
; DATA_09CDB0:         db $00, $00, $07, $40, $80, $03, $F7, $80
; DATA_09CDB8:         db $00, $01, $09, $F8, $00, $04, $00, $00
; DATA_09CDC0:         db $00, $00, $39, $40, $80, $03, $FF, $C0
; DATA_09CDC8:         db $00, $01, $0F, $44, $00, $08, $00, $00
; DATA_09CDD0:         db $00, $03, $C2, $71, $80, $07, $FF, $C0
; DATA_09CDD8:         db $00, $01, $01, $C6, $00, $18, $00, $00
; DATA_09CDE0:         db $00, $03, $06, $11, $00, $07, $FF, $E0
; DATA_09CDE8:         db $00, $01, $80, $43, $00, $30, $00, $00
; DATA_09CDF0:         db $00, $01, $06, $31, $00, $0F, $FF, $F0
; DATA_09CDF8:         db $00, $00, $FE, $41, $80, $40, $00, $00
; DATA_09CE00:         db $00, $00, $C3, $E3, $00, $0F, $FF, $F8
; DATA_09CE08:         db $00, $40, $72, $C0, $E3, $80, $00, $00
; DATA_09CE10:         db $00, $00, $E0, $06, $00, $07, $FF, $FC
; DATA_09CE18:         db $00, $60, $03, $80, $DC, $00, $00, $00
; DATA_09CE20:         db $00, $00, $30, $18, $00, $01, $FF, $F8
; DATA_09CE28:         db $00, $78, $07, $00, $60, $04, $00, $00
; DATA_09CE30:         db $00, $00, $0F, $F0, $00, $00, $1F, $E0
; DATA_09CE38:         db $00, $20, $1C, $08, $20, $84, $00, $00
; DATA_09CE40:         db $00, $00, $00, $00, $00, $00, $1F, $80
; DATA_09CE48:         db $00, $20, $78, $3C, $21, $C3, $00, $00
; DATA_09CE50:         db $00, $00, $0E, $70, $00, $00, $1E, $00
; DATA_09CE58:         db $00, $20, $20, $3C, $23, $C0, $E0, $00
; DATA_09CE60:         db $00, $00, $1E, $50, $00, $00, $3E, $00
; DATA_09CE68:         db $00, $40, $20, $7C, $67, $C1, $80, $00
; DATA_09CE70:         db $00, $02, $32, $90, $00, $00, $38, $00
; DATA_09CE78:         db $00, $80, $30, $F8, $4F, $C2, $00, $00
; DATA_09CE80:         db $00, $04, $26, $90, $00, $00, $30, $00
; DATA_09CE88:         db $07, $C0, $19, $F8, $4F, $84, $00, $00
; DATA_09CE90:         db $00, $04, $24, $90, $00, $00, $00, $00
; DATA_09CE98:         db $00, $60, $0F, $E0, $9E, $0C, $00, $00
; DATA_09CEA0:         db $00, $08, $28, $E0, $00, $00, $00, $00
; DATA_09CEA8:         db $00, $10, $07, $E3, $1C, $08, $00, $00
; DATA_09CEB0:         db $00, $18, $B0, $60, $00, $00, $00, $00
; DATA_09CEB8:         db $00, $10, $03, $C6, $18, $38, $00, $00
; DATA_09CEC0:         db $00, $11, $00, $00, $00, $00, $00, $00
; DATA_09CEC8:         db $00, $3E, $03, $F8, $01, $CC, $00, $00
; DATA_09CED0:         db $00, $11, $00, $00, $00, $00, $00, $00
; DATA_09CED8:         db $00, $62, $E0, $00, $01, $02, $00, $00
; DATA_09CEE0:         db $00, $11, $08, $00, $00, $00, $00, $00
; DATA_09CEE8:         db $00, $C3, $B0, $00, $7A, $00, $00, $00
; DATA_09CEF0:         db $00, $02, $10, $00, $00, $00, $00, $00
; DATA_09CEF8:         db $00, $03, $17, $CF, $46, $00, $00, $00
; DATA_09CF00:         db $00, $02, $10, $00, $00, $00, $00, $00
; DATA_09CF08:         db $00, $04, $18, $69, $C3, $00, $00, $00
; DATA_09CF10:         db $00, $02, $20, $00, $00, $00, $00, $00
; DATA_09CF18:         db $00, $00, $08, $18, $41, $00, $00, $00
; DATA_09CF20:         db $00, $02, $20, $00, $00, $00, $00, $00
; DATA_09CF28:         db $00, $00, $00, $18, $00, $00, $00, $00
; DATA_09CF30:         db $00, $00, $00, $00, $00, $00, $00, $00
; DATA_09CF38:         db $00, $00, $00, $00, $00, $00, $00, $00
; DATA_09CF40:         db $00, $00, $00, $00, $00, $00, $00, $00
; DATA_09CF48:         db $00, $00, $00, $00, $00, $00, $00, $00
; DATA_09CF50:         db $00, $00, $00, $00, $00, $00, $00, $00
; DATA_09CF58:         db $00, $00, $00, $00, $00, $00, $00, $00
; DATA_09CF60:         db $00, $00, $00, $00, $00, $00, $00, $00
; DATA_09CF68:         db $00, $00, $00, $00, $00, $00, $00, $00
; DATA_09CF70:         db $00, $00, $00, $00, $00, $00, $00, $00
; DATA_09CF78:         db $00, $00, $00, $00, $00, $00, $00, $00
; DATA_09CF80:         db $00, $00, $00, $00, $00, $00, $00, $00
; DATA_09CF88:         db $00, $00, $00, $00, $00, $00, $00, $00
; DATA_09CF90:         db $00, $00, $00, $00, $00, $00, $00, $00
; DATA_09CF98:         db $00, $00, $00, $00, $00, $00, $00, $00
; DATA_09CFA0:         db $00, $00, $00, $00, $00, $00, $00, $00
; DATA_09CFA8:         db $00, $00, $00, $00, $00, $00, $00, $00
; DATA_09CFB0:         db $00, $00, $00, $00, $00, $00, $00, $00
; DATA_09CFB8:         db $00, $00, $00, $00, $00, $00, $00, $00
; DATA_09CFC0:         db $00, $00, $00, $00, $00, $00, $00, $00
; DATA_09CFC8:         db $00, $00, $00, $00, $00, $00, $00, $00
; DATA_09CFD0:         db $00, $00, $00, $00, $00, $00, $00, $00
; DATA_09CFD8:         db $00, $00, $00, $00, $00, $00, $00, $00
; DATA_09CFE0:         db $00, $00, $00, $00, $00, $00, $00, $00
; DATA_09CFE8:         db $00, $00, $00, $00, $00, $00, $00, $00
; DATA_09CFF0:         db $00, $00, $00, $00, $00, $00, $00, $00
; DATA_09CFF8:         db $00, $00, $00, $00, $00, $00, $00, $00
; DATA_09D000:         db $00, $00, $00, $00, $00, $00, $00, $00
; DATA_09D008:         db $00, $00, $00, $00, $00, $00, $00, $00
; DATA_09D010:         db $00, $00, $00, $00, $00, $00, $00, $00
; DATA_09D018:         db $00, $00, $00, $00, $00, $00, $00, $00
; DATA_09D020:         db $00, $00, $00, $00, $00, $00, $00, $00
; DATA_09D028:         db $00, $00, $00, $00, $00, $00, $00, $00
; DATA_09D030:         db $00, $00, $00, $00, $00, $00, $00, $00
; DATA_09D038:         db $00, $00, $00, $00, $00, $00, $00, $00
; DATA_09D040:         db $00, $00, $00, $00, $00, $00, $00, $00
; DATA_09D048:         db $00, $00, $00, $00, $00, $00, $00, $00
; DATA_09D050:         db $00, $00, $00, $00, $00, $00, $00, $00
; DATA_09D058:         db $00, $00, $00, $00, $00, $00, $00, $00
; DATA_09D060:         db $00, $00, $00, $00, $00, $00, $00, $00
; DATA_09D068:         db $00, $00, $00, $00, $00, $00, $00, $00
; DATA_09D070:         db $00, $00, $00, $00, $00, $00, $00, $00
; DATA_09D078:         db $00, $00, $00, $00, $00, $00, $00, $00
; DATA_09D080:         db $00, $00, $00, $00, $00, $00, $00, $00
; DATA_09D088:         db $00, $00, $00, $00, $00, $00, $00, $00
; DATA_09D090:         db $00, $00, $00, $00, $00, $00, $00, $00
; DATA_09D098:         db $00, $00, $00, $00, $00, $00, $00, $00
; DATA_09D0A0:         db $00, $00, $00, $00, $00, $00, $00, $00
; DATA_09D0A8:         db $00, $00, $00, $00, $00, $00, $00, $00
; DATA_09D0B0:         db $00, $00, $00, $00, $00, $00, $00, $00
; DATA_09D0B8:         db $00, $00, $00, $00, $00, $00, $00, $00
; DATA_09D0C0:         db $00, $00, $00, $00, $00, $00, $00, $00
; DATA_09D0C8:         db $00, $00, $00, $00, $00, $00, $00, $00
; DATA_09D0D0:         db $00, $00, $00, $00, $00, $00, $00, $00
; DATA_09D0D8:         db $00, $00, $00, $00, $00, $00, $00, $00
; DATA_09D0E0:         db $00, $00, $00, $00, $00, $00, $00, $00
; DATA_09D0E8:         db $00, $00, $00, $00, $00, $00, $00, $00
; DATA_09D0F0:         db $00, $00, $00, $00, $00, $00, $00, $00
; DATA_09D0F8:         db $00, $00, $00, $00, $00, $00, $00, $00
; DATA_09D100:         db $00, $00, $00, $00, $00, $00, $00, $00
; DATA_09D108:         db $00, $00, $00, $00, $00, $00, $00, $00
; DATA_09D110:         db $00, $00, $00, $00, $00, $00, $00, $00
; DATA_09D118:         db $00, $00, $00, $00, $00, $00, $00, $00
; DATA_09D120:         db $00, $00, $00, $00, $00, $00, $00, $00
; DATA_09D128:         db $00, $00, $00, $00, $00, $00, $00, $00
; DATA_09D130:         db $00, $00, $00, $00, $00, $00, $00, $00
; DATA_09D138:         db $00, $00, $00, $00, $00, $00, $00, $00
; DATA_09D140:         db $00, $00, $00, $00, $00, $00, $00, $00
; DATA_09D148:         db $00, $00, $00, $00, $00, $00, $00, $00
; DATA_09D150:         db $00, $00, $00, $00, $00, $00, $00, $00
; DATA_09D158:         db $00, $00, $00, $00, $00, $00, $00, $00
; DATA_09D160:         db $00, $00, $00, $18, $00, $00, $00, $00
; DATA_09D168:         db $00, $00, $00, $00, $00, $00, $00, $00
; DATA_09D170:         db $00, $00, $00, $1C, $07, $C0, $00, $00
; DATA_09D178:         db $00, $00, $00, $00, $00, $00, $00, $00
; DATA_09D180:         db $00, $00, $01, $9C, $18, $38, $00, $00
; DATA_09D188:         db $00, $00, $00, $00, $00, $00, $00, $00
; DATA_09D190:         db $00, $00, $01, $8E, $60, $04, $00, $00
; DATA_09D198:         db $00, $00, $01, $F8, $00, $00, $00, $00
; DATA_09D1A0:         db $00, $00, $01, $CE, $C0, $02, $00, $00
; DATA_09D1A8:         db $00, $00, $01, $04, $00, $07, $00, $00
; DATA_09D1B0:         db $00, $00, $00, $C6, $80, $03, $00, $00
; DATA_09D1B8:         db $00, $00, $03, $04, $00, $18, $C0, $00
; DATA_09D1C0:         db $00, $00, $00, $E1, $00, $01, $00, $00
; DATA_09D1C8:         db $70, $00, $03, $04, $00, $38, $20, $00
; DATA_09D1D0:         db $00, $00, $00, $61, $00, $00, $80, $00
; DATA_09D1D8:         db $90, $00, $01, $0B, $80, $7C, $10, $00
; DATA_09D1E0:         db $00, $00, $00, $02, $00, $00, $80, $01
; DATA_09D1E8:         db $8E, $00, $01, $00, $C3, $FC, $08, $00
; DATA_09D1F0:         db $00, $00, $00, $72, $00, $00, $80, $03
; DATA_09D1F8:         db $83, $00, $03, $40, $7C, $7C, $E8, $00
; DATA_09D200:         db $00, $00, $06, $82, $00, $00, $80, $02
; DATA_09D208:         db $03, $80, $02, $30, $E0, $F9, $F4, $00
; DATA_09D210:         db $00, $00, $0F, $00, $00, $00, $80, $06
; DATA_09D218:         db $20, $80, $07, $E0, $60, $D9, $F4, $00
; DATA_09D220:         db $00, $00, $0A, $00, $00, $00, $80, $06
; DATA_09D228:         db $20, $80, $7C, $20, $C0, $E1, $F4, $00
; DATA_09D230:         db $00, $00, $0A, $00, $00, $00, $80, $03
; DATA_09D238:         db $38, $CF, $84, $10, $C1, $C0, $E2, $00
; DATA_09D240:         db $00, $00, $0A, $00, $00, $01, $80, $01
; DATA_09D248:         db $0C, $F0, $06, $18, $3E, $B8, $02, $00
; DATA_09D250:         db $00, $00, $0E, $00, $00, $03, $00, $03
; DATA_09D258:         db $7C, $C0, $01, $18, $20, $FC, $02, $00
; DATA_09D260:         db $00, $00, $0A, $00, $00, $02, $00, $0F
; DATA_09D268:         db $84, $C0, $03, $F0, $30, $FE, $0E, $00
; DATA_09D270:         db $00, $00, $0B, $07, $00, $0C, $00, $F1
; DATA_09D278:         db $0C, $60, $3E, $10, $10, $FE, $1E, $00
; DATA_09D280:         db $00, $00, $09, $01, $C0, $78, $00, $03
; DATA_09D288:         db $18, $27, $C2, $10, $1F, $FC, $3C, $00
; DATA_09D290:         db $00, $00, $0F, $C0, $7F, $E0, $00, $02
; DATA_09D298:         db $18, $38, $02, $18, $30, $78, $3C, $00
; DATA_09D2A0:         db $00, $00, $00, $79, $90, $D0, $00, $03
; DATA_09D2A8:         db $BC, $10, $01, $FC, $60, $20, $38, $00
; DATA_09D2B0:         db $00, $00, $00, $2F, $0C, $9F, $00, $07
; DATA_09D2B8:         db $CC, $30, $7F, $E0, $20, $18, $30, $00
; DATA_09D2C0:         db $00, $00, $00, $79, $87, $99, $80, $F8
; DATA_09D2C8:         db $C8, $7F, $80, $28, $20, $07, $C0, $00
; DATA_09D2D0:         db $00, $00, $00, $47, $FC, $00, $80, $00
; DATA_09D2D8:         db $F8, $60, $00, $28, $20, $00, $00, $00
; DATA_09D2E0:         db $00, $07, $61, $A1, $EC, $00, $80, $03
; DATA_09D2E8:         db $E0, $60, $00, $1C, $20, $00, $00, $00
; DATA_09D2F0:         db $00, $1C, $81, $01, $94, $00, $9C, $00
; DATA_09D2F8:         db $16, $40, $00, $03, $C0, $00, $00, $00
; DATA_09D300:         db $00, $31, $01, $07, $1A, $01, $E4, $00
; DATA_09D308:         db $1E, $60, $00, $00, $00, $00, $00, $00
; DATA_09D310:         db $00, $C6, $03, $8F, $0B, $FF, $84, $00
; DATA_09D318:         db $07, $C0, $00, $00, $00, $00, $00, $00
; DATA_09D320:         db $03, $88, $0E, $FB, $0A, $61, $04, $00
; DATA_09D328:         db $00, $00, $00, $00, $00, $00, $00, $00
; DATA_09D330:         db $06, $30, $30, $02, $0A, $22, $08, $00
; DATA_09D338:         db $00, $00, $00, $00, $00, $00, $00, $00
; DATA_09D340:         db $08, $40, $C0, $E2, $0A, $22, $18, $00
; DATA_09D348:         db $00, $00, $00, $00, $00, $00, $00, $00
; DATA_09D350:         db $10, $47, $03, $22, $14, $24, $30, $00
; DATA_09D358:         db $00, $00, $00, $00, $00, $00, $00, $00
; DATA_09D360:         db $20, $78, $0D, $17, $34, $68, $60, $00
; DATA_09D368:         db $00, $00, $00, $00, $00, $00, $00, $00
; DATA_09D370:         db $40, $00, $71, $0F, $E8, $69, $C0, $00
; DATA_09D378:         db $00, $00, $00, $00, $00, $00, $00, $00
; DATA_09D380:         db $40, $03, $81, $07, $F0, $4B, $00, $00
; DATA_09D388:         db $00, $00, $00, $00, $00, $00, $00, $00
; DATA_09D390:         db $60, $3E, $01, $82, $00, $CC, $00, $00
; DATA_09D398:         db $00, $00, $00, $00, $00, $00, $00, $00
; DATA_09D3A0:         db $3F, $F0, $00, $81, $01, $C0, $00, $00
; DATA_09D3A8:         db $00, $00, $00, $00, $00, $00, $00, $00
; DATA_09D3B0:         db $07, $80, $00, $C1, $C3, $00, $00, $00
; DATA_09D3B8:         db $00, $00, $00, $00, $00, $00, $00, $00
; DATA_09D3C0:         db $00, $00, $00, $30, $FC, $00, $00, $00
; DATA_09D3C8:         db $00, $00, $00, $00, $00, $00, $00, $00
; DATA_09D3D0:         db $00, $00, $00, $0F, $80, $00, $00, $00
; DATA_09D3D8:         db $00, $00, $00, $00, $00, $00, $00, $00
; DATA_09D3E0:         db $00, $00, $00, $01, $80, $00, $00, $00
; DATA_09D3E8:         db $00, $00, $00, $00, $00, $00, $00, $00
; DATA_09D3F0:         db $00, $00, $00, $00, $00, $00, $00, $00
; DATA_09D3F8:         db $00, $00, $00, $00, $00, $00, $00, $00
; DATA_09D400:         db $00, $00, $00, $00, $00, $00, $00, $00
; DATA_09D408:         db $00, $00, $00, $00, $00, $00, $00, $00
; DATA_09D410:         db $00, $00, $00, $00, $00, $00, $00, $00
; DATA_09D418:         db $00, $00, $00, $00, $00, $00, $00, $00
; DATA_09D420:         db $00, $00, $00, $00, $00, $00, $00, $00
; DATA_09D428:         db $00, $00, $00, $00, $00, $00, $00, $00
; DATA_09D430:         db $00, $00, $00, $00, $00, $00, $00, $00
; DATA_09D438:         db $00, $00, $00, $00, $00, $00, $00, $00
; DATA_09D440:         db $00, $00, $00, $00, $00, $00, $00, $00
; DATA_09D448:         db $00, $00, $00, $00, $00, $00, $00, $00
; DATA_09D450:         db $00, $00, $00, $00, $00, $00, $00, $00
; DATA_09D458:         db $00, $00, $00, $00, $00, $00, $00, $00
; DATA_09D460:         db $00, $00, $00, $00, $00, $00, $00, $00
; DATA_09D468:         db $00, $00, $00, $00, $00, $00, $00, $00
; DATA_09D470:         db $00, $00, $00, $00, $00, $00, $00, $00
; DATA_09D478:         db $00, $00, $00, $00, $00, $00, $00, $00
; DATA_09D480:         db $00, $00, $00, $00, $00, $00, $00, $00
; DATA_09D488:         db $00, $00, $00, $00, $00, $00, $00, $00
; DATA_09D490:         db $00, $00, $00, $00, $00, $00, $00, $00
; DATA_09D498:         db $00, $00, $00, $00, $00, $00, $00, $00
; DATA_09D4A0:         db $00, $00, $00, $00, $00, $00, $00, $00
; DATA_09D4A8:         db $00, $00, $00, $00, $00, $00, $00, $00
; DATA_09D4B0:         db $00, $00, $00, $00, $00, $00, $00, $00
; DATA_09D4B8:         db $00, $00, $00, $00, $00, $00, $00, $00
; DATA_09D4C0:         db $00, $00, $00, $00, $00, $00, $00, $00
; DATA_09D4C8:         db $00, $00, $00, $00, $00, $00, $00, $00
; DATA_09D4D0:         db $00, $00, $00, $00, $66, $00, $00, $00
; DATA_09D4D8:         db $00, $00, $00, $00, $00, $00, $00, $00
; DATA_09D4E0:         db $00, $00, $00, $00, $66, $00, $00, $00
; DATA_09D4E8:         db $00, $00, $00, $00, $00, $00, $00, $00
; DATA_09D4F0:         db $00, $00, $00, $00, $66, $1F, $00, $00
; DATA_09D4F8:         db $00, $00, $00, $00, $00, $00, $00, $00
; DATA_09D500:         db $00, $00, $00, $00, $66, $71, $80, $00
; DATA_09D508:         db $00, $00, $00, $00, $00, $00, $00, $00
; DATA_09D510:         db $00, $00, $00, $00, $67, $80, $60, $00
; DATA_09D518:         db $00, $00, $00, $00, $00, $00, $00, $00
; DATA_09D520:         db $00, $00, $00, $00, $06, $00, $20, $00
; DATA_09D528:         db $00, $00, $00, $00, $00, $00, $00, $00
; DATA_09D530:         db $00, $00, $00, $00, $08, $00, $10, $00
; DATA_09D538:         db $00, $00, $00, $00, $00, $00, $00, $00
; DATA_09D540:         db $00, $00, $00, $00, $F0, $00, $10, $00
; DATA_09D548:         db $00, $00, $00, $00, $00, $00, $00, $00
; DATA_09D550:         db $00, $00, $00, $F3, $00, $00, $08, $00
; DATA_09D558:         db $00, $00, $00, $00, $00, $00, $00, $00
; DATA_09D560:         db $00, $00, $01, $9C, $00, $00, $08, $00
; DATA_09D568:         db $00, $00, $00, $00, $30, $00, $00, $00
; DATA_09D570:         db $00, $00, $02, $08, $00, $00, $08, $00
; DATA_09D578:         db $00, $00, $00, $00, $50, $00, $00, $00
; DATA_09D580:         db $00, $00, $02, $10, $00, $00, $08, $00
; DATA_09D588:         db $00, $00, $00, $00, $97, $FC, $00, $00
; DATA_09D590:         db $00, $00, $02, $10, $00, $00, $08, $00
; DATA_09D598:         db $00, $00, $00, $00, $9F, $07, $00, $00
; DATA_09D5A0:         db $00, $00, $01, $F0, $00, $00, $10, $00
; DATA_09D5A8:         db $00, $00, $00, $00, $7B, $E1, $80, $00
; DATA_09D5B0:         db $00, $00, $00, $F0, $00, $00, $10, $00
; DATA_09D5B8:         db $00, $00, $00, $00, $3C, $F8, $40, $00
; DATA_09D5C0:         db $00, $00, $00, $90, $03, $E0, $20, $00
; DATA_09D5C8:         db $00, $00, $00, $00, $77, $1E, $60, $00
; DATA_09D5D0:         db $00, $00, $00, $98, $0C, $1C, $60, $00
; DATA_09D5D8:         db $00, $00, $00, $00, $53, $87, $30, $00
; DATA_09D5E0:         db $00, $03, $00, $C8, $10, $07, $80, $00
; DATA_09D5E8:         db $00, $00, $01, $FC, $D1, $C3, $B0, $00
; DATA_09D5F0:         db $00, $03, $C3, $FC, $30, $00, $00, $00
; DATA_09D5F8:         db $00, $00, $06, $06, $90, $E1, $90, $00
; DATA_09D600:         db $00, $02, $6C, $66, $20, $00, $00, $00
; DATA_09D608:         db $00, $00, $04, $03, $98, $F0, $D0, $00
; DATA_09D610:         db $00, $02, $38, $23, $3F, $FF, $FF, $FF
; DATA_09D618:         db $FF, $FF, $F8, $01, $98, $78, $D0, $00
; DATA_09D620:         db $00, $02, $6F, $FF, $20, $00, $00, $00
; DATA_09D628:         db $00, $00, $00, $01, $98, $3C, $D0, $00
; DATA_09D630:         db $00, $02, $98, $7D, $20, $00, $00, $00
; DATA_09D638:         db $00, $00, $00, $01, $9C, $1C, $50, $00
; DATA_09D640:         db $00, $01, $81, $81, $BF, $FF, $FF, $FF
; DATA_09D648:         db $FF, $FF, $FC, $03, $CC, $0E, $70, $00
; DATA_09D650:         db $00, $01, $86, $02, $A0, $00, $00, $00
; DATA_09D658:         db $00, $00, $03, $8E, $4F, $06, $20, $00
; DATA_09D660:         db $00, $01, $84, $06, $A0, $00, $00, $00
; DATA_09D668:         db $00, $00, $00, $78, $47, $83, $60, $00
; DATA_09D670:         db $00, $00, $CC, $04, $B8, $00, $00, $00
; DATA_09D678:         db $00, $00, $00, $00, $23, $E1, $C0, $00
; DATA_09D680:         db $00, $00, $F8, $18, $86, $00, $00, $00
; DATA_09D688:         db $00, $00, $00, $00, $18, $7D, $80, $00
; DATA_09D690:         db $00, $00, $60, $EC, $42, $00, $00, $00
; DATA_09D698:         db $00, $00, $00, $00, $06, $07, $00, $00
; DATA_09D6A0:         db $00, $03, $FF, $FB, $66, $00, $00, $00
; DATA_09D6A8:         db $00, $00, $00, $00, $01, $FE, $00, $00
; DATA_09D6B0:         db $00, $04, $03, $E0, $BC, $00, $00, $00
; DATA_09D6B8:         db $00, $00, $00, $00, $00, $00, $00, $00
; DATA_09D6C0:         db $00, $07, $FC, $3F, $80, $00, $00, $00
; DATA_09D6C8:         db $00, $00, $00, $00, $00, $00, $00, $00
; DATA_09D6D0:         db $00, $00, $00, $00, $00, $00, $00, $00
; DATA_09D6D8:         db $00, $00, $00, $00, $00, $00, $00, $00
; DATA_09D6E0:         db $00, $00, $00, $00, $00, $00, $00, $00
; DATA_09D6E8:         db $00, $00, $00, $00, $00, $00, $00, $00
; DATA_09D6F0:         db $00, $00, $00, $00, $00, $00, $00, $00
; DATA_09D6F8:         db $00, $00, $00, $00, $00, $00, $00, $00
; DATA_09D700:         db $00, $00, $00, $00, $00, $00, $00, $00
; DATA_09D708:         db $00, $00, $00, $00, $00, $00, $00, $00
; DATA_09D710:         db $00, $00, $00, $00, $00, $00, $00, $00
; DATA_09D718:         db $00, $00, $00, $00, $00, $00, $00, $00
; DATA_09D720:         db $00, $00, $00, $00, $00, $00, $00, $00
; DATA_09D728:         db $00, $00, $00, $00, $00, $00, $00, $00
; DATA_09D730:         db $00, $00, $00, $00, $00, $00, $00, $00
; DATA_09D738:         db $00, $00, $00, $00, $00, $00, $00, $00
; DATA_09D740:         db $00, $00, $00, $00, $00, $00, $00, $00
; DATA_09D748:         db $00, $00, $00, $00, $00, $00, $00, $00
; DATA_09D750:         db $00, $00, $00, $00, $00, $00, $00, $00
; DATA_09D758:         db $00, $00, $00, $00, $00, $00, $00, $00
; DATA_09D760:         db $00, $00, $00, $00, $00, $00, $00, $00
; DATA_09D768:         db $00, $00, $00, $00, $00, $00, $00, $00
; DATA_09D770:         db $00, $00, $00, $00, $00, $00, $00, $00
; DATA_09D778:         db $00, $00, $00, $00, $00, $00, $00, $00
; DATA_09D780:         db $00, $00, $00, $00, $00, $00, $00, $00
; DATA_09D788:         db $00, $00, $00, $00, $00, $00, $00, $00
; DATA_09D790:         db $00, $00, $00, $00, $00, $00, $00, $00
; DATA_09D798:         db $00, $00, $00, $00, $00, $00, $00, $00
; DATA_09D7A0:         db $00, $00, $00, $00, $00, $00, $00, $00
; DATA_09D7A8:         db $00, $00, $00, $00, $00, $00, $00, $00
; DATA_09D7B0:         db $00, $00, $00, $00, $00, $00, $00, $00
; DATA_09D7B8:         db $00, $00, $00, $00, $00, $00, $00, $00
; DATA_09D7C0:         db $00, $00, $00, $00, $00, $00, $00, $00
; DATA_09D7C8:         db $00, $00, $00, $00, $00, $00, $00, $00
; DATA_09D7D0:         db $00, $00, $00, $00, $00, $00, $00, $00
; DATA_09D7D8:         db $00, $00, $00, $00, $00, $00, $00, $00
; DATA_09D7E0:         db $00, $00, $00, $00, $00, $00, $00, $00
; DATA_09D7E8:         db $00, $00, $00, $00, $00, $00, $00, $00
; DATA_09D7F0:         db $00, $00, $00, $00, $00, $00, $00, $00
; DATA_09D7F8:         db $00, $00, $00, $00, $00, $00, $00, $00
; DATA_09D800:         db $00, $00, $00, $00, $00, $00, $00, $00
; DATA_09D808:         db $00, $00, $00, $00, $00, $00, $00, $00
; DATA_09D810:         db $00, $00, $00, $00, $00, $00, $00, $00
; DATA_09D818:         db $00, $00, $00, $00, $00, $00, $00, $00
; DATA_09D820:         db $00, $00, $00, $00, $00, $00, $00, $00
; DATA_09D828:         db $00, $00, $00, $00, $00, $00, $00, $00
; DATA_09D830:         db $00, $00, $00, $00, $00, $00, $00, $00
; DATA_09D838:         db $00, $00, $00, $00, $00, $00, $00, $00
; DATA_09D840:         db $00, $00, $00, $00, $00, $00, $00, $00
; DATA_09D848:         db $00, $00, $00, $00, $00, $00, $00, $00
; DATA_09D850:         db $00, $00, $00, $00, $00, $00, $00, $00
; DATA_09D858:         db $00, $00, $00, $00, $00, $00, $00, $00
; DATA_09D860:         db $00, $00, $00, $00, $00, $00, $00, $00
; DATA_09D868:         db $00, $00, $00, $00, $00, $00, $00, $00
; DATA_09D870:         db $00, $00, $00, $00, $00, $00, $00, $00
; DATA_09D878:         db $00, $00, $00, $00, $00, $00, $00, $00
; DATA_09D880:         db $00, $00, $00, $00, $00, $00, $00, $00
; DATA_09D888:         db $00, $00, $00, $00, $00, $00, $00, $00
; DATA_09D890:         db $00, $00, $00, $00, $00, $00, $00, $00
; DATA_09D898:         db $00, $00, $00, $00, $00, $00, $00, $00
; DATA_09D8A0:         db $00, $00, $00, $00, $00, $00, $00, $00
; DATA_09D8A8:         db $00, $00, $00, $00, $00, $00, $00, $00
; DATA_09D8B0:         db $00, $00, $00, $00, $00, $00, $00, $00
; DATA_09D8B8:         db $00, $00, $00, $00, $00, $00, $00, $00
; DATA_09D8C0:         db $00, $00, $00, $00, $00, $00, $00, $00
; DATA_09D8C8:         db $00, $00, $00, $00, $00, $00, $00, $00
; DATA_09D8D0:         db $00, $00, $00, $00, $00, $00, $00, $00
; DATA_09D8D8:         db $00, $00, $00, $00, $00, $00, $00, $00
; DATA_09D8E0:         db $00, $00, $00, $00, $00, $00, $00, $00
; DATA_09D8E8:         db $00, $00, $00, $00, $00, $00, $00, $00
; DATA_09D8F0:         db $00, $00, $00, $00, $00, $00, $00, $00
; DATA_09D8F8:         db $00, $00, $00, $00, $00, $00, $00, $00
; DATA_09D900:         db $00, $00, $00, $00, $00, $00, $00, $00
; DATA_09D908:         db $00, $00, $00, $00, $00, $00, $00, $00
; DATA_09D910:         db $00, $00, $00, $00, $00, $00, $00, $00
; DATA_09D918:         db $00, $00, $00, $00, $00, $00, $00, $00
; DATA_09D920:         db $00, $00, $00, $00, $00, $00, $00, $00
; DATA_09D928:         db $00, $00, $00, $00, $00, $00, $00, $00
; DATA_09D930:         db $FF, $FF, $FF, $FF, $FF, $FF, $FF, $FF
; DATA_09D938:         db $FF, $FF, $FF, $FF, $FF, $FF, $FF, $FF
; DATA_09D940:         db $BD, $BD, $BD, $BD, $BD, $BD, $BD, $BD
; DATA_09D948:         db $BD, $BD, $BD, $BD, $BD, $BD, $BD, $BD
; DATA_09D950:         db $DB, $DB, $DB, $DB, $DB, $DB, $DB, $DB
; DATA_09D958:         db $DB, $DB, $DB, $DB, $DB, $DB, $DB, $DB
; DATA_09D960:         db $E7, $E7, $E7, $E7, $E7, $E7, $E7, $E7
; DATA_09D968:         db $E7, $E7, $E7, $E7, $E7, $E7, $E7, $E7
; DATA_09D970:         db $E7, $E7, $E7, $E7, $E7, $E7, $E7, $E7
; DATA_09D978:         db $E7, $E7, $E7, $E7, $E7, $E7, $E7, $E7
; DATA_09D980:         db $DB, $DB, $DB, $DB, $DB, $DB, $DB, $DB
; DATA_09D988:         db $DB, $DB, $DB, $DB, $DB, $DB, $DB, $DB
; DATA_09D990:         db $BD, $BD, $BD, $BD, $BD, $BD, $BD, $BD
; DATA_09D998:         db $BD, $BD, $BD, $BD, $BD, $BD, $BD, $BD
; DATA_09D9A0:         db $FF, $FF, $FF, $FF, $FF, $FF, $FF, $FF
; DATA_09D9A8:         db $FF, $FF, $FF, $FF, $FF, $FF, $FF, $FF
; DATA_09D9B0:         db $FF, $FF, $FF, $FF, $FF, $FF, $FF, $FF
; DATA_09D9B8:         db $FF, $FF, $FF, $FF, $FF, $FF, $FF, $FF
; DATA_09D9C0:         db $BD, $BD, $BD, $BD, $BD, $BD, $BD, $BD
; DATA_09D9C8:         db $BD, $BD, $BD, $BD, $BD, $BD, $BD, $BD
; DATA_09D9D0:         db $DB, $DB, $DB, $DB, $DB, $DB, $DB, $DB
; DATA_09D9D8:         db $DB, $DB, $DB, $DB, $DB, $DB, $DB, $DB
; DATA_09D9E0:         db $E7, $E7, $E7, $E7, $E7, $E7, $E7, $E7
; DATA_09D9E8:         db $E7, $E7, $E7, $E7, $E7, $E7, $E7, $E7
; DATA_09D9F0:         db $E7, $E7, $E7, $E7, $E7, $E7, $E7, $E7
; DATA_09D9F8:         db $E7, $E7, $E7, $E7, $E7, $E7, $E7, $E7
; DATA_09DA00:         db $DB, $DB, $DB, $DB, $DB, $DB, $DB, $DB
; DATA_09DA08:         db $DB, $DB, $DB, $DB, $DB, $DB, $DB, $DB
; DATA_09DA10:         db $BD, $BD, $BD, $BD, $BD, $BD, $BD, $BD
; DATA_09DA18:         db $BD, $BD, $BD, $BD, $BD, $BD, $BD, $BD
; DATA_09DA20:         db $FF, $FF, $FF, $FF, $FF, $FF, $FF, $FF
; DATA_09DA28:         db $FF, $FF, $FF, $FF, $FF, $FF, $FF, $FF
; DATA_09DA30:         db $FF, $FF, $FF, $FF, $FF, $FF, $FF, $FF
; DATA_09DA38:         db $FF, $FF, $FF, $FF, $FF, $FF, $FF, $FF
; DATA_09DA40:         db $BD, $BD, $BD, $BD, $BD, $BD, $BD, $BD
; DATA_09DA48:         db $BD, $BD, $BD, $BD, $BD, $BD, $BD, $BD
; DATA_09DA50:         db $DB, $DB, $DB, $DB, $DB, $DB, $DB, $DB
; DATA_09DA58:         db $DB, $DB, $DB, $DB, $DB, $DB, $DB, $DB
; DATA_09DA60:         db $E7, $E7, $E7, $E7, $E7, $E7, $E7, $E7
; DATA_09DA68:         db $E7, $E7, $E7, $E7, $E7, $E7, $E7, $E7
; DATA_09DA70:         db $E7, $E7, $E7, $E7, $E7, $E7, $E7, $E7
; DATA_09DA78:         db $E7, $E7, $E7, $E7, $E7, $E7, $E7, $E7
; DATA_09DA80:         db $DB, $DB, $DB, $DB, $DB, $DB, $DB, $DB
; DATA_09DA88:         db $DB, $DB, $DB, $DB, $DB, $DB, $DB, $DB
; DATA_09DA90:         db $BD, $BD, $BD, $BD, $BD, $BD, $BD, $BD
; DATA_09DA98:         db $BD, $BD, $BD, $BD, $BD, $BD, $BD, $BD
; DATA_09DAA0:         db $FF, $FF, $FF, $FF, $FF, $FF, $FF, $FF
; DATA_09DAA8:         db $FF, $FF, $FF, $FF, $FF, $FF, $FF, $FF
; DATA_09DAB0:         db $00, $00, $00, $FF, $FF, $FF, $FF, $FF
; DATA_09DAB8:         db $FF, $FF, $FF, $FF, $FF, $FF, $FF, $FF
; DATA_09DAC0:         db $00, $00, $00, $BD, $BD, $BD, $BD, $BD
; DATA_09DAC8:         db $BD, $BD, $BD, $BD, $BD, $BD, $BD, $BD
; DATA_09DAD0:         db $00, $00, $00, $DB, $DB, $DB, $DB, $DB
; DATA_09DAD8:         db $DB, $DB, $DB, $DB, $DB, $DB, $DB, $DB
; DATA_09DAE0:         db $30, $00, $00, $E7, $E7, $E7, $E7, $E7
; DATA_09DAE8:         db $E7, $E7, $E7, $E7, $E7, $E7, $E7, $E7
; DATA_09DAF0:         db $50, $00, $00, $E7, $E7, $E7, $E7, $E7
; DATA_09DAF8:         db $E7, $E7, $E7, $E7, $E7, $E7, $E7, $E7
; DATA_09DB00:         db $90, $00, $00, $DB, $DB, $DB, $DB, $DB
; DATA_09DB08:         db $DB, $DB, $DB, $DB, $DB, $DB, $DB, $DB
; DATA_09DB10:         db $9F, $00, $00, $BD, $BD, $BD, $BD, $BD
; DATA_09DB18:         db $BD, $BD, $BD, $BD, $BD, $BD, $BD, $BD
; DATA_09DB20:         db $7D, $80, $00, $FF, $FF, $FF, $FF, $FF
; DATA_09DB28:         db $FF, $FF, $FF, $FF, $FF, $FF, $FF, $FF
; DATA_09DB30:         db $6C, $FF, $00, $FF, $FF, $FF, $FF, $FF
; DATA_09DB38:         db $FF, $FF, $FF, $FF, $FF, $FF, $FF, $FF
; DATA_09DB40:         db $48, $20, $C0, $BD, $BD, $BD, $BD, $BD
; DATA_09DB48:         db $BD, $BD, $BD, $BD, $BD, $BD, $BD, $BD
; DATA_09DB50:         db $48, $60, $60, $DB, $DB, $DB, $DB, $DB
; DATA_09DB58:         db $DB, $DB, $DB, $DB, $DB, $DB, $DB, $DB
; DATA_09DB60:         db $CC, $C0, $30, $E7, $E7, $E7, $E7, $E7
; DATA_09DB68:         db $E7, $E7, $E7, $E7, $E7, $E7, $E7, $E7
; DATA_09DB70:         db $87, $81, $10, $E7, $E7, $E7, $E7, $E7
; DATA_09DB78:         db $E7, $E7, $E7, $E7, $E7, $E7, $E7, $E7
; DATA_09DB80:         db $80, $03, $D0, $DB, $DB, $DB, $DB, $DB
; DATA_09DB88:         db $DB, $DB, $DB, $DB, $DB, $DB, $DB, $DB
; DATA_09DB90:         db $80, $04, $70, $BD, $BD, $BD, $BD, $BD
; DATA_09DB98:         db $BD, $BD, $BD, $BD, $BD, $BD, $BD, $BD
; DATA_09DBA0:         db $86, $08, $10, $FF, $FF, $FF, $FF, $FF
; DATA_09DBA8:         db $FF, $FF, $FF, $FF, $FF, $FF, $FF, $FF
; DATA_09DBB0:         db $99, $88, $10, $FF, $FF, $FF, $FF, $FF
; DATA_09DBB8:         db $FF, $FF, $FF, $FF, $FF, $FF, $FF, $FF
; DATA_09DBC0:         db $E0, $88, $10, $BD, $BD, $BD, $BD, $BD
; DATA_09DBC8:         db $BD, $BD, $BD, $BD, $BD, $BD, $BD, $BD
; DATA_09DBD0:         db $60, $C8, $20, $DB, $DB, $DB, $DB, $DB
; DATA_09DBD8:         db $DB, $DB, $DB, $DB, $DB, $DB, $DB, $DB
; DATA_09DBE0:         db $60, $4C, $60, $E7, $E7, $E7, $E7, $E7
; DATA_09DBE8:         db $E7, $E7, $E7, $E7, $E7, $E7, $E7, $E7
; DATA_09DBF0:         db $60, $43, $C0, $E7, $E7, $E7, $E7, $E7
; DATA_09DBF8:         db $E7, $E7, $E7, $E7, $E7, $E7, $E7, $E7
; DATA_09DC00:         db $30, $80, $80, $DB, $DB, $DB, $DB, $DB
; DATA_09DC08:         db $DB, $DB, $DB, $DB, $DB, $DB, $DB, $DB
; DATA_09DC10:         db $1F, $83, $00, $BD, $BD, $BD, $BD, $BD
; DATA_09DC18:         db $BD, $BD, $BD, $BD, $BD, $BD, $BD, $BD
; DATA_09DC20:         db $07, $FE, $00, $FF, $FF, $FF, $FF, $FF
; DATA_09DC28:         db $FF, $FF, $FF, $FF, $FF, $FF, $FF, $FF
; DATA_09DC30:         db $FF, $FF, $FF, $FF, $FF, $FF, $FF, $FF
; DATA_09DC38:         db $FF, $FF, $FF, $FF, $FF, $FF, $FF, $FF
; DATA_09DC40:         db $BD, $BD, $BD, $BD, $BD, $BD, $BD, $BD
; DATA_09DC48:         db $BD, $BD, $BD, $BD, $BD, $BD, $BD, $BD
; DATA_09DC50:         db $DB, $DB, $DB, $DB, $DB, $DB, $DB, $DB
; DATA_09DC58:         db $DB, $DB, $DB, $DB, $DB, $DB, $DB, $DB
; DATA_09DC60:         db $E7, $E7, $E7, $E7, $E7, $E7, $E7, $E7
; DATA_09DC68:         db $E7, $E7, $E7, $E7, $E7, $E7, $E7, $E7
; DATA_09DC70:         db $E7, $E7, $E7, $E7, $E7, $E7, $E7, $E7
; DATA_09DC78:         db $E7, $E7, $E7, $E7, $E7, $E7, $E7, $E7
; DATA_09DC80:         db $DB, $DB, $DB, $DB, $DB, $DB, $DB, $DB
; DATA_09DC88:         db $DB, $DB, $DB, $DB, $DB, $DB, $DB, $DB
; DATA_09DC90:         db $BD, $BD, $BD, $BD, $BD, $BD, $BD, $BD
; DATA_09DC98:         db $BD, $BD, $BD, $BD, $BD, $BD, $BD, $BD
; DATA_09DCA0:         db $FF, $FF, $FF, $FF, $FF, $FF, $FF, $FF
; DATA_09DCA8:         db $FF, $FF, $FF, $FF, $FF, $FF, $FF, $FF
; DATA_09DCB0:         db $FF, $FF, $FF, $FF, $FF, $FF, $FF, $FF
; DATA_09DCB8:         db $FF, $FF, $FF, $FF, $FF, $FF, $FF, $FF
; DATA_09DCC0:         db $BD, $BD, $BD, $BD, $BD, $BD, $BD, $BD
; DATA_09DCC8:         db $BD, $BD, $BD, $BD, $BD, $BD, $BD, $BD
; DATA_09DCD0:         db $DB, $DB, $DB, $DB, $DB, $DB, $DB, $DB
; DATA_09DCD8:         db $DB, $DB, $DB, $DB, $DB, $DB, $DB, $DB
; DATA_09DCE0:         db $E7, $E7, $E7, $E7, $E7, $E7, $E7, $E7
; DATA_09DCE8:         db $E7, $E7, $E7, $E7, $E7, $E7, $E7, $E7
; DATA_09DCF0:         db $E7, $E7, $E7, $E7, $E7, $E7, $E7, $E7
; DATA_09DCF8:         db $E7, $E7, $E7, $E7, $E7, $E7, $E7, $E7
; DATA_09DD00:         db $DB, $DB, $DB, $DB, $DB, $DB, $DB, $DB
; DATA_09DD08:         db $DB, $DB, $DB, $DB, $DB, $DB, $DB, $DB
; DATA_09DD10:         db $BD, $BD, $BD, $BD, $BD, $BD, $BD, $BD
; DATA_09DD18:         db $BD, $BD, $BD, $BD, $BD, $BD, $BD, $BD
; DATA_09DD20:         db $FF, $FF, $FF, $FF, $FF, $FF, $FF, $FF
; DATA_09DD28:         db $FF, $FF, $FF, $FF, $FF, $FF, $FF, $FF
; DATA_09DD30:         db $00, $00, $00, $00, $00, $00, $00, $00
; DATA_09DD38:         db $00, $00, $00, $00, $00, $00, $00, $00
; DATA_09DD40:         db $00, $00, $00, $00, $00, $00, $00, $00
; DATA_09DD48:         db $00, $00, $00, $00, $00, $00, $00, $00
; DATA_09DD50:         db $00, $00, $00, $00, $00, $00, $00, $00
; DATA_09DD58:         db $00, $00, $00, $00, $00, $00, $00, $00
; DATA_09DD60:         db $00, $00, $00, $00, $00, $00, $00, $00
; DATA_09DD68:         db $00, $00, $00, $00, $00, $00, $00, $00
; DATA_09DD70:         db $00, $00, $00, $00, $00, $00, $00, $00
; DATA_09DD78:         db $00, $00, $00, $00, $00, $00, $00, $00
; DATA_09DD80:         db $00, $00, $00, $00, $00, $00, $00, $00
; DATA_09DD88:         db $00, $00, $00, $00, $00, $00, $00, $00
; DATA_09DD90:         db $00, $00, $00, $00, $00, $00, $00, $00
; DATA_09DD98:         db $00, $00, $00, $00, $00, $00, $00, $00
; DATA_09DDA0:         db $00, $00, $00, $00, $00, $00, $00, $00
; DATA_09DDA8:         db $00, $00, $00, $00, $00, $00, $00, $00
; DATA_09DDB0:         db $00, $00, $00, $00, $00, $00, $00, $00
; DATA_09DDB8:         db $00, $00, $00, $00, $00, $00, $00, $00
; DATA_09DDC0:         db $00, $00, $00, $00, $00, $00, $00, $00
; DATA_09DDC8:         db $00, $00, $00, $00, $00, $00, $00, $00
; DATA_09DDD0:         db $00, $00, $00, $00, $00, $00, $00, $00
; DATA_09DDD8:         db $00, $00, $00, $00, $00, $00, $00, $00
; DATA_09DDE0:         db $00, $00, $00, $00, $00, $00, $00, $00
; DATA_09DDE8:         db $00, $00, $00, $00, $00, $00, $00, $00
; DATA_09DDF0:         db $00, $00, $00, $00, $00, $00, $00, $00
; DATA_09DDF8:         db $00, $00, $00, $00, $00, $00, $00, $00
; DATA_09DE00:         db $00, $00, $00, $00, $00, $00, $00, $00
; DATA_09DE08:         db $00, $00, $00, $00, $00, $00, $00, $00
; DATA_09DE10:         db $00, $00, $00, $00, $00, $00, $00, $00
; DATA_09DE18:         db $00, $00, $00, $00, $00, $00, $00, $00
; DATA_09DE20:         db $00, $00, $00, $00, $00, $00, $00, $00
; DATA_09DE28:         db $00, $00, $00, $00, $00, $00, $00, $00
; DATA_09DE30:         db $00, $00, $00, $00, $00, $00, $00, $00
; DATA_09DE38:         db $00, $00, $00, $00, $00, $00, $00, $00
; DATA_09DE40:         db $00, $00, $00, $00, $00, $00, $00, $00
; DATA_09DE48:         db $00, $00, $00, $00, $00, $00, $00, $00
; DATA_09DE50:         db $00, $00, $00, $00, $00, $00, $00, $00
; DATA_09DE58:         db $00, $00, $00, $00, $00, $00, $00, $00
; DATA_09DE60:         db $00, $00, $00, $00, $00, $00, $00, $00
; DATA_09DE68:         db $00, $00, $00, $00, $00, $00, $00, $00
; DATA_09DE70:         db $00, $00, $00, $00, $00, $00, $00, $00
; DATA_09DE78:         db $00, $00, $00, $00, $00, $00, $00, $00
; DATA_09DE80:         db $00, $00, $00, $00, $00, $00, $00, $00
; DATA_09DE88:         db $00, $00, $00, $00, $00, $00, $00, $00
; DATA_09DE90:         db $00, $00, $00, $00, $00, $00, $00, $00
; DATA_09DE98:         db $00, $00, $00, $00, $00, $00, $00, $00
; DATA_09DEA0:         db $00, $00, $00, $00, $00, $00, $00, $00
; DATA_09DEA8:         db $00, $00, $00, $00, $00, $00, $00, $00
; DATA_09DEB0:         db $00, $00, $00, $00, $00, $00, $00, $00
; DATA_09DEB8:         db $00, $00, $00, $00, $00, $00, $00, $00
; DATA_09DEC0:         db $00, $00, $00, $00, $00, $00, $00, $00
; DATA_09DEC8:         db $00, $00, $00, $00, $00, $00, $00, $00
; DATA_09DED0:         db $00, $00, $00, $00, $00, $00, $00, $00
; DATA_09DED8:         db $00, $00, $00, $00, $00, $00, $00, $00
; DATA_09DEE0:         db $00, $00, $00, $00, $00, $00, $00, $00
; DATA_09DEE8:         db $00, $00, $00, $00, $00, $00, $00, $00
; DATA_09DEF0:         db $00, $00, $00, $00, $00, $00, $00, $00
; DATA_09DEF8:         db $00, $00, $00, $00, $00, $00, $00, $00
; DATA_09DF00:         db $00, $00, $00, $00, $00, $00, $00, $00
; DATA_09DF08:         db $00, $00, $00, $00, $00, $00, $00, $00
; DATA_09DF10:         db $00, $00, $00, $00, $00, $00, $00, $00
; DATA_09DF18:         db $00, $00, $00, $00, $00, $00, $00, $00
; DATA_09DF20:         db $00, $00, $00, $00, $00, $00, $00, $00
; DATA_09DF28:         db $00, $00, $00, $00, $00, $00, $00, $00
; DATA_09DF30:         db $00, $00, $00, $00, $00, $00, $00, $00
; DATA_09DF38:         db $00, $00, $00, $00, $00, $00, $00, $00
; DATA_09DF40:         db $00, $00, $00, $00, $00, $00, $00, $00
; DATA_09DF48:         db $00, $00, $00, $00, $00, $00, $00, $00
; DATA_09DF50:         db $00, $00, $00, $00, $00, $00, $00, $00
; DATA_09DF58:         db $00, $00, $00, $00, $00, $00, $00, $00
; DATA_09DF60:         db $00, $00, $00, $00, $00, $00, $00, $00
; DATA_09DF68:         db $00, $00, $00, $00, $00, $00, $00, $00
; DATA_09DF70:         db $00, $00, $00, $00, $00, $00, $00, $00
; DATA_09DF78:         db $00, $00, $00, $00, $00, $00, $00, $00
; DATA_09DF80:         db $00, $00, $00, $00, $00, $00, $00, $00
; DATA_09DF88:         db $00, $00, $00, $00, $00, $00, $00, $00
; DATA_09DF90:         db $00, $00, $00, $00, $00, $00, $00, $00
; DATA_09DF98:         db $00, $00, $00, $00, $00, $00, $00, $00
; DATA_09DFA0:         db $00, $00, $00, $00, $00, $00, $00, $00
; DATA_09DFA8:         db $00, $00, $00, $00, $00, $00, $00, $00
; DATA_09DFB0:         db $00, $00, $00, $00, $00, $00, $00, $00
; DATA_09DFB8:         db $00, $00, $00, $00, $00, $00, $00, $00
; DATA_09DFC0:         db $00, $00, $00, $00, $00, $00, $00, $00
; DATA_09DFC8:         db $00, $00, $00, $00, $00, $00, $00, $00
; DATA_09DFD0:         db $00, $00, $00, $00, $00, $00, $00, $00
; DATA_09DFD8:         db $00, $00, $00, $00, $00, $00, $00, $00
; DATA_09DFE0:         db $00, $00, $00, $00, $00, $00, $00, $00
; DATA_09DFE8:         db $00, $00, $00, $00, $00, $00, $00, $00
; DATA_09DFF0:         db $00, $00, $00, $00, $00, $00, $00, $00
; DATA_09DFF8:         db $00, $00, $00, $00, $00, $00, $00, $00
; DATA_09E000:         db $00, $00, $00, $00, $00, $00, $00, $00
; DATA_09E008:         db $00, $00, $00, $00, $00, $00, $00, $00
; DATA_09E010:         db $00, $00, $00, $00, $00, $00, $00, $00
; DATA_09E018:         db $00, $00, $00, $00, $00, $00, $00, $00
; DATA_09E020:         db $00, $00, $00, $00, $00, $00, $00, $00
; DATA_09E028:         db $00, $00, $00, $00, $00, $00, $00, $00
; DATA_09E030:         db $00, $00, $00, $00, $00, $00, $00, $00
; DATA_09E038:         db $00, $00, $00, $00, $00, $00, $00, $00
; DATA_09E040:         db $00, $00, $00, $00, $00, $00, $00, $00
; DATA_09E048:         db $00, $00, $00, $00, $00, $00, $00, $00
; DATA_09E050:         db $00, $00, $00, $00, $00, $00, $00, $00
; DATA_09E058:         db $00, $00, $00, $00, $00, $00, $00, $00
; DATA_09E060:         db $00, $00, $00, $00, $00, $00, $00, $00
; DATA_09E068:         db $00, $00, $00, $00, $00, $00, $00, $00
; DATA_09E070:         db $00, $00, $00, $00, $00, $00, $00, $00
; DATA_09E078:         db $00, $00, $00, $00, $00, $00, $00, $00
; DATA_09E080:         db $00, $00, $00, $00, $00, $00, $00, $00
; DATA_09E088:         db $00, $00, $00, $00, $00, $00, $00, $00
; DATA_09E090:         db $00, $00, $00, $00, $00, $00, $00, $00
; DATA_09E098:         db $00, $00, $00, $00, $00, $00, $00, $00
; DATA_09E0A0:         db $00, $00, $00, $00, $00, $00, $00, $00
; DATA_09E0A8:         db $00, $00, $00, $00, $00, $00, $00, $00
; DATA_09E0B0:         db $00, $00, $00, $00, $00, $00, $00, $00
; DATA_09E0B8:         db $00, $00, $00, $00, $00, $00, $00, $00
; DATA_09E0C0:         db $00, $00, $00, $00, $00, $00, $00, $00
; DATA_09E0C8:         db $00, $00, $00, $00, $00, $00, $00, $00
; DATA_09E0D0:         db $00, $00, $00, $00, $00, $00, $00, $00
; DATA_09E0D8:         db $00, $00, $00, $00, $00, $00, $00, $00
; DATA_09E0E0:         db $00, $00, $00, $00, $00, $00, $00, $00
; DATA_09E0E8:         db $00, $00, $00, $00, $00, $00, $00, $00
; DATA_09E0F0:         db $00, $00, $00, $00, $00, $00, $00, $00
; DATA_09E0F8:         db $00, $00, $00, $00, $00, $00, $00, $00
; DATA_09E100:         db $00, $00, $00, $00, $00, $00, $00, $00
; DATA_09E108:         db $00, $00, $00, $00, $00, $00, $00, $00
; DATA_09E110:         db $00, $00, $00, $00, $00, $00, $00, $00
; DATA_09E118:         db $00, $00, $00, $00, $00, $00, $00, $00
; DATA_09E120:         db $00, $00, $00, $00, $00, $00, $00, $00
; DATA_09E128:         db $00, $00, $00, $00, $00, $00, $00, $00
; DATA_09E130:         db $00, $00, $00, $00, $00, $00, $00, $00
; DATA_09E138:         db $00, $00, $00, $00, $00, $00, $00, $00
; DATA_09E140:         db $00, $00, $00, $00, $00, $00, $00, $00
; DATA_09E148:         db $00, $00, $00, $00, $00, $00, $00, $00
; DATA_09E150:         db $00, $00, $00, $00, $00, $00, $00, $00
; DATA_09E158:         db $00, $00, $00, $00, $00, $00, $00, $00
; DATA_09E160:         db $00, $07, $E0, $00, $00, $05, $05, $00
; DATA_09E168:         db $00, $05, $00, $0C, $0C, $00, $00, $00
; DATA_09E170:         db $00, $04, $20, $10, $00, $05, $35, $00
; DATA_09E178:         db $40, $05, $04, $08, $08, $00, $00, $00
; DATA_09E180:         db $00, $04, $20, $10, $00, $00, $18, $00
; DATA_09E188:         db $40, $80, $44, $08, $08, $00, $00, $00
; DATA_09E190:         db $00, $3C, $3C, $FF, $00, $FE, $08, $00
; DATA_09E198:         db $61, $84, $44, $18, $18, $00, $00, $00
; DATA_09E1A0:         db $00, $21, $84, $10, $00, $0C, $08, $00
; DATA_09E1A8:         db $27, $BF, $FF, $10, $10, $00, $00, $00
; DATA_09E1B0:         db $00, $22, $44, $10, $00, $18, $18, $00
; DATA_09E1B8:         db $3C, $82, $44, $10, $10, $00, $00, $00
; DATA_09E1C0:         db $00, $22, $44, $10, $00, $30, $52, $7C
; DATA_09E1C8:         db $30, $82, $44, $10, $10, $00, $00, $00
; DATA_09E1D0:         db $00, $21, $84, $FF, $FF, $60, $DB, $C6
; DATA_09E1D8:         db $60, $9E, $44, $10, $10, $00, $00, $00
; DATA_09E1E0:         db $00, $3C, $3C, $08, $00, $40, $89, $02
; DATA_09E1E8:         db $C0, $B3, $40, $00, $00, $00, $00, $00
; DATA_09E1F0:         db $00, $04, $20, $08, $00, $40, $89, $06
; DATA_09E1F8:         db $81, $A2, $40, $10, $10, $00, $00, $00
; DATA_09E200:         db $00, $04, $20, $0C, $00, $63, $18, $0C
; DATA_09E208:         db $C3, $B6, $63, $38, $38, $00, $00, $00
; DATA_09E210:         db $00, $07, $E0, $04, $00, $3E, $30, $18
; DATA_09E218:         db $7E, $1C, $3E, $30, $30, $00, $00, $00
; DATA_09E220:         db $00, $00, $00, $00, $00, $00, $00, $00
; DATA_09E228:         db $00, $00, $00, $00, $00, $00, $00, $00
; DATA_09E230:         db $00, $00, $00, $00, $00, $00, $00, $00
; DATA_09E238:         db $00, $00, $00, $00, $00, $00, $00, $00
; DATA_09E240:         db $00, $00, $00, $00, $00, $00, $00, $00
; DATA_09E248:         db $00, $00, $00, $02, $00, $00, $00, $00
; DATA_09E250:         db $00, $00, $00, $18, $00, $00, $00, $00
; DATA_09E258:         db $00, $00, $00, $02, $00, $00, $00, $00
; DATA_09E260:         db $00, $00, $01, $9B, $E0, $00, $00, $00
; DATA_09E268:         db $00, $00, $21, $02, $00, $00, $00, $00
; DATA_09E270:         db $00, $00, $01, $9F, $F8, $00, $00, $00
; DATA_09E278:         db $00, $00, $20, $81, $00, $00, $00, $00
; DATA_09E280:         db $00, $00, $01, $CE, $0C, $00, $00, $00
; DATA_09E288:         db $00, $00, $20, $81, $00, $00, $00, $00
; DATA_09E290:         db $00, $00, $01, $D8, $06, $00, $00, $00
; DATA_09E298:         db $00, $00, $10, $81, $00, $00, $00, $00
; DATA_09E2A0:         db $00, $00, $30, $10, $02, $00, $00, $00
; DATA_09E2A8:         db $00, $00, $08, $80, $80, $00, $00, $00
; DATA_09E2B0:         db $00, $00, $4C, $10, $03, $00, $00, $00
; DATA_09E2B8:         db $00, $00, $08, $40, $80, $00, $00, $00
; DATA_09E2C0:         db $00, $00, $C3, $00, $03, $00, $00, $00
; DATA_09E2C8:         db $00, $00, $08, $40, $80, $00, $00, $00
; DATA_09E2D0:         db $00, $00, $8C, $80, $03, $00, $00, $00
; DATA_09E2D8:         db $00, $00, $08, $40, $00, $00, $00, $00
; DATA_09E2E0:         db $00, $00, $74, $00, $03, $00, $00, $00
; DATA_09E2E8:         db $00, $00, $08, $40, $00, $00, $00, $00
; DATA_09E2F0:         db $00, $00, $38, $00, $03, $00, $00, $00
; DATA_09E2F8:         db $00, $00, $01, $E0, $0C, $00, $00, $00
; DATA_09E300:         db $00, $00, $28, $00, $02, $00, $00, $00
; DATA_09E308:         db $00, $00, $03, $31, $8C, $00, $00, $00
; DATA_09E310:         db $00, $00, $68, $40, $02, $00, $00, $00
; DATA_09E318:         db $00, $00, $02, $11, $98, $00, $00, $00
; DATA_09E320:         db $00, $00, $78, $20, $0C, $00, $00, $00
; DATA_09E328:         db $00, $00, $02, $1F, $B8, $00, $00, $00
; DATA_09E330:         db $00, $00, $3C, $30, $08, $00, $00, $00
; DATA_09E338:         db $00, $00, $03, $E3, $BF, $C0, $00, $00
; DATA_09E340:         db $00, $00, $3C, $1C, $30, $00, $00, $00
; DATA_09E348:         db $00, $00, $04, $C7, $10, $30, $00, $00
; DATA_09E350:         db $00, $00, $0F, $07, $E0, $00, $00, $00
; DATA_09E358:         db $00, $00, $09, $86, $20, $18, $00, $00
; DATA_09E360:         db $00, $00, $03, $F2, $00, $00, $00, $00
; DATA_09E368:         db $00, $00, $09, $02, $00, $08, $00, $00
; DATA_09E370:         db $00, $00, $00, $63, $00, $00, $01, $00
; DATA_09E378:         db $00, $00, $07, $0C, $00, $0C, $00, $00
; DATA_09E380:         db $00, $00, $00, $41, $00, $00, $03, $00
; DATA_09E388:         db $00, $00, $07, $18, $00, $04, $00, $00
; DATA_09E390:         db $00, $00, $00, $81, $00, $03, $03, $00
; DATA_09E398:         db $00, $00, $35, $88, $00, $04, $00, $00
; DATA_09E3A0:         db $00, $00, $03, $C1, $00, $03, $C3, $80
; DATA_09E3A8:         db $00, $00, $FB, $C8, $00, $04, $00, $00
; DATA_09E3B0:         db $00, $00, $07, $40, $80, $03, $F7, $80
; DATA_09E3B8:         db $00, $01, $09, $F8, $00, $04, $00, $00
; DATA_09E3C0:         db $00, $00, $39, $40, $80, $03, $FF, $C0
; DATA_09E3C8:         db $00, $01, $0F, $44, $00, $08, $00, $00
; DATA_09E3D0:         db $00, $03, $C2, $71, $80, $07, $FF, $C0
; DATA_09E3D8:         db $00, $01, $01, $C6, $00, $18, $00, $00
; DATA_09E3E0:         db $00, $03, $06, $11, $00, $07, $FF, $E0
; DATA_09E3E8:         db $00, $01, $80, $43, $00, $30, $00, $00
; DATA_09E3F0:         db $00, $01, $06, $31, $00, $0F, $FF, $F0
; DATA_09E3F8:         db $00, $00, $FE, $41, $80, $40, $00, $00
; DATA_09E400:         db $00, $00, $C3, $E3, $00, $0F, $FF, $F8
; DATA_09E408:         db $00, $40, $72, $C0, $E3, $80, $00, $00
; DATA_09E410:         db $00, $00, $E0, $06, $00, $07, $FF, $FC
; DATA_09E418:         db $00, $60, $03, $80, $DC, $00, $00, $00
; DATA_09E420:         db $00, $00, $30, $18, $00, $01, $FF, $F8
; DATA_09E428:         db $00, $78, $07, $00, $60, $04, $00, $00
; DATA_09E430:         db $00, $00, $0F, $F0, $00, $00, $1F, $E0
; DATA_09E438:         db $00, $20, $1C, $08, $20, $84, $00, $00
; DATA_09E440:         db $00, $00, $00, $00, $00, $00, $1F, $80
; DATA_09E448:         db $00, $20, $78, $3C, $21, $C3, $00, $00
; DATA_09E450:         db $00, $00, $0E, $70, $00, $00, $1E, $00
; DATA_09E458:         db $00, $20, $20, $3C, $23, $C0, $E0, $00
; DATA_09E460:         db $00, $00, $1E, $50, $00, $00, $3E, $00
; DATA_09E468:         db $00, $40, $20, $7C, $67, $C1, $80, $00
; DATA_09E470:         db $00, $02, $32, $90, $00, $00, $38, $00
; DATA_09E478:         db $00, $80, $30, $F8, $4F, $C2, $00, $00
; DATA_09E480:         db $00, $04, $26, $90, $00, $00, $30, $00
; DATA_09E488:         db $07, $C0, $19, $F8, $4F, $84, $00, $00
; DATA_09E490:         db $00, $04, $24, $90, $00, $00, $00, $00
; DATA_09E498:         db $00, $60, $0F, $E0, $9E, $0C, $00, $00
; DATA_09E4A0:         db $00, $08, $28, $E0, $00, $00, $00, $00
; DATA_09E4A8:         db $00, $10, $07, $E3, $1C, $08, $00, $00
; DATA_09E4B0:         db $00, $18, $B0, $60, $00, $00, $00, $00
; DATA_09E4B8:         db $00, $10, $03, $C6, $18, $38, $00, $00
; DATA_09E4C0:         db $00, $11, $00, $00, $00, $00, $00, $00
; DATA_09E4C8:         db $00, $3E, $03, $F8, $01, $CC, $00, $00
; DATA_09E4D0:         db $00, $11, $00, $00, $00, $00, $00, $00
; DATA_09E4D8:         db $00, $62, $E0, $00, $01, $02, $00, $00
; DATA_09E4E0:         db $00, $11, $08, $00, $00, $00, $00, $00
; DATA_09E4E8:         db $00, $C3, $B0, $00, $7A, $00, $00, $00
; DATA_09E4F0:         db $00, $02, $10, $00, $00, $00, $00, $00
; DATA_09E4F8:         db $00, $03, $17, $CF, $46, $00, $00, $00
; DATA_09E500:         db $00, $02, $10, $00, $00, $00, $00, $00
; DATA_09E508:         db $00, $04, $18, $69, $C3, $00, $00, $00
; DATA_09E510:         db $00, $02, $20, $00, $00, $00, $00, $00
; DATA_09E518:         db $00, $00, $08, $18, $41, $00, $00, $00
; DATA_09E520:         db $00, $02, $20, $00, $00, $00, $00, $00
; DATA_09E528:         db $00, $00, $00, $18, $00, $00, $00, $00
; DATA_09E530:         db $00, $00, $00, $00, $00, $00, $00, $00
; DATA_09E538:         db $00, $00, $00, $00, $00, $00, $00, $00
; DATA_09E540:         db $00, $00, $00, $00, $00, $00, $00, $00
; DATA_09E548:         db $00, $00, $00, $00, $00, $00, $00, $00
; DATA_09E550:         db $00, $00, $00, $00, $00, $00, $00, $00
; DATA_09E558:         db $00, $00, $00, $00, $00, $00, $00, $00
; DATA_09E560:         db $00, $00, $05, $00, $00, $05, $00, $05
; DATA_09E568:         db $00, $00, $00, $05, $0C, $0C, $00, $00
; DATA_09E570:         db $00, $83, $15, $10, $00, $05, $20, $05
; DATA_09E578:         db $30, $20, $FC, $05, $08, $08, $00, $00
; DATA_09E580:         db $00, $C6, $10, $3E, $C0, $00, $26, $80
; DATA_09E588:         db $1C, $20, $0C, $F8, $08, $08, $00, $00
; DATA_09E590:         db $00, $6C, $FF, $63, $78, $FE, $F3, $84
; DATA_09E598:         db $06, $AC, $18, $18, $18, $18, $00, $00
; DATA_09E5A0:         db $00, $38, $10, $C1, $01, $0C, $41, $9F
; DATA_09E5A8:         db $20, $BE, $30, $30, $10, $10, $00, $00
; DATA_09E5B0:         db $00, $10, $10, $91, $01, $18, $C4, $82
; DATA_09E5B8:         db $60, $B2, $3E, $60, $10, $10, $00, $00
; DATA_09E5C0:         db $00, $10, $52, $1B, $03, $30, $84, $82
; DATA_09E5C8:         db $3E, $A2, $03, $FF, $10, $10, $00, $00
; DATA_09E5D0:         db $00, $30, $D2, $0E, $06, $60, $3C, $82
; DATA_09E5D8:         db $03, $A6, $79, $18, $10, $10, $00, $00
; DATA_09E5E0:         db $00, $20, $93, $06, $0C, $40, $66, $82
; DATA_09E5E8:         db $01, $E4, $CD, $30, $00, $00, $00, $00
; DATA_09E5F0:         db $00, $20, $91, $0C, $18, $40, $47, $C6
; DATA_09E5F8:         db $03, $E6, $87, $20, $10, $10, $00, $00
; DATA_09E600:         db $00, $20, $18, $18, $30, $63, $6D, $0C
; DATA_09E608:         db $C6, $23, $C6, $33, $38, $38, $00, $00
; DATA_09E610:         db $00, $20, $08, $30, $60, $3E, $38, $08
; DATA_09E618:         db $7C, $20, $7C, $1E, $30, $30, $00, $00
; DATA_09E620:         db $00, $00, $00, $00, $00, $00, $00, $00
; DATA_09E628:         db $00, $00, $00, $00, $00, $00, $00, $00
; DATA_09E630:         db $00, $00, $00, $00, $00, $00, $00, $00
; DATA_09E638:         db $00, $00, $00, $07, $80, $00, $00, $00
; DATA_09E640:         db $00, $00, $00, $00, $00, $00, $00, $00
; DATA_09E648:         db $00, $80, $40, $18, $78, $00, $00, $00
; DATA_09E650:         db $00, $00, $00, $00, $00, $00, $00, $00
; DATA_09E658:         db $00, $86, $40, $20, $0F, $00, $00, $00
; DATA_09E660:         db $00, $00, $00, $00, $00, $00, $00, $01
; DATA_09E668:         db $C1, $1A, $C0, $00, $01, $80, $00, $00
; DATA_09E670:         db $00, $00, $00, $00, $00, $00, $00, $01
; DATA_09E678:         db $23, $08, $80, $00, $00, $C0, $00, $00
; DATA_09E680:         db $00, $00, $00, $00, $00, $00, $00, $11
; DATA_09E688:         db $25, $00, $00, $1F, $80, $60, $00, $00
; DATA_09E690:         db $00, $00, $00, $00, $00, $00, $00, $13
; DATA_09E698:         db $C9, $80, $00, $60, $60, $20, $00, $00
; DATA_09E6A0:         db $00, $00, $00, $00, $00, $00, $00, $0C
; DATA_09E6A8:         db $00, $80, $00, $40, $38, $00, $00, $00
; DATA_09E6B0:         db $00, $00, $00, $00, $00, $00, $00, $18
; DATA_09E6B8:         db $00, $80, $CC, $00, $0C, $0F, $C0, $00
; DATA_09E6C0:         db $00, $00, $0D, $8F, $80, $00, $00, $29
; DATA_09E6C8:         db $00, $00, $CC, $00, $06, $18, $E0, $00
; DATA_09E6D0:         db $00, $00, $0D, $98, $C0, $00, $00, $45
; DATA_09E6D8:         db $C0, $00, $CC, $01, $E0, $3C, $70, $00
; DATA_09E6E0:         db $00, $00, $0F, $E0, $60, $00, $00, $12
; DATA_09E6E8:         db $40, $33, $EC, $00, $18, $7C, $38, $00
; DATA_09E6F0:         db $00, $00, $1D, $80, $20, $00, $00, $12
; DATA_09E6F8:         db $00, $7E, $CD, $F8, $0C, $7C, $1C, $00
; DATA_09E700:         db $00, $00, $2D, $80, $10, $00, $00, $18
; DATA_09E708:         db $00, $88, $06, $0C, $04, $F8, $FC, $00
; DATA_09E710:         db $00, $00, $E0, $00, $18, $00, $00, $00
; DATA_09E718:         db $00, $90, $08, $02, $00, $C1, $EC, $00
; DATA_09E720:         db $00, $01, $40, $00, $18, $00, $00, $00
; DATA_09E728:         db $00, $B0, $10, $03, $00, $81, $EC, $00
; DATA_09E730:         db $00, $01, $40, $80, $18, $00, $00, $00
; DATA_09E738:         db $01, $E0, $00, $01, $00, $81, $EC, $00
; DATA_09E740:         db $00, $0F, $C1, $80, $18, $02, $00, $00
; DATA_09E748:         db $03, $20, $00, $01, $01, $B9, $CC, $00
; DATA_09E750:         db $00, $3B, $43, $00, $18, $03, $00, $00
; DATA_09E758:         db $02, $20, $00, $01, $01, $FC, $0C, $00
; DATA_09E760:         db $00, $21, $E6, $00, $30, $03, $80, $00
; DATA_09E768:         db $02, $20, $10, $01, $01, $DE, $1C, $00
; DATA_09E770:         db $00, $71, $E2, $00, $30, $03, $80, $30
; DATA_09E778:         db $03, $20, $70, $03, $00, $FE, $18, $00
; DATA_09E780:         db $00, $79, $D3, $00, $60, $23, $80, $78
; DATA_09E788:         db $C0, $F1, $C0, $02, $00, $FC, $70, $00
; DATA_09E790:         db $00, $F9, $E9, $81, $C0, $7F, $C0, $49
; DATA_09E798:         db $C0, $18, $C0, $06, $00, $7B, $E0, $00
; DATA_09E7A0:         db $00, $F8, $FC, $E2, $60, $3F, $E0, $4D
; DATA_09E7A8:         db $FF, $9C, $27, $84, $00, $1F, $C0, $00
; DATA_09E7B0:         db $00, $B0, $2E, $3C, $90, $3F, $F0, $45
; DATA_09E7B8:         db $7F, $F0, $3C, $8C, $00, $00, $00, $00
; DATA_09E7C0:         db $00, $80, $24, $21, $30, $3F, $F8, $45
; DATA_09E7C8:         db $20, $50, $78, $F8, $00, $00, $00, $00
; DATA_09E7D0:         db $00, $80, $40, $99, $30, $3F, $FC, $43
; DATA_09E7D8:         db $31, $A0, $00, $70, $00, $00, $00, $00
; DATA_09E7E0:         db $00, $F0, $81, $0E, $30, $3F, $FC, $43
; DATA_09E7E8:         db $3E, $60, $00, $18, $00, $00, $00, $00
; DATA_09E7F0:         db $00, $7C, $82, $06, $70, $23, $F0, $63
; DATA_09E7F8:         db $30, $41, $00, $08, $00, $00, $00, $00
; DATA_09E800:         db $00, $7C, $CC, $02, $60, $03, $C0, $27
; DATA_09E808:         db $1F, $81, $C0, $08, $00, $00, $00, $00
; DATA_09E810:         db $00, $3C, $7C, $02, $60, $03, $80, $25
; DATA_09E818:         db $80, $03, $FE, $18, $00, $00, $00, $00
; DATA_09E820:         db $00, $1F, $C4, $01, $60, $03, $80, $2C
; DATA_09E828:         db $80, $03, $03, $70, $00, $00, $00, $00
; DATA_09E830:         db $00, $00, $04, $00, $C0, $03, $00, $30
; DATA_09E838:         db $C0, $07, $00, $C0, $00, $00, $00, $00
; DATA_09E840:         db $00, $00, $06, $00, $40, $02, $00, $00
; DATA_09E848:         db $60, $06, $00, $00, $00, $00, $00, $00
; DATA_09E850:         db $00, $00, $02, $00, $80, $00, $00, $00
; DATA_09E858:         db $7C, $0C, $00, $00, $00, $00, $00, $00
; DATA_09E860:         db $00, $00, $01, $07, $00, $00, $00, $00
; DATA_09E868:         db $1F, $78, $00, $00, $00, $00, $00, $00
; DATA_09E870:         db $00, $00, $07, $FC, $00, $00, $00, $00
; DATA_09E878:         db $03, $C0, $00, $00, $00, $00, $00, $00
; DATA_09E880:         db $00, $00, $1C, $20, $00, $00, $00, $00
; DATA_09E888:         db $06, $3E, $00, $00, $00, $00, $00, $00
; DATA_09E890:         db $00, $00, $20, $10, $00, $00, $00, $00
; DATA_09E898:         db $0C, $01, $00, $00, $00, $00, $00, $00
; DATA_09E8A0:         db $00, $00, $3F, $F0, $00, $00, $00, $00
; DATA_09E8A8:         db $0F, $FF, $00, $00, $00, $00, $00, $00
; DATA_09E8B0:         db $00, $00, $00, $00, $00, $00, $00, $00
; DATA_09E8B8:         db $00, $00, $00, $00, $00, $00, $00, $00
; DATA_09E8C0:         db $00, $00, $00, $00, $00, $00, $00, $00
; DATA_09E8C8:         db $00, $00, $00, $00, $00, $00, $00, $00
; DATA_09E8D0:         db $00, $00, $00, $00, $00, $00, $00, $00
; DATA_09E8D8:         db $00, $00, $00, $00, $00, $00, $00, $00
; DATA_09E8E0:         db $00, $00, $00, $00, $00, $00, $00, $00
; DATA_09E8E8:         db $00, $00, $00, $00, $00, $00, $00, $00
; DATA_09E8F0:         db $00, $00, $00, $00, $00, $00, $00, $00
; DATA_09E8F8:         db $00, $00, $00, $00, $00, $00, $00, $00
; DATA_09E900:         db $00, $00, $00, $00, $00, $00, $00, $00
; DATA_09E908:         db $00, $00, $00, $00, $00, $00, $00, $00
; DATA_09E910:         db $00, $00, $00, $00, $00, $00, $00, $00
; DATA_09E918:         db $00, $00, $00, $00, $00, $00, $00, $00
; DATA_09E920:         db $00, $00, $00, $00, $00, $00, $00, $00
; DATA_09E928:         db $00, $00, $00, $00, $00, $00, $00

0009:E92F 3F DF        romb
0009:E931 BE 5E        add   r14
0009:E933 1E 5A        add   r10
0009:E935 1A EF        getb
0009:E937 DE           inc   r14
0009:E938 2A 3D EF     getbh
0009:E93B A0 02        ibt   r0,#0002
0009:E93D 4E           color
0009:E93E FD 88 E9     iwt   r13,#E988
0009:E941 02           cache
0009:E942 F3 FF 00     iwt   r3,#00FF
0009:E945 BA 1E 5B     add   r11
0009:E948 EF           getb
0009:E949 3E A0 1F     sms   (003E),r0
0009:E94C 3F 63        cmp   r3
0009:E94E 09 13        beq   E963
0009:E950 E3           dec   r3
0009:E951 3F 63        cmp   r3
0009:E953 09 0A        beq   E95F
0009:E955 E3           dec   r3
0009:E956 3F 63        cmp   r3
0009:E958 08 10        bne   E96A
0009:E95A 01           nop
0009:E95B FF AD E9     iwt   r15,#E9AD
0009:E95E 01           nop
0009:E95F DB           inc   r11
0009:E960 DE           inc   r14
0009:E961 18 EF        getb
0009:E963 DB           inc   r11
0009:E964 DE           inc   r14
0009:E965 19 EF        getb
0009:E967 DB           inc   r11
0009:E968 DE           inc   r14
0009:E969 EF           getb
0009:E96A DB           inc   r11
0009:E96B A6 0C        ibt   r6,#000C
0009:E96D 3D 9F        lmult
0009:E96F A0 09        ibt   r0,#0009
0009:E971 3F DF        romb
0009:E973 F0 2F BD     iwt   r0,#BD2F
0009:E976 1E 54        add   r4
0009:E978 A3 0C        ibt   r3,#000C
0009:E97A 28 12        move  r2,r8
0009:E97C AC 08        ibt   r12,#0008
0009:E97E 29 11        move  r1,r9
0009:E980 A0 00        ibt   r0,#0000
0009:E982 3E EF        getbl
0009:E984 15 4D        swap
0009:E986 09 0C        beq   E994
0009:E988 25 04        rol
0009:E98A 0C 05        bcc   E991
0009:E98C 01           nop
0009:E98D 4C           plot
0009:E98E 05 02        bra   E992
0009:E990 01           nop
0009:E991 D1           inc   r1
0009:E992 3C           loop
0009:E993 01           nop
0009:E994 E3           dec   r3
0009:E995 09 05        beq   E99C
0009:E997 D2           inc   r2
0009:E998 DE           inc   r14
0009:E999 05 E1        bra   E97C
0009:E99B 01           nop
0009:E99C 3D 4C        rpix
0009:E99E A0 09        ibt   r0,#0009
0009:E9A0 3F DF        romb
0009:E9A2 FE 2F BC     iwt   r14,#BC2F
0009:E9A5 3D A0 1F     lms   r0,(003E)
0009:E9A8 1E 5E        add   r14
0009:E9AA EF           getb
0009:E9AB 19 59        add   r9
0009:E9AD 00           stop
0009:E9AE 01           nop
0009:E9AF 02           cache
0009:E9B0 A0 00        ibt   r0,#0000
0009:E9B2 3D 4E        cmode
0009:E9B4 3E A0 58     sms   (00B0),r0
0009:E9B7 3D A0 55     lms   r0,(00AA)
0009:E9BA 3F DF        romb
0009:E9BC 3D AE 54     lms   r14,(00A8)
0009:E9BF 1B EF        getb
0009:E9C1 DE           inc   r14
0009:E9C2 3E AE 54     sms   (00A8),r14
0009:E9C5 2B 10        move  r0,r11
0009:E9C7 3E A0 1F     sms   (003E),r0
0009:E9CA F3 FF 00     iwt   r3,#00FF
0009:E9CD 3F 63        cmp   r3
0009:E9CF 09 35        beq   EA06
0009:E9D1 E3           dec   r3
0009:E9D2 3F 63        cmp   r3
0009:E9D4 09 1B        beq   E9F1
0009:E9D6 E3           dec   r3
0009:E9D7 3F 63        cmp   r3
0009:E9D9 09 16        beq   E9F1
0009:E9DB E3           dec   r3
0009:E9DC 3F 63        cmp   r3
0009:E9DE 09 11        beq   E9F1
0009:E9E0 E3           dec   r3
0009:E9E1 3F 63        cmp   r3
0009:E9E3 09 0C        beq   E9F1
0009:E9E5 E3           dec   r3
0009:E9E6 A3 FE        ibt   r3,#FFFE
0009:E9E8 3D A0 58     lms   r0,(00B0)
0009:E9EB 9E           lob
0009:E9EC 09 03        beq   E9F1
0009:E9EE 01           nop
0009:E9EF A3 F9        ibt   r3,#FFF9
0009:E9F1 D3           inc   r3
0009:E9F2 A0 09        ibt   r0,#0009
0009:E9F4 3F DF        romb
0009:E9F6 B3 95        sex
0009:E9F8 4F           not
0009:E9F9 50           add   r0
0009:E9FA FE 08 EA     iwt   r14,#EA08
0009:E9FD 1E 5E        add   r14
0009:E9FF EF           getb
0009:EA00 DE           inc   r14
0009:EA01 3D EF        getbh
0009:EA03 20 1F        move  r15,r0
0009:EA05 01           nop
0009:EA06 00           stop
0009:EA07 01           nop
0009:EA08 14 EA        dec   r10
0009:EA0A 8D           mult  r13
0009:EA0B EA           dec   r10
0009:EA0C B8 EA        dec   r10
0009:EA0E CC           or    r12
0009:EA0F EA           dec   r10
0009:EA10 E0           dec   r0
0009:EA11 EA           dec   r10
0009:EA12 E9           dec   r9
0009:EA13 EA           dec   r10
0009:EA14 A0 09        ibt   r0,#0009
0009:EA16 3F DF        romb
0009:EA18 A6 0C        ibt   r6,#000C
0009:EA1A BB 3D 9F     lmult
0009:EA1D FE 2F BD     iwt   r14,#BD2F
0009:EA20 BE 19 54     add   r4
0009:EA23 3D A5 56     lms   r5,(00AC)
0009:EA26 25 12        move  r2,r5
0009:EA28 A3 07        ibt   r3,#0007
0009:EA2A A4 7F        ibt   r4,#007F
0009:EA2C FD 47 EA     iwt   r13,#EA47
0009:EA2F 29 1E        move  r14,r9
0009:EA31 AC 08        ibt   r12,#0008
0009:EA33 3D A1 57     lms   r1,(00AE)
0009:EA36 EF           getb
0009:EA37 1A 4D        swap
0009:EA39 2E 3E 58     add   #08
0009:EA3C EF           getb
0009:EA3D 1B 4D        swap
0009:EA3F B3 3E 74     and   #04
0009:EA42 08 03        bne   EA47
0009:EA44 D9           inc   r9
0009:EA45 AB 00        ibt   r11,#0000
0009:EA47 A0 00        ibt   r0,#0000
0009:EA49 2B 04        rol
0009:EA4B 04           rol
0009:EA4C 2A 04        rol
0009:EA4E 04           rol
0009:EA4F 4E           color
0009:EA50 4C           plot
0009:EA51 21 74        and   r4
0009:EA53 08 05        bne   EA5A
0009:EA55 01           nop
0009:EA56 A0 20        ibt   r0,#0020
0009:EA58 12 52        add   r2
0009:EA5A 3C           loop
0009:EA5B 01           nop
0009:EA5C D5           inc   r5
0009:EA5D 25 12        move  r2,r5
0009:EA5F E3           dec   r3
0009:EA60 0A CD        bpl   EA2F
0009:EA62 01           nop
0009:EA63 FE 2F BC     iwt   r14,#BC2F
0009:EA66 3D A0 1F     lms   r0,(003E)
0009:EA69 1E 5E        add   r14
0009:EA6B EF           getb
0009:EA6C 3D A1 57     lms   r1,(00AE)
0009:EA6F 51           add   r1
0009:EA70 3E A0 57     sms   (00AE),r0
0009:EA73 A1 7F        ibt   r1,#007F
0009:EA75 3F 61        cmp   r1
0009:EA77 0C 0E        bcc   EA87
0009:EA79 01           nop
0009:EA7A 71           and   r1
0009:EA7B 3E A0 57     sms   (00AE),r0
0009:EA7E A0 20        ibt   r0,#0020
0009:EA80 3D A1 56     lms   r1,(00AC)
0009:EA83 51           add   r1
0009:EA84 3E A0 56     sms   (00AC),r0
0009:EA87 3D 4C        rpix
0009:EA89 FF B7 E9     iwt   r15,#E9B7
0009:EA8C 01           nop
0009:EA8D 3D A0 55     lms   r0,(00AA)
0009:EA90 3F DF        romb
0009:EA92 3D AE 54     lms   r14,(00A8)
0009:EA95 EF           getb
0009:EA96 4D           swap
0009:EA97 DE           inc   r14
0009:EA98 3E AE 54     sms   (00A8),r14
0009:EA9B F2 00 04     iwt   r2,#0400
0009:EA9E F1 00 4C     iwt   r1,#4C00
0009:EAA1 11 51        add   r1
0009:EAA3 22 51        add   r1
0009:EAA5 FC 80 00     iwt   r12,#0080
0009:EAA8 FD AD EA     iwt   r13,#EAAD
0009:EAAB A0 00        ibt   r0,#0000
0009:EAAD 31           stw   (r1)
0009:EAAE D1           inc   r1
0009:EAAF D1           inc   r1
0009:EAB0 32           stw   (r2)
0009:EAB1 D2           inc   r2
0009:EAB2 3C           loop
0009:EAB3 D2           inc   r2
0009:EAB4 FF B7 E9     iwt   r15,#E9B7
0009:EAB7 01           nop
0009:EAB8 3D A0 55     lms   r0,(00AA)
0009:EABB 3F DF        romb
0009:EABD 3D AE 54     lms   r14,(00A8)
0009:EAC0 EF           getb
0009:EAC1 DE           inc   r14
0009:EAC2 3E AE 54     sms   (00A8),r14
0009:EAC5 3E A0 56     sms   (00AC),r0
0009:EAC8 FF B7 E9     iwt   r15,#E9B7
0009:EACB 01           nop
0009:EACC 3D A0 55     lms   r0,(00AA)
0009:EACF 3F DF        romb
0009:EAD1 3D AE 54     lms   r14,(00A8)
0009:EAD4 EF           getb
0009:EAD5 DE           inc   r14
0009:EAD6 3E AE 54     sms   (00A8),r14
0009:EAD9 3E A0 57     sms   (00AE),r0
0009:EADC FF B7 E9     iwt   r15,#E9B7
0009:EADF 01           nop
0009:EAE0 A0 01        ibt   r0,#0001
0009:EAE2 3E A0 58     sms   (00B0),r0
0009:EAE5 FF B7 E9     iwt   r15,#E9B7
0009:EAE8 01           nop
0009:EAE9 A0 09        ibt   r0,#0009
0009:EAEB 3F DF        romb
0009:EAED A6 0C        ibt   r6,#000C
0009:EAEF BB 3D 9F     lmult
0009:EAF2 FE 2F BD     iwt   r14,#BD2F
0009:EAF5 BE 19 54     add   r4
0009:EAF8 3D A5 56     lms   r5,(00AC)
0009:EAFB A3 08        ibt   r3,#0008
0009:EAFD A4 7F        ibt   r4,#007F
0009:EAFF FD 14 EB     iwt   r13,#EB14
0009:EB02 AC 08        ibt   r12,#0008
0009:EB04 3D A1 57     lms   r1,(00AE)
0009:EB07 29 1E        move  r14,r9
0009:EB09 25 12        move  r2,r5
0009:EB0B EF           getb
0009:EB0C 1A 4D        swap
0009:EB0E 2E 3E 54     add   #04
0009:EB11 EF           getb
0009:EB12 1B 4D        swap
0009:EB14 A0 00        ibt   r0,#0000
0009:EB16 2B 04        rol
0009:EB18 04           rol
0009:EB19 2A 04        rol
0009:EB1B 04           rol
0009:EB1C 4E           color
0009:EB1D 4C           plot
0009:EB1E 4C           plot
0009:EB1F 21 74        and   r4
0009:EB21 08 05        bne   EB28
0009:EB23 01           nop
0009:EB24 A0 20        ibt   r0,#0020
0009:EB26 12 52        add   r2
0009:EB28 3C           loop
0009:EB29 01           nop
0009:EB2A E3           dec   r3
0009:EB2B 09 09        beq   EB36
0009:EB2D B3 3E 71     and   #01
0009:EB30 08 D0        bne   EB02
0009:EB32 D5           inc   r5
0009:EB33 05 CD        bra   EB02
0009:EB35 D9           inc   r9
0009:EB36 A0 01        ibt   r0,#0001
0009:EB38 4E           color
0009:EB39 D5           inc   r5
0009:EB3A D9           inc   r9
0009:EB3B D9           inc   r9
0009:EB3C D9           inc   r9
0009:EB3D D9           inc   r9
0009:EB3E D9           inc   r9
0009:EB3F A3 08        ibt   r3,#0008
0009:EB41 FD 50 EB     iwt   r13,#EB50
0009:EB44 AC 08        ibt   r12,#0008
0009:EB46 3D A1 57     lms   r1,(00AE)
0009:EB49 29 1E        move  r14,r9
0009:EB4B 25 12        move  r2,r5
0009:EB4D EF           getb
0009:EB4E 1A 4D        swap
0009:EB50 2A 04        rol
0009:EB52 0C 05        bcc   EB59
0009:EB54 01           nop
0009:EB55 4C           plot
0009:EB56 4C           plot
0009:EB57 E1           dec   r1
0009:EB58 E1           dec   r1
0009:EB59 D1           inc   r1
0009:EB5A D1           inc   r1
0009:EB5B 21 74        and   r4
0009:EB5D 08 05        bne   EB64
0009:EB5F 01           nop
0009:EB60 A0 20        ibt   r0,#0020
0009:EB62 12 52        add   r2
0009:EB64 3C           loop
0009:EB65 01           nop
0009:EB66 E3           dec   r3
0009:EB67 09 09        beq   EB72
0009:EB69 B3 3E 71     and   #01
0009:EB6C 08 D6        bne   EB44
0009:EB6E D5           inc   r5
0009:EB6F 05 D3        bra   EB44
0009:EB71 D9           inc   r9
0009:EB72 FE 2F BC     iwt   r14,#BC2F
0009:EB75 3D A0 1F     lms   r0,(003E)
0009:EB78 1E 5E        add   r14
0009:EB7A 11 EF        getb
0009:EB7C 3D A0 57     lms   r0,(00AE)
0009:EB7F 51           add   r1
0009:EB80 51           add   r1
0009:EB81 3E A0 57     sms   (00AE),r0
0009:EB84 A1 7F        ibt   r1,#007F
0009:EB86 3F 61        cmp   r1
0009:EB88 0C 0E        bcc   EB98
0009:EB8A 01           nop
0009:EB8B 71           and   r1
0009:EB8C 3E A0 57     sms   (00AE),r0
0009:EB8F A0 20        ibt   r0,#0020
0009:EB91 3D A1 56     lms   r1,(00AC)
0009:EB94 51           add   r1
0009:EB95 3E A0 56     sms   (00AC),r0
0009:EB98 3D 4C        rpix
0009:EB9A FF B7 E9     iwt   r15,#E9B7
0009:EB9D 01           nop
0009:EB9E 02           cache
0009:EB9F A0 11        ibt   r0,#0011
0009:EBA1 3D 4E        cmode
0009:EBA3 3D A0 14     lms   r0,(0028)
0009:EBA6 4E           color
0009:EBA7 A1 00        ibt   r1,#0000
0009:EBA9 A2 00        ibt   r2,#0000
0009:EBAB A3 7F        ibt   r3,#007F
0009:EBAD AC 10        ibt   r12,#0010
0009:EBAF FD B2 EB     iwt   r13,#EBB2
0009:EBB2 4C           plot
0009:EBB3 21 73        and   r3
0009:EBB5 08 FB        bne   EBB2
0009:EBB7 01           nop
0009:EBB8 3C           loop
0009:EBB9 D2           inc   r2
0009:EBBA 3D A0 15     lms   r0,(002A)
0009:EBBD 4E           color
0009:EBBE A1 00        ibt   r1,#0000
0009:EBC0 A2 00        ibt   r2,#0000
0009:EBC2 4C           plot
0009:EBC3 A1 00        ibt   r1,#0000
0009:EBC5 A2 0F        ibt   r2,#000F
0009:EBC7 4C           plot
0009:EBC8 A1 67        ibt   r1,#0067
0009:EBCA A2 00        ibt   r2,#0000
0009:EBCC 4C           plot
0009:EBCD A1 67        ibt   r1,#0067
0009:EBCF A2 0F        ibt   r2,#000F
0009:EBD1 4C           plot
0009:EBD2 3D A0 16     lms   r0,(002C)
0009:EBD5 4E           color
0009:EBD6 FD 24 EC     iwt   r13,#EC24
0009:EBD9 F1 FF 00     iwt   r1,#00FF
0009:EBDC 3D A0 11     lms   r0,(0022)
0009:EBDF 3F DF        romb
0009:EBE1 3D AE 10     lms   r14,(0020)
0009:EBE4 EF           getb
0009:EBE5 DE           inc   r14
0009:EBE6 3E AE 10     sms   (0020),r14
0009:EBE9 3F 61        cmp   r1
0009:EBEB 08 1C        bne   EC09
0009:EBED 01           nop
0009:EBEE EF           getb
0009:EBEF DE           inc   r14
0009:EBF0 3E AE 10     sms   (0020),r14
0009:EBF3 3F 61        cmp   r1
0009:EBF5 08 03        bne   EBFA
0009:EBF7 01           nop
0009:EBF8 00           stop
0009:EBF9 01           nop
0009:EBFA 95           sex
0009:EBFB 0B 44        bmi   EC41
0009:EBFD 1A 9E        lob
0009:EBFF EF           getb
0009:EC00 1B 9E        lob
0009:EC02 DE           inc   r14
0009:EC03 3E AE 10     sms   (0020),r14
0009:EC06 05 D1        bra   EBD9
0009:EC08 01           nop
0009:EC09 3E A0 1F     sms   (003E),r0
0009:EC0C A6 0C        ibt   r6,#000C
0009:EC0E 3D 9F        lmult
0009:EC10 A0 09        ibt   r0,#0009
0009:EC12 3F DF        romb
0009:EC14 F0 2F BD     iwt   r0,#BD2F
0009:EC17 1E 54        add   r4
0009:EC19 2B 12        move  r2,r11
0009:EC1B AC 08        ibt   r12,#0008
0009:EC1D EF           getb
0009:EC1E 9E           lob
0009:EC1F 13 4D        swap
0009:EC21 DE           inc   r14
0009:EC22 2A 11        move  r1,r10
0009:EC24 23 04        rol
0009:EC26 0C 03        bcc   EC2B
0009:EC28 01           nop
0009:EC29 4C           plot
0009:EC2A E1           dec   r1
0009:EC2B 3C           loop
0009:EC2C D1           inc   r1
0009:EC2D E6           dec   r6
0009:EC2E 08 EB        bne   EC1B
0009:EC30 D2           inc   r2
0009:EC31 3D 4C        rpix
0009:EC33 FE 2F BC     iwt   r14,#BC2F
0009:EC36 3D A0 1F     lms   r0,(003E)
0009:EC39 1E 5E        add   r14
0009:EC3B EF           getb
0009:EC3C 1A 5A        add   r10
0009:EC3E 05 99        bra   EBD9
0009:EC40 01           nop
0009:EC41 02           cache
0009:EC42 A0 11        ibt   r0,#0011
0009:EC44 3D 4E        cmode
0009:EC46 3D A0 12     lms   r0,(0024)
0009:EC49 4E           color
0009:EC4A A1 00        ibt   r1,#0000
0009:EC4C A2 10        ibt   r2,#0010
0009:EC4E A3 7F        ibt   r3,#007F
0009:EC50 AC 30        ibt   r12,#0030
0009:EC52 FD 55 EC     iwt   r13,#EC55
0009:EC55 4C           plot
0009:EC56 21 73        and   r3
0009:EC58 08 FB        bne   EC55
0009:EC5A 01           nop
0009:EC5B 3C           loop
0009:EC5C D2           inc   r2
0009:EC5D 3D A0 13     lms   r0,(0026)
0009:EC60 4E           color
0009:EC61 FD AD EC     iwt   r13,#ECAD
0009:EC64 F1 FF 00     iwt   r1,#00FF
0009:EC67 3D A0 11     lms   r0,(0022)
0009:EC6A 3F DF        romb
0009:EC6C 3D AE 10     lms   r14,(0020)
0009:EC6F EF           getb
0009:EC70 DE           inc   r14
0009:EC71 3E AE 10     sms   (0020),r14
0009:EC74 3F 61        cmp   r1
0009:EC76 08 16        bne   EC8E
0009:EC78 01           nop
0009:EC79 EF           getb
0009:EC7A DE           inc   r14
0009:EC7B 3E AE 10     sms   (0020),r14
0009:EC7E 3F 61        cmp   r1
0009:EC80 09 54        beq   ECD6
0009:EC82 1A 9E        lob
0009:EC84 EF           getb
0009:EC85 1B 9E        lob
0009:EC87 DE           inc   r14
0009:EC88 3E AE 10     sms   (0020),r14
0009:EC8B 05 D7        bra   EC64
0009:EC8D 01           nop
0009:EC8E 3E A0 1F     sms   (003E),r0
0009:EC91 A6 0C        ibt   r6,#000C
0009:EC93 3D 9F        lmult
0009:EC95 A0 09        ibt   r0,#0009
0009:EC97 3F DF        romb
0009:EC99 F0 2F BD     iwt   r0,#BD2F
0009:EC9C 1E 54        add   r4
0009:EC9E 2B 12        move  r2,r11
0009:ECA0 22 15        move  r5,r2
0009:ECA2 25 12        move  r2,r5
0009:ECA4 AC 08        ibt   r12,#0008
0009:ECA6 EF           getb
0009:ECA7 9E           lob
0009:ECA8 13 4D        swap
0009:ECAA DE           inc   r14
0009:ECAB 2A 11        move  r1,r10
0009:ECAD 23 04        rol
0009:ECAF 0C 03        bcc   ECB4
0009:ECB1 01           nop
0009:ECB2 4C           plot
0009:ECB3 E1           dec   r1
0009:ECB4 D1           inc   r1
0009:ECB5 A0 7F        ibt   r0,#007F
0009:ECB7 71           and   r1
0009:ECB8 08 05        bne   ECBF
0009:ECBA 01           nop
0009:ECBB A0 10        ibt   r0,#0010
0009:ECBD 12 52        add   r2
0009:ECBF 3C           loop
0009:ECC0 01           nop
0009:ECC1 D5           inc   r5
0009:ECC2 E6           dec   r6
0009:ECC3 08 DD        bne   ECA2
0009:ECC5 01           nop
0009:ECC6 3D 4C        rpix
0009:ECC8 FE 2F BC     iwt   r14,#BC2F
0009:ECCB 3D A0 1F     lms   r0,(003E)
0009:ECCE 1E 5E        add   r14
0009:ECD0 EF           getb
0009:ECD1 1A 5A        add   r10
0009:ECD3 05 8F        bra   EC64
0009:ECD5 01           nop
0009:ECD6 00           stop
0009:ECD7 01           nop
0009:ECD8 02           cache
0009:ECD9 A0 11        ibt   r0,#0011
0009:ECDB 3D 4E        cmode
0009:ECDD A0 09        ibt   r0,#0009
0009:ECDF 3F DF        romb
0009:ECE1 FE 2F BD     iwt   r14,#BD2F
0009:ECE4 A0 01        ibt   r0,#0001
0009:ECE6 4E           color
0009:ECE7 EF           getb
0009:ECE8 4D           swap
0009:ECE9 DE           inc   r14
0009:ECEA A3 00        ibt   r3,#0000
0009:ECEC A4 04        ibt   r4,#0004
0009:ECEE FB 08 00     iwt   r11,#0008
0009:ECF1 FD F6 EC     iwt   r13,#ECF6
0009:ECF4 AC 08        ibt   r12,#0008
0009:ECF6 AA 0C        ibt   r10,#000C
0009:ECF8 24 12        move  r2,r4
0009:ECFA 23 11        move  r1,r3
0009:ECFC 50           add   r0
0009:ECFD 0C 03        bcc   ED02
0009:ECFF D1           inc   r1
0009:ED00 E1           dec   r1
0009:ED01 4C           plot
0009:ED02 20 B0        moves r0,r0
0009:ED04 08 F6        bne   ECFC
0009:ED06 01           nop
0009:ED07 EF           getb
0009:ED08 4D           swap
0009:ED09 DE           inc   r14
0009:ED0A D2           inc   r2
0009:ED0B EA           dec   r10
0009:ED0C 08 ED        bne   ECFB
0009:ED0E 23 3E 58     add   #08
0009:ED11 3C           loop
0009:ED12 24 3E 5F     add   #0F
0009:ED15 D4           inc   r4
0009:ED16 A3 00        ibt   r3,#0000
0009:ED18 EB           dec   r11
0009:ED19 08 D9        bne   ECF4
0009:ED1B 01           nop
0009:ED1C A3 40        ibt   r3,#0040
0009:ED1E A4 04        ibt   r4,#0004
0009:ED20 FB 08 00     iwt   r11,#0008
0009:ED23 FD 28 ED     iwt   r13,#ED28
0009:ED26 AC 08        ibt   r12,#0008
0009:ED28 AA 0C        ibt   r10,#000C
0009:ED2A 24 12        move  r2,r4
0009:ED2C 23 11        move  r1,r3
0009:ED2E 50           add   r0
0009:ED2F 0C 03        bcc   ED34
0009:ED31 D1           inc   r1
0009:ED32 E1           dec   r1
0009:ED33 4C           plot
0009:ED34 20 B0        moves r0,r0
0009:ED36 08 F6        bne   ED2E
0009:ED38 01           nop
0009:ED39 EF           getb
0009:ED3A 4D           swap
0009:ED3B DE           inc   r14
0009:ED3C D2           inc   r2
0009:ED3D EA           dec   r10
0009:ED3E 08 ED        bne   ED2D
0009:ED40 23 3E 58     add   #08
0009:ED43 3C           loop
0009:ED44 24 3E 5F     add   #0F
0009:ED47 D4           inc   r4
0009:ED48 A3 40        ibt   r3,#0040
0009:ED4A EB           dec   r11
0009:ED4B 08 D9        bne   ED26
0009:ED4D 01           nop
0009:ED4E F3 80 00     iwt   r3,#0080
0009:ED51 A4 04        ibt   r4,#0004
0009:ED53 FB 08 00     iwt   r11,#0008
0009:ED56 FD 5B ED     iwt   r13,#ED5B
0009:ED59 AC 08        ibt   r12,#0008
0009:ED5B AA 0C        ibt   r10,#000C
0009:ED5D 24 12        move  r2,r4
0009:ED5F 23 11        move  r1,r3
0009:ED61 50           add   r0
0009:ED62 0C 03        bcc   ED67
0009:ED64 D1           inc   r1
0009:ED65 E1           dec   r1
0009:ED66 4C           plot
0009:ED67 20 B0        moves r0,r0
0009:ED69 08 F6        bne   ED61
0009:ED6B 01           nop
0009:ED6C EF           getb
0009:ED6D 4D           swap
0009:ED6E DE           inc   r14
0009:ED6F D2           inc   r2
0009:ED70 EA           dec   r10
0009:ED71 08 ED        bne   ED60
0009:ED73 23 3E 58     add   #08
0009:ED76 3C           loop
0009:ED77 24 3E 5F     add   #0F
0009:ED7A D4           inc   r4
0009:ED7B F3 80 00     iwt   r3,#0080
0009:ED7E EB           dec   r11
0009:ED7F 08 D8        bne   ED59
0009:ED81 01           nop
0009:ED82 F3 C0 00     iwt   r3,#00C0
0009:ED85 A4 04        ibt   r4,#0004
0009:ED87 FB 08 00     iwt   r11,#0008
0009:ED8A FD 8F ED     iwt   r13,#ED8F
0009:ED8D AC 08        ibt   r12,#0008
0009:ED8F AA 0C        ibt   r10,#000C
0009:ED91 24 12        move  r2,r4
0009:ED93 23 11        move  r1,r3
0009:ED95 50           add   r0
0009:ED96 0C 03        bcc   ED9B
0009:ED98 D1           inc   r1
0009:ED99 E1           dec   r1
0009:ED9A 4C           plot
0009:ED9B 20 B0        moves r0,r0
0009:ED9D 08 F6        bne   ED95
0009:ED9F 01           nop
0009:EDA0 EF           getb
0009:EDA1 4D           swap
0009:EDA2 DE           inc   r14
0009:EDA3 D2           inc   r2
0009:EDA4 EA           dec   r10
0009:EDA5 08 ED        bne   ED94
0009:EDA7 23 3E 58     add   #08
0009:EDAA 3C           loop
0009:EDAB 24 3E 5F     add   #0F
0009:EDAE D4           inc   r4
0009:EDAF F3 C0 00     iwt   r3,#00C0
0009:EDB2 EB           dec   r11
0009:EDB3 08 D8        bne   ED8D
0009:EDB5 01           nop
0009:EDB6 3D 4C        rpix
0009:EDB8 FA 01 1C     iwt   r10,#1C01
0009:EDBB FB 00 3C     iwt   r11,#3C00
0009:EDBE FC 00 20     iwt   r12,#2000
0009:EDC1 2F 1D        move  r13,r15
0009:EDC3 3D 4B        ldb   (r11)
0009:EDC5 3D 3A        stb   (r10)
0009:EDC7 DB           inc   r11
0009:EDC8 DB           inc   r11
0009:EDC9 DA           inc   r10
0009:EDCA 3C           loop
0009:EDCB DA           inc   r10
0009:EDCC 00           stop
0009:EDCD 01           nop
0009:EDCE 01           nop
0009:EDCF 01           nop
0009:EDD0 01           nop
0009:EDD1 01           nop
0009:EDD2 01           nop
0009:EDD3 01           nop
0009:EDD4 01           nop
0009:EDD5 01           nop
0009:EDD6 01           nop
0009:EDD7 01           nop
0009:EDD8 01           nop
0009:EDD9 01           nop
0009:EDDA 01           nop
0009:EDDB 01           nop
0009:EDDC 01           nop
0009:EDDD 01           nop
0009:EDDE 01           nop
0009:EDDF 01           nop
0009:EDE0 01           nop
0009:EDE1 01           nop
0009:EDE2 01           nop
0009:EDE3 01           nop
0009:EDE4 01           nop
0009:EDE5 01           nop
0009:EDE6 01           nop
0009:EDE7 01           nop
0009:EDE8 01           nop
0009:EDE9 01           nop
0009:EDEA 01           nop
0009:EDEB 01           nop
0009:EDEC 01           nop
0009:EDED 01           nop
0009:EDEE 01           nop
0009:EDEF 01           nop
0009:EDF0 01           nop
0009:EDF1 01           nop
0009:EDF2 01           nop
0009:EDF3 01           nop
0009:EDF4 01           nop
0009:EDF5 01           nop
0009:EDF6 01           nop
0009:EDF7 01           nop
0009:EDF8 01           nop
0009:EDF9 01           nop
0009:EDFA 01           nop
0009:EDFB 01           nop
0009:EDFC 01           nop
0009:EDFD 01           nop
0009:EDFE 01           nop
0009:EDFF 01           nop
0009:EE00 01           nop
0009:EE01 01           nop
0009:EE02 01           nop
0009:EE03 01           nop
0009:EE04 01           nop
0009:EE05 01           nop
0009:EE06 01           nop
0009:EE07 01           nop
0009:EE08 01           nop
0009:EE09 01           nop
0009:EE0A 01           nop
0009:EE0B 01           nop
0009:EE0C 01           nop
0009:EE0D 01           nop
0009:EE0E 01           nop
0009:EE0F 01           nop
0009:EE10 01           nop
0009:EE11 01           nop
0009:EE12 01           nop
0009:EE13 01           nop
0009:EE14 01           nop
0009:EE15 01           nop
0009:EE16 01           nop
0009:EE17 01           nop
0009:EE18 01           nop
0009:EE19 01           nop
0009:EE1A 01           nop
0009:EE1B 01           nop
0009:EE1C 01           nop
0009:EE1D 01           nop
0009:EE1E 01           nop
0009:EE1F 01           nop
0009:EE20 01           nop
0009:EE21 01           nop
0009:EE22 01           nop
0009:EE23 01           nop
0009:EE24 01           nop
0009:EE25 01           nop
0009:EE26 01           nop
0009:EE27 01           nop
0009:EE28 01           nop
0009:EE29 01           nop
0009:EE2A 01           nop
0009:EE2B 01           nop
0009:EE2C 01           nop
0009:EE2D 01           nop
0009:EE2E 01           nop
0009:EE2F 01           nop
0009:EE30 01           nop
0009:EE31 01           nop
0009:EE32 01           nop
0009:EE33 01           nop
0009:EE34 01           nop
0009:EE35 01           nop
0009:EE36 01           nop
0009:EE37 01           nop
0009:EE38 01           nop
0009:EE39 01           nop
0009:EE3A 01           nop
0009:EE3B 01           nop
0009:EE3C 01           nop
0009:EE3D 01           nop
0009:EE3E 01           nop
0009:EE3F 01           nop
0009:EE40 01           nop
0009:EE41 01           nop
0009:EE42 01           nop
0009:EE43 01           nop
0009:EE44 01           nop
0009:EE45 01           nop
0009:EE46 01           nop
0009:EE47 01           nop
0009:EE48 01           nop
0009:EE49 01           nop
0009:EE4A 01           nop
0009:EE4B 01           nop
0009:EE4C 01           nop
0009:EE4D 01           nop
0009:EE4E 01           nop
0009:EE4F 01           nop
0009:EE50 01           nop
0009:EE51 01           nop
0009:EE52 01           nop
0009:EE53 01           nop
0009:EE54 01           nop
0009:EE55 01           nop
0009:EE56 01           nop
0009:EE57 01           nop
0009:EE58 01           nop
0009:EE59 01           nop
0009:EE5A 01           nop
0009:EE5B 01           nop
0009:EE5C 01           nop
0009:EE5D 01           nop
0009:EE5E 01           nop
0009:EE5F 01           nop
0009:EE60 01           nop
0009:EE61 01           nop
0009:EE62 01           nop
0009:EE63 01           nop
0009:EE64 01           nop
0009:EE65 01           nop
0009:EE66 01           nop
0009:EE67 01           nop
0009:EE68 01           nop
0009:EE69 01           nop
0009:EE6A 01           nop
0009:EE6B 01           nop
0009:EE6C 01           nop
0009:EE6D 01           nop
0009:EE6E 01           nop
0009:EE6F 01           nop
0009:EE70 01           nop
0009:EE71 01           nop
0009:EE72 01           nop
0009:EE73 01           nop
0009:EE74 01           nop
0009:EE75 01           nop
0009:EE76 01           nop
0009:EE77 01           nop
0009:EE78 01           nop
0009:EE79 01           nop
0009:EE7A 01           nop
0009:EE7B 01           nop
0009:EE7C 01           nop
0009:EE7D 01           nop
0009:EE7E 01           nop
0009:EE7F 01           nop
0009:EE80 01           nop
0009:EE81 01           nop
0009:EE82 01           nop
0009:EE83 01           nop
0009:EE84 01           nop
0009:EE85 01           nop
0009:EE86 01           nop
0009:EE87 01           nop
0009:EE88 01           nop
0009:EE89 01           nop
0009:EE8A 01           nop
0009:EE8B 01           nop
0009:EE8C 01           nop
0009:EE8D 01           nop
0009:EE8E 01           nop
0009:EE8F 01           nop
0009:EE90 01           nop
0009:EE91 01           nop
0009:EE92 01           nop
0009:EE93 01           nop
0009:EE94 01           nop
0009:EE95 01           nop
0009:EE96 01           nop
0009:EE97 01           nop
0009:EE98 01           nop
0009:EE99 01           nop
0009:EE9A 01           nop
0009:EE9B 01           nop
0009:EE9C 01           nop
0009:EE9D 01           nop
0009:EE9E 01           nop
0009:EE9F 01           nop
0009:EEA0 01           nop
0009:EEA1 01           nop
0009:EEA2 01           nop
0009:EEA3 01           nop
0009:EEA4 01           nop
0009:EEA5 01           nop
0009:EEA6 01           nop
0009:EEA7 01           nop
0009:EEA8 01           nop
0009:EEA9 01           nop
0009:EEAA 01           nop
0009:EEAB 01           nop
0009:EEAC 01           nop
0009:EEAD 01           nop
0009:EEAE 01           nop
0009:EEAF 01           nop
0009:EEB0 01           nop
0009:EEB1 01           nop
0009:EEB2 01           nop
0009:EEB3 01           nop
0009:EEB4 01           nop
0009:EEB5 01           nop
0009:EEB6 01           nop
0009:EEB7 01           nop
0009:EEB8 01           nop
0009:EEB9 01           nop
0009:EEBA 01           nop
0009:EEBB 01           nop
0009:EEBC 01           nop
0009:EEBD 01           nop
0009:EEBE 01           nop
0009:EEBF 01           nop
0009:EEC0 01           nop
0009:EEC1 01           nop
0009:EEC2 01           nop
0009:EEC3 01           nop
0009:EEC4 01           nop
0009:EEC5 01           nop
0009:EEC6 01           nop
0009:EEC7 01           nop
0009:EEC8 01           nop
0009:EEC9 01           nop
0009:EECA 01           nop
0009:EECB 01           nop
0009:EECC 01           nop
0009:EECD 01           nop
0009:EECE 01           nop
0009:EECF 01           nop
0009:EED0 01           nop
0009:EED1 01           nop
0009:EED2 01           nop
0009:EED3 01           nop
0009:EED4 01           nop
0009:EED5 01           nop
0009:EED6 01           nop
0009:EED7 01           nop
0009:EED8 01           nop
0009:EED9 01           nop
0009:EEDA 01           nop
0009:EEDB 01           nop
0009:EEDC 01           nop
0009:EEDD 01           nop
0009:EEDE 01           nop
0009:EEDF 01           nop
0009:EEE0 01           nop
0009:EEE1 01           nop
0009:EEE2 01           nop
0009:EEE3 01           nop
0009:EEE4 01           nop
0009:EEE5 01           nop
0009:EEE6 01           nop
0009:EEE7 01           nop
0009:EEE8 01           nop
0009:EEE9 01           nop
0009:EEEA 01           nop
0009:EEEB 01           nop
0009:EEEC 01           nop
0009:EEED 01           nop
0009:EEEE 01           nop
0009:EEEF 01           nop
0009:EEF0 01           nop
0009:EEF1 01           nop
0009:EEF2 01           nop
0009:EEF3 01           nop
0009:EEF4 01           nop
0009:EEF5 01           nop
0009:EEF6 01           nop
0009:EEF7 01           nop
0009:EEF8 01           nop
0009:EEF9 01           nop
0009:EEFA 01           nop
0009:EEFB 01           nop
0009:EEFC 01           nop
0009:EEFD 01           nop
0009:EEFE 01           nop
0009:EEFF 01           nop
0009:EF00 01           nop
0009:EF01 01           nop
0009:EF02 01           nop
0009:EF03 01           nop
0009:EF04 01           nop
0009:EF05 01           nop
0009:EF06 01           nop
0009:EF07 01           nop
0009:EF08 01           nop
0009:EF09 01           nop
0009:EF0A 01           nop
0009:EF0B 01           nop
0009:EF0C 01           nop
0009:EF0D 01           nop
0009:EF0E 01           nop
0009:EF0F 01           nop
0009:EF10 01           nop
0009:EF11 01           nop
0009:EF12 01           nop
0009:EF13 01           nop
0009:EF14 01           nop
0009:EF15 01           nop
0009:EF16 01           nop
0009:EF17 01           nop
0009:EF18 01           nop
0009:EF19 01           nop
0009:EF1A 01           nop
0009:EF1B 01           nop
0009:EF1C 01           nop
0009:EF1D 01           nop
0009:EF1E 01           nop
0009:EF1F 01           nop
0009:EF20 01           nop
0009:EF21 01           nop
0009:EF22 01           nop
0009:EF23 01           nop
0009:EF24 01           nop
0009:EF25 01           nop
0009:EF26 01           nop
0009:EF27 01           nop
0009:EF28 01           nop
0009:EF29 01           nop
0009:EF2A 01           nop
0009:EF2B 01           nop
0009:EF2C 01           nop
0009:EF2D 01           nop
0009:EF2E 01           nop
0009:EF2F 01           nop
0009:EF30 01           nop
0009:EF31 01           nop
0009:EF32 01           nop
0009:EF33 01           nop
0009:EF34 01           nop
0009:EF35 01           nop
0009:EF36 01           nop
0009:EF37 01           nop
0009:EF38 01           nop
0009:EF39 01           nop
0009:EF3A 01           nop
0009:EF3B 01           nop
0009:EF3C 01           nop
0009:EF3D 01           nop
0009:EF3E 01           nop
0009:EF3F 01           nop
0009:EF40 01           nop
0009:EF41 01           nop
0009:EF42 01           nop
0009:EF43 01           nop
0009:EF44 01           nop
0009:EF45 01           nop
0009:EF46 01           nop
0009:EF47 01           nop
0009:EF48 01           nop
0009:EF49 01           nop
0009:EF4A 01           nop
0009:EF4B 01           nop
0009:EF4C 01           nop
0009:EF4D 01           nop
0009:EF4E 01           nop
0009:EF4F 01           nop
0009:EF50 01           nop
0009:EF51 01           nop
0009:EF52 01           nop
0009:EF53 01           nop
0009:EF54 01           nop
0009:EF55 01           nop
0009:EF56 01           nop
0009:EF57 01           nop
0009:EF58 01           nop
0009:EF59 01           nop
0009:EF5A 01           nop
0009:EF5B 01           nop
0009:EF5C 01           nop
0009:EF5D 01           nop
0009:EF5E 01           nop
0009:EF5F 01           nop
0009:EF60 01           nop
0009:EF61 01           nop
0009:EF62 01           nop
0009:EF63 01           nop
0009:EF64 01           nop
0009:EF65 01           nop
0009:EF66 01           nop
0009:EF67 01           nop
0009:EF68 01           nop
0009:EF69 01           nop
0009:EF6A 01           nop
0009:EF6B 01           nop
0009:EF6C 01           nop
0009:EF6D 01           nop
0009:EF6E 01           nop
0009:EF6F 01           nop
0009:EF70 01           nop
0009:EF71 01           nop
0009:EF72 01           nop
0009:EF73 01           nop
0009:EF74 01           nop
0009:EF75 01           nop
0009:EF76 01           nop
0009:EF77 01           nop
0009:EF78 01           nop
0009:EF79 01           nop
0009:EF7A 01           nop
0009:EF7B 01           nop
0009:EF7C 01           nop
0009:EF7D 01           nop
0009:EF7E 01           nop
0009:EF7F 01           nop
0009:EF80 01           nop
0009:EF81 01           nop
0009:EF82 01           nop
0009:EF83 01           nop
0009:EF84 01           nop
0009:EF85 01           nop
0009:EF86 01           nop
0009:EF87 01           nop
0009:EF88 01           nop
0009:EF89 01           nop
0009:EF8A 01           nop
0009:EF8B 01           nop
0009:EF8C 01           nop
0009:EF8D 01           nop
0009:EF8E 01           nop
0009:EF8F 01           nop
0009:EF90 01           nop
0009:EF91 01           nop
0009:EF92 01           nop
0009:EF93 01           nop
0009:EF94 01           nop
0009:EF95 01           nop
0009:EF96 01           nop
0009:EF97 01           nop
0009:EF98 01           nop
0009:EF99 01           nop
0009:EF9A 01           nop
0009:EF9B 01           nop
0009:EF9C 01           nop
0009:EF9D 01           nop
0009:EF9E 01           nop
0009:EF9F 01           nop
0009:EFA0 01           nop
0009:EFA1 01           nop
0009:EFA2 01           nop
0009:EFA3 01           nop
0009:EFA4 01           nop
0009:EFA5 01           nop
0009:EFA6 01           nop
0009:EFA7 01           nop
0009:EFA8 01           nop
0009:EFA9 01           nop
0009:EFAA 01           nop
0009:EFAB 01           nop
0009:EFAC 01           nop
0009:EFAD 01           nop
0009:EFAE 01           nop
0009:EFAF 01           nop
0009:EFB0 01           nop
0009:EFB1 01           nop
0009:EFB2 01           nop
0009:EFB3 01           nop
0009:EFB4 01           nop
0009:EFB5 01           nop
0009:EFB6 01           nop
0009:EFB7 01           nop
0009:EFB8 01           nop
0009:EFB9 01           nop
0009:EFBA 01           nop
0009:EFBB 01           nop
0009:EFBC 01           nop
0009:EFBD 01           nop
0009:EFBE 01           nop
0009:EFBF 01           nop
0009:EFC0 01           nop
0009:EFC1 01           nop
0009:EFC2 01           nop
0009:EFC3 01           nop
0009:EFC4 01           nop
0009:EFC5 01           nop
0009:EFC6 01           nop
0009:EFC7 01           nop
0009:EFC8 01           nop
0009:EFC9 01           nop
0009:EFCA 01           nop
0009:EFCB 01           nop
0009:EFCC 01           nop
0009:EFCD 01           nop
0009:EFCE 01           nop
0009:EFCF 01           nop
0009:EFD0 01           nop
0009:EFD1 01           nop
0009:EFD2 01           nop
0009:EFD3 01           nop
0009:EFD4 01           nop
0009:EFD5 01           nop
0009:EFD6 01           nop
0009:EFD7 01           nop
0009:EFD8 01           nop
0009:EFD9 01           nop
0009:EFDA 01           nop
0009:EFDB 01           nop
0009:EFDC 01           nop
0009:EFDD 01           nop
0009:EFDE 01           nop
0009:EFDF 01           nop
0009:EFE0 01           nop
0009:EFE1 01           nop
0009:EFE2 01           nop
0009:EFE3 01           nop
0009:EFE4 01           nop
0009:EFE5 01           nop
0009:EFE6 01           nop
0009:EFE7 01           nop
0009:EFE8 01           nop
0009:EFE9 01           nop
0009:EFEA 01           nop
0009:EFEB 01           nop
0009:EFEC 01           nop
0009:EFED 01           nop
0009:EFEE 01           nop
0009:EFEF 01           nop
0009:EFF0 01           nop
0009:EFF1 01           nop
0009:EFF2 01           nop
0009:EFF3 01           nop
0009:EFF4 01           nop
0009:EFF5 01           nop
0009:EFF6 01           nop
0009:EFF7 01           nop
0009:EFF8 01           nop
0009:EFF9 01           nop
0009:EFFA 01           nop
0009:EFFB 01           nop
0009:EFFC 01           nop
0009:EFFD 01           nop
0009:EFFE 01           nop
0009:EFFF 01           nop
0009:F000 01           nop
0009:F001 01           nop
0009:F002 01           nop
0009:F003 01           nop
0009:F004 01           nop
0009:F005 01           nop
0009:F006 01           nop
0009:F007 01           nop
0009:F008 01           nop
0009:F009 01           nop
0009:F00A 01           nop
0009:F00B 01           nop
0009:F00C 01           nop
0009:F00D 01           nop
0009:F00E 01           nop
0009:F00F 01           nop
0009:F010 01           nop
0009:F011 01           nop
0009:F012 01           nop
0009:F013 01           nop
0009:F014 01           nop
0009:F015 01           nop
0009:F016 01           nop
0009:F017 01           nop
0009:F018 01           nop
0009:F019 01           nop
0009:F01A 01           nop
0009:F01B 01           nop
0009:F01C 01           nop
0009:F01D 01           nop
0009:F01E 01           nop
0009:F01F 01           nop
0009:F020 01           nop
0009:F021 01           nop
0009:F022 01           nop
0009:F023 01           nop
0009:F024 01           nop
0009:F025 01           nop
0009:F026 01           nop
0009:F027 01           nop
0009:F028 01           nop
0009:F029 01           nop
0009:F02A 01           nop
0009:F02B 01           nop
0009:F02C 01           nop
0009:F02D 01           nop
0009:F02E 01           nop
0009:F02F 01           nop
0009:F030 01           nop
0009:F031 01           nop
0009:F032 01           nop
0009:F033 01           nop
0009:F034 01           nop
0009:F035 01           nop
0009:F036 01           nop
0009:F037 01           nop
0009:F038 01           nop
0009:F039 01           nop
0009:F03A 01           nop
0009:F03B 01           nop
0009:F03C 01           nop
0009:F03D 01           nop
0009:F03E 60           sub   r0
0009:F03F 3D 4E        cmode
0009:F041 3E A1 01     sms   (0002),r1
0009:F044 3E A2 02     sms   (0004),r2
0009:F047 3E A3 03     sms   (0006),r3
0009:F04A 02           cache
0009:F04B 45           ldw   (r5)
0009:F04C D0           inc   r0
0009:F04D 08 05        bne   F054
0009:F04F E0           dec   r0
0009:F050 3D 4C        rpix
0009:F052 00           stop
0009:F053 01           nop
0009:F054 61           sub   r1
0009:F055 0B 08        bmi   F05F
0009:F057 D5           inc   r5
0009:F058 F6 C0 01     iwt   r6,#01C0
0009:F05B 66           sub   r6
0009:F05C 0C 07        bcc   F065
0009:F05E 56           add   r6
0009:F05F 25 3E 55     add   #05
0009:F062 05 E8        bra   F04C
0009:F064 45           ldw   (r5)
0009:F065 20 17        move  r7,r0
0009:F067 F6 40 00     iwt   r6,#0040
0009:F06A 56           add   r6
0009:F06B 50           add   r0
0009:F06C F6 00 12     iwt   r6,#1200
0009:F06F 56           add   r6
0009:F070 16 40        ldw   (r0)
0009:F072 D5           inc   r5
0009:F073 3D 45        ldb   (r5)
0009:F075 95           sex
0009:F076 63           sub   r3
0009:F077 3D 9F        lmult
0009:F079 24 C0        hib
0009:F07B 9E           lob
0009:F07C 4D           swap
0009:F07D C4           or    r4
0009:F07E A4 60        ibt   r4,#0060
0009:F080 13 54        add   r4
0009:F082 D5           inc   r5
0009:F083 3D 45        ldb   (r5)
0009:F085 95           sex
0009:F086 62           sub   r2
0009:F087 3D 9F        lmult
0009:F089 24 C0        hib
0009:F08B 9E           lob
0009:F08C 4D           swap
0009:F08D C4           or    r4
0009:F08E A4 20        ibt   r4,#0020
0009:F090 12 54        add   r4
0009:F092 D5           inc   r5
0009:F093 3D 45        ldb   (r5)
0009:F095 50           add   r0
0009:F096 50           add   r0
0009:F097 3D 9F        lmult
0009:F099 24 C0        hib
0009:F09B 9E           lob
0009:F09C 4D           swap
0009:F09D 16 C4        or    r4
0009:F09F A0 09        ibt   r0,#0009
0009:F0A1 3F DF        romb
0009:F0A3 D5           inc   r5
0009:F0A4 3D 45        ldb   (r5)
0009:F0A6 3E A5 25     sms   (004A),r5
0009:F0A9 F4 C0 00     iwt   r4,#00C0
0009:F0AC 15 74        and   r4
0009:F0AE 3D 74        bic   r4
0009:F0B0 3E 87        mult  #07
0009:F0B2 FE 3E F4     iwt   r14,#F43E
0009:F0B5 1E 5E        add   r14
0009:F0B7 B7 03        lsr
0009:F0B9 03           lsr
0009:F0BA 03           lsr
0009:F0BB A4 30        ibt   r4,#0030
0009:F0BD 74           and   r4
0009:F0BE 15 C5        or    r5
0009:F0C0 EF           getb
0009:F0C1 DE           inc   r14
0009:F0C2 4D           swap
0009:F0C3 9F           fmult
0009:F0C4 3D 53        adc   r3
0009:F0C6 20 13        move  r3,r0
0009:F0C8 F1 C0 00     iwt   r1,#00C0
0009:F0CB 61           sub   r1
0009:F0CC 0A 1F        bpl   F0ED
0009:F0CE EF           getb
0009:F0CF DE           inc   r14
0009:F0D0 4D           swap
0009:F0D1 9F           fmult
0009:F0D2 3D 52        adc   r2
0009:F0D4 20 12        move  r2,r0
0009:F0D6 F8 80 00     iwt   r8,#0080
0009:F0D9 68           sub   r8
0009:F0DA 0A 11        bpl   F0ED
0009:F0DC EF           getb
0009:F0DD DE           inc   r14
0009:F0DE 4D           swap
0009:F0DF 9F           fmult
0009:F0E0 19 53        add   r3
0009:F0E2 0B 09        bmi   F0ED
0009:F0E4 EF           getb
0009:F0E5 DE           inc   r14
0009:F0E6 4D           swap
0009:F0E7 9F           fmult
0009:F0E8 1A 52        add   r2
0009:F0EA 0A 07        bpl   F0F3
0009:F0EC EF           getb
0009:F0ED FF 80 F1     iwt   r15,#F180
0009:F0F0 3D A1 01     lms   r1,(0002)
0009:F0F3 DE           inc   r14
0009:F0F4 1B 3D EF     getbh
0009:F0F7 DE           inc   r14
0009:F0F8 A7 01        ibt   r7,#0001
0009:F0FA 60           sub   r0
0009:F0FB 20 14        move  r4,r0
0009:F0FD AC 20        ibt   r12,#0020
0009:F0FF FD 03 F1     iwt   r13,#F103
0009:F102 24 54        add   r4
0009:F104 27 57        add   r7
0009:F106 04           rol
0009:F107 66           sub   r6
0009:F108 0C 03        bcc   F10D
0009:F10A 56           add   r6
0009:F10B 66           sub   r6
0009:F10C D4           inc   r4
0009:F10D 3C           loop
0009:F10E 24 24 16     move  r6,r4
0009:F111 EF           getb
0009:F112 A4 7F        ibt   r4,#007F
0009:F114 74           and   r4
0009:F115 3F DF        romb
0009:F117 3F EF        getbs
0009:F119 F4 00 80     iwt   r4,#8000
0009:F11C 74           and   r4
0009:F11D 15 C5        or    r5
0009:F11F A7 00        ibt   r7,#0000
0009:F121 20 B2        moves r0,r2
0009:F123 0A 08        bpl   F12D
0009:F125 4F           not
0009:F126 D0           inc   r0
0009:F127 3D 9F        lmult
0009:F129 24 17        move  r7,r4
0009:F12B A2 00        ibt   r2,#0000
0009:F12D A4 00        ibt   r4,#0000
0009:F12F 20 B3        moves r0,r3
0009:F131 0A 06        bpl   F139
0009:F133 4F           not
0009:F134 D0           inc   r0
0009:F135 3D 9F        lmult
0009:F137 A3 00        ibt   r3,#0000
0009:F139 E1           dec   r1
0009:F13A B1 69        sub   r9
0009:F13C 0C 02        bcc   F140
0009:F13E 59           add   r9
0009:F13F B9 19 63     sub   r3
0009:F142 D9           inc   r9
0009:F143 E8           dec   r8
0009:F144 B8 6A        sub   r10
0009:F146 0C 02        bcc   F14A
0009:F148 5A           add   r10
0009:F149 BA 1A 62     sub   r2
0009:F14C DA           inc   r10
0009:F14D FD 56 F1     iwt   r13,#F156
0009:F150 23 11        move  r1,r3
0009:F152 24 18        move  r8,r4
0009:F154 29 1C        move  r12,r9
0009:F156 70           merge
0009:F157 1E 5B        add   r11
0009:F159 28 56        add   r6
0009:F15B 25 B5        moves r5,r5
0009:F15D 0A 05        bpl   F164
0009:F15F EF           getb
0009:F160 03           lsr
0009:F161 03           lsr
0009:F162 03           lsr
0009:F163 03           lsr
0009:F164 3E 7F        and   #0F
0009:F166 09 0F        beq   F177
0009:F168 55           add   r5
0009:F169 4E           color
0009:F16A 3C           loop
0009:F16B 4C           plot
0009:F16C 27 56        add   r6
0009:F16E EA           dec   r10
0009:F16F 08 DF        bne   F150
0009:F171 D2           inc   r2
0009:F172 05 0C        bra   F180
0009:F174 3D A1 01     lms   r1,(0002)
0009:F177 3C           loop
0009:F178 D1           inc   r1
0009:F179 27 56        add   r6
0009:F17B EA           dec   r10
0009:F17C 08 D2        bne   F150
0009:F17E D2           inc   r2
0009:F17F 3D A1 01     lms   r1,(0002)
0009:F182 3D A2 02     lms   r2,(0004)
0009:F185 3D A3 03     lms   r3,(0006)
0009:F188 3D A5 25     lms   r5,(004A)
0009:F18B FF 4B F0     iwt   r15,#F04B
0009:F18E D5           inc   r5
0009:F18F 01           nop
0009:F190 01           nop
0009:F191 01           nop
0009:F192 01           nop
0009:F193 01           nop
0009:F194 01           nop
0009:F195 01           nop
0009:F196 01           nop
0009:F197 01           nop
0009:F198 01           nop
0009:F199 01           nop
0009:F19A 01           nop
0009:F19B 01           nop
0009:F19C 01           nop
0009:F19D 01           nop
0009:F19E 01           nop
0009:F19F 01           nop
0009:F1A0 01           nop
0009:F1A1 01           nop
0009:F1A2 01           nop
0009:F1A3 01           nop
0009:F1A4 01           nop
0009:F1A5 01           nop
0009:F1A6 01           nop
0009:F1A7 01           nop
0009:F1A8 01           nop
0009:F1A9 01           nop
0009:F1AA 01           nop
0009:F1AB 01           nop
0009:F1AC 01           nop
0009:F1AD 01           nop
0009:F1AE 01           nop
0009:F1AF 01           nop
0009:F1B0 01           nop
0009:F1B1 01           nop
0009:F1B2 01           nop
0009:F1B3 01           nop
0009:F1B4 01           nop
0009:F1B5 01           nop
0009:F1B6 01           nop
0009:F1B7 01           nop
0009:F1B8 01           nop
0009:F1B9 01           nop
0009:F1BA 01           nop
0009:F1BB 01           nop
0009:F1BC 01           nop
0009:F1BD 01           nop
0009:F1BE 01           nop
0009:F1BF 01           nop
0009:F1C0 01           nop
0009:F1C1 01           nop
0009:F1C2 01           nop
0009:F1C3 01           nop
0009:F1C4 01           nop
0009:F1C5 01           nop
0009:F1C6 01           nop
0009:F1C7 01           nop
0009:F1C8 01           nop
0009:F1C9 01           nop
0009:F1CA 01           nop
0009:F1CB 01           nop
0009:F1CC 01           nop
0009:F1CD 01           nop
0009:F1CE 01           nop
0009:F1CF 01           nop
0009:F1D0 01           nop
0009:F1D1 01           nop
0009:F1D2 01           nop
0009:F1D3 01           nop
0009:F1D4 01           nop
0009:F1D5 01           nop
0009:F1D6 01           nop
0009:F1D7 01           nop
0009:F1D8 01           nop
0009:F1D9 01           nop
0009:F1DA 01           nop
0009:F1DB 01           nop
0009:F1DC 01           nop
0009:F1DD 01           nop
0009:F1DE 01           nop
0009:F1DF 01           nop
0009:F1E0 01           nop
0009:F1E1 01           nop
0009:F1E2 01           nop
0009:F1E3 01           nop
0009:F1E4 01           nop
0009:F1E5 01           nop
0009:F1E6 01           nop
0009:F1E7 01           nop
0009:F1E8 01           nop
0009:F1E9 01           nop
0009:F1EA 01           nop
0009:F1EB 01           nop
0009:F1EC 01           nop
0009:F1ED 01           nop
0009:F1EE 01           nop
0009:F1EF 01           nop
0009:F1F0 01           nop
0009:F1F1 01           nop
0009:F1F2 01           nop
0009:F1F3 01           nop
0009:F1F4 01           nop
0009:F1F5 01           nop
0009:F1F6 01           nop
0009:F1F7 01           nop
0009:F1F8 01           nop
0009:F1F9 01           nop
0009:F1FA 01           nop
0009:F1FB 01           nop
0009:F1FC 01           nop
0009:F1FD 01           nop
0009:F1FE 01           nop
0009:F1FF 01           nop
0009:F200 01           nop
0009:F201 01           nop
0009:F202 01           nop
0009:F203 01           nop
0009:F204 01           nop
0009:F205 01           nop
0009:F206 01           nop
0009:F207 01           nop
0009:F208 01           nop
0009:F209 01           nop
0009:F20A 01           nop
0009:F20B 01           nop
0009:F20C 01           nop
0009:F20D 01           nop
0009:F20E 01           nop
0009:F20F 01           nop
0009:F210 01           nop
0009:F211 01           nop
0009:F212 01           nop
0009:F213 01           nop
0009:F214 01           nop
0009:F215 01           nop
0009:F216 01           nop
0009:F217 01           nop
0009:F218 01           nop
0009:F219 01           nop
0009:F21A 01           nop
0009:F21B 01           nop
0009:F21C 01           nop
0009:F21D 01           nop
0009:F21E 01           nop
0009:F21F 01           nop
0009:F220 01           nop
0009:F221 01           nop
0009:F222 01           nop
0009:F223 01           nop
0009:F224 01           nop
0009:F225 01           nop
0009:F226 01           nop
0009:F227 01           nop
0009:F228 01           nop
0009:F229 01           nop
0009:F22A 01           nop
0009:F22B 01           nop
0009:F22C 01           nop
0009:F22D 01           nop
0009:F22E 01           nop
0009:F22F 01           nop
0009:F230 01           nop
0009:F231 01           nop
0009:F232 01           nop
0009:F233 01           nop
0009:F234 01           nop
0009:F235 01           nop
0009:F236 01           nop
0009:F237 01           nop
0009:F238 01           nop
0009:F239 01           nop
0009:F23A 01           nop
0009:F23B 01           nop
0009:F23C 01           nop
0009:F23D 01           nop
0009:F23E 01           nop
0009:F23F 01           nop
0009:F240 01           nop
0009:F241 01           nop
0009:F242 01           nop
0009:F243 01           nop
0009:F244 01           nop
0009:F245 01           nop
0009:F246 01           nop
0009:F247 01           nop
0009:F248 01           nop
0009:F249 01           nop
0009:F24A 01           nop
0009:F24B 01           nop
0009:F24C 01           nop
0009:F24D 01           nop
0009:F24E 01           nop
0009:F24F 01           nop
0009:F250 01           nop
0009:F251 01           nop
0009:F252 01           nop
0009:F253 01           nop
0009:F254 01           nop
0009:F255 01           nop
0009:F256 01           nop
0009:F257 01           nop
0009:F258 01           nop
0009:F259 01           nop
0009:F25A 01           nop
0009:F25B 01           nop
0009:F25C 01           nop
0009:F25D 01           nop
0009:F25E 01           nop
0009:F25F 01           nop
0009:F260 01           nop
0009:F261 01           nop
0009:F262 01           nop
0009:F263 01           nop
0009:F264 01           nop
0009:F265 01           nop
0009:F266 01           nop
0009:F267 01           nop
0009:F268 01           nop
0009:F269 01           nop
0009:F26A 01           nop
0009:F26B 01           nop
0009:F26C 01           nop
0009:F26D 01           nop
0009:F26E 01           nop
0009:F26F 01           nop
0009:F270 01           nop
0009:F271 01           nop
0009:F272 01           nop
0009:F273 01           nop
0009:F274 01           nop
0009:F275 01           nop
0009:F276 01           nop
0009:F277 01           nop
0009:F278 01           nop
0009:F279 01           nop
0009:F27A 01           nop
0009:F27B 01           nop
0009:F27C 01           nop
0009:F27D 01           nop
0009:F27E 01           nop
0009:F27F 01           nop
0009:F280 01           nop
0009:F281 01           nop
0009:F282 01           nop
0009:F283 01           nop
0009:F284 01           nop
0009:F285 01           nop
0009:F286 01           nop
0009:F287 01           nop
0009:F288 01           nop
0009:F289 01           nop
0009:F28A 01           nop
0009:F28B 01           nop
0009:F28C 01           nop
0009:F28D 01           nop
0009:F28E 01           nop
0009:F28F 01           nop
0009:F290 01           nop
0009:F291 01           nop
0009:F292 01           nop
0009:F293 01           nop
0009:F294 01           nop
0009:F295 01           nop
0009:F296 01           nop
0009:F297 01           nop
0009:F298 01           nop
0009:F299 01           nop
0009:F29A 01           nop
0009:F29B 01           nop
0009:F29C 01           nop
0009:F29D 01           nop
0009:F29E 01           nop
0009:F29F 01           nop
0009:F2A0 01           nop
0009:F2A1 01           nop
0009:F2A2 01           nop
0009:F2A3 01           nop
0009:F2A4 01           nop
0009:F2A5 01           nop
0009:F2A6 01           nop
0009:F2A7 01           nop
0009:F2A8 01           nop
0009:F2A9 01           nop
0009:F2AA 01           nop
0009:F2AB 01           nop
0009:F2AC 01           nop
0009:F2AD 01           nop
0009:F2AE 01           nop
0009:F2AF 01           nop
0009:F2B0 01           nop
0009:F2B1 01           nop
0009:F2B2 01           nop
0009:F2B3 01           nop
0009:F2B4 01           nop
0009:F2B5 01           nop
0009:F2B6 01           nop
0009:F2B7 01           nop
0009:F2B8 01           nop
0009:F2B9 01           nop
0009:F2BA 01           nop
0009:F2BB 01           nop
0009:F2BC 01           nop
0009:F2BD 01           nop
0009:F2BE 01           nop
0009:F2BF 01           nop
0009:F2C0 01           nop
0009:F2C1 01           nop
0009:F2C2 01           nop
0009:F2C3 01           nop
0009:F2C4 01           nop
0009:F2C5 01           nop
0009:F2C6 01           nop
0009:F2C7 01           nop
0009:F2C8 01           nop
0009:F2C9 01           nop
0009:F2CA 01           nop
0009:F2CB 01           nop
0009:F2CC 01           nop
0009:F2CD 01           nop
0009:F2CE 01           nop
0009:F2CF 01           nop
0009:F2D0 01           nop
0009:F2D1 01           nop
0009:F2D2 01           nop
0009:F2D3 01           nop
0009:F2D4 01           nop
0009:F2D5 01           nop
0009:F2D6 01           nop
0009:F2D7 01           nop
0009:F2D8 01           nop
0009:F2D9 01           nop
0009:F2DA 01           nop
0009:F2DB 01           nop
0009:F2DC 01           nop
0009:F2DD 01           nop
0009:F2DE 01           nop
0009:F2DF 01           nop
0009:F2E0 01           nop
0009:F2E1 01           nop
0009:F2E2 01           nop
0009:F2E3 01           nop
0009:F2E4 01           nop
0009:F2E5 01           nop
0009:F2E6 01           nop
0009:F2E7 01           nop
0009:F2E8 01           nop
0009:F2E9 01           nop
0009:F2EA 01           nop
0009:F2EB 01           nop
0009:F2EC 01           nop
0009:F2ED 01           nop
0009:F2EE 01           nop
0009:F2EF 01           nop
0009:F2F0 01           nop
0009:F2F1 01           nop
0009:F2F2 01           nop
0009:F2F3 01           nop
0009:F2F4 01           nop
0009:F2F5 01           nop
0009:F2F6 01           nop
0009:F2F7 01           nop
0009:F2F8 01           nop
0009:F2F9 01           nop
0009:F2FA 01           nop
0009:F2FB 01           nop
0009:F2FC 01           nop
0009:F2FD 01           nop
0009:F2FE 01           nop
0009:F2FF 01           nop
0009:F300 01           nop
0009:F301 01           nop
0009:F302 01           nop
0009:F303 01           nop
0009:F304 01           nop
0009:F305 01           nop
0009:F306 01           nop
0009:F307 01           nop
0009:F308 01           nop
0009:F309 01           nop
0009:F30A 01           nop
0009:F30B 01           nop
0009:F30C 01           nop
0009:F30D 01           nop
0009:F30E 01           nop
0009:F30F 01           nop
0009:F310 01           nop
0009:F311 01           nop
0009:F312 01           nop
0009:F313 01           nop
0009:F314 01           nop
0009:F315 01           nop
0009:F316 01           nop
0009:F317 01           nop
0009:F318 01           nop
0009:F319 01           nop
0009:F31A 01           nop
0009:F31B 01           nop
0009:F31C 01           nop
0009:F31D 01           nop
0009:F31E 01           nop
0009:F31F 01           nop
0009:F320 01           nop
0009:F321 01           nop
0009:F322 01           nop
0009:F323 01           nop
0009:F324 01           nop
0009:F325 01           nop
0009:F326 01           nop
0009:F327 01           nop
0009:F328 01           nop
0009:F329 01           nop
0009:F32A 01           nop
0009:F32B 01           nop
0009:F32C 01           nop
0009:F32D 01           nop
0009:F32E 01           nop
0009:F32F 01           nop
0009:F330 01           nop
0009:F331 01           nop
0009:F332 01           nop
0009:F333 01           nop
0009:F334 01           nop
0009:F335 01           nop
0009:F336 01           nop
0009:F337 01           nop
0009:F338 01           nop
0009:F339 01           nop
0009:F33A 01           nop
0009:F33B 01           nop
0009:F33C 01           nop
0009:F33D 01           nop
0009:F33E 01           nop
0009:F33F 01           nop
0009:F340 01           nop
0009:F341 01           nop
0009:F342 01           nop
0009:F343 01           nop
0009:F344 01           nop
0009:F345 01           nop
0009:F346 01           nop
0009:F347 01           nop
0009:F348 01           nop
0009:F349 01           nop
0009:F34A 01           nop
0009:F34B 01           nop
0009:F34C 01           nop
0009:F34D 01           nop
0009:F34E 01           nop
0009:F34F 01           nop
0009:F350 01           nop
0009:F351 01           nop
0009:F352 01           nop
0009:F353 01           nop
0009:F354 01           nop
0009:F355 01           nop
0009:F356 01           nop
0009:F357 01           nop
0009:F358 01           nop
0009:F359 01           nop
0009:F35A 01           nop
0009:F35B 01           nop
0009:F35C 01           nop
0009:F35D 01           nop
0009:F35E 01           nop
0009:F35F 01           nop
0009:F360 01           nop
0009:F361 01           nop
0009:F362 01           nop
0009:F363 01           nop
0009:F364 01           nop
0009:F365 01           nop
0009:F366 01           nop
0009:F367 01           nop
0009:F368 01           nop
0009:F369 01           nop
0009:F36A 01           nop
0009:F36B 01           nop
0009:F36C 01           nop
0009:F36D 01           nop
0009:F36E 01           nop
0009:F36F 01           nop
0009:F370 01           nop
0009:F371 01           nop
0009:F372 01           nop
0009:F373 01           nop
0009:F374 01           nop
0009:F375 01           nop
0009:F376 01           nop
0009:F377 01           nop
0009:F378 01           nop
0009:F379 01           nop
0009:F37A 01           nop
0009:F37B 01           nop
0009:F37C 01           nop
0009:F37D 01           nop
0009:F37E 01           nop
0009:F37F 01           nop
0009:F380 01           nop
0009:F381 01           nop
0009:F382 01           nop
0009:F383 01           nop
0009:F384 01           nop
0009:F385 01           nop
0009:F386 01           nop
0009:F387 01           nop
0009:F388 01           nop
0009:F389 01           nop
0009:F38A 01           nop
0009:F38B 01           nop
0009:F38C 01           nop
0009:F38D 01           nop
0009:F38E 01           nop
0009:F38F 01           nop
0009:F390 01           nop
0009:F391 01           nop
0009:F392 01           nop
0009:F393 01           nop
0009:F394 01           nop
0009:F395 01           nop
0009:F396 01           nop
0009:F397 01           nop
0009:F398 01           nop
0009:F399 01           nop
0009:F39A 01           nop
0009:F39B 01           nop
0009:F39C 01           nop
0009:F39D 01           nop
0009:F39E 01           nop
0009:F39F 01           nop
0009:F3A0 01           nop
0009:F3A1 01           nop
0009:F3A2 01           nop
0009:F3A3 01           nop
0009:F3A4 01           nop
0009:F3A5 01           nop
0009:F3A6 01           nop
0009:F3A7 01           nop
0009:F3A8 01           nop
0009:F3A9 01           nop
0009:F3AA 01           nop
0009:F3AB 01           nop
0009:F3AC 01           nop
0009:F3AD 01           nop
0009:F3AE 01           nop
0009:F3AF 01           nop
0009:F3B0 01           nop
0009:F3B1 01           nop
0009:F3B2 01           nop
0009:F3B3 01           nop
0009:F3B4 01           nop
0009:F3B5 01           nop
0009:F3B6 01           nop
0009:F3B7 01           nop
0009:F3B8 01           nop
0009:F3B9 01           nop
0009:F3BA 01           nop
0009:F3BB 01           nop
0009:F3BC 01           nop
0009:F3BD 01           nop
0009:F3BE 01           nop
0009:F3BF 01           nop
0009:F3C0 01           nop
0009:F3C1 01           nop
0009:F3C2 01           nop
0009:F3C3 01           nop
0009:F3C4 01           nop
0009:F3C5 01           nop
0009:F3C6 01           nop
0009:F3C7 01           nop
0009:F3C8 01           nop
0009:F3C9 01           nop
0009:F3CA 01           nop
0009:F3CB 01           nop
0009:F3CC 01           nop
0009:F3CD 01           nop
0009:F3CE 01           nop
0009:F3CF 01           nop
0009:F3D0 01           nop
0009:F3D1 01           nop
0009:F3D2 01           nop
0009:F3D3 01           nop
0009:F3D4 01           nop
0009:F3D5 01           nop
0009:F3D6 01           nop
0009:F3D7 01           nop
0009:F3D8 01           nop
0009:F3D9 01           nop
0009:F3DA 01           nop
0009:F3DB 01           nop
0009:F3DC 01           nop
0009:F3DD 01           nop
0009:F3DE 01           nop
0009:F3DF 01           nop
0009:F3E0 01           nop
0009:F3E1 01           nop
0009:F3E2 01           nop
0009:F3E3 01           nop
0009:F3E4 01           nop
0009:F3E5 01           nop
0009:F3E6 01           nop
0009:F3E7 01           nop
0009:F3E8 01           nop
0009:F3E9 01           nop
0009:F3EA 01           nop
0009:F3EB 01           nop
0009:F3EC 01           nop
0009:F3ED 01           nop
0009:F3EE 01           nop
0009:F3EF 01           nop
0009:F3F0 01           nop
0009:F3F1 01           nop
0009:F3F2 01           nop
0009:F3F3 01           nop
0009:F3F4 01           nop
0009:F3F5 01           nop
0009:F3F6 01           nop
0009:F3F7 01           nop
0009:F3F8 01           nop
0009:F3F9 01           nop
0009:F3FA 01           nop
0009:F3FB 01           nop
0009:F3FC 01           nop
0009:F3FD 01           nop
0009:F3FE 01           nop
0009:F3FF 01           nop
0009:F400 01           nop
0009:F401 01           nop
0009:F402 01           nop
0009:F403 01           nop
0009:F404 01           nop
0009:F405 01           nop
0009:F406 01           nop
0009:F407 01           nop
0009:F408 01           nop
0009:F409 01           nop
0009:F40A 01           nop
0009:F40B 01           nop
0009:F40C 01           nop
0009:F40D 01           nop
0009:F40E 01           nop
0009:F40F 01           nop
0009:F410 01           nop
0009:F411 01           nop
0009:F412 01           nop
0009:F413 01           nop
0009:F414 01           nop
0009:F415 01           nop
0009:F416 01           nop
0009:F417 01           nop
0009:F418 01           nop
0009:F419 01           nop
0009:F41A 01           nop
0009:F41B 01           nop
0009:F41C 01           nop
0009:F41D 01           nop
0009:F41E 01           nop
0009:F41F 01           nop
0009:F420 01           nop
0009:F421 01           nop
0009:F422 01           nop
0009:F423 01           nop
0009:F424 01           nop
0009:F425 01           nop
0009:F426 01           nop
0009:F427 01           nop
0009:F428 01           nop
0009:F429 01           nop
0009:F42A 01           nop
0009:F42B 01           nop
0009:F42C 01           nop
0009:F42D 01           nop
0009:F42E 01           nop
0009:F42F 01           nop
0009:F430 01           nop
0009:F431 01           nop
0009:F432 01           nop
0009:F433 01           nop
0009:F434 01           nop
0009:F435 01           nop
0009:F436 01           nop
0009:F437 01           nop
0009:F438 01           nop
0009:F439 01           nop
0009:F43A 01           nop
0009:F43B 01           nop
0009:F43C 01           nop
0009:F43D 01           nop
0009:F43E F4 F0 18     iwt   r4,#18F0
0009:F441 28 00        stop
0009:F443 C0           hib
0009:F444 D5           inc   r5
0009:F445 E8           dec   r8
0009:F446 F3 2F 28     iwt   r3,#282F
0009:F449 18 C0        hib
0009:F44B D5           inc   r5
0009:F44C E4           dec   r4
0009:F44D FA 37 1F     iwt   r10,#1F37
0009:F450 80           mult  r0
0009:F451 80           mult  r0
0009:F452 D5           inc   r5
0009:F453 E0           dec   r0
0009:F454 05 3F        bra   F495
0009:F456 0F 40        bvs   F498
0009:F458 80           mult  r0
0009:F459 D5           inc   r5
0009:F45A E4           dec   r4
0009:F45B 04           rol
0009:F45C 37           stw   (r7)
0009:F45D 17 30        stw   (r0)
0009:F45F E8           dec   r8
0009:F460 D5           inc   r5
0009:F461 F0 04 1F     iwt   r0,#1F04
0009:F464 1F 60        sub   r0
0009:F466 A0 D5        ibt   r0,#FFD5
0009:F468 F0 04 20     iwt   r0,#2004
0009:F46B 1F 20 80     mult  r0
0009:F46E D5           inc   r5
0009:F46F F0 01 20     iwt   r0,#2001
0009:F472 1F 00        stop
0009:F474 80           mult  r0
0009:F475 D5           inc   r5
0009:F476 E8           dec   r8
0009:F477 05 2F        bra   F4A8
0009:F479 10 40        ldw   (r0)
0009:F47B 90           sbk
0009:F47C D5           inc   r5
0009:F47D E8           dec   r8
0009:F47E 02           cache
0009:F47F 2F 17        move  r7,r15
0009:F481 00           stop
0009:F482 E8           dec   r8
0009:F483 D5           inc   r5
0009:F484 E8           dec   r8
0009:F485 FF 30 17     iwt   r15,#1730
0009:F488 30           stw   (r0)
0009:F489 A0 D5        ibt   r0,#FFD5
0009:F48B E8           dec   r8
0009:F48C F9 2F 1F     iwt   r9,#1F2F
0009:F48F 00           stop
0009:F490 A0 D5        ibt   r0,#FFD5
0009:F492 F4 F0 17     iwt   r4,#17F0
0009:F495 28 48        ldw   (r8)
0009:F497 C0           hib
0009:F498 D5           inc   r5
0009:F499 E8           dec   r8
0009:F49A C0           hib
0009:F49B 2F 3F 00     ???
0009:F49E 80           mult  r0
0009:F49F 55           add   r5
0009:F4A0 F8 E8 0F     iwt   r8,#0FE8
0009:F4A3 17 30        stw   (r0)
0009:F4A5 A8 55        ibt   r8,#0055
0009:F4A7 E8           dec   r8
0009:F4A8 C0           hib
0009:F4A9 2F 3F 80     umult #00
0009:F4AC 80           mult  r0
0009:F4AD 55           add   r5
0009:F4AE E8           dec   r8
0009:F4AF E8           dec   r8
0009:F4B0 2F 27 30     stw   (r0)
0009:F4B3 80           mult  r0
0009:F4B4 55           add   r5
0009:F4B5 F0 D0 1F     iwt   r0,#1FD0
0009:F4B8 2F 60        sub   r0
0009:F4BA 80           mult  r0
0009:F4BB 55           add   r5
0009:F4BC F0 F4 1F     iwt   r0,#1FF4
0009:F4BF 17 40        ldw   (r0)
0009:F4C1 A8 55        ibt   r8,#0055
0009:F4C3 F0 F8 1F     iwt   r0,#1FF8
0009:F4C6 0F 60        bvs   F528
0009:F4C8 B0 55        add   r5
0009:F4CA C0           hib
0009:F4CB C8           or    r8
0009:F4CC 7F           and   r15
0009:F4CD 37           stw   (r7)
0009:F4CE 80           mult  r0
0009:F4CF C8           or    r8
0009:F4D0 D5           inc   r5
0009:F4D1 D8           inc   r8
0009:F4D2 C0           hib
0009:F4D3 4F           not
0009:F4D4 47           ldw   (r7)
0009:F4D5 B0 80        mult  r0
0009:F4D7 55           add   r5
0009:F4D8 C0           hib
0009:F4D9 F8 7F 17     iwt   r8,#177F
0009:F4DC 80           mult  r0
0009:F4DD E8           dec   r8
0009:F4DE 55           add   r5
0009:F4DF D8           inc   r8
0009:F4E0 E0           dec   r0
0009:F4E1 50           add   r0
0009:F4E2 40           ldw   (r0)
0009:F4E3 30           stw   (r0)
0009:F4E4 C0           hib
0009:F4E5 55           add   r5
0009:F4E6 E8           dec   r8
0009:F4E7 E0           dec   r0
0009:F4E8 2F 3F 00     ???
0009:F4EB C0           hib
0009:F4EC 55           add   r5
0009:F4ED DC           inc   r12
0009:F4EE DC           inc   r12
0009:F4EF 47           ldw   (r7)
0009:F4F0 47           ldw   (r7)
0009:F4F1 B8 80        mult  r0
0009:F4F3 D5           inc   r5
0009:F4F4 F8 F4 10     iwt   r8,#10F4
0009:F4F7 18 60        sub   r0
0009:F4F9 C0           hib
0009:F4FA D5           inc   r5
0009:F4FB F8 F4 10     iwt   r8,#10F4
0009:F4FE 18 70        merge
0009:F500 C0           hib
0009:F501 D5           inc   r5
0009:F502 F8 F4 10     iwt   r8,#10F4
0009:F505 18 30        stw   (r0)
0009:F507 A8 55        ibt   r8,#0055
0009:F509 F4 F4 18     iwt   r4,#18F4
0009:F50C 18 80        mult  r0
0009:F50E D0           inc   r0
0009:F50F 55           add   r5
0009:F510 F4 F4 18     iwt   r4,#18F4
0009:F513 18 98        jmp   r8
0009:F515 D0           inc   r0
0009:F516 55           add   r5
0009:F517 F4 F4 18     iwt   r4,#18F4
0009:F51A 18 68        sub   r8
0009:F51C D8           inc   r8
0009:F51D D5           inc   r5
0009:F51E F4 F4 18     iwt   r4,#18F4
0009:F521 18 80        mult  r0
0009:F523 A0 D5        ibt   r0,#FFD5
0009:F525 F8 F8 10     iwt   r8,#10F8
0009:F528 10 80        mult  r0
0009:F52A C0           hib
0009:F52B 55           add   r5
0009:F52C F8 F8 10     iwt   r8,#10F8
0009:F52F 10 90        sbk
0009:F531 C0           hib
0009:F532 55           add   r5
0009:F533 F8 F8 10     iwt   r8,#10F8
0009:F536 10 A0 C0     ibt   r0,#FFC0
0009:F539 55           add   r5
0009:F53A F8 F8 10     iwt   r8,#10F8
0009:F53D 10 B0 C8     or    r8
0009:F540 55           add   r5
0009:F541 F8 F8 10     iwt   r8,#10F8
0009:F544 10 C0        hib
0009:F546 C8           or    r8
0009:F547 55           add   r5
0009:F548 F8 F8 10     iwt   r8,#10F8
0009:F54B 10 D0        inc   r0
0009:F54D C8           or    r8
0009:F54E 55           add   r5
0009:F54F F8 F8 10     iwt   r8,#10F8
0009:F552 10 E0        dec   r0
0009:F554 C8           or    r8
0009:F555 55           add   r5
0009:F556 F8 F8 10     iwt   r8,#10F8
0009:F559 10 F0 C8 55  iwt   r0,#55C8
0009:F55D F8 F8 10     iwt   r8,#10F8
0009:F560 10 B0 D8     inc   r8
0009:F563 55           add   r5
0009:F564 F8 F8 10     iwt   r8,#10F8
0009:F567 10 C0        hib
0009:F569 D8           inc   r8
0009:F56A 55           add   r5
0009:F56B F8 F8 10     iwt   r8,#10F8
0009:F56E 10 D0        inc   r0
0009:F570 D8           inc   r8
0009:F571 55           add   r5
0009:F572 3F DF        romb
0009:F574 2E 1E        move  r14,r14
0009:F576 94           link  #04
0009:F577 FF CA F5     iwt   r15,#F5CA
0009:F57A 01           nop
0009:F57B F8 5E 38     iwt   r8,#385E
0009:F57E F9 00 58     iwt   r9,#5800
0009:F581 FA D2 58     iwt   r10,#58D2
0009:F584 02           cache
0009:F585 AC 4F        ibt   r12,#004F
0009:F587 2F 1D        move  r13,r15
0009:F589 B1 38        stw   (r8)
0009:F58B D8           inc   r8
0009:F58C D8           inc   r8
0009:F58D B2 3D 39     stb   (r9)
0009:F590 D9           inc   r9
0009:F591 B3 3A        stw   (r10)
0009:F593 DA           inc   r10
0009:F594 3C           loop
0009:F595 DA           inc   r10
0009:F596 A7 0E        ibt   r7,#000E
0009:F598 94           link  #04
0009:F599 FF CA F5     iwt   r15,#F5CA
0009:F59C 01           nop
0009:F59D AC 04        ibt   r12,#0004
0009:F59F 2F 1D        move  r13,r15
0009:F5A1 B1 38        stw   (r8)
0009:F5A3 D8           inc   r8
0009:F5A4 D8           inc   r8
0009:F5A5 B2 3D 39     stb   (r9)
0009:F5A8 D9           inc   r9
0009:F5A9 B3 3A        stw   (r10)
0009:F5AB DA           inc   r10
0009:F5AC 3C           loop
0009:F5AD DA           inc   r10
0009:F5AE E7           dec   r7
0009:F5AF 08 E7        bne   F598
0009:F5B1 01           nop
0009:F5B2 94           link  #04
0009:F5B3 FF CA F5     iwt   r15,#F5CA
0009:F5B6 01           nop
0009:F5B7 AC 4A        ibt   r12,#004A
0009:F5B9 2F 1D        move  r13,r15
0009:F5BB B1 38        stw   (r8)
0009:F5BD D8           inc   r8
0009:F5BE D8           inc   r8
0009:F5BF B2 3D 39     stb   (r9)
0009:F5C2 D9           inc   r9
0009:F5C3 B3 3A        stw   (r10)
0009:F5C5 DA           inc   r10
0009:F5C6 3C           loop
0009:F5C7 DA           inc   r10
0009:F5C8 00           stop
0009:F5C9 01           nop
0009:F5CA EF           getb
0009:F5CB DE           inc   r14
0009:F5CC 3D EF        getbh
0009:F5CE DE           inc   r14
0009:F5CF 20 11        move  r1,r0
0009:F5D1 A5 1F        ibt   r5,#001F
0009:F5D3 75           and   r5
0009:F5D4 A6 20        ibt   r6,#0020
0009:F5D6 12 C6        or    r6
0009:F5D8 B1 03        lsr
0009:F5DA 03           lsr
0009:F5DB 03           lsr
0009:F5DC 03           lsr
0009:F5DD 03           lsr
0009:F5DE 20 14        move  r4,r0
0009:F5E0 75           and   r5
0009:F5E1 26 56        add   r6
0009:F5E3 13 C6        or    r6
0009:F5E5 B4 03        lsr
0009:F5E7 03           lsr
0009:F5E8 03           lsr
0009:F5E9 03           lsr
0009:F5EA 03           lsr
0009:F5EB 75           and   r5
0009:F5EC 26 56        add   r6
0009:F5EE C6           or    r6
0009:F5EF 4D           swap
0009:F5F0 13 C3        or    r3
0009:F5F2 9B           jmp   r11
0009:F5F3 01           nop
0009:F5F4 B1 63        sub   r3
0009:F5F6 F9 00 01     iwt   r9,#0100
0009:F5F9 19 59        add   r9
0009:F5FB AA 01        ibt   r10,#0001
0009:F5FD 60           sub   r0
0009:F5FE 20 16        move  r6,r0
0009:F600 02           cache
0009:F601 AC 20        ibt   r12,#0020
0009:F603 FD 07 F6     iwt   r13,#F607
0009:F606 26 56        add   r6
0009:F608 2A 5A        add   r10
0009:F60A 04           rol
0009:F60B 69           sub   r9
0009:F60C 0C 03        bcc   F611
0009:F60E 59           add   r9
0009:F60F 69           sub   r9
0009:F610 D6           inc   r6
0009:F611 3C           loop
0009:F612 26 3D A8 4A  lms   r8,(0094)
0009:F616 FA 78 00     iwt   r10,#0078
0009:F619 B3 68        sub   r8
0009:F61B 6A           sub   r10
0009:F61C 3D 9F        lmult
0009:F61E 24 C0        hib
0009:F620 9E           lob
0009:F621 4D           swap
0009:F622 C4           or    r4
0009:F623 5A           add   r10
0009:F624 58           add   r8
0009:F625 11 61        sub   r1
0009:F627 3D A8 4E     lms   r8,(009C)
0009:F62A FA 88 00     iwt   r10,#0088
0009:F62D B2 68        sub   r8
0009:F62F 6A           sub   r10
0009:F630 3D 9F        lmult
0009:F632 24 C0        hib
0009:F634 9E           lob
0009:F635 4D           swap
0009:F636 C4           or    r4
0009:F637 5A           add   r10
0009:F638 58           add   r8
0009:F639 12 62        sub   r2
0009:F63B A4 06        ibt   r4,#0006
0009:F63D 27 1C        move  r12,r7
0009:F63F 2F 1D        move  r13,r15
0009:F641 45           ldw   (r5)
0009:F642 51           add   r1
0009:F643 90           sbk
0009:F644 D5           inc   r5
0009:F645 D5           inc   r5
0009:F646 45           ldw   (r5)
0009:F647 52           add   r2
0009:F648 25 54        add   r4
0009:F64A 3C           loop
0009:F64B 90           sbk
0009:F64C 00           stop
0009:F64D 01           nop
0009:F64E 02           cache
0009:F64F AA 1F        ibt   r10,#001F
0009:F651 3D F0 AA 11  lm    r0,(11AA)
0009:F655 D0           inc   r0
0009:F656 90           sbk
0009:F657 20 16        move  r6,r0
0009:F659 FC 00 01     iwt   r12,#0100
0009:F65C 2F 1D        move  r13,r15
0009:F65E 41           ldw   (r1)
0009:F65F 18 7A        and   r10
0009:F661 42           ldw   (r2)
0009:F662 19 7A        and   r10
0009:F664 94           link  #04
0009:F665 FF A3 F6     iwt   r15,#F6A3
0009:F668 01           nop
0009:F669 20 15        move  r5,r0
0009:F66B 41           ldw   (r1)
0009:F66C 50           add   r0
0009:F66D 50           add   r0
0009:F66E 50           add   r0
0009:F66F 4D           swap
0009:F670 18 7A        and   r10
0009:F672 42           ldw   (r2)
0009:F673 50           add   r0
0009:F674 50           add   r0
0009:F675 50           add   r0
0009:F676 4D           swap
0009:F677 19 7A        and   r10
0009:F679 94           link  #04
0009:F67A FF A3 F6     iwt   r15,#F6A3
0009:F67D 01           nop
0009:F67E 4D           swap
0009:F67F 03           lsr
0009:F680 03           lsr
0009:F681 03           lsr
0009:F682 15 C5        or    r5
0009:F684 41           ldw   (r1)
0009:F685 4D           swap
0009:F686 03           lsr
0009:F687 03           lsr
0009:F688 18 7A        and   r10
0009:F68A 42           ldw   (r2)
0009:F68B 4D           swap
0009:F68C 03           lsr
0009:F68D 03           lsr
0009:F68E 19 7A        and   r10
0009:F690 94           link  #04
0009:F691 FF A3 F6     iwt   r15,#F6A3
0009:F694 01           nop
0009:F695 4D           swap
0009:F696 50           add   r0
0009:F697 50           add   r0
0009:F698 C5           or    r5
0009:F699 33           stw   (r3)
0009:F69A D1           inc   r1
0009:F69B D1           inc   r1
0009:F69C D2           inc   r2
0009:F69D D2           inc   r2
0009:F69E D3           inc   r3
0009:F69F 3C           loop
0009:F6A0 D3           inc   r3
0009:F6A1 00           stop
0009:F6A2 01           nop
0009:F6A3 B9 68        sub   r8
0009:F6A5 86           mult  r6
0009:F6A6 96           asr
0009:F6A7 96           asr
0009:F6A8 96           asr
0009:F6A9 96           asr
0009:F6AA 96           asr
0009:F6AB 58           add   r8
0009:F6AC 7A           and   r10
0009:F6AD 2B 1F        move  r15,r11
0009:F6AF 01           nop
0009:F6B0 F6 40 00     iwt   r6,#0040
0009:F6B3 B1 3D 9F     lmult
0009:F6B6 24 C0        hib
0009:F6B8 9E           lob
0009:F6B9 4D           swap
0009:F6BA 19 C4        or    r4
0009:F6BC AA 01        ibt   r10,#0001
0009:F6BE 60           sub   r0
0009:F6BF 20 16        move  r6,r0
0009:F6C1 02           cache
0009:F6C2 AC 20        ibt   r12,#0020
0009:F6C4 FD C8 F6     iwt   r13,#F6C8
0009:F6C7 26 56        add   r6
0009:F6C9 2A 5A        add   r10
0009:F6CB 04           rol
0009:F6CC 61           sub   r1
0009:F6CD 0C 03        bcc   F6D2
0009:F6CF 51           add   r1
0009:F6D0 61           sub   r1
0009:F6D1 D6           inc   r6
0009:F6D2 3C           loop
0009:F6D3 26 3D A8 4A  lms   r8,(0094)
0009:F6D7 FA 80 00     iwt   r10,#0080
0009:F6DA B3 68        sub   r8
0009:F6DC 6A           sub   r10
0009:F6DD 3D 9F        lmult
0009:F6DF 24 C0        hib
0009:F6E1 9E           lob
0009:F6E2 4D           swap
0009:F6E3 C4           or    r4
0009:F6E4 E5           dec   r5
0009:F6E5 0A 03        bpl   F6EA
0009:F6E7 D5           inc   r5
0009:F6E8 4F           not
0009:F6E9 D0           inc   r0
0009:F6EA F5 80 01     iwt   r5,#0180
0009:F6ED 55           add   r5
0009:F6EE 3E A0 4C     sms   (0098),r0
0009:F6F1 3D A8 4E     lms   r8,(009C)
0009:F6F4 FA 90 00     iwt   r10,#0090
0009:F6F7 B2 68        sub   r8
0009:F6F9 6A           sub   r10
0009:F6FA 3D 9F        lmult
0009:F6FC 24 C0        hib
0009:F6FE 9E           lob
0009:F6FF 4D           swap
0009:F700 15 C4        or    r4
0009:F702 F0 80 01     iwt   r0,#0180
0009:F705 65           sub   r5
0009:F706 3E A0 50     sms   (00A0),r0
0009:F709 00           stop
0009:F70A 01           nop
0009:F70B F0 16 1C     iwt   r0,#1C16
0009:F70E 51           add   r1
0009:F70F 40           ldw   (r0)
0009:F710 E0           dec   r0
0009:F711 0A 03        bpl   F716
0009:F713 D0           inc   r0
0009:F714 4F           not
0009:F715 D0           inc   r0
0009:F716 A4 40        ibt   r4,#0040
0009:F718 64           sub   r4
0009:F719 0D 24        bcs   F73F
0009:F71B 54           add   r4
0009:F71C 12 3D 80     umult r0
0009:F71F F0 18 1C     iwt   r0,#1C18
0009:F722 51           add   r1
0009:F723 40           ldw   (r0)
0009:F724 E0           dec   r0
0009:F725 0A 03        bpl   F72A
0009:F727 D0           inc   r0
0009:F728 4F           not
0009:F729 D0           inc   r0
0009:F72A 64           sub   r4
0009:F72B 0D 12        bcs   F73F
0009:F72D 54           add   r4
0009:F72E 3D 80        umult r0
0009:F730 12 52        add   r2
0009:F732 3D A0 91     lms   r0,(0122)
0009:F735 3D 80        umult r0
0009:F737 F3 90 07     iwt   r3,#0790
0009:F73A 53           add   r3
0009:F73B 62           sub   r2
0009:F73C 0D 03        bcs   F741
0009:F73E 60           sub   r0
0009:F73F A0 01        ibt   r0,#0001
0009:F741 00           stop
0009:F742 01           nop

0009:F743 A1 00        ibt   r1,#0000
0009:F745 F2 00 0F     iwt   r2,#0F00
0009:F748 F3 60 13     iwt   r3,#1360
0009:F74B F4 38 1D     iwt   r4,#1D38
0009:F74E F5 CD 00     iwt   r5,#00CD
0009:F751 F6 26 00     iwt   r6,#0026
0009:F754 F7 04 00     iwt   r7,#0004
0009:F757 02           cache
0009:F758 AC 18        ibt   r12,#0018
0009:F75A 2F 1D        move  r13,r15
0009:F75C 42           ldw   (r2)
0009:F75D 9E           lob
0009:F75E 09 11        beq   F771
0009:F760 01           nop
0009:F761 43           ldw   (r3)
0009:F762 65           sub   r5
0009:F763 09 0B        beq   F770
0009:F765 55           add   r5
0009:F766 66           sub   r6
0009:F767 08 08        bne   F771
0009:F769 01           nop
0009:F76A 44           ldw   (r4)
0009:F76B 3E 60        sub   #00
0009:F76D 08 02        bne   F771
0009:F76F 01           nop
0009:F770 D1           inc   r1
0009:F771 22 57        add   r7
0009:F773 23 57        add   r7
0009:F775 24 57        add   r7
0009:F777 3C           loop
0009:F778 01           nop
0009:F779 00           stop
0009:F77A 01           nop

0009:F77B 02           cache
0009:F77C F3 00 68     iwt   r3,#6800
0009:F77F F0 CE 03     iwt   r0,#03CE
0009:F782 FC 00 04     iwt   r12,#0400
0009:F785 2F 1D        move  r13,r15
0009:F787 33           stw   (r3)
0009:F788 D3           inc   r3
0009:F789 3C           loop
0009:F78A D3           inc   r3
0009:F78B F1 00 20     iwt   r1,#2000
0009:F78E F2 44 6C     iwt   r2,#6C44
0009:F791 A4 10        ibt   r4,#0010
0009:F793 A5 0F        ibt   r5,#000F
0009:F795 A7 28        ibt   r7,#0028
0009:F797 A8 38        ibt   r8,#0038
0009:F799 AA 0B        ibt   r10,#000B
0009:F79B AB 0C        ibt   r11,#000C
0009:F79D 21 10        move  r0,r1
0009:F79F 2B 1C        move  r12,r11
0009:F7A1 2F 1D        move  r13,r15
0009:F7A3 32           stw   (r2)
0009:F7A4 D0           inc   r0
0009:F7A5 D0           inc   r0
0009:F7A6 1E 75        and   r5
0009:F7A8 08 02        bne   F7AC
0009:F7AA D2           inc   r2
0009:F7AB 54           add   r4
0009:F7AC 3C           loop
0009:F7AD D2           inc   r2
0009:F7AE 22 57        add   r7
0009:F7B0 B1 58        add   r8
0009:F7B2 11 3D 74     bic   r4
0009:F7B5 EA           dec   r10
0009:F7B6 08 E6        bne   F79E
0009:F7B8 21 10        move  r0,r1
0009:F7BA 00           stop
0009:F7BB 01           nop
0009:F7BC 02           cache
0009:F7BD F5 00 68     iwt   r5,#6800
0009:F7C0 60           sub   r0
0009:F7C1 FC 00 03     iwt   r12,#0300
0009:F7C4 2F 1D        move  r13,r15
0009:F7C6 35           stw   (r5)
0009:F7C7 D5           inc   r5
0009:F7C8 3C           loop
0009:F7C9 D5           inc   r5
0009:F7CA A5 00        ibt   r5,#0000
0009:F7CC A6 00        ibt   r6,#0000
0009:F7CE F9 80 00     iwt   r9,#0080
0009:F7D1 AA 10        ibt   r10,#0010
0009:F7D3 B3 3F DF     romb
0009:F7D6 24 1E        move  r14,r4
0009:F7D8 EF           getb
0009:F7D9 DE           inc   r14
0009:F7DA FB FF 00     iwt   r11,#00FF
0009:F7DD 6B           sub   r11
0009:F7DE 08 11        bne   F7F1
0009:F7E0 5B           add   r11
0009:F7E1 EF           getb
0009:F7E2 DE           inc   r14
0009:F7E3 1B 3E 6A     sub   #0A
0009:F7E6 09 03        beq   F7EB
0009:F7E8 01           nop
0009:F7E9 00           stop
0009:F7EA 01           nop
0009:F7EB EF           getb
0009:F7EC DE           inc   r14
0009:F7ED A5 40        ibt   r5,#0040
0009:F7EF A6 10        ibt   r6,#0010
0009:F7F1 2E 14        move  r4,r14
0009:F7F3 AE 09        ibt   r14,#0009
0009:F7F5 BE 3F DF     romb
0009:F7F8 FE 2F BC     iwt   r14,#BC2F
0009:F7FB 1E 5E        add   r14
0009:F7FD 17 EF        getb
0009:F7FF 3F 8C        umult #0C
0009:F801 FE 2F BD     iwt   r14,#BD2F
0009:F804 1E 5E        add   r14
0009:F806 A8 0C        ibt   r8,#000C
0009:F808 1B 3D EF     getbh
0009:F80B DE           inc   r14
0009:F80C 25 11        move  r1,r5
0009:F80E 26 12        move  r2,r6
0009:F810 27 1C        move  r12,r7
0009:F812 2F 1D        move  r13,r15
0009:F814 2B 5B        add   r11
0009:F816 04           rol
0009:F817 3E 71        and   #01
0009:F819 4E           color
0009:F81A B1 69        sub   r9
0009:F81C 0C 04        bcc   F822
0009:F81E 22 5A        add   r10
0009:F820 20 11        move  r1,r0
0009:F822 3C           loop
0009:F823 4C           plot
0009:F824 E8           dec   r8
0009:F825 08 E1        bne   F808
0009:F827 D6           inc   r6
0009:F828 26 3E 6C     sub   #0C
0009:F82B 25 57        add   r7
0009:F82D 3D 4C        rpix
0009:F82F B5 69        sub   r9
0009:F831 0C A1        bcc   F7D4
0009:F833 B3 20 15     move  r5,r0
0009:F836 26           with  r6
0009:F837 05 9A        bra   F7D3
0009:F839 5A           add   r10
0009:F83A A0 08        ibt   r0,#0008
0009:F83C 3F DF        romb
0009:F83E F0 18 AE     iwt   r0,#AE18
0009:F841 1E 51        add   r1
0009:F843 3F EF        getbs
0009:F845 20 11        move  r1,r0
0009:F847 3D A3 91     lms   r3,(0122)
0009:F84A 83           mult  r3
0009:F84B 50           add   r0
0009:F84C 50           add   r0
0009:F84D C0           hib
0009:F84E 95           sex
0009:F84F 4F           not
0009:F850 54           add   r4
0009:F851 3D A4 48     lms   r4,(0090)
0009:F854 54           add   r4
0009:F855 3E A0 8F     sms   (011E),r0
0009:F858 A0 40        ibt   r0,#0040
0009:F85A 1E 5E        add   r14
0009:F85C 3F EF        getbs
0009:F85E 20 12        move  r2,r0
0009:F860 83           mult  r3
0009:F861 50           add   r0
0009:F862 50           add   r0
0009:F863 C0           hib
0009:F864 95           sex
0009:F865 3E 58        add   #08
0009:F867 3D A4 46     lms   r4,(008C)
0009:F86A 54           add   r4
0009:F86B 3E A0 8E     sms   (011C),r0
0009:F86E E1           dec   r1
0009:F86F 0A 04        bpl   F875
0009:F871 D1           inc   r1
0009:F872 21 4F        not
0009:F874 D1           inc   r1
0009:F875 E2           dec   r2
0009:F876 0A 04        bpl   F87C
0009:F878 D2           inc   r2
0009:F879 22 4F        not
0009:F87B D2           inc   r2
0009:F87C 3D A0 90     lms   r0,(0120)
0009:F87F 15 81        mult  r1
0009:F881 16 82        mult  r2
0009:F883 B3 82        mult  r2
0009:F885 55           add   r5
0009:F886 50           add   r0
0009:F887 50           add   r0
0009:F888 C0           hib
0009:F889 3E A0 90     sms   (0120),r0
0009:F88C B3 81        mult  r1
0009:F88E 56           add   r6
0009:F88F 50           add   r0
0009:F890 50           add   r0
0009:F891 C0           hib
0009:F892 3E A0 91     sms   (0122),r0
0009:F895 00           stop
0009:F896 01           nop
0009:F897 3D F0 02 00  lm    r0,(0002)
0009:F89B 50           add   r0
0009:F89C 3E 88        mult  #08
0009:F89E 3D F1 00 00  lm    r1,(0000)
0009:F8A2 51           add   r1
0009:F8A3 3E 84        mult  #04
0009:F8A5 F1 00 58     iwt   r1,#5800
0009:F8A8 1E 51        add   r1
0009:F8AA 02           cache
0009:F8AB F1 3F 06     iwt   r1,#063F
0009:F8AE F3 FF 06     iwt   r3,#06FF
0009:F8B1 94           link  #04
0009:F8B2 FF 05 F9     iwt   r15,#F905
0009:F8B5 01           nop
0009:F8B6 F1 1F 06     iwt   r1,#061F
0009:F8B9 F3 BF 06     iwt   r3,#06BF
0009:F8BC 94           link  #04
0009:F8BD FF 05 F9     iwt   r15,#F905
0009:F8C0 01           nop
0009:F8C1 F1 3F 04     iwt   r1,#043F
0009:F8C4 F3 FF 02     iwt   r3,#02FF
0009:F8C7 94           link  #04
0009:F8C8 FF 05 F9     iwt   r15,#F905
0009:F8CB 01           nop
0009:F8CC F1 1F 04     iwt   r1,#041F
0009:F8CF F3 BF 02     iwt   r3,#02BF
0009:F8D2 94           link  #04
0009:F8D3 FF 05 F9     iwt   r15,#F905
0009:F8D6 01           nop
0009:F8D7 F1 3F 02     iwt   r1,#023F
0009:F8DA F3 7F 06     iwt   r3,#067F
0009:F8DD 94           link  #04
0009:F8DE FF 05 F9     iwt   r15,#F905
0009:F8E1 01           nop
0009:F8E2 F1 1F 02     iwt   r1,#021F
0009:F8E5 F3 3F 06     iwt   r3,#063F
0009:F8E8 94           link  #04
0009:F8E9 FF 05 F9     iwt   r15,#F905
0009:F8EC 01           nop
0009:F8ED F1 3F 00     iwt   r1,#003F
0009:F8F0 F3 7F 02     iwt   r3,#027F
0009:F8F3 94           link  #04
0009:F8F4 FF 05 F9     iwt   r15,#F905
0009:F8F7 01           nop
0009:F8F8 F1 1F 00     iwt   r1,#001F
0009:F8FB F3 3F 02     iwt   r3,#023F
0009:F8FE 94           link  #04
0009:F8FF FF 05 F9     iwt   r15,#F905
0009:F902 01           nop
0009:F903 00           stop
0009:F904 01           nop
0009:F905 21 5E        add   r14
0009:F907 23 5E        add   r14
0009:F909 A2 10        ibt   r2,#0010
0009:F90B B1 12 62     sub   r2
0009:F90E A4 20        ibt   r4,#0020
0009:F910 B3 14 64     sub   r4
0009:F913 B3 15 3E 62  sub   #02
0009:F917 B4 16 3E 62  sub   #02
0009:F91B AA 02        ibt   r10,#0002
0009:F91D AC 04        ibt   r12,#0004
0009:F91F AD 02        ibt   r13,#0002
0009:F921 17 3D 41     ldb   (r1)
0009:F924 27 18        move  r8,r7
0009:F926 27 03        lsr
0009:F928 97           ror
0009:F929 28 03        lsr
0009:F92B 97           ror
0009:F92C 27 03        lsr
0009:F92E 97           ror
0009:F92F 28 03        lsr
0009:F931 97           ror
0009:F932 27 03        lsr
0009:F934 97           ror
0009:F935 28 03        lsr
0009:F937 97           ror
0009:F938 27 03        lsr
0009:F93A 97           ror
0009:F93B 28 03        lsr
0009:F93D 97           ror
0009:F93E 4D           swap
0009:F93F 3D 33        stb   (r3)
0009:F941 E3           dec   r3
0009:F942 3D 35        stb   (r5)
0009:F944 E5           dec   r5
0009:F945 27 03        lsr
0009:F947 97           ror
0009:F948 28 03        lsr
0009:F94A 97           ror
0009:F94B 27 03        lsr
0009:F94D 97           ror
0009:F94E 28 03        lsr
0009:F950 97           ror
0009:F951 27 03        lsr
0009:F953 97           ror
0009:F954 28 03        lsr
0009:F956 97           ror
0009:F957 27 03        lsr
0009:F959 97           ror
0009:F95A 28 03        lsr
0009:F95C 97           ror
0009:F95D 4D           swap
0009:F95E 3D 34        stb   (r4)
0009:F960 E4           dec   r4
0009:F961 3D 36        stb   (r6)
0009:F963 E6           dec   r6
0009:F964 ED           dec   r13
0009:F965 08 BA        bne   F921
0009:F967 E1           dec   r1
0009:F968 23 3E 62     sub   #02
0009:F96B 24 3E 62     sub   #02
0009:F96E 25 3E 62     sub   #02
0009:F971 26 3E 62     sub   #02
0009:F974 EC           dec   r12
0009:F975 08 A8        bne   F91F
0009:F977 01           nop
0009:F978 AC 04        ibt   r12,#0004
0009:F97A AD 02        ibt   r13,#0002
0009:F97C 17 3D 42     ldb   (r2)
0009:F97F 27 18        move  r8,r7
0009:F981 27 03        lsr
0009:F983 97           ror
0009:F984 28 03        lsr
0009:F986 97           ror
0009:F987 27 03        lsr
0009:F989 97           ror
0009:F98A 28 03        lsr
0009:F98C 97           ror
0009:F98D 27 03        lsr
0009:F98F 97           ror
0009:F990 28 03        lsr
0009:F992 97           ror
0009:F993 27 03        lsr
0009:F995 97           ror
0009:F996 28 03        lsr
0009:F998 97           ror
0009:F999 4D           swap
0009:F99A 3D 33        stb   (r3)
0009:F99C E3           dec   r3
0009:F99D 3D 35        stb   (r5)
0009:F99F E5           dec   r5
0009:F9A0 27 03        lsr
0009:F9A2 97           ror
0009:F9A3 28 03        lsr
0009:F9A5 97           ror
0009:F9A6 27 03        lsr
0009:F9A8 97           ror
0009:F9A9 28 03        lsr
0009:F9AB 97           ror
0009:F9AC 27 03        lsr
0009:F9AE 97           ror
0009:F9AF 28 03        lsr
0009:F9B1 97           ror
0009:F9B2 27 03        lsr
0009:F9B4 97           ror
0009:F9B5 28 03        lsr
0009:F9B7 97           ror
0009:F9B8 4D           swap
0009:F9B9 3D 34        stb   (r4)
0009:F9BB E4           dec   r4
0009:F9BC 3D 36        stb   (r6)
0009:F9BE E6           dec   r6
0009:F9BF ED           dec   r13
0009:F9C0 08 BA        bne   F97C
0009:F9C2 E2           dec   r2
0009:F9C3 23 3E 62     sub   #02
0009:F9C6 24 3E 62     sub   #02
0009:F9C9 25 3E 62     sub   #02
0009:F9CC 26 3E 62     sub   #02
0009:F9CF EC           dec   r12
0009:F9D0 08 A8        bne   F97A
0009:F9D2 01           nop
0009:F9D3 FC E0 01     iwt   r12,#01E0
0009:F9D6 23 6C        sub   r12
0009:F9D8 24 6C        sub   r12
0009:F9DA 25 6C        sub   r12
0009:F9DC 26 6C        sub   r12
0009:F9DE EA           dec   r10
0009:F9DF 09 05        beq   F9E6
0009:F9E1 01           nop
0009:F9E2 FF 1D F9     iwt   r15,#F91D
0009:F9E5 01           nop
0009:F9E6 9B           jmp   r11
0009:F9E7 01           nop
0009:F9E8 F0 9E 40     iwt   r0,#409E
0009:F9EB 11 51        add   r1
0009:F9ED 12 52        add   r2
0009:F9EF F0 AA 0D     iwt   r0,#0DAA
0009:F9F2 14 5A        add   r10
0009:F9F4 A0 40        ibt   r0,#0040
0009:F9F6 15 54        add   r4
0009:F9F8 BC 5C        add   r12
0009:F9FA 50           add   r0
0009:F9FB 5A           add   r10
0009:F9FC AA 3E        ibt   r10,#003E
0009:F9FE 1A 7A        and   r10
0009:FA00 A0 4C        ibt   r0,#004C
0009:FA02 3F DF        romb
0009:FA04 F6 A4 32     iwt   r6,#32A4
0009:FA07 F7 F2 33     iwt   r7,#33F2
0009:FA0A A8 08        ibt   r8,#0008
0009:FA0C 94           link  #04
0009:FA0D FF 28 FA     iwt   r15,#FA28
0009:FA10 02           cache
0009:FA11 22 11        move  r1,r2
0009:FA13 2C B3        moves r12,r3
0009:FA15 09 0F        beq   FA26
0009:FA17 01           nop
0009:FA18 F0 AA 0D     iwt   r0,#0DAA
0009:FA1B 14 5A        add   r10
0009:FA1D A0 40        ibt   r0,#0040
0009:FA1F 15 54        add   r4
0009:FA21 94           link  #04
0009:FA22 FF 28 FA     iwt   r15,#FA28
0009:FA25 01           nop
0009:FA26 00           stop
0009:FA27 01           nop
0009:FA28 2F 1D        move  r13,r15
0009:FA2A 41           ldw   (r1)
0009:FA2B 19 3D 88     umult r8
0009:FA2E C0           hib
0009:FA2F 50           add   r0
0009:FA30 1E 56        add   r6
0009:FA32 EF           getb
0009:FA33 DE           inc   r14
0009:FA34 3D EF        getbh
0009:FA36 59           add   r9
0009:FA37 1E 57        add   r7
0009:FA39 A9 40        ibt   r9,#0040
0009:FA3B 21 59        add   r9
0009:FA3D EF           getb
0009:FA3E DE           inc   r14
0009:FA3F 3D 34        stb   (r4)
0009:FA41 D4           inc   r4
0009:FA42 EF           getb
0009:FA43 DE           inc   r14
0009:FA44 3D 34        stb   (r4)
0009:FA46 D4           inc   r4
0009:FA47 EF           getb
0009:FA48 DE           inc   r14
0009:FA49 3D 35        stb   (r5)
0009:FA4B D5           inc   r5
0009:FA4C EF           getb
0009:FA4D DE           inc   r14
0009:FA4E 3D 35        stb   (r5)
0009:FA50 D5           inc   r5
0009:FA51 EF           getb
0009:FA52 DE           inc   r14
0009:FA53 3D 34        stb   (r4)
0009:FA55 D4           inc   r4
0009:FA56 EF           getb
0009:FA57 DE           inc   r14
0009:FA58 3D 34        stb   (r4)
0009:FA5A D4           inc   r4
0009:FA5B EF           getb
0009:FA5C DE           inc   r14
0009:FA5D 3D 35        stb   (r5)
0009:FA5F D5           inc   r5
0009:FA60 EF           getb
0009:FA61 DE           inc   r14
0009:FA62 3D 35        stb   (r5)
0009:FA64 3C           loop
0009:FA65 D5           inc   r5
0009:FA66 9B           jmp   r11
0009:FA67 01           nop
0009:FA68 F0 9E 40     iwt   r0,#409E
0009:FA6B 11 51        add   r1
0009:FA6D 12 52        add   r2
0009:FA6F F4 2A 0E     iwt   r4,#0E2A
0009:FA72 F5 6E 0E     iwt   r5,#0E6E
0009:FA75 A0 4C        ibt   r0,#004C
0009:FA77 3F DF        romb
0009:FA79 F6 A4 32     iwt   r6,#32A4
0009:FA7C F7 F2 33     iwt   r7,#33F2
0009:FA7F A8 08        ibt   r8,#0008
0009:FA81 94           link  #04
0009:FA82 FF 91 FA     iwt   r15,#FA91
0009:FA85 02           cache
0009:FA86 22 11        move  r1,r2
0009:FA88 23 1C        move  r12,r3
0009:FA8A 94           link  #04
0009:FA8B FF 91 FA     iwt   r15,#FA91
0009:FA8E 01           nop
0009:FA8F 00           stop
0009:FA90 01           nop
0009:FA91 2F 1D        move  r13,r15
0009:FA93 41           ldw   (r1)
0009:FA94 19 3D 88     umult r8
0009:FA97 C0           hib
0009:FA98 50           add   r0
0009:FA99 1E 56        add   r6
0009:FA9B EF           getb
0009:FA9C DE           inc   r14
0009:FA9D D1           inc   r1
0009:FA9E D1           inc   r1
0009:FA9F 3D EF        getbh
0009:FAA1 59           add   r9
0009:FAA2 1E 57        add   r7
0009:FAA4 EF           getb
0009:FAA5 DE           inc   r14
0009:FAA6 3D 34        stb   (r4)
0009:FAA8 D4           inc   r4
0009:FAA9 EF           getb
0009:FAAA DE           inc   r14
0009:FAAB 3D 34        stb   (r4)
0009:FAAD D4           inc   r4
0009:FAAE EF           getb
0009:FAAF DE           inc   r14
0009:FAB0 3D 34        stb   (r4)
0009:FAB2 D4           inc   r4
0009:FAB3 EF           getb
0009:FAB4 DE           inc   r14
0009:FAB5 3D 34        stb   (r4)
0009:FAB7 D4           inc   r4
0009:FAB8 EF           getb
0009:FAB9 DE           inc   r14
0009:FABA 3D 35        stb   (r5)
0009:FABC D5           inc   r5
0009:FABD EF           getb
0009:FABE DE           inc   r14
0009:FABF 3D 35        stb   (r5)
0009:FAC1 D5           inc   r5
0009:FAC2 EF           getb
0009:FAC3 DE           inc   r14
0009:FAC4 3D 35        stb   (r5)
0009:FAC6 D5           inc   r5
0009:FAC7 EF           getb
0009:FAC8 DE           inc   r14
0009:FAC9 3D 35        stb   (r5)
0009:FACB 3C           loop
0009:FACC D5           inc   r5
0009:FACD 9B           jmp   r11
0009:FACE 01           nop

; ; freespace
; DATA_09FACF:         db $FF, $FF, $FF, $FF, $FF, $FF, $FF, $FF
; DATA_09FAD7:         db $FF, $FF, $FF, $FF, $FF, $FF, $FF, $FF
; DATA_09FADF:         db $FF, $FF, $FF, $FF, $FF, $FF, $FF, $FF
; DATA_09FAE7:         db $FF, $FF, $FF, $FF, $FF, $FF, $FF, $FF
; DATA_09FAEF:         db $FF, $FF, $FF, $FF, $FF, $FF, $FF, $FF
; DATA_09FAF7:         db $FF, $FF, $FF, $FF, $FF, $FF, $FF, $FF
; DATA_09FAFF:         db $FF, $FF, $FF, $FF, $FF, $FF, $FF, $FF
; DATA_09FB07:         db $FF, $FF, $FF, $FF, $FF, $FF, $FF, $FF
; DATA_09FB0F:         db $FF, $FF, $FF, $FF, $FF, $FF, $FF, $FF
; DATA_09FB17:         db $FF, $FF, $FF, $FF, $FF, $FF, $FF, $FF
; DATA_09FB1F:         db $FF, $FF, $FF, $FF, $FF, $FF, $FF, $FF
; DATA_09FB27:         db $FF, $FF, $FF, $FF, $FF, $FF, $FF, $FF
; DATA_09FB2F:         db $FF, $FF, $FF, $FF, $FF, $FF, $FF, $FF
; DATA_09FB37:         db $FF, $FF, $FF, $FF, $FF, $FF, $FF, $FF
; DATA_09FB3F:         db $FF, $FF, $FF, $FF, $FF, $FF, $FF, $FF
; DATA_09FB47:         db $FF, $FF, $FF, $FF, $FF, $FF, $FF, $FF
; DATA_09FB4F:         db $FF, $FF, $FF, $FF, $FF, $FF, $FF, $FF
; DATA_09FB57:         db $FF, $FF, $FF, $FF, $FF, $FF, $FF, $FF
; DATA_09FB5F:         db $FF, $FF, $FF, $FF, $FF, $FF, $FF, $FF
; DATA_09FB67:         db $FF, $FF, $FF, $FF, $FF, $FF, $FF, $FF
; DATA_09FB6F:         db $FF, $FF, $FF, $FF, $FF, $FF, $FF, $FF
; DATA_09FB77:         db $FF, $FF, $FF, $FF, $FF, $FF, $FF, $FF
; DATA_09FB7F:         db $FF, $FF, $FF, $FF, $FF, $FF, $FF, $FF
; DATA_09FB87:         db $FF, $FF, $FF, $FF, $FF, $FF, $FF, $FF
; DATA_09FB8F:         db $FF, $FF, $FF, $FF, $FF, $FF, $FF, $FF
; DATA_09FB97:         db $FF, $FF, $FF, $FF, $FF, $FF, $FF, $FF
; DATA_09FB9F:         db $FF, $FF, $FF, $FF, $FF, $FF, $FF, $FF
; DATA_09FBA7:         db $FF, $FF, $FF, $FF, $FF, $FF, $FF, $FF
; DATA_09FBAF:         db $FF, $FF, $FF, $FF, $FF, $FF, $FF, $FF
; DATA_09FBB7:         db $FF, $FF, $FF, $FF, $FF, $FF, $FF, $FF
; DATA_09FBBF:         db $FF, $FF, $FF, $FF, $FF, $FF, $FF, $FF
; DATA_09FBC7:         db $FF, $FF, $FF, $FF, $FF, $FF, $FF, $FF
; DATA_09FBCF:         db $FF, $FF, $FF, $FF, $FF, $FF, $FF, $FF
; DATA_09FBD7:         db $FF, $FF, $FF, $FF, $FF, $FF, $FF, $FF
; DATA_09FBDF:         db $FF, $FF, $FF, $FF, $FF, $FF, $FF, $FF
; DATA_09FBE7:         db $FF, $FF, $FF, $FF, $FF, $FF, $FF, $FF
; DATA_09FBEF:         db $FF, $FF, $FF, $FF, $FF, $FF, $FF, $FF
; DATA_09FBF7:         db $FF, $FF, $FF, $FF, $FF, $FF, $FF, $FF
; DATA_09FBFF:         db $FF, $FF, $FF, $FF, $FF, $FF, $FF, $FF
; DATA_09FC07:         db $FF, $FF, $FF, $FF, $FF, $FF, $FF, $FF
; DATA_09FC0F:         db $FF, $FF, $FF, $FF, $FF, $FF, $FF, $FF
; DATA_09FC17:         db $FF, $FF, $FF, $FF, $FF, $FF, $FF, $FF
; DATA_09FC1F:         db $FF, $FF, $FF, $FF, $FF, $FF, $FF, $FF
; DATA_09FC27:         db $FF, $FF, $FF, $FF, $FF, $FF, $FF, $FF
; DATA_09FC2F:         db $FF, $FF, $FF, $FF, $FF, $FF, $FF, $FF
; DATA_09FC37:         db $FF, $FF, $FF, $FF, $FF, $FF, $FF, $FF
; DATA_09FC3F:         db $FF, $FF, $FF, $FF, $FF, $FF, $FF, $FF
; DATA_09FC47:         db $FF, $FF, $FF, $FF, $FF, $FF, $FF, $FF
; DATA_09FC4F:         db $FF, $FF, $FF, $FF, $FF, $FF, $FF, $FF
; DATA_09FC57:         db $FF, $FF, $FF, $FF, $FF, $FF, $FF, $FF
; DATA_09FC5F:         db $FF, $FF, $FF, $FF, $FF, $FF, $FF, $FF
; DATA_09FC67:         db $FF, $FF, $FF, $FF, $FF, $FF, $FF, $FF
; DATA_09FC6F:         db $FF, $FF, $FF, $FF, $FF, $FF, $FF, $FF
; DATA_09FC77:         db $FF, $FF, $FF, $FF, $FF, $FF, $FF, $FF
; DATA_09FC7F:         db $FF, $FF, $FF, $FF, $FF, $FF, $FF, $FF
; DATA_09FC87:         db $FF, $FF, $FF, $FF, $FF, $FF, $FF, $FF
; DATA_09FC8F:         db $FF, $FF, $FF, $FF, $FF, $FF, $FF, $FF
; DATA_09FC97:         db $FF, $FF, $FF, $FF, $FF, $FF, $FF, $FF
; DATA_09FC9F:         db $FF, $FF, $FF, $FF, $FF, $FF, $FF, $FF
; DATA_09FCA7:         db $FF, $FF, $FF, $FF, $FF, $FF, $FF, $FF
; DATA_09FCAF:         db $FF, $FF, $FF, $FF, $FF, $FF, $FF, $FF
; DATA_09FCB7:         db $FF, $FF, $FF, $FF, $FF, $FF, $FF, $FF
; DATA_09FCBF:         db $FF, $FF, $FF, $FF, $FF, $FF, $FF, $FF
; DATA_09FCC7:         db $FF, $FF, $FF, $FF, $FF, $FF, $FF, $FF
; DATA_09FCCF:         db $FF, $FF, $FF, $FF, $FF, $FF, $FF, $FF
; DATA_09FCD7:         db $FF, $FF, $FF, $FF, $FF, $FF, $FF, $FF
; DATA_09FCDF:         db $FF, $FF, $FF, $FF, $FF, $FF, $FF, $FF
; DATA_09FCE7:         db $FF, $FF, $FF, $FF, $FF, $FF, $FF, $FF
; DATA_09FCEF:         db $FF, $FF, $FF, $FF, $FF, $FF, $FF, $FF
; DATA_09FCF7:         db $FF, $FF, $FF, $FF, $FF, $FF, $FF, $FF
; DATA_09FCFF:         db $FF, $FF, $FF, $FF, $FF, $FF, $FF, $FF
; DATA_09FD07:         db $FF, $FF, $FF, $FF, $FF, $FF, $FF, $FF
; DATA_09FD0F:         db $FF, $FF, $FF, $FF, $FF, $FF, $FF, $FF
; DATA_09FD17:         db $FF, $FF, $FF, $FF, $FF, $FF, $FF, $FF
; DATA_09FD1F:         db $FF, $FF, $FF, $FF, $FF, $FF, $FF, $FF
; DATA_09FD27:         db $FF, $FF, $FF, $FF, $FF, $FF, $FF, $FF
; DATA_09FD2F:         db $FF, $FF, $FF, $FF, $FF, $FF, $FF, $FF
; DATA_09FD37:         db $FF, $FF, $FF, $FF, $FF, $FF, $FF, $FF
; DATA_09FD3F:         db $FF, $FF, $FF, $FF, $FF, $FF, $FF, $FF
; DATA_09FD47:         db $FF, $FF, $FF, $FF, $FF, $FF, $FF, $FF
; DATA_09FD4F:         db $FF, $FF, $FF, $FF, $FF, $FF, $FF, $FF
; DATA_09FD57:         db $FF, $FF, $FF, $FF, $FF, $FF, $FF, $FF
; DATA_09FD5F:         db $FF, $FF, $FF, $FF, $FF, $FF, $FF, $FF
; DATA_09FD67:         db $FF, $FF, $FF, $FF, $FF, $FF, $FF, $FF
; DATA_09FD6F:         db $FF, $FF, $FF, $FF, $FF, $FF, $FF, $FF
; DATA_09FD77:         db $FF, $FF, $FF, $FF, $FF, $FF, $FF, $FF
; DATA_09FD7F:         db $FF, $FF, $FF, $FF, $FF, $FF, $FF, $FF
; DATA_09FD87:         db $FF, $FF, $FF, $FF, $FF, $FF, $FF, $FF
; DATA_09FD8F:         db $FF, $FF, $FF, $FF, $FF, $FF, $FF, $FF
; DATA_09FD97:         db $FF, $FF, $FF, $FF, $FF, $FF, $FF, $FF
; DATA_09FD9F:         db $FF, $FF, $FF, $FF, $FF, $FF, $FF, $FF
; DATA_09FDA7:         db $FF, $FF, $FF, $FF, $FF, $FF, $FF, $FF
; DATA_09FDAF:         db $FF, $FF, $FF, $FF, $FF, $FF, $FF, $FF
; DATA_09FDB7:         db $FF, $FF, $FF, $FF, $FF, $FF, $FF, $FF
; DATA_09FDBF:         db $FF, $FF, $FF, $FF, $FF, $FF, $FF, $FF
; DATA_09FDC7:         db $FF, $FF, $FF, $FF, $FF, $FF, $FF, $FF
; DATA_09FDCF:         db $FF, $FF, $FF, $FF, $FF, $FF, $FF, $FF
; DATA_09FDD7:         db $FF, $FF, $FF, $FF, $FF, $FF, $FF, $FF
; DATA_09FDDF:         db $FF, $FF, $FF, $FF, $FF, $FF, $FF, $FF
; DATA_09FDE7:         db $FF, $FF, $FF, $FF, $FF, $FF, $FF, $FF
; DATA_09FDEF:         db $FF, $FF, $FF, $FF, $FF, $FF, $FF, $FF
; DATA_09FDF7:         db $FF, $FF, $FF, $FF, $FF, $FF, $FF, $FF
; DATA_09FDFF:         db $FF, $FF, $FF, $FF, $FF, $FF, $FF, $FF
; DATA_09FE07:         db $FF, $FF, $FF, $FF, $FF, $FF, $FF, $FF
; DATA_09FE0F:         db $FF, $FF, $FF, $FF, $FF, $FF, $FF, $FF
; DATA_09FE17:         db $FF, $FF, $FF, $FF, $FF, $FF, $FF, $FF
; DATA_09FE1F:         db $FF, $FF, $FF, $FF, $FF, $FF, $FF, $FF
; DATA_09FE27:         db $FF, $FF, $FF, $FF, $FF, $FF, $FF, $FF
; DATA_09FE2F:         db $FF, $FF, $FF, $FF, $FF, $FF, $FF, $FF
; DATA_09FE37:         db $FF, $FF, $FF, $FF, $FF, $FF, $FF, $FF
; DATA_09FE3F:         db $FF, $FF, $FF, $FF, $FF, $FF, $FF, $FF
; DATA_09FE47:         db $FF, $FF, $FF, $FF, $FF, $FF, $FF, $FF
; DATA_09FE4F:         db $FF, $FF, $FF, $FF, $FF, $FF, $FF, $FF
; DATA_09FE57:         db $FF, $FF, $FF, $FF, $FF, $FF, $FF, $FF
; DATA_09FE5F:         db $FF, $FF, $FF, $FF, $FF, $FF, $FF, $FF
; DATA_09FE67:         db $FF, $FF, $FF, $FF, $FF, $FF, $FF, $FF
; DATA_09FE6F:         db $FF, $FF, $FF, $FF, $FF, $FF, $FF, $FF
; DATA_09FE77:         db $FF, $FF, $FF, $FF, $FF, $FF, $FF, $FF
; DATA_09FE7F:         db $FF, $FF, $FF, $FF, $FF, $FF, $FF, $FF
; DATA_09FE87:         db $FF, $FF, $FF, $FF, $FF, $FF, $FF, $FF
; DATA_09FE8F:         db $FF, $FF, $FF, $FF, $FF, $FF, $FF, $FF
; DATA_09FE97:         db $FF, $FF, $FF, $FF, $FF, $FF, $FF, $FF
; DATA_09FE9F:         db $FF, $FF, $FF, $FF, $FF, $FF, $FF, $FF
; DATA_09FEA7:         db $FF, $FF, $FF, $FF, $FF, $FF, $FF, $FF
; DATA_09FEAF:         db $FF, $FF, $FF, $FF, $FF, $FF, $FF, $FF
; DATA_09FEB7:         db $FF, $FF, $FF, $FF, $FF, $FF, $FF, $FF
; DATA_09FEBF:         db $FF, $FF, $FF, $FF, $FF, $FF, $FF, $FF
; DATA_09FEC7:         db $FF, $FF, $FF, $FF, $FF, $FF, $FF, $FF
; DATA_09FECF:         db $FF, $FF, $FF, $FF, $FF, $FF, $FF, $FF
; DATA_09FED7:         db $FF, $FF, $FF, $FF, $FF, $FF, $FF, $FF
; DATA_09FEDF:         db $FF, $FF, $FF, $FF, $FF, $FF, $FF, $FF
; DATA_09FEE7:         db $FF, $FF, $FF, $FF, $FF, $FF, $FF, $FF
; DATA_09FEEF:         db $FF, $FF, $FF, $FF, $FF, $FF, $FF, $FF
; DATA_09FEF7:         db $FF, $FF, $FF, $FF, $FF, $FF, $FF, $FF
; DATA_09FEFF:         db $FF, $FF, $FF, $FF, $FF, $FF, $FF, $FF
; DATA_09FF07:         db $FF, $FF, $FF, $FF, $FF, $FF, $FF, $FF
; DATA_09FF0F:         db $FF, $FF, $FF, $FF, $FF, $FF, $FF, $FF
; DATA_09FF17:         db $FF, $FF, $FF, $FF, $FF, $FF, $FF, $FF
; DATA_09FF1F:         db $FF, $FF, $FF, $FF, $FF, $FF, $FF, $FF
; DATA_09FF27:         db $FF, $FF, $FF, $FF, $FF, $FF, $FF, $FF
; DATA_09FF2F:         db $FF, $FF, $FF, $FF, $FF, $FF, $FF, $FF
; DATA_09FF37:         db $FF, $FF, $FF, $FF, $FF, $FF, $FF, $FF
; DATA_09FF3F:         db $FF, $FF, $FF, $FF, $FF, $FF, $FF, $FF
; DATA_09FF47:         db $FF, $FF, $FF, $FF, $FF, $FF, $FF, $FF
; DATA_09FF4F:         db $FF, $FF, $FF, $FF, $FF, $FF, $FF, $FF
; DATA_09FF57:         db $FF, $FF, $FF, $FF, $FF, $FF, $FF, $FF
; DATA_09FF5F:         db $FF, $FF, $FF, $FF, $FF, $FF, $FF, $FF
; DATA_09FF67:         db $FF, $FF, $FF, $FF, $FF, $FF, $FF, $FF
; DATA_09FF6F:         db $FF, $FF, $FF, $FF, $FF, $FF, $FF, $FF
; DATA_09FF77:         db $FF, $FF, $FF, $FF, $FF, $FF, $FF, $FF
; DATA_09FF7F:         db $FF, $FF, $FF, $FF, $FF, $FF, $FF, $FF
; DATA_09FF87:         db $FF, $FF, $FF, $FF, $FF, $FF, $FF, $FF
; DATA_09FF8F:         db $FF, $FF, $FF, $FF, $FF, $FF, $FF, $FF
; DATA_09FF97:         db $FF, $FF, $FF, $FF, $FF, $FF, $FF, $FF
; DATA_09FF9F:         db $FF, $FF, $FF, $FF, $FF, $FF, $FF, $FF
; DATA_09FFA7:         db $FF, $FF, $FF, $FF, $FF, $FF, $FF, $FF
; DATA_09FFAF:         db $FF, $FF, $FF, $FF, $FF, $FF, $FF, $FF
; DATA_09FFB7:         db $FF, $FF, $FF, $FF, $FF, $FF, $FF, $FF
; DATA_09FFBF:         db $FF, $FF, $FF, $FF, $FF, $FF, $FF, $FF
; DATA_09FFC7:         db $FF, $FF, $FF, $FF, $FF, $FF, $FF, $FF
; DATA_09FFCF:         db $FF, $FF, $FF, $FF, $FF, $FF, $FF, $FF
; DATA_09FFD7:         db $FF, $FF, $FF, $FF, $FF, $FF, $FF, $FF
; DATA_09FFDF:         db $FF, $FF, $FF, $FF, $FF, $FF, $FF, $FF
; DATA_09FFE7:         db $FF, $FF, $FF, $FF, $FF, $FF, $FF, $FF
; DATA_09FFEF:         db $FF, $FF, $FF, $FF, $FF, $FF, $FF, $FF
; DATA_09FFF7:         db $FF, $FF, $FF, $FF, $FF, $FF, $FF, $FF
; DATA_09FFFF:         db $FF
