08:bd15 01       nop            
08:bd16 02       cache          
08:bd17 f0 00 0a iwt r0,#$0a00   r0=$0a00
08:bd1a f1 80 f0 iwt r1,#$f080   r1=$f080
08:bd1d a2 04    ibt r2,#$04    
08:bd1f fc 80 00 iwt r12,#$0080  r12=$0080
08:bd22 2f       with r15        B=1
08:bd23 1d       move r13,r15    r13=$bd24 B=0
08:bd24 b1       from r1        
08:bd25 30       stw (r0)        SRAM=00:0A00
08:bd26 3c       loop            r12=$007f r15=$bd24
08:bd23 52       add r2          r0=$0a04
08:bd24 b1       from r1        
08:bd25 30       stw (r0)        SRAM=00:0A04
08:bd26 3c       loop            r12=$007e r15=$bd24
08:bd23 52       add r2          r0=$0a08
08:bd24 b1       from r1        
08:bd25 30       stw (r0)        SRAM=00:0A08
08:bd26 3c       loop            r12=$007d r15=$bd24
08:bd23 52       add r2          r0=$0a0c
08:bd24 b1       from r1        
08:bd25 30       stw (r0)        SRAM=00:0A0C
08:bd26 3c       loop            r12=$007c r15=$bd24
08:bd23 52       add r2          r0=$0a10
08:bd24 b1       from r1        
08:bd25 30       stw (r0)        SRAM=00:0A10
08:bd26 3c       loop            r12=$007b r15=$bd24
08:bd23 52       add r2          r0=$0a14
08:bd24 b1       from r1        
08:bd25 30       stw (r0)        SRAM=00:0A14
08:bd26 3c       loop            r12=$007a r15=$bd24
08:bd23 52       add r2          r0=$0a18
08:bd24 b1       from r1        
08:bd25 30       stw (r0)        SRAM=00:0A18
08:bd26 3c       loop            r12=$0079 r15=$bd24
08:bd23 52       add r2          r0=$0a1c
08:bd24 b1       from r1        
08:bd25 30       stw (r0)        SRAM=00:0A1C
08:bd26 3c       loop            r12=$0078 r15=$bd24
08:bd23 52       add r2          r0=$0a20
08:bd24 b1       from r1        
08:bd25 30       stw (r0)        SRAM=00:0A20
08:bd26 3c       loop            r12=$0077 r15=$bd24
08:bd23 52       add r2          r0=$0a24
08:bd24 b1       from r1        
08:bd25 30       stw (r0)        SRAM=00:0A24
08:bd26 3c       loop            r12=$0076 r15=$bd24
08:bd23 52       add r2          r0=$0a28
08:bd24 b1       from r1        
08:bd25 30       stw (r0)        SRAM=00:0A28
08:bd26 3c       loop            r12=$0075 r15=$bd24
08:bd23 52       add r2          r0=$0a2c
08:bd24 b1       from r1        
08:bd25 30       stw (r0)        SRAM=00:0A2C
08:bd26 3c       loop            r12=$0074 r15=$bd24
08:bd23 52       add r2          r0=$0a30
08:bd24 b1       from r1        
08:bd25 30       stw (r0)        SRAM=00:0A30
08:bd26 3c       loop            r12=$0073 r15=$bd24
08:bd23 52       add r2          r0=$0a34
08:bd24 b1       from r1        
08:bd25 30       stw (r0)        SRAM=00:0A34
08:bd26 3c       loop            r12=$0072 r15=$bd24
08:bd23 52       add r2          r0=$0a38
08:bd24 b1       from r1        
08:bd25 30       stw (r0)        SRAM=00:0A38
08:bd26 3c       loop            r12=$0071 r15=$bd24
08:bd23 52       add r2          r0=$0a3c
08:bd24 b1       from r1        
08:bd25 30       stw (r0)        SRAM=00:0A3C
08:bd26 3c       loop            r12=$0070 r15=$bd24
08:bd23 52       add r2          r0=$0a40
08:bd24 b1       from r1        
08:bd25 30       stw (r0)        SRAM=00:0A40
08:bd26 3c       loop            r12=$006f r15=$bd24
08:bd23 52       add r2          r0=$0a44
08:bd24 b1       from r1        
08:bd25 30       stw (r0)        SRAM=00:0A44
08:bd26 3c       loop            r12=$006e r15=$bd24
08:bd23 52       add r2          r0=$0a48
08:bd24 b1       from r1        
08:bd25 30       stw (r0)        SRAM=00:0A48
08:bd26 3c       loop            r12=$006d r15=$bd24
08:bd23 52       add r2          r0=$0a4c
08:bd24 b1       from r1        
08:bd25 30       stw (r0)        SRAM=00:0A4C
08:bd26 3c       loop            r12=$006c r15=$bd24
08:bd23 52       add r2          r0=$0a50
08:bd24 b1       from r1        
08:bd25 30       stw (r0)        SRAM=00:0A50
08:bd26 3c       loop            r12=$006b r15=$bd24
08:bd23 52       add r2          r0=$0a54
08:bd24 b1       from r1        
08:bd25 30       stw (r0)        SRAM=00:0A54
08:bd26 3c       loop            r12=$006a r15=$bd24
08:bd23 52       add r2          r0=$0a58
08:bd24 b1       from r1        
08:bd25 30       stw (r0)        SRAM=00:0A58
08:bd26 3c       loop            r12=$0069 r15=$bd24
08:bd23 52       add r2          r0=$0a5c
08:bd24 b1       from r1        
08:bd25 30       stw (r0)        SRAM=00:0A5C
08:bd26 3c       loop            r12=$0068 r15=$bd24
08:bd23 52       add r2          r0=$0a60
08:bd24 b1       from r1        
08:bd25 30       stw (r0)        SRAM=00:0A60
08:bd26 3c       loop            r12=$0067 r15=$bd24
08:bd23 52       add r2          r0=$0a64
08:bd24 b1       from r1        
08:bd25 30       stw (r0)        SRAM=00:0A64
08:bd26 3c       loop            r12=$0066 r15=$bd24
08:bd23 52       add r2          r0=$0a68
08:bd24 b1       from r1        
08:bd25 30       stw (r0)        SRAM=00:0A68
08:bd26 3c       loop            r12=$0065 r15=$bd24
08:bd23 52       add r2          r0=$0a6c
08:bd24 b1       from r1        
08:bd25 30       stw (r0)        SRAM=00:0A6C
08:bd26 3c       loop            r12=$0064 r15=$bd24
08:bd23 52       add r2          r0=$0a70
08:bd24 b1       from r1        
08:bd25 30       stw (r0)        SRAM=00:0A70
08:bd26 3c       loop            r12=$0063 r15=$bd24
08:bd23 52       add r2          r0=$0a74
08:bd24 b1       from r1        
08:bd25 30       stw (r0)        SRAM=00:0A74
08:bd26 3c       loop            r12=$0062 r15=$bd24
08:bd23 52       add r2          r0=$0a78
08:bd24 b1       from r1        
08:bd25 30       stw (r0)        SRAM=00:0A78
08:bd26 3c       loop            r12=$0061 r15=$bd24
08:bd23 52       add r2          r0=$0a7c
08:bd24 b1       from r1        
08:bd25 30       stw (r0)        SRAM=00:0A7C
08:bd26 3c       loop            r12=$0060 r15=$bd24
08:bd23 52       add r2          r0=$0a80
08:bd24 b1       from r1        
08:bd25 30       stw (r0)        SRAM=00:0A80
08:bd26 3c       loop            r12=$005f r15=$bd24
08:bd23 52       add r2          r0=$0a84
08:bd24 b1       from r1        
08:bd25 30       stw (r0)        SRAM=00:0A84
08:bd26 3c       loop            r12=$005e r15=$bd24
08:bd23 52       add r2          r0=$0a88
08:bd24 b1       from r1        
08:bd25 30       stw (r0)        SRAM=00:0A88
08:bd26 3c       loop            r12=$005d r15=$bd24
08:bd23 52       add r2          r0=$0a8c
08:bd24 b1       from r1        
08:bd25 30       stw (r0)        SRAM=00:0A8C
08:bd26 3c       loop            r12=$005c r15=$bd24
08:bd23 52       add r2          r0=$0a90
08:bd24 b1       from r1        
08:bd25 30       stw (r0)        SRAM=00:0A90
08:bd26 3c       loop            r12=$005b r15=$bd24
08:bd23 52       add r2          r0=$0a94
08:bd24 b1       from r1        
08:bd25 30       stw (r0)        SRAM=00:0A94
08:bd26 3c       loop            r12=$005a r15=$bd24
08:bd23 52       add r2          r0=$0a98
08:bd24 b1       from r1        
08:bd25 30       stw (r0)        SRAM=00:0A98
08:bd26 3c       loop            r12=$0059 r15=$bd24
08:bd23 52       add r2          r0=$0a9c
08:bd24 b1       from r1        
08:bd25 30       stw (r0)        SRAM=00:0A9C
08:bd26 3c       loop            r12=$0058 r15=$bd24
08:bd23 52       add r2          r0=$0aa0
08:bd24 b1       from r1        
08:bd25 30       stw (r0)        SRAM=00:0AA0
08:bd26 3c       loop            r12=$0057 r15=$bd24
08:bd23 52       add r2          r0=$0aa4
08:bd24 b1       from r1        
08:bd25 30       stw (r0)        SRAM=00:0AA4
08:bd26 3c       loop            r12=$0056 r15=$bd24
08:bd23 52       add r2          r0=$0aa8
08:bd24 b1       from r1        
08:bd25 30       stw (r0)        SRAM=00:0AA8
08:bd26 3c       loop            r12=$0055 r15=$bd24
08:bd23 52       add r2          r0=$0aac
08:bd24 b1       from r1        
08:bd25 30       stw (r0)        SRAM=00:0AAC
08:bd26 3c       loop            r12=$0054 r15=$bd24
08:bd23 52       add r2          r0=$0ab0
08:bd24 b1       from r1        
08:bd25 30       stw (r0)        SRAM=00:0AB0
08:bd26 3c       loop            r12=$0053 r15=$bd24
08:bd23 52       add r2          r0=$0ab4
08:bd24 b1       from r1        
08:bd25 30       stw (r0)        SRAM=00:0AB4
08:bd26 3c       loop            r12=$0052 r15=$bd24
08:bd23 52       add r2          r0=$0ab8
08:bd24 b1       from r1        
08:bd25 30       stw (r0)        SRAM=00:0AB8
08:bd26 3c       loop            r12=$0051 r15=$bd24
08:bd23 52       add r2          r0=$0abc
08:bd24 b1       from r1        
08:bd25 30       stw (r0)        SRAM=00:0ABC
08:bd26 3c       loop            r12=$0050 r15=$bd24
08:bd23 52       add r2          r0=$0ac0
08:bd24 b1       from r1        
08:bd25 30       stw (r0)        SRAM=00:0AC0
08:bd26 3c       loop            r12=$004f r15=$bd24
08:bd23 52       add r2          r0=$0ac4
08:bd24 b1       from r1        
08:bd25 30       stw (r0)        SRAM=00:0AC4
08:bd26 3c       loop            r12=$004e r15=$bd24
08:bd23 52       add r2          r0=$0ac8
08:bd24 b1       from r1        
08:bd25 30       stw (r0)        SRAM=00:0AC8
08:bd26 3c       loop            r12=$004d r15=$bd24
08:bd23 52       add r2          r0=$0acc
08:bd24 b1       from r1        
08:bd25 30       stw (r0)        SRAM=00:0ACC
08:bd26 3c       loop            r12=$004c r15=$bd24
08:bd23 52       add r2          r0=$0ad0
08:bd24 b1       from r1        
08:bd25 30       stw (r0)        SRAM=00:0AD0
08:bd26 3c       loop            r12=$004b r15=$bd24
08:bd23 52       add r2          r0=$0ad4
08:bd24 b1       from r1        
08:bd25 30       stw (r0)        SRAM=00:0AD4
08:bd26 3c       loop            r12=$004a r15=$bd24
08:bd23 52       add r2          r0=$0ad8
08:bd24 b1       from r1        
08:bd25 30       stw (r0)        SRAM=00:0AD8
08:bd26 3c       loop            r12=$0049 r15=$bd24
08:bd23 52       add r2          r0=$0adc
08:bd24 b1       from r1        
08:bd25 30       stw (r0)        SRAM=00:0ADC
08:bd26 3c       loop            r12=$0048 r15=$bd24
08:bd23 52       add r2          r0=$0ae0
08:bd24 b1       from r1        
08:bd25 30       stw (r0)        SRAM=00:0AE0
08:bd26 3c       loop            r12=$0047 r15=$bd24
08:bd23 52       add r2          r0=$0ae4
08:bd24 b1       from r1        
08:bd25 30       stw (r0)        SRAM=00:0AE4
08:bd26 3c       loop            r12=$0046 r15=$bd24
08:bd23 52       add r2          r0=$0ae8
08:bd24 b1       from r1        
08:bd25 30       stw (r0)        SRAM=00:0AE8
08:bd26 3c       loop            r12=$0045 r15=$bd24
08:bd23 52       add r2          r0=$0aec
08:bd24 b1       from r1        
08:bd25 30       stw (r0)        SRAM=00:0AEC
08:bd26 3c       loop            r12=$0044 r15=$bd24
08:bd23 52       add r2          r0=$0af0
08:bd24 b1       from r1        
08:bd25 30       stw (r0)        SRAM=00:0AF0
08:bd26 3c       loop            r12=$0043 r15=$bd24
08:bd23 52       add r2          r0=$0af4
08:bd24 b1       from r1        
08:bd25 30       stw (r0)        SRAM=00:0AF4
08:bd26 3c       loop            r12=$0042 r15=$bd24
08:bd23 52       add r2          r0=$0af8
08:bd24 b1       from r1        
08:bd25 30       stw (r0)        SRAM=00:0AF8
08:bd26 3c       loop            r12=$0041 r15=$bd24
08:bd23 52       add r2          r0=$0afc
08:bd24 b1       from r1        
08:bd25 30       stw (r0)        SRAM=00:0AFC
08:bd26 3c       loop            r12=$0040 r15=$bd24
08:bd23 52       add r2          r0=$0b00
08:bd24 b1       from r1        
08:bd25 30       stw (r0)        SRAM=00:0B00
08:bd26 3c       loop            r12=$003f r15=$bd24
08:bd23 52       add r2          r0=$0b04
08:bd24 b1       from r1        
08:bd25 30       stw (r0)        SRAM=00:0B04
08:bd26 3c       loop            r12=$003e r15=$bd24
08:bd23 52       add r2          r0=$0b08
08:bd24 b1       from r1        
08:bd25 30       stw (r0)        SRAM=00:0B08
08:bd26 3c       loop            r12=$003d r15=$bd24
08:bd23 52       add r2          r0=$0b0c
08:bd24 b1       from r1        
08:bd25 30       stw (r0)        SRAM=00:0B0C
08:bd26 3c       loop            r12=$003c r15=$bd24
08:bd23 52       add r2          r0=$0b10
08:bd24 b1       from r1        
08:bd25 30       stw (r0)        SRAM=00:0B10
08:bd26 3c       loop            r12=$003b r15=$bd24
08:bd23 52       add r2          r0=$0b14
08:bd24 b1       from r1        
08:bd25 30       stw (r0)        SRAM=00:0B14
08:bd26 3c       loop            r12=$003a r15=$bd24
08:bd23 52       add r2          r0=$0b18
08:bd24 b1       from r1        
08:bd25 30       stw (r0)        SRAM=00:0B18
08:bd26 3c       loop            r12=$0039 r15=$bd24
08:bd23 52       add r2          r0=$0b1c
08:bd24 b1       from r1        
08:bd25 30       stw (r0)        SRAM=00:0B1C
08:bd26 3c       loop            r12=$0038 r15=$bd24
08:bd23 52       add r2          r0=$0b20
08:bd24 b1       from r1        
08:bd25 30       stw (r0)        SRAM=00:0B20
08:bd26 3c       loop            r12=$0037 r15=$bd24
08:bd23 52       add r2          r0=$0b24
08:bd24 b1       from r1        
08:bd25 30       stw (r0)        SRAM=00:0B24
08:bd26 3c       loop            r12=$0036 r15=$bd24
08:bd23 52       add r2          r0=$0b28
08:bd24 b1       from r1        
08:bd25 30       stw (r0)        SRAM=00:0B28
08:bd26 3c       loop            r12=$0035 r15=$bd24
08:bd23 52       add r2          r0=$0b2c
08:bd24 b1       from r1        
08:bd25 30       stw (r0)        SRAM=00:0B2C
08:bd26 3c       loop            r12=$0034 r15=$bd24
08:bd23 52       add r2          r0=$0b30
08:bd24 b1       from r1        
08:bd25 30       stw (r0)        SRAM=00:0B30
08:bd26 3c       loop            r12=$0033 r15=$bd24
08:bd23 52       add r2          r0=$0b34
08:bd24 b1       from r1        
08:bd25 30       stw (r0)        SRAM=00:0B34
08:bd26 3c       loop            r12=$0032 r15=$bd24
08:bd23 52       add r2          r0=$0b38
08:bd24 b1       from r1        
08:bd25 30       stw (r0)        SRAM=00:0B38
08:bd26 3c       loop            r12=$0031 r15=$bd24
08:bd23 52       add r2          r0=$0b3c
08:bd24 b1       from r1        
08:bd25 30       stw (r0)        SRAM=00:0B3C
08:bd26 3c       loop            r12=$0030 r15=$bd24
08:bd23 52       add r2          r0=$0b40
08:bd24 b1       from r1        
08:bd25 30       stw (r0)        SRAM=00:0B40
08:bd26 3c       loop            r12=$002f r15=$bd24
08:bd23 52       add r2          r0=$0b44
08:bd24 b1       from r1        
08:bd25 30       stw (r0)        SRAM=00:0B44
08:bd26 3c       loop            r12=$002e r15=$bd24
08:bd23 52       add r2          r0=$0b48
08:bd24 b1       from r1        
08:bd25 30       stw (r0)        SRAM=00:0B48
08:bd26 3c       loop            r12=$002d r15=$bd24
08:bd23 52       add r2          r0=$0b4c
08:bd24 b1       from r1        
08:bd25 30       stw (r0)        SRAM=00:0B4C
08:bd26 3c       loop            r12=$002c r15=$bd24
08:bd23 52       add r2          r0=$0b50
08:bd24 b1       from r1        
08:bd25 30       stw (r0)        SRAM=00:0B50
08:bd26 3c       loop            r12=$002b r15=$bd24
08:bd23 52       add r2          r0=$0b54
08:bd24 b1       from r1        
08:bd25 30       stw (r0)        SRAM=00:0B54
08:bd26 3c       loop            r12=$002a r15=$bd24
08:bd23 52       add r2          r0=$0b58
08:bd24 b1       from r1        
08:bd25 30       stw (r0)        SRAM=00:0B58
08:bd26 3c       loop            r12=$0029 r15=$bd24
08:bd23 52       add r2          r0=$0b5c
08:bd24 b1       from r1        
08:bd25 30       stw (r0)        SRAM=00:0B5C
08:bd26 3c       loop            r12=$0028 r15=$bd24
08:bd23 52       add r2          r0=$0b60
08:bd24 b1       from r1        
08:bd25 30       stw (r0)        SRAM=00:0B60
08:bd26 3c       loop            r12=$0027 r15=$bd24
08:bd23 52       add r2          r0=$0b64
08:bd24 b1       from r1        
08:bd25 30       stw (r0)        SRAM=00:0B64
08:bd26 3c       loop            r12=$0026 r15=$bd24
08:bd23 52       add r2          r0=$0b68
08:bd24 b1       from r1        
08:bd25 30       stw (r0)        SRAM=00:0B68
08:bd26 3c       loop            r12=$0025 r15=$bd24
08:bd23 52       add r2          r0=$0b6c
08:bd24 b1       from r1        
08:bd25 30       stw (r0)        SRAM=00:0B6C
08:bd26 3c       loop            r12=$0024 r15=$bd24
08:bd23 52       add r2          r0=$0b70
08:bd24 b1       from r1        
08:bd25 30       stw (r0)        SRAM=00:0B70
08:bd26 3c       loop            r12=$0023 r15=$bd24
08:bd23 52       add r2          r0=$0b74
08:bd24 b1       from r1        
08:bd25 30       stw (r0)        SRAM=00:0B74
08:bd26 3c       loop            r12=$0022 r15=$bd24
08:bd23 52       add r2          r0=$0b78
08:bd24 b1       from r1        
08:bd25 30       stw (r0)        SRAM=00:0B78
08:bd26 3c       loop            r12=$0021 r15=$bd24
08:bd23 52       add r2          r0=$0b7c
08:bd24 b1       from r1        
08:bd25 30       stw (r0)        SRAM=00:0B7C
08:bd26 3c       loop            r12=$0020 r15=$bd24
08:bd23 52       add r2          r0=$0b80
08:bd24 b1       from r1        
08:bd25 30       stw (r0)        SRAM=00:0B80
08:bd26 3c       loop            r12=$001f r15=$bd24
08:bd23 52       add r2          r0=$0b84
08:bd24 b1       from r1        
08:bd25 30       stw (r0)        SRAM=00:0B84
08:bd26 3c       loop            r12=$001e r15=$bd24
08:bd23 52       add r2          r0=$0b88
08:bd24 b1       from r1        
08:bd25 30       stw (r0)        SRAM=00:0B88
08:bd26 3c       loop            r12=$001d r15=$bd24
08:bd23 52       add r2          r0=$0b8c
08:bd24 b1       from r1        
08:bd25 30       stw (r0)        SRAM=00:0B8C
08:bd26 3c       loop            r12=$001c r15=$bd24
08:bd23 52       add r2          r0=$0b90
08:bd24 b1       from r1        
08:bd25 30       stw (r0)        SRAM=00:0B90
08:bd26 3c       loop            r12=$001b r15=$bd24
08:bd23 52       add r2          r0=$0b94
08:bd24 b1       from r1        
08:bd25 30       stw (r0)        SRAM=00:0B94
08:bd26 3c       loop            r12=$001a r15=$bd24
08:bd23 52       add r2          r0=$0b98
08:bd24 b1       from r1        
08:bd25 30       stw (r0)        SRAM=00:0B98
08:bd26 3c       loop            r12=$0019 r15=$bd24
08:bd23 52       add r2          r0=$0b9c
08:bd24 b1       from r1        
08:bd25 30       stw (r0)        SRAM=00:0B9C
08:bd26 3c       loop            r12=$0018 r15=$bd24
08:bd23 52       add r2          r0=$0ba0
08:bd24 b1       from r1        
08:bd25 30       stw (r0)        SRAM=00:0BA0
08:bd26 3c       loop            r12=$0017 r15=$bd24
08:bd23 52       add r2          r0=$0ba4
08:bd24 b1       from r1        
08:bd25 30       stw (r0)        SRAM=00:0BA4
08:bd26 3c       loop            r12=$0016 r15=$bd24
08:bd23 52       add r2          r0=$0ba8
08:bd24 b1       from r1        
08:bd25 30       stw (r0)        SRAM=00:0BA8
08:bd26 3c       loop            r12=$0015 r15=$bd24
08:bd23 52       add r2          r0=$0bac
08:bd24 b1       from r1        
08:bd25 30       stw (r0)        SRAM=00:0BAC
08:bd26 3c       loop            r12=$0014 r15=$bd24
08:bd23 52       add r2          r0=$0bb0
08:bd24 b1       from r1        
08:bd25 30       stw (r0)        SRAM=00:0BB0
08:bd26 3c       loop            r12=$0013 r15=$bd24
08:bd23 52       add r2          r0=$0bb4
08:bd24 b1       from r1        
08:bd25 30       stw (r0)        SRAM=00:0BB4
08:bd26 3c       loop            r12=$0012 r15=$bd24
08:bd23 52       add r2          r0=$0bb8
08:bd24 b1       from r1        
08:bd25 30       stw (r0)        SRAM=00:0BB8
08:bd26 3c       loop            r12=$0011 r15=$bd24
08:bd23 52       add r2          r0=$0bbc
08:bd24 b1       from r1        
08:bd25 30       stw (r0)        SRAM=00:0BBC
08:bd26 3c       loop            r12=$0010 r15=$bd24
08:bd23 52       add r2          r0=$0bc0
08:bd24 b1       from r1        
08:bd25 30       stw (r0)        SRAM=00:0BC0
08:bd26 3c       loop            r12=$000f r15=$bd24
08:bd23 52       add r2          r0=$0bc4
08:bd24 b1       from r1        
08:bd25 30       stw (r0)        SRAM=00:0BC4
08:bd26 3c       loop            r12=$000e r15=$bd24
08:bd23 52       add r2          r0=$0bc8
08:bd24 b1       from r1        
08:bd25 30       stw (r0)        SRAM=00:0BC8
08:bd26 3c       loop            r12=$000d r15=$bd24
08:bd23 52       add r2          r0=$0bcc
08:bd24 b1       from r1        
08:bd25 30       stw (r0)        SRAM=00:0BCC
08:bd26 3c       loop            r12=$000c r15=$bd24
08:bd23 52       add r2          r0=$0bd0
08:bd24 b1       from r1        
08:bd25 30       stw (r0)        SRAM=00:0BD0
08:bd26 3c       loop            r12=$000b r15=$bd24
08:bd23 52       add r2          r0=$0bd4
08:bd24 b1       from r1        
08:bd25 30       stw (r0)        SRAM=00:0BD4
08:bd26 3c       loop            r12=$000a r15=$bd24
08:bd23 52       add r2          r0=$0bd8
08:bd24 b1       from r1        
08:bd25 30       stw (r0)        SRAM=00:0BD8
08:bd26 3c       loop            r12=$0009 r15=$bd24
08:bd23 52       add r2          r0=$0bdc
08:bd24 b1       from r1        
08:bd25 30       stw (r0)        SRAM=00:0BDC
08:bd26 3c       loop            r12=$0008 r15=$bd24
08:bd23 52       add r2          r0=$0be0
08:bd24 b1       from r1        
08:bd25 30       stw (r0)        SRAM=00:0BE0
08:bd26 3c       loop            r12=$0007 r15=$bd24
08:bd23 52       add r2          r0=$0be4
08:bd24 b1       from r1        
08:bd25 30       stw (r0)        SRAM=00:0BE4
08:bd26 3c       loop            r12=$0006 r15=$bd24
08:bd23 52       add r2          r0=$0be8
08:bd24 b1       from r1        
08:bd25 30       stw (r0)        SRAM=00:0BE8
08:bd26 3c       loop            r12=$0005 r15=$bd24
08:bd23 52       add r2          r0=$0bec
08:bd24 b1       from r1        
08:bd25 30       stw (r0)        SRAM=00:0BEC
08:bd26 3c       loop            r12=$0004 r15=$bd24
08:bd23 52       add r2          r0=$0bf0
08:bd24 b1       from r1        
08:bd25 30       stw (r0)        SRAM=00:0BF0
08:bd26 3c       loop            r12=$0003 r15=$bd24
08:bd23 52       add r2          r0=$0bf4
08:bd24 b1       from r1        
08:bd25 30       stw (r0)        SRAM=00:0BF4
08:bd26 3c       loop            r12=$0002 r15=$bd24
08:bd23 52       add r2          r0=$0bf8
08:bd24 b1       from r1        
08:bd25 30       stw (r0)        SRAM=00:0BF8
08:bd26 3c       loop            r12=$0001 r15=$bd24
08:bd23 52       add r2          r0=$0bfc
08:bd24 b1       from r1        
08:bd25 30       stw (r0)        SRAM=00:0BFC
08:bd26 3c       loop            r12=$0000 Z=1
08:bd27 52       add r2          r0=$0c00 Z=0
08:bd28 20       with r0         B=1
08:bd29 11       move r1,r0      r1=$0c00 B=0
08:bd2a f0 55 55 iwt r0,#$5555   r0=$5555
08:bd2d ac 10    ibt r12,#$10    r12=$0010
08:bd2f 2f       with r15        B=1
08:bd30 1d       move r13,r15    r13=$bd31 B=0
08:bd31 31       stw (r1)        SRAM=00:0C00
08:bd32 d1       inc r1          r1=$0c01
08:bd33 3c       loop            r12=$000f r15=$bd31
08:bd30 d1       inc r1          r1=$0c02
08:bd31 31       stw (r1)        SRAM=00:0C02
08:bd32 d1       inc r1          r1=$0c03
08:bd33 3c       loop            r12=$000e r15=$bd31
08:bd30 d1       inc r1          r1=$0c04
08:bd31 31       stw (r1)        SRAM=00:0C04
08:bd32 d1       inc r1          r1=$0c05
08:bd33 3c       loop            r12=$000d r15=$bd31
08:bd30 d1       inc r1          r1=$0c06
08:bd31 31       stw (r1)        SRAM=00:0C06
08:bd32 d1       inc r1          r1=$0c07
08:bd33 3c       loop            r12=$000c r15=$bd31
08:bd30 d1       inc r1          r1=$0c08
08:bd31 31       stw (r1)        SRAM=00:0C08
08:bd32 d1       inc r1          r1=$0c09
08:bd33 3c       loop            r12=$000b r15=$bd31
08:bd30 d1       inc r1          r1=$0c0a
08:bd31 31       stw (r1)        SRAM=00:0C0A
08:bd32 d1       inc r1          r1=$0c0b
08:bd33 3c       loop            r12=$000a r15=$bd31
08:bd30 d1       inc r1          r1=$0c0c
08:bd31 31       stw (r1)        SRAM=00:0C0C
08:bd32 d1       inc r1          r1=$0c0d
08:bd33 3c       loop            r12=$0009 r15=$bd31
08:bd30 d1       inc r1          r1=$0c0e
08:bd31 31       stw (r1)        SRAM=00:0C0E
08:bd32 d1       inc r1          r1=$0c0f
08:bd33 3c       loop            r12=$0008 r15=$bd31
08:bd30 d1       inc r1          r1=$0c10
08:bd31 31       stw (r1)        SRAM=00:0C10
08:bd32 d1       inc r1          r1=$0c11
08:bd33 3c       loop            r12=$0007 r15=$bd31
08:bd30 d1       inc r1          r1=$0c12
08:bd31 31       stw (r1)        SRAM=00:0C12
08:bd32 d1       inc r1          r1=$0c13
08:bd33 3c       loop            r12=$0006 r15=$bd31
08:bd30 d1       inc r1          r1=$0c14
08:bd31 31       stw (r1)        SRAM=00:0C14
08:bd32 d1       inc r1          r1=$0c15
08:bd33 3c       loop            r12=$0005 r15=$bd31
08:bd30 d1       inc r1          r1=$0c16
08:bd31 31       stw (r1)        SRAM=00:0C16
08:bd32 d1       inc r1          r1=$0c17
08:bd33 3c       loop            r12=$0004 r15=$bd31
08:bd30 d1       inc r1          r1=$0c18
08:bd31 31       stw (r1)        SRAM=00:0C18
08:bd32 d1       inc r1          r1=$0c19
08:bd33 3c       loop            r12=$0003 r15=$bd31
08:bd30 d1       inc r1          r1=$0c1a
08:bd31 31       stw (r1)        SRAM=00:0C1A
08:bd32 d1       inc r1          r1=$0c1b
08:bd33 3c       loop            r12=$0002 r15=$bd31
08:bd30 d1       inc r1          r1=$0c1c
08:bd31 31       stw (r1)        SRAM=00:0C1C
08:bd32 d1       inc r1          r1=$0c1d
08:bd33 3c       loop            r12=$0001 r15=$bd31
08:bd30 d1       inc r1          r1=$0c1e
08:bd31 31       stw (r1)        SRAM=00:0C1E
08:bd32 d1       inc r1          r1=$0c1f
08:bd33 3c       loop            r12=$0000 Z=1
08:bd34 d1       inc r1          r1=$0c20 Z=0
08:bd35 00       stop            G=0
08:bd15 01       nop            
08:bd16 02       cache          
08:bd17 f0 00 0a iwt r0,#$0a00   r0=$0a00
08:bd1a f1 80 f0 iwt r1,#$f080   r1=$f080
08:bd1d a2 04    ibt r2,#$04    
08:bd1f fc 80 00 iwt r12,#$0080  r12=$0080
08:bd22 2f       with r15        B=1
08:bd23 1d       move r13,r15    r13=$bd24 B=0
08:bd24 b1       from r1        
08:bd25 30       stw (r0)        SRAM=00:0A00
08:bd26 3c       loop            r12=$007f r15=$bd24
08:bd23 52       add r2          r0=$0a04
08:bd24 b1       from r1        
08:bd25 30       stw (r0)        SRAM=00:0A04
08:bd26 3c       loop            r12=$007e r15=$bd24
08:bd23 52       add r2          r0=$0a08
08:bd24 b1       from r1        
08:bd25 30       stw (r0)        SRAM=00:0A08
08:bd26 3c       loop            r12=$007d r15=$bd24
08:bd23 52       add r2          r0=$0a0c
08:bd24 b1       from r1        
08:bd25 30       stw (r0)        SRAM=00:0A0C
08:bd26 3c       loop            r12=$007c r15=$bd24
08:bd23 52       add r2          r0=$0a10
08:bd24 b1       from r1        
08:bd25 30       stw (r0)        SRAM=00:0A10
08:bd26 3c       loop            r12=$007b r15=$bd24
08:bd23 52       add r2          r0=$0a14
08:bd24 b1       from r1        
08:bd25 30       stw (r0)        SRAM=00:0A14
08:bd26 3c       loop            r12=$007a r15=$bd24
08:bd23 52       add r2          r0=$0a18
08:bd24 b1       from r1        
08:bd25 30       stw (r0)        SRAM=00:0A18
08:bd26 3c       loop            r12=$0079 r15=$bd24
08:bd23 52       add r2          r0=$0a1c
08:bd24 b1       from r1        
08:bd25 30       stw (r0)        SRAM=00:0A1C
08:bd26 3c       loop            r12=$0078 r15=$bd24
08:bd23 52       add r2          r0=$0a20
08:bd24 b1       from r1        
08:bd25 30       stw (r0)        SRAM=00:0A20
08:bd26 3c       loop            r12=$0077 r15=$bd24
08:bd23 52       add r2          r0=$0a24
08:bd24 b1       from r1        
08:bd25 30       stw (r0)        SRAM=00:0A24
08:bd26 3c       loop            r12=$0076 r15=$bd24
08:bd23 52       add r2          r0=$0a28
08:bd24 b1       from r1        
08:bd25 30       stw (r0)        SRAM=00:0A28
08:bd26 3c       loop            r12=$0075 r15=$bd24
08:bd23 52       add r2          r0=$0a2c
08:bd24 b1       from r1        
08:bd25 30       stw (r0)        SRAM=00:0A2C
08:bd26 3c       loop            r12=$0074 r15=$bd24
08:bd23 52       add r2          r0=$0a30
08:bd24 b1       from r1        
08:bd25 30       stw (r0)        SRAM=00:0A30
08:bd26 3c       loop            r12=$0073 r15=$bd24
08:bd23 52       add r2          r0=$0a34
08:bd24 b1       from r1        
08:bd25 30       stw (r0)        SRAM=00:0A34
08:bd26 3c       loop            r12=$0072 r15=$bd24
08:bd23 52       add r2          r0=$0a38
08:bd24 b1       from r1        
08:bd25 30       stw (r0)        SRAM=00:0A38
08:bd26 3c       loop            r12=$0071 r15=$bd24
08:bd23 52       add r2          r0=$0a3c
08:bd24 b1       from r1        
08:bd25 30       stw (r0)        SRAM=00:0A3C
08:bd26 3c       loop            r12=$0070 r15=$bd24
08:bd23 52       add r2          r0=$0a40
08:bd24 b1       from r1        
08:bd25 30       stw (r0)        SRAM=00:0A40
08:bd26 3c       loop            r12=$006f r15=$bd24
08:bd23 52       add r2          r0=$0a44
08:bd24 b1       from r1        
08:bd25 30       stw (r0)        SRAM=00:0A44
08:bd26 3c       loop            r12=$006e r15=$bd24
08:bd23 52       add r2          r0=$0a48
08:bd24 b1       from r1        
08:bd25 30       stw (r0)        SRAM=00:0A48
08:bd26 3c       loop            r12=$006d r15=$bd24
08:bd23 52       add r2          r0=$0a4c
08:bd24 b1       from r1        
08:bd25 30       stw (r0)        SRAM=00:0A4C
08:bd26 3c       loop            r12=$006c r15=$bd24
08:bd23 52       add r2          r0=$0a50
08:bd24 b1       from r1        
08:bd25 30       stw (r0)        SRAM=00:0A50
08:bd26 3c       loop            r12=$006b r15=$bd24
08:bd23 52       add r2          r0=$0a54
08:bd24 b1       from r1        
08:bd25 30       stw (r0)        SRAM=00:0A54
08:bd26 3c       loop            r12=$006a r15=$bd24
08:bd23 52       add r2          r0=$0a58
08:bd24 b1       from r1        
08:bd25 30       stw (r0)        SRAM=00:0A58
08:bd26 3c       loop            r12=$0069 r15=$bd24
08:bd23 52       add r2          r0=$0a5c
08:bd24 b1       from r1        
08:bd25 30       stw (r0)        SRAM=00:0A5C
08:bd26 3c       loop            r12=$0068 r15=$bd24
08:bd23 52       add r2          r0=$0a60
08:bd24 b1       from r1        
08:bd25 30       stw (r0)        SRAM=00:0A60
08:bd26 3c       loop            r12=$0067 r15=$bd24
08:bd23 52       add r2          r0=$0a64
08:bd24 b1       from r1        
08:bd25 30       stw (r0)        SRAM=00:0A64
08:bd26 3c       loop            r12=$0066 r15=$bd24
08:bd23 52       add r2          r0=$0a68
08:bd24 b1       from r1        
08:bd25 30       stw (r0)        SRAM=00:0A68
08:bd26 3c       loop            r12=$0065 r15=$bd24
08:bd23 52       add r2          r0=$0a6c
08:bd24 b1       from r1        
08:bd25 30       stw (r0)        SRAM=00:0A6C
08:bd26 3c       loop            r12=$0064 r15=$bd24
08:bd23 52       add r2          r0=$0a70
08:bd24 b1       from r1        
08:bd25 30       stw (r0)        SRAM=00:0A70
08:bd26 3c       loop            r12=$0063 r15=$bd24
08:bd23 52       add r2          r0=$0a74
08:bd24 b1       from r1        
08:bd25 30       stw (r0)        SRAM=00:0A74
08:bd26 3c       loop            r12=$0062 r15=$bd24
08:bd23 52       add r2          r0=$0a78
08:bd24 b1       from r1        
08:bd25 30       stw (r0)        SRAM=00:0A78
08:bd26 3c       loop            r12=$0061 r15=$bd24
08:bd23 52       add r2          r0=$0a7c
08:bd24 b1       from r1        
08:bd25 30       stw (r0)        SRAM=00:0A7C
08:bd26 3c       loop            r12=$0060 r15=$bd24
08:bd23 52       add r2          r0=$0a80
08:bd24 b1       from r1        
08:bd25 30       stw (r0)        SRAM=00:0A80
08:bd26 3c       loop            r12=$005f r15=$bd24
08:bd23 52       add r2          r0=$0a84
08:bd24 b1       from r1        
08:bd25 30       stw (r0)        SRAM=00:0A84
08:bd26 3c       loop            r12=$005e r15=$bd24
08:bd23 52       add r2          r0=$0a88
08:bd24 b1       from r1        
08:bd25 30       stw (r0)        SRAM=00:0A88
08:bd26 3c       loop            r12=$005d r15=$bd24
08:bd23 52       add r2          r0=$0a8c
08:bd24 b1       from r1        
08:bd25 30       stw (r0)        SRAM=00:0A8C
08:bd26 3c       loop            r12=$005c r15=$bd24
08:bd23 52       add r2          r0=$0a90
08:bd24 b1       from r1        
08:bd25 30       stw (r0)        SRAM=00:0A90
08:bd26 3c       loop            r12=$005b r15=$bd24
08:bd23 52       add r2          r0=$0a94
08:bd24 b1       from r1        
08:bd25 30       stw (r0)        SRAM=00:0A94
08:bd26 3c       loop            r12=$005a r15=$bd24
08:bd23 52       add r2          r0=$0a98
08:bd24 b1       from r1        
08:bd25 30       stw (r0)        SRAM=00:0A98
08:bd26 3c       loop            r12=$0059 r15=$bd24
08:bd23 52       add r2          r0=$0a9c
08:bd24 b1       from r1        
08:bd25 30       stw (r0)        SRAM=00:0A9C
08:bd26 3c       loop            r12=$0058 r15=$bd24
08:bd23 52       add r2          r0=$0aa0
08:bd24 b1       from r1        
08:bd25 30       stw (r0)        SRAM=00:0AA0
08:bd26 3c       loop            r12=$0057 r15=$bd24
08:bd23 52       add r2          r0=$0aa4
08:bd24 b1       from r1        
08:bd25 30       stw (r0)        SRAM=00:0AA4
08:bd26 3c       loop            r12=$0056 r15=$bd24
08:bd23 52       add r2          r0=$0aa8
08:bd24 b1       from r1        
08:bd25 30       stw (r0)        SRAM=00:0AA8
08:bd26 3c       loop            r12=$0055 r15=$bd24
08:bd23 52       add r2          r0=$0aac
08:bd24 b1       from r1        
08:bd25 30       stw (r0)        SRAM=00:0AAC
08:bd26 3c       loop            r12=$0054 r15=$bd24
08:bd23 52       add r2          r0=$0ab0
08:bd24 b1       from r1        
08:bd25 30       stw (r0)        SRAM=00:0AB0
08:bd26 3c       loop            r12=$0053 r15=$bd24
08:bd23 52       add r2          r0=$0ab4
08:bd24 b1       from r1        
08:bd25 30       stw (r0)        SRAM=00:0AB4
08:bd26 3c       loop            r12=$0052 r15=$bd24
08:bd23 52       add r2          r0=$0ab8
08:bd24 b1       from r1        
08:bd25 30       stw (r0)        SRAM=00:0AB8
08:bd26 3c       loop            r12=$0051 r15=$bd24
08:bd23 52       add r2          r0=$0abc
08:bd24 b1       from r1        
08:bd25 30       stw (r0)        SRAM=00:0ABC
08:bd26 3c       loop            r12=$0050 r15=$bd24
08:bd23 52       add r2          r0=$0ac0
08:bd24 b1       from r1        
08:bd25 30       stw (r0)        SRAM=00:0AC0
08:bd26 3c       loop            r12=$004f r15=$bd24
08:bd23 52       add r2          r0=$0ac4
08:bd24 b1       from r1        
08:bd25 30       stw (r0)        SRAM=00:0AC4
08:bd26 3c       loop            r12=$004e r15=$bd24
08:bd23 52       add r2          r0=$0ac8
08:bd24 b1       from r1        
08:bd25 30       stw (r0)        SRAM=00:0AC8
08:bd26 3c       loop            r12=$004d r15=$bd24
08:bd23 52       add r2          r0=$0acc
08:bd24 b1       from r1        
08:bd25 30       stw (r0)        SRAM=00:0ACC
08:bd26 3c       loop            r12=$004c r15=$bd24
08:bd23 52       add r2          r0=$0ad0
08:bd24 b1       from r1        
08:bd25 30       stw (r0)        SRAM=00:0AD0
08:bd26 3c       loop            r12=$004b r15=$bd24
08:bd23 52       add r2          r0=$0ad4
08:bd24 b1       from r1        
08:bd25 30       stw (r0)        SRAM=00:0AD4
08:bd26 3c       loop            r12=$004a r15=$bd24
08:bd23 52       add r2          r0=$0ad8
08:bd24 b1       from r1        
08:bd25 30       stw (r0)        SRAM=00:0AD8
08:bd26 3c       loop            r12=$0049 r15=$bd24
08:bd23 52       add r2          r0=$0adc
08:bd24 b1       from r1        
08:bd25 30       stw (r0)        SRAM=00:0ADC
08:bd26 3c       loop            r12=$0048 r15=$bd24
08:bd23 52       add r2          r0=$0ae0
08:bd24 b1       from r1        
08:bd25 30       stw (r0)        SRAM=00:0AE0
08:bd26 3c       loop            r12=$0047 r15=$bd24
08:bd23 52       add r2          r0=$0ae4
08:bd24 b1       from r1        
08:bd25 30       stw (r0)        SRAM=00:0AE4
08:bd26 3c       loop            r12=$0046 r15=$bd24
08:bd23 52       add r2          r0=$0ae8
08:bd24 b1       from r1        
08:bd25 30       stw (r0)        SRAM=00:0AE8
08:bd26 3c       loop            r12=$0045 r15=$bd24
08:bd23 52       add r2          r0=$0aec
08:bd24 b1       from r1        
08:bd25 30       stw (r0)        SRAM=00:0AEC
08:bd26 3c       loop            r12=$0044 r15=$bd24
08:bd23 52       add r2          r0=$0af0
08:bd24 b1       from r1        
08:bd25 30       stw (r0)        SRAM=00:0AF0
08:bd26 3c       loop            r12=$0043 r15=$bd24
08:bd23 52       add r2          r0=$0af4
08:bd24 b1       from r1        
08:bd25 30       stw (r0)        SRAM=00:0AF4
08:bd26 3c       loop            r12=$0042 r15=$bd24
08:bd23 52       add r2          r0=$0af8
08:bd24 b1       from r1        
08:bd25 30       stw (r0)        SRAM=00:0AF8
08:bd26 3c       loop            r12=$0041 r15=$bd24
08:bd23 52       add r2          r0=$0afc
08:bd24 b1       from r1        
08:bd25 30       stw (r0)        SRAM=00:0AFC
08:bd26 3c       loop            r12=$0040 r15=$bd24
08:bd23 52       add r2          r0=$0b00
08:bd24 b1       from r1        
08:bd25 30       stw (r0)        SRAM=00:0B00
08:bd26 3c       loop            r12=$003f r15=$bd24
08:bd23 52       add r2          r0=$0b04
08:bd24 b1       from r1        
08:bd25 30       stw (r0)        SRAM=00:0B04
08:bd26 3c       loop            r12=$003e r15=$bd24
08:bd23 52       add r2          r0=$0b08
08:bd24 b1       from r1        
08:bd25 30       stw (r0)        SRAM=00:0B08
08:bd26 3c       loop            r12=$003d r15=$bd24
08:bd23 52       add r2          r0=$0b0c
08:bd24 b1       from r1        
08:bd25 30       stw (r0)        SRAM=00:0B0C
08:bd26 3c       loop            r12=$003c r15=$bd24
08:bd23 52       add r2          r0=$0b10
08:bd24 b1       from r1        
08:bd25 30       stw (r0)        SRAM=00:0B10
08:bd26 3c       loop            r12=$003b r15=$bd24
08:bd23 52       add r2          r0=$0b14
08:bd24 b1       from r1        
08:bd25 30       stw (r0)        SRAM=00:0B14
08:bd26 3c       loop            r12=$003a r15=$bd24
08:bd23 52       add r2          r0=$0b18
08:bd24 b1       from r1        
08:bd25 30       stw (r0)        SRAM=00:0B18
08:bd26 3c       loop            r12=$0039 r15=$bd24
08:bd23 52       add r2          r0=$0b1c
08:bd24 b1       from r1        
08:bd25 30       stw (r0)        SRAM=00:0B1C
08:bd26 3c       loop            r12=$0038 r15=$bd24
08:bd23 52       add r2          r0=$0b20
08:bd24 b1       from r1        
08:bd25 30       stw (r0)        SRAM=00:0B20
08:bd26 3c       loop            r12=$0037 r15=$bd24
08:bd23 52       add r2          r0=$0b24
08:bd24 b1       from r1        
08:bd25 30       stw (r0)        SRAM=00:0B24
08:bd26 3c       loop            r12=$0036 r15=$bd24
08:bd23 52       add r2          r0=$0b28
08:bd24 b1       from r1        
08:bd25 30       stw (r0)        SRAM=00:0B28
08:bd26 3c       loop            r12=$0035 r15=$bd24
08:bd23 52       add r2          r0=$0b2c
08:bd24 b1       from r1        
08:bd25 30       stw (r0)        SRAM=00:0B2C
08:bd26 3c       loop            r12=$0034 r15=$bd24
08:bd23 52       add r2          r0=$0b30
08:bd24 b1       from r1        
08:bd25 30       stw (r0)        SRAM=00:0B30
08:bd26 3c       loop            r12=$0033 r15=$bd24
08:bd23 52       add r2          r0=$0b34
08:bd24 b1       from r1        
08:bd25 30       stw (r0)        SRAM=00:0B34
08:bd26 3c       loop            r12=$0032 r15=$bd24
08:bd23 52       add r2          r0=$0b38
08:bd24 b1       from r1        
08:bd25 30       stw (r0)        SRAM=00:0B38
08:bd26 3c       loop            r12=$0031 r15=$bd24
08:bd23 52       add r2          r0=$0b3c
08:bd24 b1       from r1        
08:bd25 30       stw (r0)        SRAM=00:0B3C
08:bd26 3c       loop            r12=$0030 r15=$bd24
08:bd23 52       add r2          r0=$0b40
08:bd24 b1       from r1        
08:bd25 30       stw (r0)        SRAM=00:0B40
08:bd26 3c       loop            r12=$002f r15=$bd24
08:bd23 52       add r2          r0=$0b44
08:bd24 b1       from r1        
08:bd25 30       stw (r0)        SRAM=00:0B44
08:bd26 3c       loop            r12=$002e r15=$bd24
08:bd23 52       add r2          r0=$0b48
08:bd24 b1       from r1        
08:bd25 30       stw (r0)        SRAM=00:0B48
08:bd26 3c       loop            r12=$002d r15=$bd24
08:bd23 52       add r2          r0=$0b4c
08:bd24 b1       from r1        
08:bd25 30       stw (r0)        SRAM=00:0B4C
08:bd26 3c       loop            r12=$002c r15=$bd24
08:bd23 52       add r2          r0=$0b50
08:bd24 b1       from r1        
08:bd25 30       stw (r0)        SRAM=00:0B50
08:bd26 3c       loop            r12=$002b r15=$bd24
08:bd23 52       add r2          r0=$0b54
08:bd24 b1       from r1        
08:bd25 30       stw (r0)        SRAM=00:0B54
08:bd26 3c       loop            r12=$002a r15=$bd24
08:bd23 52       add r2          r0=$0b58
08:bd24 b1       from r1        
08:bd25 30       stw (r0)        SRAM=00:0B58
08:bd26 3c       loop            r12=$0029 r15=$bd24
08:bd23 52       add r2          r0=$0b5c
08:bd24 b1       from r1        
08:bd25 30       stw (r0)        SRAM=00:0B5C
08:bd26 3c       loop            r12=$0028 r15=$bd24
08:bd23 52       add r2          r0=$0b60
08:bd24 b1       from r1        
08:bd25 30       stw (r0)        SRAM=00:0B60
08:bd26 3c       loop            r12=$0027 r15=$bd24
08:bd23 52       add r2          r0=$0b64
08:bd24 b1       from r1        
08:bd25 30       stw (r0)        SRAM=00:0B64
08:bd26 3c       loop            r12=$0026 r15=$bd24
08:bd23 52       add r2          r0=$0b68
08:bd24 b1       from r1        
08:bd25 30       stw (r0)        SRAM=00:0B68
08:bd26 3c       loop            r12=$0025 r15=$bd24
08:bd23 52       add r2          r0=$0b6c
08:bd24 b1       from r1        
08:bd25 30       stw (r0)        SRAM=00:0B6C
08:bd26 3c       loop            r12=$0024 r15=$bd24
08:bd23 52       add r2          r0=$0b70
08:bd24 b1       from r1        
08:bd25 30       stw (r0)        SRAM=00:0B70
08:bd26 3c       loop            r12=$0023 r15=$bd24
08:bd23 52       add r2          r0=$0b74
08:bd24 b1       from r1        
08:bd25 30       stw (r0)        SRAM=00:0B74
08:bd26 3c       loop            r12=$0022 r15=$bd24
08:bd23 52       add r2          r0=$0b78
08:bd24 b1       from r1        
08:bd25 30       stw (r0)        SRAM=00:0B78
08:bd26 3c       loop            r12=$0021 r15=$bd24
08:bd23 52       add r2          r0=$0b7c
08:bd24 b1       from r1        
08:bd25 30       stw (r0)        SRAM=00:0B7C
08:bd26 3c       loop            r12=$0020 r15=$bd24
08:bd23 52       add r2          r0=$0b80
08:bd24 b1       from r1        
08:bd25 30       stw (r0)        SRAM=00:0B80
08:bd26 3c       loop            r12=$001f r15=$bd24
08:bd23 52       add r2          r0=$0b84
08:bd24 b1       from r1        
08:bd25 30       stw (r0)        SRAM=00:0B84
08:bd26 3c       loop            r12=$001e r15=$bd24
08:bd23 52       add r2          r0=$0b88
08:bd24 b1       from r1        
08:bd25 30       stw (r0)        SRAM=00:0B88
08:bd26 3c       loop            r12=$001d r15=$bd24
08:bd23 52       add r2          r0=$0b8c
08:bd24 b1       from r1        
08:bd25 30       stw (r0)        SRAM=00:0B8C
08:bd26 3c       loop            r12=$001c r15=$bd24
08:bd23 52       add r2          r0=$0b90
08:bd24 b1       from r1        
08:bd25 30       stw (r0)        SRAM=00:0B90
08:bd26 3c       loop            r12=$001b r15=$bd24
08:bd23 52       add r2          r0=$0b94
08:bd24 b1       from r1        
08:bd25 30       stw (r0)        SRAM=00:0B94
08:bd26 3c       loop            r12=$001a r15=$bd24
08:bd23 52       add r2          r0=$0b98
08:bd24 b1       from r1        
08:bd25 30       stw (r0)        SRAM=00:0B98
08:bd26 3c       loop            r12=$0019 r15=$bd24
08:bd23 52       add r2          r0=$0b9c
08:bd24 b1       from r1        
08:bd25 30       stw (r0)        SRAM=00:0B9C
08:bd26 3c       loop            r12=$0018 r15=$bd24
08:bd23 52       add r2          r0=$0ba0
08:bd24 b1       from r1        
08:bd25 30       stw (r0)        SRAM=00:0BA0
08:bd26 3c       loop            r12=$0017 r15=$bd24
08:bd23 52       add r2          r0=$0ba4
08:bd24 b1       from r1        
08:bd25 30       stw (r0)        SRAM=00:0BA4
08:bd26 3c       loop            r12=$0016 r15=$bd24
08:bd23 52       add r2          r0=$0ba8
08:bd24 b1       from r1        
08:bd25 30       stw (r0)        SRAM=00:0BA8
08:bd26 3c       loop            r12=$0015 r15=$bd24
08:bd23 52       add r2          r0=$0bac
08:bd24 b1       from r1        
08:bd25 30       stw (r0)        SRAM=00:0BAC
08:bd26 3c       loop            r12=$0014 r15=$bd24
08:bd23 52       add r2          r0=$0bb0
08:bd24 b1       from r1        
08:bd25 30       stw (r0)        SRAM=00:0BB0
08:bd26 3c       loop            r12=$0013 r15=$bd24
08:bd23 52       add r2          r0=$0bb4
08:bd24 b1       from r1        
08:bd25 30       stw (r0)        SRAM=00:0BB4
08:bd26 3c       loop            r12=$0012 r15=$bd24
08:bd23 52       add r2          r0=$0bb8
08:bd24 b1       from r1        
08:bd25 30       stw (r0)        SRAM=00:0BB8
08:bd26 3c       loop            r12=$0011 r15=$bd24
08:bd23 52       add r2          r0=$0bbc
08:bd24 b1       from r1        
08:bd25 30       stw (r0)        SRAM=00:0BBC
08:bd26 3c       loop            r12=$0010 r15=$bd24
08:bd23 52       add r2          r0=$0bc0
08:bd24 b1       from r1        
08:bd25 30       stw (r0)        SRAM=00:0BC0
08:bd26 3c       loop            r12=$000f r15=$bd24
08:bd23 52       add r2          r0=$0bc4
08:bd24 b1       from r1        
08:bd25 30       stw (r0)        SRAM=00:0BC4
08:bd26 3c       loop            r12=$000e r15=$bd24
08:bd23 52       add r2          r0=$0bc8
08:bd24 b1       from r1        
08:bd25 30       stw (r0)        SRAM=00:0BC8
08:bd26 3c       loop            r12=$000d r15=$bd24
08:bd23 52       add r2          r0=$0bcc
08:bd24 b1       from r1        
08:bd25 30       stw (r0)        SRAM=00:0BCC
08:bd26 3c       loop            r12=$000c r15=$bd24
08:bd23 52       add r2          r0=$0bd0
08:bd24 b1       from r1        
08:bd25 30       stw (r0)        SRAM=00:0BD0
08:bd26 3c       loop            r12=$000b r15=$bd24
08:bd23 52       add r2          r0=$0bd4
08:bd24 b1       from r1        
08:bd25 30       stw (r0)        SRAM=00:0BD4
08:bd26 3c       loop            r12=$000a r15=$bd24
08:bd23 52       add r2          r0=$0bd8
08:bd24 b1       from r1        
08:bd25 30       stw (r0)        SRAM=00:0BD8
08:bd26 3c       loop            r12=$0009 r15=$bd24
08:bd23 52       add r2          r0=$0bdc
08:bd24 b1       from r1        
08:bd25 30       stw (r0)        SRAM=00:0BDC
08:bd26 3c       loop            r12=$0008 r15=$bd24
08:bd23 52       add r2          r0=$0be0
08:bd24 b1       from r1        
08:bd25 30       stw (r0)        SRAM=00:0BE0
08:bd26 3c       loop            r12=$0007 r15=$bd24
08:bd23 52       add r2          r0=$0be4
08:bd24 b1       from r1        
08:bd25 30       stw (r0)        SRAM=00:0BE4
08:bd26 3c       loop            r12=$0006 r15=$bd24
08:bd23 52       add r2          r0=$0be8
08:bd24 b1       from r1        
08:bd25 30       stw (r0)        SRAM=00:0BE8
08:bd26 3c       loop            r12=$0005 r15=$bd24
08:bd23 52       add r2          r0=$0bec
08:bd24 b1       from r1        
08:bd25 30       stw (r0)        SRAM=00:0BEC
08:bd26 3c       loop            r12=$0004 r15=$bd24
08:bd23 52       add r2          r0=$0bf0
08:bd24 b1       from r1        
08:bd25 30       stw (r0)        SRAM=00:0BF0
08:bd26 3c       loop            r12=$0003 r15=$bd24
08:bd23 52       add r2          r0=$0bf4
08:bd24 b1       from r1        
08:bd25 30       stw (r0)        SRAM=00:0BF4
08:bd26 3c       loop            r12=$0002 r15=$bd24
08:bd23 52       add r2          r0=$0bf8
08:bd24 b1       from r1        
08:bd25 30       stw (r0)        SRAM=00:0BF8
08:bd26 3c       loop            r12=$0001 r15=$bd24
08:bd23 52       add r2          r0=$0bfc
08:bd24 b1       from r1        
08:bd25 30       stw (r0)        SRAM=00:0BFC
08:bd26 3c       loop            r12=$0000 Z=1
08:bd27 52       add r2          r0=$0c00 Z=0
08:bd28 20       with r0         B=1
08:bd29 11       move r1,r0      r1=$0c00 B=0
08:bd2a f0 55 55 iwt r0,#$5555   r0=$5555
08:bd2d ac 10    ibt r12,#$10    r12=$0010
08:bd2f 2f       with r15        B=1
08:bd30 1d       move r13,r15    r13=$bd31 B=0
08:bd31 31       stw (r1)        SRAM=00:0C00
08:bd32 d1       inc r1          r1=$0c01
08:bd33 3c       loop            r12=$000f r15=$bd31
08:bd30 d1       inc r1          r1=$0c02
08:bd31 31       stw (r1)        SRAM=00:0C02
08:bd32 d1       inc r1          r1=$0c03
08:bd33 3c       loop            r12=$000e r15=$bd31
08:bd30 d1       inc r1          r1=$0c04
08:bd31 31       stw (r1)        SRAM=00:0C04
08:bd32 d1       inc r1          r1=$0c05
08:bd33 3c       loop            r12=$000d r15=$bd31
08:bd30 d1       inc r1          r1=$0c06
08:bd31 31       stw (r1)        SRAM=00:0C06
08:bd32 d1       inc r1          r1=$0c07
08:bd33 3c       loop            r12=$000c r15=$bd31
08:bd30 d1       inc r1          r1=$0c08
08:bd31 31       stw (r1)        SRAM=00:0C08
08:bd32 d1       inc r1          r1=$0c09
08:bd33 3c       loop            r12=$000b r15=$bd31
08:bd30 d1       inc r1          r1=$0c0a
08:bd31 31       stw (r1)        SRAM=00:0C0A
08:bd32 d1       inc r1          r1=$0c0b
08:bd33 3c       loop            r12=$000a r15=$bd31
08:bd30 d1       inc r1          r1=$0c0c
08:bd31 31       stw (r1)        SRAM=00:0C0C
08:bd32 d1       inc r1          r1=$0c0d
08:bd33 3c       loop            r12=$0009 r15=$bd31
08:bd30 d1       inc r1          r1=$0c0e
08:bd31 31       stw (r1)        SRAM=00:0C0E
08:bd32 d1       inc r1          r1=$0c0f
08:bd33 3c       loop            r12=$0008 r15=$bd31
08:bd30 d1       inc r1          r1=$0c10
08:bd31 31       stw (r1)        SRAM=00:0C10
08:bd32 d1       inc r1          r1=$0c11
08:bd33 3c       loop            r12=$0007 r15=$bd31
08:bd30 d1       inc r1          r1=$0c12
08:bd31 31       stw (r1)        SRAM=00:0C12
08:bd32 d1       inc r1          r1=$0c13
08:bd33 3c       loop            r12=$0006 r15=$bd31
08:bd30 d1       inc r1          r1=$0c14
08:bd31 31       stw (r1)        SRAM=00:0C14
08:bd32 d1       inc r1          r1=$0c15
08:bd33 3c       loop            r12=$0005 r15=$bd31
08:bd30 d1       inc r1          r1=$0c16
08:bd31 31       stw (r1)        SRAM=00:0C16
08:bd32 d1       inc r1          r1=$0c17
08:bd33 3c       loop            r12=$0004 r15=$bd31
08:bd30 d1       inc r1          r1=$0c18
08:bd31 31       stw (r1)        SRAM=00:0C18
08:bd32 d1       inc r1          r1=$0c19
08:bd33 3c       loop            r12=$0003 r15=$bd31
08:bd30 d1       inc r1          r1=$0c1a
08:bd31 31       stw (r1)        SRAM=00:0C1A
08:bd32 d1       inc r1          r1=$0c1b
08:bd33 3c       loop            r12=$0002 r15=$bd31
08:bd30 d1       inc r1          r1=$0c1c
08:bd31 31       stw (r1)        SRAM=00:0C1C
08:bd32 d1       inc r1          r1=$0c1d
08:bd33 3c       loop            r12=$0001 r15=$bd31
08:bd30 d1       inc r1          r1=$0c1e
08:bd31 31       stw (r1)        SRAM=00:0C1E
08:bd32 d1       inc r1          r1=$0c1f
08:bd33 3c       loop            r12=$0000 Z=1
08:bd34 d1       inc r1          r1=$0c20 Z=0
08:bd35 00       stop            G=0
08:bd15 01       nop            
08:bd16 02       cache          
08:bd17 f0 00 0a iwt r0,#$0a00   r0=$0a00
08:bd1a f1 80 f0 iwt r1,#$f080   r1=$f080
08:bd1d a2 04    ibt r2,#$04    
08:bd1f fc 80 00 iwt r12,#$0080  r12=$0080
08:bd22 2f       with r15        B=1
08:bd23 1d       move r13,r15    r13=$bd24 B=0
08:bd24 b1       from r1        
08:bd25 30       stw (r0)        SRAM=00:0A00
08:bd26 3c       loop            r12=$007f r15=$bd24
08:bd23 52       add r2          r0=$0a04
08:bd24 b1       from r1        
08:bd25 30       stw (r0)        SRAM=00:0A04
08:bd26 3c       loop            r12=$007e r15=$bd24
08:bd23 52       add r2          r0=$0a08
08:bd24 b1       from r1        
08:bd25 30       stw (r0)        SRAM=00:0A08
08:bd26 3c       loop            r12=$007d r15=$bd24
08:bd23 52       add r2          r0=$0a0c
08:bd24 b1       from r1        
08:bd25 30       stw (r0)        SRAM=00:0A0C
08:bd26 3c       loop            r12=$007c r15=$bd24
08:bd23 52       add r2          r0=$0a10
08:bd24 b1       from r1        
08:bd25 30       stw (r0)        SRAM=00:0A10
08:bd26 3c       loop            r12=$007b r15=$bd24
08:bd23 52       add r2          r0=$0a14
08:bd24 b1       from r1        
08:bd25 30       stw (r0)        SRAM=00:0A14
08:bd26 3c       loop            r12=$007a r15=$bd24
08:bd23 52       add r2          r0=$0a18
08:bd24 b1       from r1        
08:bd25 30       stw (r0)        SRAM=00:0A18
08:bd26 3c       loop            r12=$0079 r15=$bd24
08:bd23 52       add r2          r0=$0a1c
08:bd24 b1       from r1        
08:bd25 30       stw (r0)        SRAM=00:0A1C
08:bd26 3c       loop            r12=$0078 r15=$bd24
08:bd23 52       add r2          r0=$0a20
08:bd24 b1       from r1        
08:bd25 30       stw (r0)        SRAM=00:0A20
08:bd26 3c       loop            r12=$0077 r15=$bd24
08:bd23 52       add r2          r0=$0a24
08:bd24 b1       from r1        
08:bd25 30       stw (r0)        SRAM=00:0A24
08:bd26 3c       loop            r12=$0076 r15=$bd24
08:bd23 52       add r2          r0=$0a28
08:bd24 b1       from r1        
08:bd25 30       stw (r0)        SRAM=00:0A28
08:bd26 3c       loop            r12=$0075 r15=$bd24
08:bd23 52       add r2          r0=$0a2c
08:bd24 b1       from r1        
08:bd25 30       stw (r0)        SRAM=00:0A2C
08:bd26 3c       loop            r12=$0074 r15=$bd24
08:bd23 52       add r2          r0=$0a30
08:bd24 b1       from r1        
08:bd25 30       stw (r0)        SRAM=00:0A30
08:bd26 3c       loop            r12=$0073 r15=$bd24
08:bd23 52       add r2          r0=$0a34
08:bd24 b1       from r1        
08:bd25 30       stw (r0)        SRAM=00:0A34
08:bd26 3c       loop            r12=$0072 r15=$bd24
08:bd23 52       add r2          r0=$0a38
08:bd24 b1       from r1        
08:bd25 30       stw (r0)        SRAM=00:0A38
08:bd26 3c       loop            r12=$0071 r15=$bd24
08:bd23 52       add r2          r0=$0a3c
08:bd24 b1       from r1        
08:bd25 30       stw (r0)        SRAM=00:0A3C
08:bd26 3c       loop            r12=$0070 r15=$bd24
08:bd23 52       add r2          r0=$0a40
08:bd24 b1       from r1        
08:bd25 30       stw (r0)        SRAM=00:0A40
08:bd26 3c       loop            r12=$006f r15=$bd24
08:bd23 52       add r2          r0=$0a44
08:bd24 b1       from r1        
08:bd25 30       stw (r0)        SRAM=00:0A44
08:bd26 3c       loop            r12=$006e r15=$bd24
08:bd23 52       add r2          r0=$0a48
08:bd24 b1       from r1        
08:bd25 30       stw (r0)        SRAM=00:0A48
08:bd26 3c       loop            r12=$006d r15=$bd24
08:bd23 52       add r2          r0=$0a4c
08:bd24 b1       from r1        
08:bd25 30       stw (r0)        SRAM=00:0A4C
08:bd26 3c       loop            r12=$006c r15=$bd24
08:bd23 52       add r2          r0=$0a50
08:bd24 b1       from r1        
08:bd25 30       stw (r0)        SRAM=00:0A50
08:bd26 3c       loop            r12=$006b r15=$bd24
08:bd23 52       add r2          r0=$0a54
08:bd24 b1       from r1        
08:bd25 30       stw (r0)        SRAM=00:0A54
08:bd26 3c       loop            r12=$006a r15=$bd24
08:bd23 52       add r2          r0=$0a58
08:bd24 b1       from r1        
08:bd25 30       stw (r0)        SRAM=00:0A58
08:bd26 3c       loop            r12=$0069 r15=$bd24
08:bd23 52       add r2          r0=$0a5c
08:bd24 b1       from r1        
08:bd25 30       stw (r0)        SRAM=00:0A5C
08:bd26 3c       loop            r12=$0068 r15=$bd24
08:bd23 52       add r2          r0=$0a60
08:bd24 b1       from r1        
08:bd25 30       stw (r0)        SRAM=00:0A60
08:bd26 3c       loop            r12=$0067 r15=$bd24
08:bd23 52       add r2          r0=$0a64
08:bd24 b1       from r1        
08:bd25 30       stw (r0)        SRAM=00:0A64
08:bd26 3c       loop            r12=$0066 r15=$bd24
08:bd23 52       add r2          r0=$0a68
08:bd24 b1       from r1        
08:bd25 30       stw (r0)        SRAM=00:0A68
08:bd26 3c       loop            r12=$0065 r15=$bd24
08:bd23 52       add r2          r0=$0a6c
08:bd24 b1       from r1        
08:bd25 30       stw (r0)        SRAM=00:0A6C
08:bd26 3c       loop            r12=$0064 r15=$bd24
08:bd23 52       add r2          r0=$0a70
08:bd24 b1       from r1        
08:bd25 30       stw (r0)        SRAM=00:0A70
08:bd26 3c       loop            r12=$0063 r15=$bd24
08:bd23 52       add r2          r0=$0a74
08:bd24 b1       from r1        
08:bd25 30       stw (r0)        SRAM=00:0A74
08:bd26 3c       loop            r12=$0062 r15=$bd24
08:bd23 52       add r2          r0=$0a78
08:bd24 b1       from r1        
08:bd25 30       stw (r0)        SRAM=00:0A78
08:bd26 3c       loop            r12=$0061 r15=$bd24
08:bd23 52       add r2          r0=$0a7c
08:bd24 b1       from r1        
08:bd25 30       stw (r0)        SRAM=00:0A7C
08:bd26 3c       loop            r12=$0060 r15=$bd24
08:bd23 52       add r2          r0=$0a80
08:bd24 b1       from r1        
08:bd25 30       stw (r0)        SRAM=00:0A80
08:bd26 3c       loop            r12=$005f r15=$bd24
08:bd23 52       add r2          r0=$0a84
08:bd24 b1       from r1        
08:bd25 30       stw (r0)        SRAM=00:0A84
08:bd26 3c       loop            r12=$005e r15=$bd24
08:bd23 52       add r2          r0=$0a88
08:bd24 b1       from r1        
08:bd25 30       stw (r0)        SRAM=00:0A88
08:bd26 3c       loop            r12=$005d r15=$bd24
08:bd23 52       add r2          r0=$0a8c
08:bd24 b1       from r1        
08:bd25 30       stw (r0)        SRAM=00:0A8C
08:bd26 3c       loop            r12=$005c r15=$bd24
08:bd23 52       add r2          r0=$0a90
08:bd24 b1       from r1        
08:bd25 30       stw (r0)        SRAM=00:0A90
08:bd26 3c       loop            r12=$005b r15=$bd24
08:bd23 52       add r2          r0=$0a94
08:bd24 b1       from r1        
08:bd25 30       stw (r0)        SRAM=00:0A94
08:bd26 3c       loop            r12=$005a r15=$bd24
08:bd23 52       add r2          r0=$0a98
08:bd24 b1       from r1        
08:bd25 30       stw (r0)        SRAM=00:0A98
08:bd26 3c       loop            r12=$0059 r15=$bd24
08:bd23 52       add r2          r0=$0a9c
08:bd24 b1       from r1        
08:bd25 30       stw (r0)        SRAM=00:0A9C
08:bd26 3c       loop            r12=$0058 r15=$bd24
08:bd23 52       add r2          r0=$0aa0
08:bd24 b1       from r1        
08:bd25 30       stw (r0)        SRAM=00:0AA0
08:bd26 3c       loop            r12=$0057 r15=$bd24
08:bd23 52       add r2          r0=$0aa4
08:bd24 b1       from r1        
08:bd25 30       stw (r0)        SRAM=00:0AA4
08:bd26 3c       loop            r12=$0056 r15=$bd24
08:bd23 52       add r2          r0=$0aa8
08:bd24 b1       from r1        
08:bd25 30       stw (r0)        SRAM=00:0AA8
08:bd26 3c       loop            r12=$0055 r15=$bd24
08:bd23 52       add r2          r0=$0aac
08:bd24 b1       from r1        
08:bd25 30       stw (r0)        SRAM=00:0AAC
08:bd26 3c       loop            r12=$0054 r15=$bd24
08:bd23 52       add r2          r0=$0ab0
08:bd24 b1       from r1        
08:bd25 30       stw (r0)        SRAM=00:0AB0
08:bd26 3c       loop            r12=$0053 r15=$bd24
08:bd23 52       add r2          r0=$0ab4
08:bd24 b1       from r1        
08:bd25 30       stw (r0)        SRAM=00:0AB4
08:bd26 3c       loop            r12=$0052 r15=$bd24
08:bd23 52       add r2          r0=$0ab8
08:bd24 b1       from r1        
08:bd25 30       stw (r0)        SRAM=00:0AB8
08:bd26 3c       loop            r12=$0051 r15=$bd24
08:bd23 52       add r2          r0=$0abc
08:bd24 b1       from r1        
08:bd25 30       stw (r0)        SRAM=00:0ABC
08:bd26 3c       loop            r12=$0050 r15=$bd24
08:bd23 52       add r2          r0=$0ac0
08:bd24 b1       from r1        
08:bd25 30       stw (r0)        SRAM=00:0AC0
08:bd26 3c       loop            r12=$004f r15=$bd24
08:bd23 52       add r2          r0=$0ac4
08:bd24 b1       from r1        
08:bd25 30       stw (r0)        SRAM=00:0AC4
08:bd26 3c       loop            r12=$004e r15=$bd24
08:bd23 52       add r2          r0=$0ac8
08:bd24 b1       from r1        
08:bd25 30       stw (r0)        SRAM=00:0AC8
08:bd26 3c       loop            r12=$004d r15=$bd24
08:bd23 52       add r2          r0=$0acc
08:bd24 b1       from r1        
08:bd25 30       stw (r0)        SRAM=00:0ACC
08:bd26 3c       loop            r12=$004c r15=$bd24
08:bd23 52       add r2          r0=$0ad0
08:bd24 b1       from r1        
08:bd25 30       stw (r0)        SRAM=00:0AD0
08:bd26 3c       loop            r12=$004b r15=$bd24
08:bd23 52       add r2          r0=$0ad4
08:bd24 b1       from r1        
08:bd25 30       stw (r0)        SRAM=00:0AD4
08:bd26 3c       loop            r12=$004a r15=$bd24
08:bd23 52       add r2          r0=$0ad8
08:bd24 b1       from r1        
08:bd25 30       stw (r0)        SRAM=00:0AD8
08:bd26 3c       loop            r12=$0049 r15=$bd24
08:bd23 52       add r2          r0=$0adc
08:bd24 b1       from r1        
08:bd25 30       stw (r0)        SRAM=00:0ADC
08:bd26 3c       loop            r12=$0048 r15=$bd24
08:bd23 52       add r2          r0=$0ae0
08:bd24 b1       from r1        
08:bd25 30       stw (r0)        SRAM=00:0AE0
08:bd26 3c       loop            r12=$0047 r15=$bd24
08:bd23 52       add r2          r0=$0ae4
08:bd24 b1       from r1        
08:bd25 30       stw (r0)        SRAM=00:0AE4
08:bd26 3c       loop            r12=$0046 r15=$bd24
08:bd23 52       add r2          r0=$0ae8
08:bd24 b1       from r1        
08:bd25 30       stw (r0)        SRAM=00:0AE8
08:bd26 3c       loop            r12=$0045 r15=$bd24
08:bd23 52       add r2          r0=$0aec
08:bd24 b1       from r1        
08:bd25 30       stw (r0)        SRAM=00:0AEC
08:bd26 3c       loop            r12=$0044 r15=$bd24
08:bd23 52       add r2          r0=$0af0
08:bd24 b1       from r1        
08:bd25 30       stw (r0)        SRAM=00:0AF0
08:bd26 3c       loop            r12=$0043 r15=$bd24
08:bd23 52       add r2          r0=$0af4
08:bd24 b1       from r1        
08:bd25 30       stw (r0)        SRAM=00:0AF4
08:bd26 3c       loop            r12=$0042 r15=$bd24
08:bd23 52       add r2          r0=$0af8
08:bd24 b1       from r1        
08:bd25 30       stw (r0)        SRAM=00:0AF8
08:bd26 3c       loop            r12=$0041 r15=$bd24
08:bd23 52       add r2          r0=$0afc
08:bd24 b1       from r1        
08:bd25 30       stw (r0)        SRAM=00:0AFC
08:bd26 3c       loop            r12=$0040 r15=$bd24
08:bd23 52       add r2          r0=$0b00
08:bd24 b1       from r1        
08:bd25 30       stw (r0)        SRAM=00:0B00
08:bd26 3c       loop            r12=$003f r15=$bd24
08:bd23 52       add r2          r0=$0b04
08:bd24 b1       from r1        
08:bd25 30       stw (r0)        SRAM=00:0B04
08:bd26 3c       loop            r12=$003e r15=$bd24
08:bd23 52       add r2          r0=$0b08
08:bd24 b1       from r1        
08:bd25 30       stw (r0)        SRAM=00:0B08
08:bd26 3c       loop            r12=$003d r15=$bd24
08:bd23 52       add r2          r0=$0b0c
08:bd24 b1       from r1        
08:bd25 30       stw (r0)        SRAM=00:0B0C
08:bd26 3c       loop            r12=$003c r15=$bd24
08:bd23 52       add r2          r0=$0b10
08:bd24 b1       from r1        
08:bd25 30       stw (r0)        SRAM=00:0B10
08:bd26 3c       loop            r12=$003b r15=$bd24
08:bd23 52       add r2          r0=$0b14
08:bd24 b1       from r1        
08:bd25 30       stw (r0)        SRAM=00:0B14
08:bd26 3c       loop            r12=$003a r15=$bd24
08:bd23 52       add r2          r0=$0b18
08:bd24 b1       from r1        
08:bd25 30       stw (r0)        SRAM=00:0B18
08:bd26 3c       loop            r12=$0039 r15=$bd24
08:bd23 52       add r2          r0=$0b1c
08:bd24 b1       from r1        
08:bd25 30       stw (r0)        SRAM=00:0B1C
08:bd26 3c       loop            r12=$0038 r15=$bd24
08:bd23 52       add r2          r0=$0b20
08:bd24 b1       from r1        
08:bd25 30       stw (r0)        SRAM=00:0B20
08:bd26 3c       loop            r12=$0037 r15=$bd24
08:bd23 52       add r2          r0=$0b24
08:bd24 b1       from r1        
08:bd25 30       stw (r0)        SRAM=00:0B24
08:bd26 3c       loop            r12=$0036 r15=$bd24
08:bd23 52       add r2          r0=$0b28
08:bd24 b1       from r1        
08:bd25 30       stw (r0)        SRAM=00:0B28
08:bd26 3c       loop            r12=$0035 r15=$bd24
08:bd23 52       add r2          r0=$0b2c
08:bd24 b1       from r1        
08:bd25 30       stw (r0)        SRAM=00:0B2C
08:bd26 3c       loop            r12=$0034 r15=$bd24
08:bd23 52       add r2          r0=$0b30
08:bd24 b1       from r1        
08:bd25 30       stw (r0)        SRAM=00:0B30
08:bd26 3c       loop            r12=$0033 r15=$bd24
08:bd23 52       add r2          r0=$0b34
08:bd24 b1       from r1        
08:bd25 30       stw (r0)        SRAM=00:0B34
08:bd26 3c       loop            r12=$0032 r15=$bd24
08:bd23 52       add r2          r0=$0b38
08:bd24 b1       from r1        
08:bd25 30       stw (r0)        SRAM=00:0B38
08:bd26 3c       loop            r12=$0031 r15=$bd24
08:bd23 52       add r2          r0=$0b3c
08:bd24 b1       from r1        
08:bd25 30       stw (r0)        SRAM=00:0B3C
08:bd26 3c       loop            r12=$0030 r15=$bd24
08:bd23 52       add r2          r0=$0b40
08:bd24 b1       from r1        
08:bd25 30       stw (r0)        SRAM=00:0B40
08:bd26 3c       loop            r12=$002f r15=$bd24
08:bd23 52       add r2          r0=$0b44
08:bd24 b1       from r1        
08:bd25 30       stw (r0)        SRAM=00:0B44
08:bd26 3c       loop            r12=$002e r15=$bd24
08:bd23 52       add r2          r0=$0b48
08:bd24 b1       from r1        
08:bd25 30       stw (r0)        SRAM=00:0B48
08:bd26 3c       loop            r12=$002d r15=$bd24
08:bd23 52       add r2          r0=$0b4c
08:bd24 b1       from r1        
08:bd25 30       stw (r0)        SRAM=00:0B4C
08:bd26 3c       loop            r12=$002c r15=$bd24
08:bd23 52       add r2          r0=$0b50
08:bd24 b1       from r1        
08:bd25 30       stw (r0)        SRAM=00:0B50
08:bd26 3c       loop            r12=$002b r15=$bd24
08:bd23 52       add r2          r0=$0b54
08:bd24 b1       from r1        
08:bd25 30       stw (r0)        SRAM=00:0B54
08:bd26 3c       loop            r12=$002a r15=$bd24
08:bd23 52       add r2          r0=$0b58
08:bd24 b1       from r1        
08:bd25 30       stw (r0)        SRAM=00:0B58
08:bd26 3c       loop            r12=$0029 r15=$bd24
08:bd23 52       add r2          r0=$0b5c
08:bd24 b1       from r1        
08:bd25 30       stw (r0)        SRAM=00:0B5C
08:bd26 3c       loop            r12=$0028 r15=$bd24
08:bd23 52       add r2          r0=$0b60
08:bd24 b1       from r1        
08:bd25 30       stw (r0)        SRAM=00:0B60
08:bd26 3c       loop            r12=$0027 r15=$bd24
08:bd23 52       add r2          r0=$0b64
08:bd24 b1       from r1        
08:bd25 30       stw (r0)        SRAM=00:0B64
08:bd26 3c       loop            r12=$0026 r15=$bd24
08:bd23 52       add r2          r0=$0b68
08:bd24 b1       from r1        
08:bd25 30       stw (r0)        SRAM=00:0B68
08:bd26 3c       loop            r12=$0025 r15=$bd24
08:bd23 52       add r2          r0=$0b6c
08:bd24 b1       from r1        
08:bd25 30       stw (r0)        SRAM=00:0B6C
08:bd26 3c       loop            r12=$0024 r15=$bd24
08:bd23 52       add r2          r0=$0b70
08:bd24 b1       from r1        
08:bd25 30       stw (r0)        SRAM=00:0B70
08:bd26 3c       loop            r12=$0023 r15=$bd24
08:bd23 52       add r2          r0=$0b74
08:bd24 b1       from r1        
08:bd25 30       stw (r0)        SRAM=00:0B74
08:bd26 3c       loop            r12=$0022 r15=$bd24
08:bd23 52       add r2          r0=$0b78
08:bd24 b1       from r1        
08:bd25 30       stw (r0)        SRAM=00:0B78
08:bd26 3c       loop            r12=$0021 r15=$bd24
08:bd23 52       add r2          r0=$0b7c
08:bd24 b1       from r1        
08:bd25 30       stw (r0)        SRAM=00:0B7C
08:bd26 3c       loop            r12=$0020 r15=$bd24
08:bd23 52       add r2          r0=$0b80
08:bd24 b1       from r1        
08:bd25 30       stw (r0)        SRAM=00:0B80
08:bd26 3c       loop            r12=$001f r15=$bd24
08:bd23 52       add r2          r0=$0b84
08:bd24 b1       from r1        
08:bd25 30       stw (r0)        SRAM=00:0B84
08:bd26 3c       loop            r12=$001e r15=$bd24
08:bd23 52       add r2          r0=$0b88
08:bd24 b1       from r1        
08:bd25 30       stw (r0)        SRAM=00:0B88
08:bd26 3c       loop            r12=$001d r15=$bd24
08:bd23 52       add r2          r0=$0b8c
08:bd24 b1       from r1        
08:bd25 30       stw (r0)        SRAM=00:0B8C
08:bd26 3c       loop            r12=$001c r15=$bd24
08:bd23 52       add r2          r0=$0b90
08:bd24 b1       from r1        
08:bd25 30       stw (r0)        SRAM=00:0B90
08:bd26 3c       loop            r12=$001b r15=$bd24
08:bd23 52       add r2          r0=$0b94
08:bd24 b1       from r1        
08:bd25 30       stw (r0)        SRAM=00:0B94
08:bd26 3c       loop            r12=$001a r15=$bd24
08:bd23 52       add r2          r0=$0b98
08:bd24 b1       from r1        
08:bd25 30       stw (r0)        SRAM=00:0B98
08:bd26 3c       loop            r12=$0019 r15=$bd24
08:bd23 52       add r2          r0=$0b9c
08:bd24 b1       from r1        
08:bd25 30       stw (r0)        SRAM=00:0B9C
08:bd26 3c       loop            r12=$0018 r15=$bd24
08:bd23 52       add r2          r0=$0ba0
08:bd24 b1       from r1        
08:bd25 30       stw (r0)        SRAM=00:0BA0
08:bd26 3c       loop            r12=$0017 r15=$bd24
08:bd23 52       add r2          r0=$0ba4
08:bd24 b1       from r1        
08:bd25 30       stw (r0)        SRAM=00:0BA4
08:bd26 3c       loop            r12=$0016 r15=$bd24
08:bd23 52       add r2          r0=$0ba8
08:bd24 b1       from r1        
08:bd25 30       stw (r0)        SRAM=00:0BA8
08:bd26 3c       loop            r12=$0015 r15=$bd24
08:bd23 52       add r2          r0=$0bac
08:bd24 b1       from r1        
08:bd25 30       stw (r0)        SRAM=00:0BAC
08:bd26 3c       loop            r12=$0014 r15=$bd24
08:bd23 52       add r2          r0=$0bb0
08:bd24 b1       from r1        
08:bd25 30       stw (r0)        SRAM=00:0BB0
08:bd26 3c       loop            r12=$0013 r15=$bd24
08:bd23 52       add r2          r0=$0bb4
08:bd24 b1       from r1        
08:bd25 30       stw (r0)        SRAM=00:0BB4
08:bd26 3c       loop            r12=$0012 r15=$bd24
08:bd23 52       add r2          r0=$0bb8
08:bd24 b1       from r1        
08:bd25 30       stw (r0)        SRAM=00:0BB8
08:bd26 3c       loop            r12=$0011 r15=$bd24
08:bd23 52       add r2          r0=$0bbc
08:bd24 b1       from r1        
08:bd25 30       stw (r0)        SRAM=00:0BBC
08:bd26 3c       loop            r12=$0010 r15=$bd24
08:bd23 52       add r2          r0=$0bc0
08:bd24 b1       from r1        
08:bd25 30       stw (r0)        SRAM=00:0BC0
08:bd26 3c       loop            r12=$000f r15=$bd24
08:bd23 52       add r2          r0=$0bc4
08:bd24 b1       from r1        
08:bd25 30       stw (r0)        SRAM=00:0BC4
08:bd26 3c       loop            r12=$000e r15=$bd24
08:bd23 52       add r2          r0=$0bc8
08:bd24 b1       from r1        
08:bd25 30       stw (r0)        SRAM=00:0BC8
08:bd26 3c       loop            r12=$000d r15=$bd24
08:bd23 52       add r2          r0=$0bcc
08:bd24 b1       from r1        
08:bd25 30       stw (r0)        SRAM=00:0BCC
08:bd26 3c       loop            r12=$000c r15=$bd24
08:bd23 52       add r2          r0=$0bd0
08:bd24 b1       from r1        
08:bd25 30       stw (r0)        SRAM=00:0BD0
08:bd26 3c       loop            r12=$000b r15=$bd24
08:bd23 52       add r2          r0=$0bd4
08:bd24 b1       from r1        
08:bd25 30       stw (r0)        SRAM=00:0BD4
08:bd26 3c       loop            r12=$000a r15=$bd24
08:bd23 52       add r2          r0=$0bd8
08:bd24 b1       from r1        
08:bd25 30       stw (r0)        SRAM=00:0BD8
08:bd26 3c       loop            r12=$0009 r15=$bd24
08:bd23 52       add r2          r0=$0bdc
08:bd24 b1       from r1        
08:bd25 30       stw (r0)        SRAM=00:0BDC
08:bd26 3c       loop            r12=$0008 r15=$bd24
08:bd23 52       add r2          r0=$0be0
08:bd24 b1       from r1        
08:bd25 30       stw (r0)        SRAM=00:0BE0
08:bd26 3c       loop            r12=$0007 r15=$bd24
08:bd23 52       add r2          r0=$0be4
08:bd24 b1       from r1        
08:bd25 30       stw (r0)        SRAM=00:0BE4
08:bd26 3c       loop            r12=$0006 r15=$bd24
08:bd23 52       add r2          r0=$0be8
08:bd24 b1       from r1        
08:bd25 30       stw (r0)        SRAM=00:0BE8
08:bd26 3c       loop            r12=$0005 r15=$bd24
08:bd23 52       add r2          r0=$0bec
08:bd24 b1       from r1        
08:bd25 30       stw (r0)        SRAM=00:0BEC
08:bd26 3c       loop            r12=$0004 r15=$bd24
08:bd23 52       add r2          r0=$0bf0
08:bd24 b1       from r1        
08:bd25 30       stw (r0)        SRAM=00:0BF0
08:bd26 3c       loop            r12=$0003 r15=$bd24
08:bd23 52       add r2          r0=$0bf4
08:bd24 b1       from r1        
08:bd25 30       stw (r0)        SRAM=00:0BF4
08:bd26 3c       loop            r12=$0002 r15=$bd24
08:bd23 52       add r2          r0=$0bf8
08:bd24 b1       from r1        
08:bd25 30       stw (r0)        SRAM=00:0BF8
08:bd26 3c       loop            r12=$0001 r15=$bd24
08:bd23 52       add r2          r0=$0bfc
08:bd24 b1       from r1        
08:bd25 30       stw (r0)        SRAM=00:0BFC
08:bd26 3c       loop            r12=$0000 Z=1
08:bd27 52       add r2          r0=$0c00 Z=0
08:bd28 20       with r0         B=1
08:bd29 11       move r1,r0      r1=$0c00 B=0
08:bd2a f0 55 55 iwt r0,#$5555   r0=$5555
08:bd2d ac 10    ibt r12,#$10    r12=$0010
08:bd2f 2f       with r15        B=1
08:bd30 1d       move r13,r15    r13=$bd31 B=0
08:bd31 31       stw (r1)        SRAM=00:0C00
08:bd32 d1       inc r1          r1=$0c01
08:bd33 3c       loop            r12=$000f r15=$bd31
08:bd30 d1       inc r1          r1=$0c02
08:bd31 31       stw (r1)        SRAM=00:0C02
08:bd32 d1       inc r1          r1=$0c03
08:bd33 3c       loop            r12=$000e r15=$bd31
08:bd30 d1       inc r1          r1=$0c04
08:bd31 31       stw (r1)        SRAM=00:0C04
08:bd32 d1       inc r1          r1=$0c05
08:bd33 3c       loop            r12=$000d r15=$bd31
08:bd30 d1       inc r1          r1=$0c06
08:bd31 31       stw (r1)        SRAM=00:0C06
08:bd32 d1       inc r1          r1=$0c07
08:bd33 3c       loop            r12=$000c r15=$bd31
08:bd30 d1       inc r1          r1=$0c08
08:bd31 31       stw (r1)        SRAM=00:0C08
08:bd32 d1       inc r1          r1=$0c09
08:bd33 3c       loop            r12=$000b r15=$bd31
08:bd30 d1       inc r1          r1=$0c0a
08:bd31 31       stw (r1)        SRAM=00:0C0A
08:bd32 d1       inc r1          r1=$0c0b
08:bd33 3c       loop            r12=$000a r15=$bd31
08:bd30 d1       inc r1          r1=$0c0c
08:bd31 31       stw (r1)        SRAM=00:0C0C
08:bd32 d1       inc r1          r1=$0c0d
08:bd33 3c       loop            r12=$0009 r15=$bd31
08:bd30 d1       inc r1          r1=$0c0e
08:bd31 31       stw (r1)        SRAM=00:0C0E
08:bd32 d1       inc r1          r1=$0c0f
08:bd33 3c       loop            r12=$0008 r15=$bd31
08:bd30 d1       inc r1          r1=$0c10
08:bd31 31       stw (r1)        SRAM=00:0C10
08:bd32 d1       inc r1          r1=$0c11
08:bd33 3c       loop            r12=$0007 r15=$bd31
08:bd30 d1       inc r1          r1=$0c12
08:bd31 31       stw (r1)        SRAM=00:0C12
08:bd32 d1       inc r1          r1=$0c13
08:bd33 3c       loop            r12=$0006 r15=$bd31
08:bd30 d1       inc r1          r1=$0c14
08:bd31 31       stw (r1)        SRAM=00:0C14
08:bd32 d1       inc r1          r1=$0c15
08:bd33 3c       loop            r12=$0005 r15=$bd31
08:bd30 d1       inc r1          r1=$0c16
08:bd31 31       stw (r1)        SRAM=00:0C16
08:bd32 d1       inc r1          r1=$0c17
08:bd33 3c       loop            r12=$0004 r15=$bd31
08:bd30 d1       inc r1          r1=$0c18
08:bd31 31       stw (r1)        SRAM=00:0C18
08:bd32 d1       inc r1          r1=$0c19
08:bd33 3c       loop            r12=$0003 r15=$bd31
08:bd30 d1       inc r1          r1=$0c1a
08:bd31 31       stw (r1)        SRAM=00:0C1A
08:bd32 d1       inc r1          r1=$0c1b
08:bd33 3c       loop            r12=$0002 r15=$bd31
08:bd30 d1       inc r1          r1=$0c1c
08:bd31 31       stw (r1)        SRAM=00:0C1C
08:bd32 d1       inc r1          r1=$0c1d
08:bd33 3c       loop            r12=$0001 r15=$bd31
08:bd30 d1       inc r1          r1=$0c1e
08:bd31 31       stw (r1)        SRAM=00:0C1E
08:bd32 d1       inc r1          r1=$0c1f
08:bd33 3c       loop            r12=$0000 Z=1
08:bd34 d1       inc r1          r1=$0c20 Z=0
08:bd35 00       stop            G=0
08:bd15 01       nop            
08:bd16 02       cache          
08:bd17 f0 00 0a iwt r0,#$0a00   r0=$0a00
08:bd1a f1 80 f0 iwt r1,#$f080   r1=$f080
08:bd1d a2 04    ibt r2,#$04    
08:bd1f fc 80 00 iwt r12,#$0080  r12=$0080
08:bd22 2f       with r15        B=1
08:bd23 1d       move r13,r15    r13=$bd24 B=0
08:bd24 b1       from r1        
08:bd25 30       stw (r0)        SRAM=00:0A00
08:bd26 3c       loop            r12=$007f r15=$bd24
08:bd23 52       add r2          r0=$0a04
08:bd24 b1       from r1        
08:bd25 30       stw (r0)        SRAM=00:0A04
08:bd26 3c       loop            r12=$007e r15=$bd24
08:bd23 52       add r2          r0=$0a08
08:bd24 b1       from r1        
08:bd25 30       stw (r0)        SRAM=00:0A08
08:bd26 3c       loop            r12=$007d r15=$bd24
08:bd23 52       add r2          r0=$0a0c
08:bd24 b1       from r1        
08:bd25 30       stw (r0)        SRAM=00:0A0C
08:bd26 3c       loop            r12=$007c r15=$bd24
08:bd23 52       add r2          r0=$0a10
08:bd24 b1       from r1        
08:bd25 30       stw (r0)        SRAM=00:0A10
08:bd26 3c       loop            r12=$007b r15=$bd24
08:bd23 52       add r2          r0=$0a14
08:bd24 b1       from r1        
08:bd25 30       stw (r0)        SRAM=00:0A14
08:bd26 3c       loop            r12=$007a r15=$bd24
08:bd23 52       add r2          r0=$0a18
08:bd24 b1       from r1        
08:bd25 30       stw (r0)        SRAM=00:0A18
08:bd26 3c       loop            r12=$0079 r15=$bd24
08:bd23 52       add r2          r0=$0a1c
08:bd24 b1       from r1        
08:bd25 30       stw (r0)        SRAM=00:0A1C
08:bd26 3c       loop            r12=$0078 r15=$bd24
08:bd23 52       add r2          r0=$0a20
08:bd24 b1       from r1        
08:bd25 30       stw (r0)        SRAM=00:0A20
08:bd26 3c       loop            r12=$0077 r15=$bd24
08:bd23 52       add r2          r0=$0a24
08:bd24 b1       from r1        
08:bd25 30       stw (r0)        SRAM=00:0A24
08:bd26 3c       loop            r12=$0076 r15=$bd24
08:bd23 52       add r2          r0=$0a28
08:bd24 b1       from r1        
08:bd25 30       stw (r0)        SRAM=00:0A28
08:bd26 3c       loop            r12=$0075 r15=$bd24
08:bd23 52       add r2          r0=$0a2c
08:bd24 b1       from r1        
08:bd25 30       stw (r0)        SRAM=00:0A2C
08:bd26 3c       loop            r12=$0074 r15=$bd24
08:bd23 52       add r2          r0=$0a30
08:bd24 b1       from r1        
08:bd25 30       stw (r0)        SRAM=00:0A30
08:bd26 3c       loop            r12=$0073 r15=$bd24
08:bd23 52       add r2          r0=$0a34
08:bd24 b1       from r1        
08:bd25 30       stw (r0)        SRAM=00:0A34
08:bd26 3c       loop            r12=$0072 r15=$bd24
08:bd23 52       add r2          r0=$0a38
08:bd24 b1       from r1        
08:bd25 30       stw (r0)        SRAM=00:0A38
08:bd26 3c       loop            r12=$0071 r15=$bd24
08:bd23 52       add r2          r0=$0a3c
08:bd24 b1       from r1        
08:bd25 30       stw (r0)        SRAM=00:0A3C
08:bd26 3c       loop            r12=$0070 r15=$bd24
08:bd23 52       add r2          r0=$0a40
08:bd24 b1       from r1        
08:bd25 30       stw (r0)        SRAM=00:0A40
08:bd26 3c       loop            r12=$006f r15=$bd24
08:bd23 52       add r2          r0=$0a44
08:bd24 b1       from r1        
08:bd25 30       stw (r0)        SRAM=00:0A44
08:bd26 3c       loop            r12=$006e r15=$bd24
08:bd23 52       add r2          r0=$0a48
08:bd24 b1       from r1        
08:bd25 30       stw (r0)        SRAM=00:0A48
08:bd26 3c       loop            r12=$006d r15=$bd24
08:bd23 52       add r2          r0=$0a4c
08:bd24 b1       from r1        
08:bd25 30       stw (r0)        SRAM=00:0A4C
08:bd26 3c       loop            r12=$006c r15=$bd24
08:bd23 52       add r2          r0=$0a50
08:bd24 b1       from r1        
08:bd25 30       stw (r0)        SRAM=00:0A50
08:bd26 3c       loop            r12=$006b r15=$bd24
08:bd23 52       add r2          r0=$0a54
08:bd24 b1       from r1        
08:bd25 30       stw (r0)        SRAM=00:0A54
08:bd26 3c       loop            r12=$006a r15=$bd24
08:bd23 52       add r2          r0=$0a58
08:bd24 b1       from r1        
08:bd25 30       stw (r0)        SRAM=00:0A58
08:bd26 3c       loop            r12=$0069 r15=$bd24
08:bd23 52       add r2          r0=$0a5c
08:bd24 b1       from r1        
08:bd25 30       stw (r0)        SRAM=00:0A5C
08:bd26 3c       loop            r12=$0068 r15=$bd24
08:bd23 52       add r2          r0=$0a60
08:bd24 b1       from r1        
08:bd25 30       stw (r0)        SRAM=00:0A60
08:bd26 3c       loop            r12=$0067 r15=$bd24
08:bd23 52       add r2          r0=$0a64
08:bd24 b1       from r1        
08:bd25 30       stw (r0)        SRAM=00:0A64
08:bd26 3c       loop            r12=$0066 r15=$bd24
08:bd23 52       add r2          r0=$0a68
08:bd24 b1       from r1        
08:bd25 30       stw (r0)        SRAM=00:0A68
08:bd26 3c       loop            r12=$0065 r15=$bd24
08:bd23 52       add r2          r0=$0a6c
08:bd24 b1       from r1        
08:bd25 30       stw (r0)        SRAM=00:0A6C
08:bd26 3c       loop            r12=$0064 r15=$bd24
08:bd23 52       add r2          r0=$0a70
08:bd24 b1       from r1        
08:bd25 30       stw (r0)        SRAM=00:0A70
08:bd26 3c       loop            r12=$0063 r15=$bd24
08:bd23 52       add r2          r0=$0a74
08:bd24 b1       from r1        
08:bd25 30       stw (r0)        SRAM=00:0A74
08:bd26 3c       loop            r12=$0062 r15=$bd24
08:bd23 52       add r2          r0=$0a78
08:bd24 b1       from r1        
08:bd25 30       stw (r0)        SRAM=00:0A78
08:bd26 3c       loop            r12=$0061 r15=$bd24
08:bd23 52       add r2          r0=$0a7c
08:bd24 b1       from r1        
08:bd25 30       stw (r0)        SRAM=00:0A7C
08:bd26 3c       loop            r12=$0060 r15=$bd24
08:bd23 52       add r2          r0=$0a80
08:bd24 b1       from r1        
08:bd25 30       stw (r0)        SRAM=00:0A80
08:bd26 3c       loop            r12=$005f r15=$bd24
08:bd23 52       add r2          r0=$0a84
08:bd24 b1       from r1        
08:bd25 30       stw (r0)        SRAM=00:0A84
08:bd26 3c       loop            r12=$005e r15=$bd24
08:bd23 52       add r2          r0=$0a88
08:bd24 b1       from r1        
08:bd25 30       stw (r0)        SRAM=00:0A88
08:bd26 3c       loop            r12=$005d r15=$bd24
08:bd23 52       add r2          r0=$0a8c
08:bd24 b1       from r1        
08:bd25 30       stw (r0)        SRAM=00:0A8C
08:bd26 3c       loop            r12=$005c r15=$bd24
08:bd23 52       add r2          r0=$0a90
08:bd24 b1       from r1        
08:bd25 30       stw (r0)        SRAM=00:0A90
08:bd26 3c       loop            r12=$005b r15=$bd24
08:bd23 52       add r2          r0=$0a94
08:bd24 b1       from r1        
08:bd25 30       stw (r0)        SRAM=00:0A94
08:bd26 3c       loop            r12=$005a r15=$bd24
08:bd23 52       add r2          r0=$0a98
08:bd24 b1       from r1        
08:bd25 30       stw (r0)        SRAM=00:0A98
08:bd26 3c       loop            r12=$0059 r15=$bd24
08:bd23 52       add r2          r0=$0a9c
08:bd24 b1       from r1        
08:bd25 30       stw (r0)        SRAM=00:0A9C
08:bd26 3c       loop            r12=$0058 r15=$bd24
08:bd23 52       add r2          r0=$0aa0
08:bd24 b1       from r1        
08:bd25 30       stw (r0)        SRAM=00:0AA0
08:bd26 3c       loop            r12=$0057 r15=$bd24
08:bd23 52       add r2          r0=$0aa4
08:bd24 b1       from r1        
08:bd25 30       stw (r0)        SRAM=00:0AA4
08:bd26 3c       loop            r12=$0056 r15=$bd24
08:bd23 52       add r2          r0=$0aa8
08:bd24 b1       from r1        
08:bd25 30       stw (r0)        SRAM=00:0AA8
08:bd26 3c       loop            r12=$0055 r15=$bd24
08:bd23 52       add r2          r0=$0aac
08:bd24 b1       from r1        
08:bd25 30       stw (r0)        SRAM=00:0AAC
08:bd26 3c       loop            r12=$0054 r15=$bd24
08:bd23 52       add r2          r0=$0ab0
08:bd24 b1       from r1        
08:bd25 30       stw (r0)        SRAM=00:0AB0
08:bd26 3c       loop            r12=$0053 r15=$bd24
08:bd23 52       add r2          r0=$0ab4
08:bd24 b1       from r1        
08:bd25 30       stw (r0)        SRAM=00:0AB4
08:bd26 3c       loop            r12=$0052 r15=$bd24
08:bd23 52       add r2          r0=$0ab8
08:bd24 b1       from r1        
08:bd25 30       stw (r0)        SRAM=00:0AB8
08:bd26 3c       loop            r12=$0051 r15=$bd24
08:bd23 52       add r2          r0=$0abc
08:bd24 b1       from r1        
08:bd25 30       stw (r0)        SRAM=00:0ABC
08:bd26 3c       loop            r12=$0050 r15=$bd24
08:bd23 52       add r2          r0=$0ac0
08:bd24 b1       from r1        
08:bd25 30       stw (r0)        SRAM=00:0AC0
08:bd26 3c       loop            r12=$004f r15=$bd24
08:bd23 52       add r2          r0=$0ac4
08:bd24 b1       from r1        
08:bd25 30       stw (r0)        SRAM=00:0AC4
08:bd26 3c       loop            r12=$004e r15=$bd24
08:bd23 52       add r2          r0=$0ac8
08:bd24 b1       from r1        
08:bd25 30       stw (r0)        SRAM=00:0AC8
08:bd26 3c       loop            r12=$004d r15=$bd24
08:bd23 52       add r2          r0=$0acc
08:bd24 b1       from r1        
08:bd25 30       stw (r0)        SRAM=00:0ACC
08:bd26 3c       loop            r12=$004c r15=$bd24
08:bd23 52       add r2          r0=$0ad0
08:bd24 b1       from r1        
08:bd25 30       stw (r0)        SRAM=00:0AD0
08:bd26 3c       loop            r12=$004b r15=$bd24
08:bd23 52       add r2          r0=$0ad4
08:bd24 b1       from r1        
08:bd25 30       stw (r0)        SRAM=00:0AD4
08:bd26 3c       loop            r12=$004a r15=$bd24
08:bd23 52       add r2          r0=$0ad8
08:bd24 b1       from r1        
08:bd25 30       stw (r0)        SRAM=00:0AD8
08:bd26 3c       loop            r12=$0049 r15=$bd24
08:bd23 52       add r2          r0=$0adc
08:bd24 b1       from r1        
08:bd25 30       stw (r0)        SRAM=00:0ADC
08:bd26 3c       loop            r12=$0048 r15=$bd24
08:bd23 52       add r2          r0=$0ae0
08:bd24 b1       from r1        
08:bd25 30       stw (r0)        SRAM=00:0AE0
08:bd26 3c       loop            r12=$0047 r15=$bd24
08:bd23 52       add r2          r0=$0ae4
08:bd24 b1       from r1        
08:bd25 30       stw (r0)        SRAM=00:0AE4
08:bd26 3c       loop            r12=$0046 r15=$bd24
08:bd23 52       add r2          r0=$0ae8
08:bd24 b1       from r1        
08:bd25 30       stw (r0)        SRAM=00:0AE8
08:bd26 3c       loop            r12=$0045 r15=$bd24
08:bd23 52       add r2          r0=$0aec
08:bd24 b1       from r1        
08:bd25 30       stw (r0)        SRAM=00:0AEC
08:bd26 3c       loop            r12=$0044 r15=$bd24
08:bd23 52       add r2          r0=$0af0
08:bd24 b1       from r1        
08:bd25 30       stw (r0)        SRAM=00:0AF0
08:bd26 3c       loop            r12=$0043 r15=$bd24
08:bd23 52       add r2          r0=$0af4
08:bd24 b1       from r1        
08:bd25 30       stw (r0)        SRAM=00:0AF4
08:bd26 3c       loop            r12=$0042 r15=$bd24
08:bd23 52       add r2          r0=$0af8
08:bd24 b1       from r1        
08:bd25 30       stw (r0)        SRAM=00:0AF8
08:bd26 3c       loop            r12=$0041 r15=$bd24
08:bd23 52       add r2          r0=$0afc
08:bd24 b1       from r1        
08:bd25 30       stw (r0)        SRAM=00:0AFC
08:bd26 3c       loop            r12=$0040 r15=$bd24
08:bd23 52       add r2          r0=$0b00
08:bd24 b1       from r1        
08:bd25 30       stw (r0)        SRAM=00:0B00
08:bd26 3c       loop            r12=$003f r15=$bd24
08:bd23 52       add r2          r0=$0b04
08:bd24 b1       from r1        
08:bd25 30       stw (r0)        SRAM=00:0B04
08:bd26 3c       loop            r12=$003e r15=$bd24
08:bd23 52       add r2          r0=$0b08
08:bd24 b1       from r1        
08:bd25 30       stw (r0)        SRAM=00:0B08
08:bd26 3c       loop            r12=$003d r15=$bd24
08:bd23 52       add r2          r0=$0b0c
08:bd24 b1       from r1        
08:bd25 30       stw (r0)        SRAM=00:0B0C
08:bd26 3c       loop            r12=$003c r15=$bd24
08:bd23 52       add r2          r0=$0b10
08:bd24 b1       from r1        
08:bd25 30       stw (r0)        SRAM=00:0B10
08:bd26 3c       loop            r12=$003b r15=$bd24
08:bd23 52       add r2          r0=$0b14
08:bd24 b1       from r1        
08:bd25 30       stw (r0)        SRAM=00:0B14
08:bd26 3c       loop            r12=$003a r15=$bd24
08:bd23 52       add r2          r0=$0b18
08:bd24 b1       from r1        
08:bd25 30       stw (r0)        SRAM=00:0B18
08:bd26 3c       loop            r12=$0039 r15=$bd24
08:bd23 52       add r2          r0=$0b1c
08:bd24 b1       from r1        
08:bd25 30       stw (r0)        SRAM=00:0B1C
08:bd26 3c       loop            r12=$0038 r15=$bd24
08:bd23 52       add r2          r0=$0b20
08:bd24 b1       from r1        
08:bd25 30       stw (r0)        SRAM=00:0B20
08:bd26 3c       loop            r12=$0037 r15=$bd24
08:bd23 52       add r2          r0=$0b24
08:bd24 b1       from r1        
08:bd25 30       stw (r0)        SRAM=00:0B24
08:bd26 3c       loop            r12=$0036 r15=$bd24
08:bd23 52       add r2          r0=$0b28
08:bd24 b1       from r1        
08:bd25 30       stw (r0)        SRAM=00:0B28
08:bd26 3c       loop            r12=$0035 r15=$bd24
08:bd23 52       add r2          r0=$0b2c
08:bd24 b1       from r1        
08:bd25 30       stw (r0)        SRAM=00:0B2C
08:bd26 3c       loop            r12=$0034 r15=$bd24
08:bd23 52       add r2          r0=$0b30
08:bd24 b1       from r1        
08:bd25 30       stw (r0)        SRAM=00:0B30
08:bd26 3c       loop            r12=$0033 r15=$bd24
08:bd23 52       add r2          r0=$0b34
08:bd24 b1       from r1        
08:bd25 30       stw (r0)        SRAM=00:0B34
08:bd26 3c       loop            r12=$0032 r15=$bd24
08:bd23 52       add r2          r0=$0b38
08:bd24 b1       from r1        
08:bd25 30       stw (r0)        SRAM=00:0B38
08:bd26 3c       loop            r12=$0031 r15=$bd24
08:bd23 52       add r2          r0=$0b3c
08:bd24 b1       from r1        
08:bd25 30       stw (r0)        SRAM=00:0B3C
08:bd26 3c       loop            r12=$0030 r15=$bd24
08:bd23 52       add r2          r0=$0b40
08:bd24 b1       from r1        
08:bd25 30       stw (r0)        SRAM=00:0B40
08:bd26 3c       loop            r12=$002f r15=$bd24
08:bd23 52       add r2          r0=$0b44
08:bd24 b1       from r1        
08:bd25 30       stw (r0)        SRAM=00:0B44
08:bd26 3c       loop            r12=$002e r15=$bd24
08:bd23 52       add r2          r0=$0b48
08:bd24 b1       from r1        
08:bd25 30       stw (r0)        SRAM=00:0B48
08:bd26 3c       loop            r12=$002d r15=$bd24
08:bd23 52       add r2          r0=$0b4c
08:bd24 b1       from r1        
08:bd25 30       stw (r0)        SRAM=00:0B4C
08:bd26 3c       loop            r12=$002c r15=$bd24
08:bd23 52       add r2          r0=$0b50
08:bd24 b1       from r1        
08:bd25 30       stw (r0)        SRAM=00:0B50
08:bd26 3c       loop            r12=$002b r15=$bd24
08:bd23 52       add r2          r0=$0b54
08:bd24 b1       from r1        
08:bd25 30       stw (r0)        SRAM=00:0B54
08:bd26 3c       loop            r12=$002a r15=$bd24
08:bd23 52       add r2          r0=$0b58
08:bd24 b1       from r1        
08:bd25 30       stw (r0)        SRAM=00:0B58
08:bd26 3c       loop            r12=$0029 r15=$bd24
08:bd23 52       add r2          r0=$0b5c
08:bd24 b1       from r1        
08:bd25 30       stw (r0)        SRAM=00:0B5C
08:bd26 3c       loop            r12=$0028 r15=$bd24
08:bd23 52       add r2          r0=$0b60
08:bd24 b1       from r1        
08:bd25 30       stw (r0)        SRAM=00:0B60
08:bd26 3c       loop            r12=$0027 r15=$bd24
08:bd23 52       add r2          r0=$0b64
08:bd24 b1       from r1        
08:bd25 30       stw (r0)        SRAM=00:0B64
08:bd26 3c       loop            r12=$0026 r15=$bd24
08:bd23 52       add r2          r0=$0b68
08:bd24 b1       from r1        
08:bd25 30       stw (r0)        SRAM=00:0B68
08:bd26 3c       loop            r12=$0025 r15=$bd24
08:bd23 52       add r2          r0=$0b6c
08:bd24 b1       from r1        
08:bd25 30       stw (r0)        SRAM=00:0B6C
08:bd26 3c       loop            r12=$0024 r15=$bd24
08:bd23 52       add r2          r0=$0b70
08:bd24 b1       from r1        
08:bd25 30       stw (r0)        SRAM=00:0B70
08:bd26 3c       loop            r12=$0023 r15=$bd24
08:bd23 52       add r2          r0=$0b74
08:bd24 b1       from r1        
08:bd25 30       stw (r0)        SRAM=00:0B74
08:bd26 3c       loop            r12=$0022 r15=$bd24
08:bd23 52       add r2          r0=$0b78
08:bd24 b1       from r1        
08:bd25 30       stw (r0)        SRAM=00:0B78
08:bd26 3c       loop            r12=$0021 r15=$bd24
08:bd23 52       add r2          r0=$0b7c
08:bd24 b1       from r1        
08:bd25 30       stw (r0)        SRAM=00:0B7C
08:bd26 3c       loop            r12=$0020 r15=$bd24
08:bd23 52       add r2          r0=$0b80
08:bd24 b1       from r1        
08:bd25 30       stw (r0)        SRAM=00:0B80
08:bd26 3c       loop            r12=$001f r15=$bd24
08:bd23 52       add r2          r0=$0b84
08:bd24 b1       from r1        
08:bd25 30       stw (r0)        SRAM=00:0B84
08:bd26 3c       loop            r12=$001e r15=$bd24
08:bd23 52       add r2          r0=$0b88
08:bd24 b1       from r1        
08:bd25 30       stw (r0)        SRAM=00:0B88
08:bd26 3c       loop            r12=$001d r15=$bd24
08:bd23 52       add r2          r0=$0b8c
08:bd24 b1       from r1        
08:bd25 30       stw (r0)        SRAM=00:0B8C
08:bd26 3c       loop            r12=$001c r15=$bd24
08:bd23 52       add r2          r0=$0b90
08:bd24 b1       from r1        
08:bd25 30       stw (r0)        SRAM=00:0B90
08:bd26 3c       loop            r12=$001b r15=$bd24
08:bd23 52       add r2          r0=$0b94
08:bd24 b1       from r1        
08:bd25 30       stw (r0)        SRAM=00:0B94
08:bd26 3c       loop            r12=$001a r15=$bd24
08:bd23 52       add r2          r0=$0b98
08:bd24 b1       from r1        
08:bd25 30       stw (r0)        SRAM=00:0B98
08:bd26 3c       loop            r12=$0019 r15=$bd24
08:bd23 52       add r2          r0=$0b9c
08:bd24 b1       from r1        
08:bd25 30       stw (r0)        SRAM=00:0B9C
08:bd26 3c       loop            r12=$0018 r15=$bd24
08:bd23 52       add r2          r0=$0ba0
08:bd24 b1       from r1        
08:bd25 30       stw (r0)        SRAM=00:0BA0
08:bd26 3c       loop            r12=$0017 r15=$bd24
08:bd23 52       add r2          r0=$0ba4
08:bd24 b1       from r1        
08:bd25 30       stw (r0)        SRAM=00:0BA4
08:bd26 3c       loop            r12=$0016 r15=$bd24
08:bd23 52       add r2          r0=$0ba8
08:bd24 b1       from r1        
08:bd25 30       stw (r0)        SRAM=00:0BA8
08:bd26 3c       loop            r12=$0015 r15=$bd24
08:bd23 52       add r2          r0=$0bac
08:bd24 b1       from r1        
08:bd25 30       stw (r0)        SRAM=00:0BAC
08:bd26 3c       loop            r12=$0014 r15=$bd24
08:bd23 52       add r2          r0=$0bb0
08:bd24 b1       from r1        
08:bd25 30       stw (r0)        SRAM=00:0BB0
08:bd26 3c       loop            r12=$0013 r15=$bd24
08:bd23 52       add r2          r0=$0bb4
08:bd24 b1       from r1        
08:bd25 30       stw (r0)        SRAM=00:0BB4
08:bd26 3c       loop            r12=$0012 r15=$bd24
08:bd23 52       add r2          r0=$0bb8
08:bd24 b1       from r1        
08:bd25 30       stw (r0)        SRAM=00:0BB8
08:bd26 3c       loop            r12=$0011 r15=$bd24
08:bd23 52       add r2          r0=$0bbc
08:bd24 b1       from r1        
08:bd25 30       stw (r0)        SRAM=00:0BBC
08:bd26 3c       loop            r12=$0010 r15=$bd24
08:bd23 52       add r2          r0=$0bc0
08:bd24 b1       from r1        
08:bd25 30       stw (r0)        SRAM=00:0BC0
08:bd26 3c       loop            r12=$000f r15=$bd24
08:bd23 52       add r2          r0=$0bc4
08:bd24 b1       from r1        
08:bd25 30       stw (r0)        SRAM=00:0BC4
08:bd26 3c       loop            r12=$000e r15=$bd24
08:bd23 52       add r2          r0=$0bc8
08:bd24 b1       from r1        
08:bd25 30       stw (r0)        SRAM=00:0BC8
08:bd26 3c       loop            r12=$000d r15=$bd24
08:bd23 52       add r2          r0=$0bcc
08:bd24 b1       from r1        
08:bd25 30       stw (r0)        SRAM=00:0BCC
08:bd26 3c       loop            r12=$000c r15=$bd24
08:bd23 52       add r2          r0=$0bd0
08:bd24 b1       from r1        
08:bd25 30       stw (r0)        SRAM=00:0BD0
08:bd26 3c       loop            r12=$000b r15=$bd24
08:bd23 52       add r2          r0=$0bd4
08:bd24 b1       from r1        
08:bd25 30       stw (r0)        SRAM=00:0BD4
08:bd26 3c       loop            r12=$000a r15=$bd24
08:bd23 52       add r2          r0=$0bd8
08:bd24 b1       from r1        
08:bd25 30       stw (r0)        SRAM=00:0BD8
08:bd26 3c       loop            r12=$0009 r15=$bd24
08:bd23 52       add r2          r0=$0bdc
08:bd24 b1       from r1        
08:bd25 30       stw (r0)        SRAM=00:0BDC
08:bd26 3c       loop            r12=$0008 r15=$bd24
08:bd23 52       add r2          r0=$0be0
08:bd24 b1       from r1        
08:bd25 30       stw (r0)        SRAM=00:0BE0
08:bd26 3c       loop            r12=$0007 r15=$bd24
08:bd23 52       add r2          r0=$0be4
08:bd24 b1       from r1        
08:bd25 30       stw (r0)        SRAM=00:0BE4
08:bd26 3c       loop            r12=$0006 r15=$bd24
08:bd23 52       add r2          r0=$0be8
08:bd24 b1       from r1        
08:bd25 30       stw (r0)        SRAM=00:0BE8
08:bd26 3c       loop            r12=$0005 r15=$bd24
08:bd23 52       add r2          r0=$0bec
08:bd24 b1       from r1        
08:bd25 30       stw (r0)        SRAM=00:0BEC
08:bd26 3c       loop            r12=$0004 r15=$bd24
08:bd23 52       add r2          r0=$0bf0
08:bd24 b1       from r1        
08:bd25 30       stw (r0)        SRAM=00:0BF0
08:bd26 3c       loop            r12=$0003 r15=$bd24
08:bd23 52       add r2          r0=$0bf4
08:bd24 b1       from r1        
08:bd25 30       stw (r0)        SRAM=00:0BF4
08:bd26 3c       loop            r12=$0002 r15=$bd24
08:bd23 52       add r2          r0=$0bf8
08:bd24 b1       from r1        
08:bd25 30       stw (r0)        SRAM=00:0BF8
08:bd26 3c       loop            r12=$0001 r15=$bd24
08:bd23 52       add r2          r0=$0bfc
08:bd24 b1       from r1        
08:bd25 30       stw (r0)        SRAM=00:0BFC
08:bd26 3c       loop            r12=$0000 Z=1
08:bd27 52       add r2          r0=$0c00 Z=0
08:bd28 20       with r0         B=1
08:bd29 11       move r1,r0      r1=$0c00 B=0
08:bd2a f0 55 55 iwt r0,#$5555   r0=$5555
08:bd2d ac 10    ibt r12,#$10    r12=$0010
08:bd2f 2f       with r15        B=1
08:bd30 1d       move r13,r15    r13=$bd31 B=0
08:bd31 31       stw (r1)        SRAM=00:0C00
08:bd32 d1       inc r1          r1=$0c01
08:bd33 3c       loop            r12=$000f r15=$bd31
08:bd30 d1       inc r1          r1=$0c02
08:bd31 31       stw (r1)        SRAM=00:0C02
08:bd32 d1       inc r1          r1=$0c03
08:bd33 3c       loop            r12=$000e r15=$bd31
08:bd30 d1       inc r1          r1=$0c04
08:bd31 31       stw (r1)        SRAM=00:0C04
08:bd32 d1       inc r1          r1=$0c05
08:bd33 3c       loop            r12=$000d r15=$bd31
08:bd30 d1       inc r1          r1=$0c06
08:bd31 31       stw (r1)        SRAM=00:0C06
08:bd32 d1       inc r1          r1=$0c07
08:bd33 3c       loop            r12=$000c r15=$bd31
08:bd30 d1       inc r1          r1=$0c08
08:bd31 31       stw (r1)        SRAM=00:0C08
08:bd32 d1       inc r1          r1=$0c09
08:bd33 3c       loop            r12=$000b r15=$bd31
08:bd30 d1       inc r1          r1=$0c0a
08:bd31 31       stw (r1)        SRAM=00:0C0A
08:bd32 d1       inc r1          r1=$0c0b
08:bd33 3c       loop            r12=$000a r15=$bd31
08:bd30 d1       inc r1          r1=$0c0c
08:bd31 31       stw (r1)        SRAM=00:0C0C
08:bd32 d1       inc r1          r1=$0c0d
08:bd33 3c       loop            r12=$0009 r15=$bd31
08:bd30 d1       inc r1          r1=$0c0e
08:bd31 31       stw (r1)        SRAM=00:0C0E
08:bd32 d1       inc r1          r1=$0c0f
08:bd33 3c       loop            r12=$0008 r15=$bd31
08:bd30 d1       inc r1          r1=$0c10
08:bd31 31       stw (r1)        SRAM=00:0C10
08:bd32 d1       inc r1          r1=$0c11
08:bd33 3c       loop            r12=$0007 r15=$bd31
08:bd30 d1       inc r1          r1=$0c12
08:bd31 31       stw (r1)        SRAM=00:0C12
08:bd32 d1       inc r1          r1=$0c13
08:bd33 3c       loop            r12=$0006 r15=$bd31
08:bd30 d1       inc r1          r1=$0c14
08:bd31 31       stw (r1)        SRAM=00:0C14
08:bd32 d1       inc r1          r1=$0c15
08:bd33 3c       loop            r12=$0005 r15=$bd31
08:bd30 d1       inc r1          r1=$0c16
08:bd31 31       stw (r1)        SRAM=00:0C16
08:bd32 d1       inc r1          r1=$0c17
08:bd33 3c       loop            r12=$0004 r15=$bd31
08:bd30 d1       inc r1          r1=$0c18
08:bd31 31       stw (r1)        SRAM=00:0C18
08:bd32 d1       inc r1          r1=$0c19
08:bd33 3c       loop            r12=$0003 r15=$bd31
08:bd30 d1       inc r1          r1=$0c1a
08:bd31 31       stw (r1)        SRAM=00:0C1A
08:bd32 d1       inc r1          r1=$0c1b
08:bd33 3c       loop            r12=$0002 r15=$bd31
08:bd30 d1       inc r1          r1=$0c1c
08:bd31 31       stw (r1)        SRAM=00:0C1C
08:bd32 d1       inc r1          r1=$0c1d
08:bd33 3c       loop            r12=$0001 r15=$bd31
08:bd30 d1       inc r1          r1=$0c1e
08:bd31 31       stw (r1)        SRAM=00:0C1E
08:bd32 d1       inc r1          r1=$0c1f
08:bd33 3c       loop            r12=$0000 Z=1
08:bd34 d1       inc r1          r1=$0c20 Z=0
08:bd35 00       stop            G=0
08:bd15 01       nop            
08:bd16 02       cache          
08:bd17 f0 00 0a iwt r0,#$0a00   r0=$0a00
08:bd1a f1 80 f0 iwt r1,#$f080   r1=$f080
08:bd1d a2 04    ibt r2,#$04    
08:bd1f fc 80 00 iwt r12,#$0080  r12=$0080
08:bd22 2f       with r15        B=1
08:bd23 1d       move r13,r15    r13=$bd24 B=0
08:bd24 b1       from r1        
08:bd25 30       stw (r0)        SRAM=00:0A00
08:bd26 3c       loop            r12=$007f r15=$bd24
08:bd23 52       add r2          r0=$0a04
08:bd24 b1       from r1        
08:bd25 30       stw (r0)        SRAM=00:0A04
08:bd26 3c       loop            r12=$007e r15=$bd24
08:bd23 52       add r2          r0=$0a08
08:bd24 b1       from r1        
08:bd25 30       stw (r0)        SRAM=00:0A08
08:bd26 3c       loop            r12=$007d r15=$bd24
08:bd23 52       add r2          r0=$0a0c
08:bd24 b1       from r1        
08:bd25 30       stw (r0)        SRAM=00:0A0C
08:bd26 3c       loop            r12=$007c r15=$bd24
08:bd23 52       add r2          r0=$0a10
08:bd24 b1       from r1        
08:bd25 30       stw (r0)        SRAM=00:0A10
08:bd26 3c       loop            r12=$007b r15=$bd24
08:bd23 52       add r2          r0=$0a14
08:bd24 b1       from r1        
08:bd25 30       stw (r0)        SRAM=00:0A14
08:bd26 3c       loop            r12=$007a r15=$bd24
08:bd23 52       add r2          r0=$0a18
08:bd24 b1       from r1        
08:bd25 30       stw (r0)        SRAM=00:0A18
08:bd26 3c       loop            r12=$0079 r15=$bd24
08:bd23 52       add r2          r0=$0a1c
08:bd24 b1       from r1        
08:bd25 30       stw (r0)        SRAM=00:0A1C
08:bd26 3c       loop            r12=$0078 r15=$bd24
08:bd23 52       add r2          r0=$0a20
08:bd24 b1       from r1        
08:bd25 30       stw (r0)        SRAM=00:0A20
08:bd26 3c       loop            r12=$0077 r15=$bd24
08:bd23 52       add r2          r0=$0a24
08:bd24 b1       from r1        
08:bd25 30       stw (r0)        SRAM=00:0A24
08:bd26 3c       loop            r12=$0076 r15=$bd24
08:bd23 52       add r2          r0=$0a28
08:bd24 b1       from r1        
08:bd25 30       stw (r0)        SRAM=00:0A28
08:bd26 3c       loop            r12=$0075 r15=$bd24
08:bd23 52       add r2          r0=$0a2c
08:bd24 b1       from r1        
08:bd25 30       stw (r0)        SRAM=00:0A2C
08:bd26 3c       loop            r12=$0074 r15=$bd24
08:bd23 52       add r2          r0=$0a30
08:bd24 b1       from r1        
08:bd25 30       stw (r0)        SRAM=00:0A30
08:bd26 3c       loop            r12=$0073 r15=$bd24
08:bd23 52       add r2          r0=$0a34
08:bd24 b1       from r1        
08:bd25 30       stw (r0)        SRAM=00:0A34
08:bd26 3c       loop            r12=$0072 r15=$bd24
08:bd23 52       add r2          r0=$0a38
08:bd24 b1       from r1        
08:bd25 30       stw (r0)        SRAM=00:0A38
08:bd26 3c       loop            r12=$0071 r15=$bd24
08:bd23 52       add r2          r0=$0a3c
08:bd24 b1       from r1        
08:bd25 30       stw (r0)        SRAM=00:0A3C
08:bd26 3c       loop            r12=$0070 r15=$bd24
08:bd23 52       add r2          r0=$0a40
08:bd24 b1       from r1        
08:bd25 30       stw (r0)        SRAM=00:0A40
08:bd26 3c       loop            r12=$006f r15=$bd24
08:bd23 52       add r2          r0=$0a44
08:bd24 b1       from r1        
08:bd25 30       stw (r0)        SRAM=00:0A44
08:bd26 3c       loop            r12=$006e r15=$bd24
08:bd23 52       add r2          r0=$0a48
08:bd24 b1       from r1        
08:bd25 30       stw (r0)        SRAM=00:0A48
08:bd26 3c       loop            r12=$006d r15=$bd24
08:bd23 52       add r2          r0=$0a4c
08:bd24 b1       from r1        
08:bd25 30       stw (r0)        SRAM=00:0A4C
08:bd26 3c       loop            r12=$006c r15=$bd24
08:bd23 52       add r2          r0=$0a50
08:bd24 b1       from r1        
08:bd25 30       stw (r0)        SRAM=00:0A50
08:bd26 3c       loop            r12=$006b r15=$bd24
08:bd23 52       add r2          r0=$0a54
08:bd24 b1       from r1        
08:bd25 30       stw (r0)        SRAM=00:0A54
08:bd26 3c       loop            r12=$006a r15=$bd24
08:bd23 52       add r2          r0=$0a58
08:bd24 b1       from r1        
08:bd25 30       stw (r0)        SRAM=00:0A58
08:bd26 3c       loop            r12=$0069 r15=$bd24
08:bd23 52       add r2          r0=$0a5c
08:bd24 b1       from r1        
08:bd25 30       stw (r0)        SRAM=00:0A5C
08:bd26 3c       loop            r12=$0068 r15=$bd24
08:bd23 52       add r2          r0=$0a60
08:bd24 b1       from r1        
08:bd25 30       stw (r0)        SRAM=00:0A60
08:bd26 3c       loop            r12=$0067 r15=$bd24
08:bd23 52       add r2          r0=$0a64
08:bd24 b1       from r1        
08:bd25 30       stw (r0)        SRAM=00:0A64
08:bd26 3c       loop            r12=$0066 r15=$bd24
08:bd23 52       add r2          r0=$0a68
08:bd24 b1       from r1        
08:bd25 30       stw (r0)        SRAM=00:0A68
08:bd26 3c       loop            r12=$0065 r15=$bd24
08:bd23 52       add r2          r0=$0a6c
08:bd24 b1       from r1        
08:bd25 30       stw (r0)        SRAM=00:0A6C
08:bd26 3c       loop            r12=$0064 r15=$bd24
08:bd23 52       add r2          r0=$0a70
08:bd24 b1       from r1        
08:bd25 30       stw (r0)        SRAM=00:0A70
08:bd26 3c       loop            r12=$0063 r15=$bd24
08:bd23 52       add r2          r0=$0a74
08:bd24 b1       from r1        
08:bd25 30       stw (r0)        SRAM=00:0A74
08:bd26 3c       loop            r12=$0062 r15=$bd24
08:bd23 52       add r2          r0=$0a78
08:bd24 b1       from r1        
08:bd25 30       stw (r0)        SRAM=00:0A78
08:bd26 3c       loop            r12=$0061 r15=$bd24
08:bd23 52       add r2          r0=$0a7c
08:bd24 b1       from r1        
08:bd25 30       stw (r0)        SRAM=00:0A7C
08:bd26 3c       loop            r12=$0060 r15=$bd24
08:bd23 52       add r2          r0=$0a80
08:bd24 b1       from r1        
08:bd25 30       stw (r0)        SRAM=00:0A80
08:bd26 3c       loop            r12=$005f r15=$bd24
08:bd23 52       add r2          r0=$0a84
08:bd24 b1       from r1        
08:bd25 30       stw (r0)        SRAM=00:0A84
08:bd26 3c       loop            r12=$005e r15=$bd24
08:bd23 52       add r2          r0=$0a88
08:bd24 b1       from r1        
08:bd25 30       stw (r0)        SRAM=00:0A88
08:bd26 3c       loop            r12=$005d r15=$bd24
08:bd23 52       add r2          r0=$0a8c
08:bd24 b1       from r1        
08:bd25 30       stw (r0)        SRAM=00:0A8C
08:bd26 3c       loop            r12=$005c r15=$bd24
08:bd23 52       add r2          r0=$0a90
08:bd24 b1       from r1        
08:bd25 30       stw (r0)        SRAM=00:0A90
08:bd26 3c       loop            r12=$005b r15=$bd24
08:bd23 52       add r2          r0=$0a94
08:bd24 b1       from r1        
08:bd25 30       stw (r0)        SRAM=00:0A94
08:bd26 3c       loop            r12=$005a r15=$bd24
08:bd23 52       add r2          r0=$0a98
08:bd24 b1       from r1        
08:bd25 30       stw (r0)        SRAM=00:0A98
08:bd26 3c       loop            r12=$0059 r15=$bd24
08:bd23 52       add r2          r0=$0a9c
08:bd24 b1       from r1        
08:bd25 30       stw (r0)        SRAM=00:0A9C
08:bd26 3c       loop            r12=$0058 r15=$bd24
08:bd23 52       add r2          r0=$0aa0
08:bd24 b1       from r1        
08:bd25 30       stw (r0)        SRAM=00:0AA0
08:bd26 3c       loop            r12=$0057 r15=$bd24
08:bd23 52       add r2          r0=$0aa4
08:bd24 b1       from r1        
08:bd25 30       stw (r0)        SRAM=00:0AA4
08:bd26 3c       loop            r12=$0056 r15=$bd24
08:bd23 52       add r2          r0=$0aa8
08:bd24 b1       from r1        
08:bd25 30       stw (r0)        SRAM=00:0AA8
08:bd26 3c       loop            r12=$0055 r15=$bd24
08:bd23 52       add r2          r0=$0aac
08:bd24 b1       from r1        
08:bd25 30       stw (r0)        SRAM=00:0AAC
08:bd26 3c       loop            r12=$0054 r15=$bd24
08:bd23 52       add r2          r0=$0ab0
08:bd24 b1       from r1        
08:bd25 30       stw (r0)        SRAM=00:0AB0
08:bd26 3c       loop            r12=$0053 r15=$bd24
08:bd23 52       add r2          r0=$0ab4
08:bd24 b1       from r1        
08:bd25 30       stw (r0)        SRAM=00:0AB4
08:bd26 3c       loop            r12=$0052 r15=$bd24
08:bd23 52       add r2          r0=$0ab8
08:bd24 b1       from r1        
08:bd25 30       stw (r0)        SRAM=00:0AB8
08:bd26 3c       loop            r12=$0051 r15=$bd24
08:bd23 52       add r2          r0=$0abc
08:bd24 b1       from r1        
08:bd25 30       stw (r0)        SRAM=00:0ABC
08:bd26 3c       loop            r12=$0050 r15=$bd24
08:bd23 52       add r2          r0=$0ac0
08:bd24 b1       from r1        
08:bd25 30       stw (r0)        SRAM=00:0AC0
08:bd26 3c       loop            r12=$004f r15=$bd24
08:bd23 52       add r2          r0=$0ac4
08:bd24 b1       from r1        
08:bd25 30       stw (r0)        SRAM=00:0AC4
08:bd26 3c       loop            r12=$004e r15=$bd24
08:bd23 52       add r2          r0=$0ac8
08:bd24 b1       from r1        
08:bd25 30       stw (r0)        SRAM=00:0AC8
08:bd26 3c       loop            r12=$004d r15=$bd24
08:bd23 52       add r2          r0=$0acc
08:bd24 b1       from r1        
08:bd25 30       stw (r0)        SRAM=00:0ACC
08:bd26 3c       loop            r12=$004c r15=$bd24
08:bd23 52       add r2          r0=$0ad0
08:bd24 b1       from r1        
08:bd25 30       stw (r0)        SRAM=00:0AD0
08:bd26 3c       loop            r12=$004b r15=$bd24
08:bd23 52       add r2          r0=$0ad4
08:bd24 b1       from r1        
08:bd25 30       stw (r0)        SRAM=00:0AD4
08:bd26 3c       loop            r12=$004a r15=$bd24
08:bd23 52       add r2          r0=$0ad8
08:bd24 b1       from r1        
08:bd25 30       stw (r0)        SRAM=00:0AD8
08:bd26 3c       loop            r12=$0049 r15=$bd24
08:bd23 52       add r2          r0=$0adc
08:bd24 b1       from r1        
08:bd25 30       stw (r0)        SRAM=00:0ADC
08:bd26 3c       loop            r12=$0048 r15=$bd24
08:bd23 52       add r2          r0=$0ae0
08:bd24 b1       from r1        
08:bd25 30       stw (r0)        SRAM=00:0AE0
08:bd26 3c       loop            r12=$0047 r15=$bd24
08:bd23 52       add r2          r0=$0ae4
08:bd24 b1       from r1        
08:bd25 30       stw (r0)        SRAM=00:0AE4
08:bd26 3c       loop            r12=$0046 r15=$bd24
08:bd23 52       add r2          r0=$0ae8
08:bd24 b1       from r1        
08:bd25 30       stw (r0)        SRAM=00:0AE8
08:bd26 3c       loop            r12=$0045 r15=$bd24
08:bd23 52       add r2          r0=$0aec
08:bd24 b1       from r1        
08:bd25 30       stw (r0)        SRAM=00:0AEC
08:bd26 3c       loop            r12=$0044 r15=$bd24
08:bd23 52       add r2          r0=$0af0
08:bd24 b1       from r1        
08:bd25 30       stw (r0)        SRAM=00:0AF0
08:bd26 3c       loop            r12=$0043 r15=$bd24
08:bd23 52       add r2          r0=$0af4
08:bd24 b1       from r1        
08:bd25 30       stw (r0)        SRAM=00:0AF4
08:bd26 3c       loop            r12=$0042 r15=$bd24
08:bd23 52       add r2          r0=$0af8
08:bd24 b1       from r1        
08:bd25 30       stw (r0)        SRAM=00:0AF8
08:bd26 3c       loop            r12=$0041 r15=$bd24
08:bd23 52       add r2          r0=$0afc
08:bd24 b1       from r1        
08:bd25 30       stw (r0)        SRAM=00:0AFC
08:bd26 3c       loop            r12=$0040 r15=$bd24
08:bd23 52       add r2          r0=$0b00
08:bd24 b1       from r1        
08:bd25 30       stw (r0)        SRAM=00:0B00
08:bd26 3c       loop            r12=$003f r15=$bd24
08:bd23 52       add r2          r0=$0b04
08:bd24 b1       from r1        
08:bd25 30       stw (r0)        SRAM=00:0B04
08:bd26 3c       loop            r12=$003e r15=$bd24
08:bd23 52       add r2          r0=$0b08
08:bd24 b1       from r1        
08:bd25 30       stw (r0)        SRAM=00:0B08
08:bd26 3c       loop            r12=$003d r15=$bd24
08:bd23 52       add r2          r0=$0b0c
08:bd24 b1       from r1        
08:bd25 30       stw (r0)        SRAM=00:0B0C
08:bd26 3c       loop            r12=$003c r15=$bd24
08:bd23 52       add r2          r0=$0b10
08:bd24 b1       from r1        
08:bd25 30       stw (r0)        SRAM=00:0B10
08:bd26 3c       loop            r12=$003b r15=$bd24
08:bd23 52       add r2          r0=$0b14
08:bd24 b1       from r1        
08:bd25 30       stw (r0)        SRAM=00:0B14
08:bd26 3c       loop            r12=$003a r15=$bd24
08:bd23 52       add r2          r0=$0b18
08:bd24 b1       from r1        
08:bd25 30       stw (r0)        SRAM=00:0B18
08:bd26 3c       loop            r12=$0039 r15=$bd24
08:bd23 52       add r2          r0=$0b1c
08:bd24 b1       from r1        
08:bd25 30       stw (r0)        SRAM=00:0B1C
08:bd26 3c       loop            r12=$0038 r15=$bd24
08:bd23 52       add r2          r0=$0b20
08:bd24 b1       from r1        
08:bd25 30       stw (r0)        SRAM=00:0B20
08:bd26 3c       loop            r12=$0037 r15=$bd24
08:bd23 52       add r2          r0=$0b24
08:bd24 b1       from r1        
08:bd25 30       stw (r0)        SRAM=00:0B24
08:bd26 3c       loop            r12=$0036 r15=$bd24
08:bd23 52       add r2          r0=$0b28
08:bd24 b1       from r1        
08:bd25 30       stw (r0)        SRAM=00:0B28
08:bd26 3c       loop            r12=$0035 r15=$bd24
08:bd23 52       add r2          r0=$0b2c
08:bd24 b1       from r1        
08:bd25 30       stw (r0)        SRAM=00:0B2C
08:bd26 3c       loop            r12=$0034 r15=$bd24
08:bd23 52       add r2          r0=$0b30
08:bd24 b1       from r1        
08:bd25 30       stw (r0)        SRAM=00:0B30
08:bd26 3c       loop            r12=$0033 r15=$bd24
08:bd23 52       add r2          r0=$0b34
08:bd24 b1       from r1        
08:bd25 30       stw (r0)        SRAM=00:0B34
08:bd26 3c       loop            r12=$0032 r15=$bd24
08:bd23 52       add r2          r0=$0b38
08:bd24 b1       from r1        
08:bd25 30       stw (r0)        SRAM=00:0B38
08:bd26 3c       loop            r12=$0031 r15=$bd24
08:bd23 52       add r2          r0=$0b3c
08:bd24 b1       from r1        
08:bd25 30       stw (r0)        SRAM=00:0B3C
08:bd26 3c       loop            r12=$0030 r15=$bd24
08:bd23 52       add r2          r0=$0b40
08:bd24 b1       from r1        
08:bd25 30       stw (r0)        SRAM=00:0B40
08:bd26 3c       loop            r12=$002f r15=$bd24
08:bd23 52       add r2          r0=$0b44
08:bd24 b1       from r1        
08:bd25 30       stw (r0)        SRAM=00:0B44
08:bd26 3c       loop            r12=$002e r15=$bd24
08:bd23 52       add r2          r0=$0b48
08:bd24 b1       from r1        
08:bd25 30       stw (r0)        SRAM=00:0B48
08:bd26 3c       loop            r12=$002d r15=$bd24
08:bd23 52       add r2          r0=$0b4c
08:bd24 b1       from r1        
08:bd25 30       stw (r0)        SRAM=00:0B4C
08:bd26 3c       loop            r12=$002c r15=$bd24
08:bd23 52       add r2          r0=$0b50
08:bd24 b1       from r1        
08:bd25 30       stw (r0)        SRAM=00:0B50
08:bd26 3c       loop            r12=$002b r15=$bd24
08:bd23 52       add r2          r0=$0b54
08:bd24 b1       from r1        
08:bd25 30       stw (r0)        SRAM=00:0B54
08:bd26 3c       loop            r12=$002a r15=$bd24
08:bd23 52       add r2          r0=$0b58
08:bd24 b1       from r1        
08:bd25 30       stw (r0)        SRAM=00:0B58
08:bd26 3c       loop            r12=$0029 r15=$bd24
08:bd23 52       add r2          r0=$0b5c
08:bd24 b1       from r1        
08:bd25 30       stw (r0)        SRAM=00:0B5C
08:bd26 3c       loop            r12=$0028 r15=$bd24
08:bd23 52       add r2          r0=$0b60
08:bd24 b1       from r1        
08:bd25 30       stw (r0)        SRAM=00:0B60
08:bd26 3c       loop            r12=$0027 r15=$bd24
08:bd23 52       add r2          r0=$0b64
08:bd24 b1       from r1        
08:bd25 30       stw (r0)        SRAM=00:0B64
08:bd26 3c       loop            r12=$0026 r15=$bd24
08:bd23 52       add r2          r0=$0b68
08:bd24 b1       from r1        
08:bd25 30       stw (r0)        SRAM=00:0B68
08:bd26 3c       loop            r12=$0025 r15=$bd24
08:bd23 52       add r2          r0=$0b6c
08:bd24 b1       from r1        
08:bd25 30       stw (r0)        SRAM=00:0B6C
08:bd26 3c       loop            r12=$0024 r15=$bd24
08:bd23 52       add r2          r0=$0b70
08:bd24 b1       from r1        
08:bd25 30       stw (r0)        SRAM=00:0B70
08:bd26 3c       loop            r12=$0023 r15=$bd24
08:bd23 52       add r2          r0=$0b74
08:bd24 b1       from r1        
08:bd25 30       stw (r0)        SRAM=00:0B74
08:bd26 3c       loop            r12=$0022 r15=$bd24
08:bd23 52       add r2          r0=$0b78
08:bd24 b1       from r1        
08:bd25 30       stw (r0)        SRAM=00:0B78
08:bd26 3c       loop            r12=$0021 r15=$bd24
08:bd23 52       add r2          r0=$0b7c
08:bd24 b1       from r1        
08:bd25 30       stw (r0)        SRAM=00:0B7C
08:bd26 3c       loop            r12=$0020 r15=$bd24
08:bd23 52       add r2          r0=$0b80
08:bd24 b1       from r1        
08:bd25 30       stw (r0)        SRAM=00:0B80
08:bd26 3c       loop            r12=$001f r15=$bd24
08:bd23 52       add r2          r0=$0b84
08:bd24 b1       from r1        
08:bd25 30       stw (r0)        SRAM=00:0B84
08:bd26 3c       loop            r12=$001e r15=$bd24
08:bd23 52       add r2          r0=$0b88
08:bd24 b1       from r1        
08:bd25 30       stw (r0)        SRAM=00:0B88
08:bd26 3c       loop            r12=$001d r15=$bd24
08:bd23 52       add r2          r0=$0b8c
08:bd24 b1       from r1        
08:bd25 30       stw (r0)        SRAM=00:0B8C
08:bd26 3c       loop            r12=$001c r15=$bd24
08:bd23 52       add r2          r0=$0b90
08:bd24 b1       from r1        
08:bd25 30       stw (r0)        SRAM=00:0B90
08:bd26 3c       loop            r12=$001b r15=$bd24
08:bd23 52       add r2          r0=$0b94
08:bd24 b1       from r1        
08:bd25 30       stw (r0)        SRAM=00:0B94
08:bd26 3c       loop            r12=$001a r15=$bd24
08:bd23 52       add r2          r0=$0b98
08:bd24 b1       from r1        
08:bd25 30       stw (r0)        SRAM=00:0B98
08:bd26 3c       loop            r12=$0019 r15=$bd24
08:bd23 52       add r2          r0=$0b9c
08:bd24 b1       from r1        
08:bd25 30       stw (r0)        SRAM=00:0B9C
08:bd26 3c       loop            r12=$0018 r15=$bd24
08:bd23 52       add r2          r0=$0ba0
08:bd24 b1       from r1        
08:bd25 30       stw (r0)        SRAM=00:0BA0
08:bd26 3c       loop            r12=$0017 r15=$bd24
08:bd23 52       add r2          r0=$0ba4
08:bd24 b1       from r1        
08:bd25 30       stw (r0)        SRAM=00:0BA4
08:bd26 3c       loop            r12=$0016 r15=$bd24
08:bd23 52       add r2          r0=$0ba8
08:bd24 b1       from r1        
08:bd25 30       stw (r0)        SRAM=00:0BA8
08:bd26 3c       loop            r12=$0015 r15=$bd24
08:bd23 52       add r2          r0=$0bac
08:bd24 b1       from r1        
08:bd25 30       stw (r0)        SRAM=00:0BAC
08:bd26 3c       loop            r12=$0014 r15=$bd24
08:bd23 52       add r2          r0=$0bb0
08:bd24 b1       from r1        
08:bd25 30       stw (r0)        SRAM=00:0BB0
08:bd26 3c       loop            r12=$0013 r15=$bd24
08:bd23 52       add r2          r0=$0bb4
08:bd24 b1       from r1        
08:bd25 30       stw (r0)        SRAM=00:0BB4
08:bd26 3c       loop            r12=$0012 r15=$bd24
08:bd23 52       add r2          r0=$0bb8
08:bd24 b1       from r1        
08:bd25 30       stw (r0)        SRAM=00:0BB8
08:bd26 3c       loop            r12=$0011 r15=$bd24
08:bd23 52       add r2          r0=$0bbc
08:bd24 b1       from r1        
08:bd25 30       stw (r0)        SRAM=00:0BBC
08:bd26 3c       loop            r12=$0010 r15=$bd24
08:bd23 52       add r2          r0=$0bc0
08:bd24 b1       from r1        
08:bd25 30       stw (r0)        SRAM=00:0BC0
08:bd26 3c       loop            r12=$000f r15=$bd24
08:bd23 52       add r2          r0=$0bc4
08:bd24 b1       from r1        
08:bd25 30       stw (r0)        SRAM=00:0BC4
08:bd26 3c       loop            r12=$000e r15=$bd24
08:bd23 52       add r2          r0=$0bc8
08:bd24 b1       from r1        
08:bd25 30       stw (r0)        SRAM=00:0BC8
08:bd26 3c       loop            r12=$000d r15=$bd24
08:bd23 52       add r2          r0=$0bcc
08:bd24 b1       from r1        
08:bd25 30       stw (r0)        SRAM=00:0BCC
08:bd26 3c       loop            r12=$000c r15=$bd24
08:bd23 52       add r2          r0=$0bd0
08:bd24 b1       from r1        
08:bd25 30       stw (r0)        SRAM=00:0BD0
08:bd26 3c       loop            r12=$000b r15=$bd24
08:bd23 52       add r2          r0=$0bd4
08:bd24 b1       from r1        
08:bd25 30       stw (r0)        SRAM=00:0BD4
08:bd26 3c       loop            r12=$000a r15=$bd24
08:bd23 52       add r2          r0=$0bd8
08:bd24 b1       from r1        
08:bd25 30       stw (r0)        SRAM=00:0BD8
08:bd26 3c       loop            r12=$0009 r15=$bd24
08:bd23 52       add r2          r0=$0bdc
08:bd24 b1       from r1        
08:bd25 30       stw (r0)        SRAM=00:0BDC
08:bd26 3c       loop            r12=$0008 r15=$bd24
08:bd23 52       add r2          r0=$0be0
08:bd24 b1       from r1        
08:bd25 30       stw (r0)        SRAM=00:0BE0
08:bd26 3c       loop            r12=$0007 r15=$bd24
08:bd23 52       add r2          r0=$0be4
08:bd24 b1       from r1        
08:bd25 30       stw (r0)        SRAM=00:0BE4
08:bd26 3c       loop            r12=$0006 r15=$bd24
08:bd23 52       add r2          r0=$0be8
08:bd24 b1       from r1        
08:bd25 30       stw (r0)        SRAM=00:0BE8
08:bd26 3c       loop            r12=$0005 r15=$bd24
08:bd23 52       add r2          r0=$0bec
08:bd24 b1       from r1        
08:bd25 30       stw (r0)        SRAM=00:0BEC
08:bd26 3c       loop            r12=$0004 r15=$bd24
08:bd23 52       add r2          r0=$0bf0
08:bd24 b1       from r1        
08:bd25 30       stw (r0)        SRAM=00:0BF0
08:bd26 3c       loop            r12=$0003 r15=$bd24
08:bd23 52       add r2          r0=$0bf4
08:bd24 b1       from r1        
08:bd25 30       stw (r0)        SRAM=00:0BF4
08:bd26 3c       loop            r12=$0002 r15=$bd24
08:bd23 52       add r2          r0=$0bf8
08:bd24 b1       from r1        
08:bd25 30       stw (r0)        SRAM=00:0BF8
08:bd26 3c       loop            r12=$0001 r15=$bd24
08:bd23 52       add r2          r0=$0bfc
08:bd24 b1       from r1        
08:bd25 30       stw (r0)        SRAM=00:0BFC
08:bd26 3c       loop            r12=$0000 Z=1
08:bd27 52       add r2          r0=$0c00 Z=0
08:bd28 20       with r0         B=1
08:bd29 11       move r1,r0      r1=$0c00 B=0
08:bd2a f0 55 55 iwt r0,#$5555   r0=$5555
08:bd2d ac 10    ibt r12,#$10    r12=$0010
08:bd2f 2f       with r15        B=1
08:bd30 1d       move r13,r15    r13=$bd31 B=0
08:bd31 31       stw (r1)        SRAM=00:0C00
08:bd32 d1       inc r1          r1=$0c01
08:bd33 3c       loop            r12=$000f r15=$bd31
08:bd30 d1       inc r1          r1=$0c02
08:bd31 31       stw (r1)        SRAM=00:0C02
08:bd32 d1       inc r1          r1=$0c03
08:bd33 3c       loop            r12=$000e r15=$bd31
08:bd30 d1       inc r1          r1=$0c04
08:bd31 31       stw (r1)        SRAM=00:0C04
08:bd32 d1       inc r1          r1=$0c05
08:bd33 3c       loop            r12=$000d r15=$bd31
08:bd30 d1       inc r1          r1=$0c06
08:bd31 31       stw (r1)        SRAM=00:0C06
08:bd32 d1       inc r1          r1=$0c07
08:bd33 3c       loop            r12=$000c r15=$bd31
08:bd30 d1       inc r1          r1=$0c08
08:bd31 31       stw (r1)        SRAM=00:0C08
08:bd32 d1       inc r1          r1=$0c09
08:bd33 3c       loop            r12=$000b r15=$bd31
08:bd30 d1       inc r1          r1=$0c0a
08:bd31 31       stw (r1)        SRAM=00:0C0A
08:bd32 d1       inc r1          r1=$0c0b
08:bd33 3c       loop            r12=$000a r15=$bd31
08:bd30 d1       inc r1          r1=$0c0c
08:bd31 31       stw (r1)        SRAM=00:0C0C
08:bd32 d1       inc r1          r1=$0c0d
08:bd33 3c       loop            r12=$0009 r15=$bd31
08:bd30 d1       inc r1          r1=$0c0e
08:bd31 31       stw (r1)        SRAM=00:0C0E
08:bd32 d1       inc r1          r1=$0c0f
08:bd33 3c       loop            r12=$0008 r15=$bd31
08:bd30 d1       inc r1          r1=$0c10
08:bd31 31       stw (r1)        SRAM=00:0C10
08:bd32 d1       inc r1          r1=$0c11
08:bd33 3c       loop            r12=$0007 r15=$bd31
08:bd30 d1       inc r1          r1=$0c12
08:bd31 31       stw (r1)        SRAM=00:0C12
08:bd32 d1       inc r1          r1=$0c13
08:bd33 3c       loop            r12=$0006 r15=$bd31
08:bd30 d1       inc r1          r1=$0c14
08:bd31 31       stw (r1)        SRAM=00:0C14
08:bd32 d1       inc r1          r1=$0c15
08:bd33 3c       loop            r12=$0005 r15=$bd31
08:bd30 d1       inc r1          r1=$0c16
08:bd31 31       stw (r1)        SRAM=00:0C16
08:bd32 d1       inc r1          r1=$0c17
08:bd33 3c       loop            r12=$0004 r15=$bd31
08:bd30 d1       inc r1          r1=$0c18
08:bd31 31       stw (r1)        SRAM=00:0C18
08:bd32 d1       inc r1          r1=$0c19
08:bd33 3c       loop            r12=$0003 r15=$bd31
08:bd30 d1       inc r1          r1=$0c1a
08:bd31 31       stw (r1)        SRAM=00:0C1A
08:bd32 d1       inc r1          r1=$0c1b
08:bd33 3c       loop            r12=$0002 r15=$bd31
08:bd30 d1       inc r1          r1=$0c1c
08:bd31 31       stw (r1)        SRAM=00:0C1C
08:bd32 d1       inc r1          r1=$0c1d
08:bd33 3c       loop            r12=$0001 r15=$bd31
08:bd30 d1       inc r1          r1=$0c1e
08:bd31 31       stw (r1)        SRAM=00:0C1E
08:bd32 d1       inc r1          r1=$0c1f
08:bd33 3c       loop            r12=$0000 Z=1
08:bd34 d1       inc r1          r1=$0c20 Z=0
08:bd35 00       stop            G=0
08:bd15 01       nop            
08:bd16 02       cache          
08:bd17 f0 00 0a iwt r0,#$0a00   r0=$0a00
08:bd1a f1 80 f0 iwt r1,#$f080   r1=$f080
08:bd1d a2 04    ibt r2,#$04    
08:bd1f fc 80 00 iwt r12,#$0080  r12=$0080
08:bd22 2f       with r15        B=1
08:bd23 1d       move r13,r15    r13=$bd24 B=0
08:bd24 b1       from r1        
08:bd25 30       stw (r0)        SRAM=00:0A00
08:bd26 3c       loop            r12=$007f r15=$bd24
08:bd23 52       add r2          r0=$0a04
08:bd24 b1       from r1        
08:bd25 30       stw (r0)        SRAM=00:0A04
08:bd26 3c       loop            r12=$007e r15=$bd24
08:bd23 52       add r2          r0=$0a08
08:bd24 b1       from r1        
08:bd25 30       stw (r0)        SRAM=00:0A08
08:bd26 3c       loop            r12=$007d r15=$bd24
08:bd23 52       add r2          r0=$0a0c
08:bd24 b1       from r1        
08:bd25 30       stw (r0)        SRAM=00:0A0C
08:bd26 3c       loop            r12=$007c r15=$bd24
08:bd23 52       add r2          r0=$0a10
08:bd24 b1       from r1        
08:bd25 30       stw (r0)        SRAM=00:0A10
08:bd26 3c       loop            r12=$007b r15=$bd24
08:bd23 52       add r2          r0=$0a14
08:bd24 b1       from r1        
08:bd25 30       stw (r0)        SRAM=00:0A14
08:bd26 3c       loop            r12=$007a r15=$bd24
08:bd23 52       add r2          r0=$0a18
08:bd24 b1       from r1        
08:bd25 30       stw (r0)        SRAM=00:0A18
08:bd26 3c       loop            r12=$0079 r15=$bd24
08:bd23 52       add r2          r0=$0a1c
08:bd24 b1       from r1        
08:bd25 30       stw (r0)        SRAM=00:0A1C
08:bd26 3c       loop            r12=$0078 r15=$bd24
08:bd23 52       add r2          r0=$0a20
08:bd24 b1       from r1        
08:bd25 30       stw (r0)        SRAM=00:0A20
08:bd26 3c       loop            r12=$0077 r15=$bd24
08:bd23 52       add r2          r0=$0a24
08:bd24 b1       from r1        
08:bd25 30       stw (r0)        SRAM=00:0A24
08:bd26 3c       loop            r12=$0076 r15=$bd24
08:bd23 52       add r2          r0=$0a28
08:bd24 b1       from r1        
08:bd25 30       stw (r0)        SRAM=00:0A28
08:bd26 3c       loop            r12=$0075 r15=$bd24
08:bd23 52       add r2          r0=$0a2c
08:bd24 b1       from r1        
08:bd25 30       stw (r0)        SRAM=00:0A2C
08:bd26 3c       loop            r12=$0074 r15=$bd24
08:bd23 52       add r2          r0=$0a30
08:bd24 b1       from r1        
08:bd25 30       stw (r0)        SRAM=00:0A30
08:bd26 3c       loop            r12=$0073 r15=$bd24
08:bd23 52       add r2          r0=$0a34
08:bd24 b1       from r1        
08:bd25 30       stw (r0)        SRAM=00:0A34
08:bd26 3c       loop            r12=$0072 r15=$bd24
08:bd23 52       add r2          r0=$0a38
08:bd24 b1       from r1        
08:bd25 30       stw (r0)        SRAM=00:0A38
08:bd26 3c       loop            r12=$0071 r15=$bd24
08:bd23 52       add r2          r0=$0a3c
08:bd24 b1       from r1        
08:bd25 30       stw (r0)        SRAM=00:0A3C
08:bd26 3c       loop            r12=$0070 r15=$bd24
08:bd23 52       add r2          r0=$0a40
08:bd24 b1       from r1        
08:bd25 30       stw (r0)        SRAM=00:0A40
08:bd26 3c       loop            r12=$006f r15=$bd24
08:bd23 52       add r2          r0=$0a44
08:bd24 b1       from r1        
08:bd25 30       stw (r0)        SRAM=00:0A44
08:bd26 3c       loop            r12=$006e r15=$bd24
08:bd23 52       add r2          r0=$0a48
08:bd24 b1       from r1        
08:bd25 30       stw (r0)        SRAM=00:0A48
08:bd26 3c       loop            r12=$006d r15=$bd24
08:bd23 52       add r2          r0=$0a4c
08:bd24 b1       from r1        
08:bd25 30       stw (r0)        SRAM=00:0A4C
08:bd26 3c       loop            r12=$006c r15=$bd24
08:bd23 52       add r2          r0=$0a50
08:bd24 b1       from r1        
08:bd25 30       stw (r0)        SRAM=00:0A50
08:bd26 3c       loop            r12=$006b r15=$bd24
08:bd23 52       add r2          r0=$0a54
08:bd24 b1       from r1        
08:bd25 30       stw (r0)        SRAM=00:0A54
08:bd26 3c       loop            r12=$006a r15=$bd24
08:bd23 52       add r2          r0=$0a58
08:bd24 b1       from r1        
08:bd25 30       stw (r0)        SRAM=00:0A58
08:bd26 3c       loop            r12=$0069 r15=$bd24
08:bd23 52       add r2          r0=$0a5c
08:bd24 b1       from r1        
08:bd25 30       stw (r0)        SRAM=00:0A5C
08:bd26 3c       loop            r12=$0068 r15=$bd24
08:bd23 52       add r2          r0=$0a60
08:bd24 b1       from r1        
08:bd25 30       stw (r0)        SRAM=00:0A60
08:bd26 3c       loop            r12=$0067 r15=$bd24
08:bd23 52       add r2          r0=$0a64
08:bd24 b1       from r1        
08:bd25 30       stw (r0)        SRAM=00:0A64
08:bd26 3c       loop            r12=$0066 r15=$bd24
08:bd23 52       add r2          r0=$0a68
08:bd24 b1       from r1        
08:bd25 30       stw (r0)        SRAM=00:0A68
08:bd26 3c       loop            r12=$0065 r15=$bd24
08:bd23 52       add r2          r0=$0a6c
08:bd24 b1       from r1        
08:bd25 30       stw (r0)        SRAM=00:0A6C
08:bd26 3c       loop            r12=$0064 r15=$bd24
08:bd23 52       add r2          r0=$0a70
08:bd24 b1       from r1        
08:bd25 30       stw (r0)        SRAM=00:0A70
08:bd26 3c       loop            r12=$0063 r15=$bd24
08:bd23 52       add r2          r0=$0a74
08:bd24 b1       from r1        
08:bd25 30       stw (r0)        SRAM=00:0A74
08:bd26 3c       loop            r12=$0062 r15=$bd24
08:bd23 52       add r2          r0=$0a78
08:bd24 b1       from r1        
08:bd25 30       stw (r0)        SRAM=00:0A78
08:bd26 3c       loop            r12=$0061 r15=$bd24
08:bd23 52       add r2          r0=$0a7c
08:bd24 b1       from r1        
08:bd25 30       stw (r0)        SRAM=00:0A7C
08:bd26 3c       loop            r12=$0060 r15=$bd24
08:bd23 52       add r2          r0=$0a80
08:bd24 b1       from r1        
08:bd25 30       stw (r0)        SRAM=00:0A80
08:bd26 3c       loop            r12=$005f r15=$bd24
08:bd23 52       add r2          r0=$0a84
08:bd24 b1       from r1        
08:bd25 30       stw (r0)        SRAM=00:0A84
08:bd26 3c       loop            r12=$005e r15=$bd24
08:bd23 52       add r2          r0=$0a88
08:bd24 b1       from r1        
08:bd25 30       stw (r0)        SRAM=00:0A88
08:bd26 3c       loop            r12=$005d r15=$bd24
08:bd23 52       add r2          r0=$0a8c
08:bd24 b1       from r1        
08:bd25 30       stw (r0)        SRAM=00:0A8C
08:bd26 3c       loop            r12=$005c r15=$bd24
08:bd23 52       add r2          r0=$0a90
08:bd24 b1       from r1        
08:bd25 30       stw (r0)        SRAM=00:0A90
08:bd26 3c       loop            r12=$005b r15=$bd24
08:bd23 52       add r2          r0=$0a94
08:bd24 b1       from r1        
08:bd25 30       stw (r0)        SRAM=00:0A94
08:bd26 3c       loop            r12=$005a r15=$bd24
08:bd23 52       add r2          r0=$0a98
08:bd24 b1       from r1        
08:bd25 30       stw (r0)        SRAM=00:0A98
08:bd26 3c       loop            r12=$0059 r15=$bd24
08:bd23 52       add r2          r0=$0a9c
08:bd24 b1       from r1        
08:bd25 30       stw (r0)        SRAM=00:0A9C
08:bd26 3c       loop            r12=$0058 r15=$bd24
08:bd23 52       add r2          r0=$0aa0
08:bd24 b1       from r1        
08:bd25 30       stw (r0)        SRAM=00:0AA0
08:bd26 3c       loop            r12=$0057 r15=$bd24
08:bd23 52       add r2          r0=$0aa4
08:bd24 b1       from r1        
08:bd25 30       stw (r0)        SRAM=00:0AA4
08:bd26 3c       loop            r12=$0056 r15=$bd24
08:bd23 52       add r2          r0=$0aa8
08:bd24 b1       from r1        
08:bd25 30       stw (r0)        SRAM=00:0AA8
08:bd26 3c       loop            r12=$0055 r15=$bd24
08:bd23 52       add r2          r0=$0aac
08:bd24 b1       from r1        
08:bd25 30       stw (r0)        SRAM=00:0AAC
08:bd26 3c       loop            r12=$0054 r15=$bd24
08:bd23 52       add r2          r0=$0ab0
08:bd24 b1       from r1        
08:bd25 30       stw (r0)        SRAM=00:0AB0
08:bd26 3c       loop            r12=$0053 r15=$bd24
08:bd23 52       add r2          r0=$0ab4
08:bd24 b1       from r1        
08:bd25 30       stw (r0)        SRAM=00:0AB4
08:bd26 3c       loop            r12=$0052 r15=$bd24
08:bd23 52       add r2          r0=$0ab8
08:bd24 b1       from r1        
08:bd25 30       stw (r0)        SRAM=00:0AB8
08:bd26 3c       loop            r12=$0051 r15=$bd24
08:bd23 52       add r2          r0=$0abc
08:bd24 b1       from r1        
08:bd25 30       stw (r0)        SRAM=00:0ABC
08:bd26 3c       loop            r12=$0050 r15=$bd24
08:bd23 52       add r2          r0=$0ac0
08:bd24 b1       from r1        
08:bd25 30       stw (r0)        SRAM=00:0AC0
08:bd26 3c       loop            r12=$004f r15=$bd24
08:bd23 52       add r2          r0=$0ac4
08:bd24 b1       from r1        
08:bd25 30       stw (r0)        SRAM=00:0AC4
08:bd26 3c       loop            r12=$004e r15=$bd24
08:bd23 52       add r2          r0=$0ac8
08:bd24 b1       from r1        
08:bd25 30       stw (r0)        SRAM=00:0AC8
08:bd26 3c       loop            r12=$004d r15=$bd24
08:bd23 52       add r2          r0=$0acc
08:bd24 b1       from r1        
08:bd25 30       stw (r0)        SRAM=00:0ACC
08:bd26 3c       loop            r12=$004c r15=$bd24
08:bd23 52       add r2          r0=$0ad0
08:bd24 b1       from r1        
08:bd25 30       stw (r0)        SRAM=00:0AD0
08:bd26 3c       loop            r12=$004b r15=$bd24
08:bd23 52       add r2          r0=$0ad4
08:bd24 b1       from r1        
08:bd25 30       stw (r0)        SRAM=00:0AD4
08:bd26 3c       loop            r12=$004a r15=$bd24
08:bd23 52       add r2          r0=$0ad8
08:bd24 b1       from r1        
08:bd25 30       stw (r0)        SRAM=00:0AD8
08:bd26 3c       loop            r12=$0049 r15=$bd24
08:bd23 52       add r2          r0=$0adc
08:bd24 b1       from r1        
08:bd25 30       stw (r0)        SRAM=00:0ADC
08:bd26 3c       loop            r12=$0048 r15=$bd24
08:bd23 52       add r2          r0=$0ae0
08:bd24 b1       from r1        
08:bd25 30       stw (r0)        SRAM=00:0AE0
08:bd26 3c       loop            r12=$0047 r15=$bd24
08:bd23 52       add r2          r0=$0ae4
08:bd24 b1       from r1        
08:bd25 30       stw (r0)        SRAM=00:0AE4
08:bd26 3c       loop            r12=$0046 r15=$bd24
08:bd23 52       add r2          r0=$0ae8
08:bd24 b1       from r1        
08:bd25 30       stw (r0)        SRAM=00:0AE8
08:bd26 3c       loop            r12=$0045 r15=$bd24
08:bd23 52       add r2          r0=$0aec
08:bd24 b1       from r1        
08:bd25 30       stw (r0)        SRAM=00:0AEC
08:bd26 3c       loop            r12=$0044 r15=$bd24
08:bd23 52       add r2          r0=$0af0
08:bd24 b1       from r1        
08:bd25 30       stw (r0)        SRAM=00:0AF0
08:bd26 3c       loop            r12=$0043 r15=$bd24
08:bd23 52       add r2          r0=$0af4
08:bd24 b1       from r1        
08:bd25 30       stw (r0)        SRAM=00:0AF4
08:bd26 3c       loop            r12=$0042 r15=$bd24
08:bd23 52       add r2          r0=$0af8
08:bd24 b1       from r1        
08:bd25 30       stw (r0)        SRAM=00:0AF8
08:bd26 3c       loop            r12=$0041 r15=$bd24
08:bd23 52       add r2          r0=$0afc
08:bd24 b1       from r1        
08:bd25 30       stw (r0)        SRAM=00:0AFC
08:bd26 3c       loop            r12=$0040 r15=$bd24
08:bd23 52       add r2          r0=$0b00
08:bd24 b1       from r1        
08:bd25 30       stw (r0)        SRAM=00:0B00
08:bd26 3c       loop            r12=$003f r15=$bd24
08:bd23 52       add r2          r0=$0b04
08:bd24 b1       from r1        
08:bd25 30       stw (r0)        SRAM=00:0B04
08:bd26 3c       loop            r12=$003e r15=$bd24
08:bd23 52       add r2          r0=$0b08
08:bd24 b1       from r1        
08:bd25 30       stw (r0)        SRAM=00:0B08
08:bd26 3c       loop            r12=$003d r15=$bd24
08:bd23 52       add r2          r0=$0b0c
08:bd24 b1       from r1        
08:bd25 30       stw (r0)        SRAM=00:0B0C
08:bd26 3c       loop            r12=$003c r15=$bd24
08:bd23 52       add r2          r0=$0b10
08:bd24 b1       from r1        
08:bd25 30       stw (r0)        SRAM=00:0B10
08:bd26 3c       loop            r12=$003b r15=$bd24
08:bd23 52       add r2          r0=$0b14
08:bd24 b1       from r1        
08:bd25 30       stw (r0)        SRAM=00:0B14
08:bd26 3c       loop            r12=$003a r15=$bd24
08:bd23 52       add r2          r0=$0b18
08:bd24 b1       from r1        
08:bd25 30       stw (r0)        SRAM=00:0B18
08:bd26 3c       loop            r12=$0039 r15=$bd24
08:bd23 52       add r2          r0=$0b1c
08:bd24 b1       from r1        
08:bd25 30       stw (r0)        SRAM=00:0B1C
08:bd26 3c       loop            r12=$0038 r15=$bd24
08:bd23 52       add r2          r0=$0b20
08:bd24 b1       from r1        
08:bd25 30       stw (r0)        SRAM=00:0B20
08:bd26 3c       loop            r12=$0037 r15=$bd24
08:bd23 52       add r2          r0=$0b24
08:bd24 b1       from r1        
08:bd25 30       stw (r0)        SRAM=00:0B24
08:bd26 3c       loop            r12=$0036 r15=$bd24
08:bd23 52       add r2          r0=$0b28
08:bd24 b1       from r1        
08:bd25 30       stw (r0)        SRAM=00:0B28
08:bd26 3c       loop            r12=$0035 r15=$bd24
08:bd23 52       add r2          r0=$0b2c
08:bd24 b1       from r1        
08:bd25 30       stw (r0)        SRAM=00:0B2C
08:bd26 3c       loop            r12=$0034 r15=$bd24
08:bd23 52       add r2          r0=$0b30
08:bd24 b1       from r1        
08:bd25 30       stw (r0)        SRAM=00:0B30
08:bd26 3c       loop            r12=$0033 r15=$bd24
08:bd23 52       add r2          r0=$0b34
08:bd24 b1       from r1        
08:bd25 30       stw (r0)        SRAM=00:0B34
08:bd26 3c       loop            r12=$0032 r15=$bd24
08:bd23 52       add r2          r0=$0b38
08:bd24 b1       from r1        
08:bd25 30       stw (r0)        SRAM=00:0B38
08:bd26 3c       loop            r12=$0031 r15=$bd24
08:bd23 52       add r2          r0=$0b3c
08:bd24 b1       from r1        
08:bd25 30       stw (r0)        SRAM=00:0B3C
08:bd26 3c       loop            r12=$0030 r15=$bd24
08:bd23 52       add r2          r0=$0b40
08:bd24 b1       from r1        
08:bd25 30       stw (r0)        SRAM=00:0B40
08:bd26 3c       loop            r12=$002f r15=$bd24
08:bd23 52       add r2          r0=$0b44
08:bd24 b1       from r1        
08:bd25 30       stw (r0)        SRAM=00:0B44
08:bd26 3c       loop            r12=$002e r15=$bd24
08:bd23 52       add r2          r0=$0b48
08:bd24 b1       from r1        
08:bd25 30       stw (r0)        SRAM=00:0B48
08:bd26 3c       loop            r12=$002d r15=$bd24
08:bd23 52       add r2          r0=$0b4c
08:bd24 b1       from r1        
08:bd25 30       stw (r0)        SRAM=00:0B4C
08:bd26 3c       loop            r12=$002c r15=$bd24
08:bd23 52       add r2          r0=$0b50
08:bd24 b1       from r1        
08:bd25 30       stw (r0)        SRAM=00:0B50
08:bd26 3c       loop            r12=$002b r15=$bd24
08:bd23 52       add r2          r0=$0b54
08:bd24 b1       from r1        
08:bd25 30       stw (r0)        SRAM=00:0B54
08:bd26 3c       loop            r12=$002a r15=$bd24
08:bd23 52       add r2          r0=$0b58
08:bd24 b1       from r1        
08:bd25 30       stw (r0)        SRAM=00:0B58
08:bd26 3c       loop            r12=$0029 r15=$bd24
08:bd23 52       add r2          r0=$0b5c
08:bd24 b1       from r1        
08:bd25 30       stw (r0)        SRAM=00:0B5C
08:bd26 3c       loop            r12=$0028 r15=$bd24
08:bd23 52       add r2          r0=$0b60
08:bd24 b1       from r1        
08:bd25 30       stw (r0)        SRAM=00:0B60
08:bd26 3c       loop            r12=$0027 r15=$bd24
08:bd23 52       add r2          r0=$0b64
08:bd24 b1       from r1        
08:bd25 30       stw (r0)        SRAM=00:0B64
08:bd26 3c       loop            r12=$0026 r15=$bd24
08:bd23 52       add r2          r0=$0b68
08:bd24 b1       from r1        
08:bd25 30       stw (r0)        SRAM=00:0B68
08:bd26 3c       loop            r12=$0025 r15=$bd24
08:bd23 52       add r2          r0=$0b6c
08:bd24 b1       from r1        
08:bd25 30       stw (r0)        SRAM=00:0B6C
08:bd26 3c       loop            r12=$0024 r15=$bd24
08:bd23 52       add r2          r0=$0b70
08:bd24 b1       from r1        
08:bd25 30       stw (r0)        SRAM=00:0B70
08:bd26 3c       loop            r12=$0023 r15=$bd24
08:bd23 52       add r2          r0=$0b74
08:bd24 b1       from r1        
08:bd25 30       stw (r0)        SRAM=00:0B74
08:bd26 3c       loop            r12=$0022 r15=$bd24
08:bd23 52       add r2          r0=$0b78
08:bd24 b1       from r1        
08:bd25 30       stw (r0)        SRAM=00:0B78
08:bd26 3c       loop            r12=$0021 r15=$bd24
08:bd23 52       add r2          r0=$0b7c
08:bd24 b1       from r1        
08:bd25 30       stw (r0)        SRAM=00:0B7C
08:bd26 3c       loop            r12=$0020 r15=$bd24
08:bd23 52       add r2          r0=$0b80
08:bd24 b1       from r1        
08:bd25 30       stw (r0)        SRAM=00:0B80
08:bd26 3c       loop            r12=$001f r15=$bd24
08:bd23 52       add r2          r0=$0b84
08:bd24 b1       from r1        
08:bd25 30       stw (r0)        SRAM=00:0B84
08:bd26 3c       loop            r12=$001e r15=$bd24
08:bd23 52       add r2          r0=$0b88
08:bd24 b1       from r1        
08:bd25 30       stw (r0)        SRAM=00:0B88
08:bd26 3c       loop            r12=$001d r15=$bd24
08:bd23 52       add r2          r0=$0b8c
08:bd24 b1       from r1        
08:bd25 30       stw (r0)        SRAM=00:0B8C
08:bd26 3c       loop            r12=$001c r15=$bd24
08:bd23 52       add r2          r0=$0b90
08:bd24 b1       from r1        
08:bd25 30       stw (r0)        SRAM=00:0B90
08:bd26 3c       loop            r12=$001b r15=$bd24
08:bd23 52       add r2          r0=$0b94
08:bd24 b1       from r1        
08:bd25 30       stw (r0)        SRAM=00:0B94
08:bd26 3c       loop            r12=$001a r15=$bd24
08:bd23 52       add r2          r0=$0b98
08:bd24 b1       from r1        
08:bd25 30       stw (r0)        SRAM=00:0B98
08:bd26 3c       loop            r12=$0019 r15=$bd24
08:bd23 52       add r2          r0=$0b9c
08:bd24 b1       from r1        
08:bd25 30       stw (r0)        SRAM=00:0B9C
08:bd26 3c       loop            r12=$0018 r15=$bd24
08:bd23 52       add r2          r0=$0ba0
08:bd24 b1       from r1        
08:bd25 30       stw (r0)        SRAM=00:0BA0
08:bd26 3c       loop            r12=$0017 r15=$bd24
08:bd23 52       add r2          r0=$0ba4
08:bd24 b1       from r1        
08:bd25 30       stw (r0)        SRAM=00:0BA4
08:bd26 3c       loop            r12=$0016 r15=$bd24
08:bd23 52       add r2          r0=$0ba8
08:bd24 b1       from r1        
08:bd25 30       stw (r0)        SRAM=00:0BA8
08:bd26 3c       loop            r12=$0015 r15=$bd24
08:bd23 52       add r2          r0=$0bac
08:bd24 b1       from r1        
08:bd25 30       stw (r0)        SRAM=00:0BAC
08:bd26 3c       loop            r12=$0014 r15=$bd24
08:bd23 52       add r2          r0=$0bb0
08:bd24 b1       from r1        
08:bd25 30       stw (r0)        SRAM=00:0BB0
08:bd26 3c       loop            r12=$0013 r15=$bd24
08:bd23 52       add r2          r0=$0bb4
08:bd24 b1       from r1        
08:bd25 30       stw (r0)        SRAM=00:0BB4
08:bd26 3c       loop            r12=$0012 r15=$bd24
08:bd23 52       add r2          r0=$0bb8
08:bd24 b1       from r1        
08:bd25 30       stw (r0)        SRAM=00:0BB8
08:bd26 3c       loop            r12=$0011 r15=$bd24
08:bd23 52       add r2          r0=$0bbc
08:bd24 b1       from r1        
08:bd25 30       stw (r0)        SRAM=00:0BBC
08:bd26 3c       loop            r12=$0010 r15=$bd24
08:bd23 52       add r2          r0=$0bc0
08:bd24 b1       from r1        
08:bd25 30       stw (r0)        SRAM=00:0BC0
08:bd26 3c       loop            r12=$000f r15=$bd24
08:bd23 52       add r2          r0=$0bc4
08:bd24 b1       from r1        
08:bd25 30       stw (r0)        SRAM=00:0BC4
08:bd26 3c       loop            r12=$000e r15=$bd24
08:bd23 52       add r2          r0=$0bc8
08:bd24 b1       from r1        
08:bd25 30       stw (r0)        SRAM=00:0BC8
08:bd26 3c       loop            r12=$000d r15=$bd24
08:bd23 52       add r2          r0=$0bcc
08:bd24 b1       from r1        
08:bd25 30       stw (r0)        SRAM=00:0BCC
08:bd26 3c       loop            r12=$000c r15=$bd24
08:bd23 52       add r2          r0=$0bd0
08:bd24 b1       from r1        
08:bd25 30       stw (r0)        SRAM=00:0BD0
08:bd26 3c       loop            r12=$000b r15=$bd24
08:bd23 52       add r2          r0=$0bd4
08:bd24 b1       from r1        
08:bd25 30       stw (r0)        SRAM=00:0BD4
08:bd26 3c       loop            r12=$000a r15=$bd24
08:bd23 52       add r2          r0=$0bd8
08:bd24 b1       from r1        
08:bd25 30       stw (r0)        SRAM=00:0BD8
08:bd26 3c       loop            r12=$0009 r15=$bd24
08:bd23 52       add r2          r0=$0bdc
08:bd24 b1       from r1        
08:bd25 30       stw (r0)        SRAM=00:0BDC
08:bd26 3c       loop            r12=$0008 r15=$bd24
08:bd23 52       add r2          r0=$0be0
08:bd24 b1       from r1        
08:bd25 30       stw (r0)        SRAM=00:0BE0
08:bd26 3c       loop            r12=$0007 r15=$bd24
08:bd23 52       add r2          r0=$0be4
08:bd24 b1       from r1        
08:bd25 30       stw (r0)        SRAM=00:0BE4
08:bd26 3c       loop            r12=$0006 r15=$bd24
08:bd23 52       add r2          r0=$0be8
08:bd24 b1       from r1        
08:bd25 30       stw (r0)        SRAM=00:0BE8
08:bd26 3c       loop            r12=$0005 r15=$bd24
08:bd23 52       add r2          r0=$0bec
08:bd24 b1       from r1        
08:bd25 30       stw (r0)        SRAM=00:0BEC
08:bd26 3c       loop            r12=$0004 r15=$bd24
08:bd23 52       add r2          r0=$0bf0
08:bd24 b1       from r1        
08:bd25 30       stw (r0)        SRAM=00:0BF0
08:bd26 3c       loop            r12=$0003 r15=$bd24
08:bd23 52       add r2          r0=$0bf4
08:bd24 b1       from r1        
08:bd25 30       stw (r0)        SRAM=00:0BF4
08:bd26 3c       loop            r12=$0002 r15=$bd24
08:bd23 52       add r2          r0=$0bf8
08:bd24 b1       from r1        
08:bd25 30       stw (r0)        SRAM=00:0BF8
08:bd26 3c       loop            r12=$0001 r15=$bd24
08:bd23 52       add r2          r0=$0bfc
08:bd24 b1       from r1        
08:bd25 30       stw (r0)        SRAM=00:0BFC
08:bd26 3c       loop            r12=$0000 Z=1
08:bd27 52       add r2          r0=$0c00 Z=0
08:bd28 20       with r0         B=1
08:bd29 11       move r1,r0      r1=$0c00 B=0
08:bd2a f0 55 55 iwt r0,#$5555   r0=$5555
08:bd2d ac 10    ibt r12,#$10    r12=$0010
08:bd2f 2f       with r15        B=1
08:bd30 1d       move r13,r15    r13=$bd31 B=0
08:bd31 31       stw (r1)        SRAM=00:0C00
08:bd32 d1       inc r1          r1=$0c01
08:bd33 3c       loop            r12=$000f r15=$bd31
08:bd30 d1       inc r1          r1=$0c02
08:bd31 31       stw (r1)        SRAM=00:0C02
08:bd32 d1       inc r1          r1=$0c03
08:bd33 3c       loop            r12=$000e r15=$bd31
08:bd30 d1       inc r1          r1=$0c04
08:bd31 31       stw (r1)        SRAM=00:0C04
08:bd32 d1       inc r1          r1=$0c05
08:bd33 3c       loop            r12=$000d r15=$bd31
08:bd30 d1       inc r1          r1=$0c06
08:bd31 31       stw (r1)        SRAM=00:0C06
08:bd32 d1       inc r1          r1=$0c07
08:bd33 3c       loop            r12=$000c r15=$bd31
08:bd30 d1       inc r1          r1=$0c08
08:bd31 31       stw (r1)        SRAM=00:0C08
08:bd32 d1       inc r1          r1=$0c09
08:bd33 3c       loop            r12=$000b r15=$bd31
08:bd30 d1       inc r1          r1=$0c0a
08:bd31 31       stw (r1)        SRAM=00:0C0A
08:bd32 d1       inc r1          r1=$0c0b
08:bd33 3c       loop            r12=$000a r15=$bd31
08:bd30 d1       inc r1          r1=$0c0c
08:bd31 31       stw (r1)        SRAM=00:0C0C
08:bd32 d1       inc r1          r1=$0c0d
08:bd33 3c       loop            r12=$0009 r15=$bd31
08:bd30 d1       inc r1          r1=$0c0e
08:bd31 31       stw (r1)        SRAM=00:0C0E
08:bd32 d1       inc r1          r1=$0c0f
08:bd33 3c       loop            r12=$0008 r15=$bd31
08:bd30 d1       inc r1          r1=$0c10
08:bd31 31       stw (r1)        SRAM=00:0C10
08:bd32 d1       inc r1          r1=$0c11
08:bd33 3c       loop            r12=$0007 r15=$bd31
08:bd30 d1       inc r1          r1=$0c12
08:bd31 31       stw (r1)        SRAM=00:0C12
08:bd32 d1       inc r1          r1=$0c13
08:bd33 3c       loop            r12=$0006 r15=$bd31
08:bd30 d1       inc r1          r1=$0c14
08:bd31 31       stw (r1)        SRAM=00:0C14
08:bd32 d1       inc r1          r1=$0c15
08:bd33 3c       loop            r12=$0005 r15=$bd31
08:bd30 d1       inc r1          r1=$0c16
08:bd31 31       stw (r1)        SRAM=00:0C16
08:bd32 d1       inc r1          r1=$0c17
08:bd33 3c       loop            r12=$0004 r15=$bd31
08:bd30 d1       inc r1          r1=$0c18
08:bd31 31       stw (r1)        SRAM=00:0C18
08:bd32 d1       inc r1          r1=$0c19
08:bd33 3c       loop            r12=$0003 r15=$bd31
08:bd30 d1       inc r1          r1=$0c1a
08:bd31 31       stw (r1)        SRAM=00:0C1A
08:bd32 d1       inc r1          r1=$0c1b
08:bd33 3c       loop            r12=$0002 r15=$bd31
08:bd30 d1       inc r1          r1=$0c1c
08:bd31 31       stw (r1)        SRAM=00:0C1C
08:bd32 d1       inc r1          r1=$0c1d
08:bd33 3c       loop            r12=$0001 r15=$bd31
08:bd30 d1       inc r1          r1=$0c1e
08:bd31 31       stw (r1)        SRAM=00:0C1E
08:bd32 d1       inc r1          r1=$0c1f
08:bd33 3c       loop            r12=$0000 Z=1
08:bd34 d1       inc r1          r1=$0c20 Z=0
08:bd35 00       stop            G=0
08:bd15 01       nop            
08:bd16 02       cache          
08:bd17 f0 00 0a iwt r0,#$0a00   r0=$0a00
08:bd1a f1 80 f0 iwt r1,#$f080   r1=$f080
08:bd1d a2 04    ibt r2,#$04    
08:bd1f fc 80 00 iwt r12,#$0080  r12=$0080
08:bd22 2f       with r15        B=1
08:bd23 1d       move r13,r15    r13=$bd24 B=0
08:bd24 b1       from r1        
08:bd25 30       stw (r0)        SRAM=00:0A00
08:bd26 3c       loop            r12=$007f r15=$bd24
08:bd23 52       add r2          r0=$0a04
08:bd24 b1       from r1        
08:bd25 30       stw (r0)        SRAM=00:0A04
08:bd26 3c       loop            r12=$007e r15=$bd24
08:bd23 52       add r2          r0=$0a08
08:bd24 b1       from r1        
08:bd25 30       stw (r0)        SRAM=00:0A08
08:bd26 3c       loop            r12=$007d r15=$bd24
08:bd23 52       add r2          r0=$0a0c
08:bd24 b1       from r1        
08:bd25 30       stw (r0)        SRAM=00:0A0C
08:bd26 3c       loop            r12=$007c r15=$bd24
08:bd23 52       add r2          r0=$0a10
08:bd24 b1       from r1        
08:bd25 30       stw (r0)        SRAM=00:0A10
08:bd26 3c       loop            r12=$007b r15=$bd24
08:bd23 52       add r2          r0=$0a14
08:bd24 b1       from r1        
08:bd25 30       stw (r0)        SRAM=00:0A14
08:bd26 3c       loop            r12=$007a r15=$bd24
08:bd23 52       add r2          r0=$0a18
08:bd24 b1       from r1        
08:bd25 30       stw (r0)        SRAM=00:0A18
08:bd26 3c       loop            r12=$0079 r15=$bd24
08:bd23 52       add r2          r0=$0a1c
08:bd24 b1       from r1        
08:bd25 30       stw (r0)        SRAM=00:0A1C
08:bd26 3c       loop            r12=$0078 r15=$bd24
08:bd23 52       add r2          r0=$0a20
08:bd24 b1       from r1        
08:bd25 30       stw (r0)        SRAM=00:0A20
08:bd26 3c       loop            r12=$0077 r15=$bd24
08:bd23 52       add r2          r0=$0a24
08:bd24 b1       from r1        
08:bd25 30       stw (r0)        SRAM=00:0A24
08:bd26 3c       loop            r12=$0076 r15=$bd24
08:bd23 52       add r2          r0=$0a28
08:bd24 b1       from r1        
08:bd25 30       stw (r0)        SRAM=00:0A28
08:bd26 3c       loop            r12=$0075 r15=$bd24
08:bd23 52       add r2          r0=$0a2c
08:bd24 b1       from r1        
08:bd25 30       stw (r0)        SRAM=00:0A2C
08:bd26 3c       loop            r12=$0074 r15=$bd24
08:bd23 52       add r2          r0=$0a30
08:bd24 b1       from r1        
08:bd25 30       stw (r0)        SRAM=00:0A30
08:bd26 3c       loop            r12=$0073 r15=$bd24
08:bd23 52       add r2          r0=$0a34
08:bd24 b1       from r1        
08:bd25 30       stw (r0)        SRAM=00:0A34
08:bd26 3c       loop            r12=$0072 r15=$bd24
08:bd23 52       add r2          r0=$0a38
08:bd24 b1       from r1        
08:bd25 30       stw (r0)        SRAM=00:0A38
08:bd26 3c       loop            r12=$0071 r15=$bd24
08:bd23 52       add r2          r0=$0a3c
08:bd24 b1       from r1        
08:bd25 30       stw (r0)        SRAM=00:0A3C
08:bd26 3c       loop            r12=$0070 r15=$bd24
08:bd23 52       add r2          r0=$0a40
08:bd24 b1       from r1        
08:bd25 30       stw (r0)        SRAM=00:0A40
08:bd26 3c       loop            r12=$006f r15=$bd24
08:bd23 52       add r2          r0=$0a44
08:bd24 b1       from r1        
08:bd25 30       stw (r0)        SRAM=00:0A44
08:bd26 3c       loop            r12=$006e r15=$bd24
08:bd23 52       add r2          r0=$0a48
08:bd24 b1       from r1        
08:bd25 30       stw (r0)        SRAM=00:0A48
08:bd26 3c       loop            r12=$006d r15=$bd24
08:bd23 52       add r2          r0=$0a4c
08:bd24 b1       from r1        
08:bd25 30       stw (r0)        SRAM=00:0A4C
08:bd26 3c       loop            r12=$006c r15=$bd24
08:bd23 52       add r2          r0=$0a50
08:bd24 b1       from r1        
08:bd25 30       stw (r0)        SRAM=00:0A50
08:bd26 3c       loop            r12=$006b r15=$bd24
08:bd23 52       add r2          r0=$0a54
08:bd24 b1       from r1        
08:bd25 30       stw (r0)        SRAM=00:0A54
08:bd26 3c       loop            r12=$006a r15=$bd24
08:bd23 52       add r2          r0=$0a58
08:bd24 b1       from r1        
08:bd25 30       stw (r0)        SRAM=00:0A58
08:bd26 3c       loop            r12=$0069 r15=$bd24
08:bd23 52       add r2          r0=$0a5c
08:bd24 b1       from r1        
08:bd25 30       stw (r0)        SRAM=00:0A5C
08:bd26 3c       loop            r12=$0068 r15=$bd24
08:bd23 52       add r2          r0=$0a60
08:bd24 b1       from r1        
08:bd25 30       stw (r0)        SRAM=00:0A60
08:bd26 3c       loop            r12=$0067 r15=$bd24
08:bd23 52       add r2          r0=$0a64
08:bd24 b1       from r1        
08:bd25 30       stw (r0)        SRAM=00:0A64
08:bd26 3c       loop            r12=$0066 r15=$bd24
08:bd23 52       add r2          r0=$0a68
08:bd24 b1       from r1        
08:bd25 30       stw (r0)        SRAM=00:0A68
08:bd26 3c       loop            r12=$0065 r15=$bd24
08:bd23 52       add r2          r0=$0a6c
08:bd24 b1       from r1        
08:bd25 30       stw (r0)        SRAM=00:0A6C
08:bd26 3c       loop            r12=$0064 r15=$bd24
08:bd23 52       add r2          r0=$0a70
08:bd24 b1       from r1        
08:bd25 30       stw (r0)        SRAM=00:0A70
08:bd26 3c       loop            r12=$0063 r15=$bd24
08:bd23 52       add r2          r0=$0a74
08:bd24 b1       from r1        
08:bd25 30       stw (r0)        SRAM=00:0A74
08:bd26 3c       loop            r12=$0062 r15=$bd24
08:bd23 52       add r2          r0=$0a78
08:bd24 b1       from r1        
08:bd25 30       stw (r0)        SRAM=00:0A78
08:bd26 3c       loop            r12=$0061 r15=$bd24
08:bd23 52       add r2          r0=$0a7c
08:bd24 b1       from r1        
08:bd25 30       stw (r0)        SRAM=00:0A7C
08:bd26 3c       loop            r12=$0060 r15=$bd24
08:bd23 52       add r2          r0=$0a80
08:bd24 b1       from r1        
08:bd25 30       stw (r0)        SRAM=00:0A80
08:bd26 3c       loop            r12=$005f r15=$bd24
08:bd23 52       add r2          r0=$0a84
08:bd24 b1       from r1        
08:bd25 30       stw (r0)        SRAM=00:0A84
08:bd26 3c       loop            r12=$005e r15=$bd24
08:bd23 52       add r2          r0=$0a88
08:bd24 b1       from r1        
08:bd25 30       stw (r0)        SRAM=00:0A88
08:bd26 3c       loop            r12=$005d r15=$bd24
08:bd23 52       add r2          r0=$0a8c
08:bd24 b1       from r1        
08:bd25 30       stw (r0)        SRAM=00:0A8C
08:bd26 3c       loop            r12=$005c r15=$bd24
08:bd23 52       add r2          r0=$0a90
08:bd24 b1       from r1        
08:bd25 30       stw (r0)        SRAM=00:0A90
08:bd26 3c       loop            r12=$005b r15=$bd24
08:bd23 52       add r2          r0=$0a94
08:bd24 b1       from r1        
08:bd25 30       stw (r0)        SRAM=00:0A94
08:bd26 3c       loop            r12=$005a r15=$bd24
08:bd23 52       add r2          r0=$0a98
08:bd24 b1       from r1        
08:bd25 30       stw (r0)        SRAM=00:0A98
08:bd26 3c       loop            r12=$0059 r15=$bd24
08:bd23 52       add r2          r0=$0a9c
08:bd24 b1       from r1        
08:bd25 30       stw (r0)        SRAM=00:0A9C
08:bd26 3c       loop            r12=$0058 r15=$bd24
08:bd23 52       add r2          r0=$0aa0
08:bd24 b1       from r1        
08:bd25 30       stw (r0)        SRAM=00:0AA0
08:bd26 3c       loop            r12=$0057 r15=$bd24
08:bd23 52       add r2          r0=$0aa4
08:bd24 b1       from r1        
08:bd25 30       stw (r0)        SRAM=00:0AA4
08:bd26 3c       loop            r12=$0056 r15=$bd24
08:bd23 52       add r2          r0=$0aa8
08:bd24 b1       from r1        
08:bd25 30       stw (r0)        SRAM=00:0AA8
08:bd26 3c       loop            r12=$0055 r15=$bd24
08:bd23 52       add r2          r0=$0aac
08:bd24 b1       from r1        
08:bd25 30       stw (r0)        SRAM=00:0AAC
08:bd26 3c       loop            r12=$0054 r15=$bd24
08:bd23 52       add r2          r0=$0ab0
08:bd24 b1       from r1        
08:bd25 30       stw (r0)        SRAM=00:0AB0
08:bd26 3c       loop            r12=$0053 r15=$bd24
08:bd23 52       add r2          r0=$0ab4
08:bd24 b1       from r1        
08:bd25 30       stw (r0)        SRAM=00:0AB4
08:bd26 3c       loop            r12=$0052 r15=$bd24
08:bd23 52       add r2          r0=$0ab8
08:bd24 b1       from r1        
08:bd25 30       stw (r0)        SRAM=00:0AB8
08:bd26 3c       loop            r12=$0051 r15=$bd24
08:bd23 52       add r2          r0=$0abc
08:bd24 b1       from r1        
08:bd25 30       stw (r0)        SRAM=00:0ABC
08:bd26 3c       loop            r12=$0050 r15=$bd24
08:bd23 52       add r2          r0=$0ac0
08:bd24 b1       from r1        
08:bd25 30       stw (r0)        SRAM=00:0AC0
08:bd26 3c       loop            r12=$004f r15=$bd24
08:bd23 52       add r2          r0=$0ac4
08:bd24 b1       from r1        
08:bd25 30       stw (r0)        SRAM=00:0AC4
08:bd26 3c       loop            r12=$004e r15=$bd24
08:bd23 52       add r2          r0=$0ac8
08:bd24 b1       from r1        
08:bd25 30       stw (r0)        SRAM=00:0AC8
08:bd26 3c       loop            r12=$004d r15=$bd24
08:bd23 52       add r2          r0=$0acc
08:bd24 b1       from r1        
08:bd25 30       stw (r0)        SRAM=00:0ACC
08:bd26 3c       loop            r12=$004c r15=$bd24
08:bd23 52       add r2          r0=$0ad0
08:bd24 b1       from r1        
08:bd25 30       stw (r0)        SRAM=00:0AD0
08:bd26 3c       loop            r12=$004b r15=$bd24
08:bd23 52       add r2          r0=$0ad4
08:bd24 b1       from r1        
08:bd25 30       stw (r0)        SRAM=00:0AD4
08:bd26 3c       loop            r12=$004a r15=$bd24
08:bd23 52       add r2          r0=$0ad8
08:bd24 b1       from r1        
08:bd25 30       stw (r0)        SRAM=00:0AD8
08:bd26 3c       loop            r12=$0049 r15=$bd24
08:bd23 52       add r2          r0=$0adc
08:bd24 b1       from r1        
08:bd25 30       stw (r0)        SRAM=00:0ADC
08:bd26 3c       loop            r12=$0048 r15=$bd24
08:bd23 52       add r2          r0=$0ae0
08:bd24 b1       from r1        
08:bd25 30       stw (r0)        SRAM=00:0AE0
08:bd26 3c       loop            r12=$0047 r15=$bd24
08:bd23 52       add r2          r0=$0ae4
08:bd24 b1       from r1        
08:bd25 30       stw (r0)        SRAM=00:0AE4
08:bd26 3c       loop            r12=$0046 r15=$bd24
08:bd23 52       add r2          r0=$0ae8
08:bd24 b1       from r1        
08:bd25 30       stw (r0)        SRAM=00:0AE8
08:bd26 3c       loop            r12=$0045 r15=$bd24
08:bd23 52       add r2          r0=$0aec
08:bd24 b1       from r1        
08:bd25 30       stw (r0)        SRAM=00:0AEC
08:bd26 3c       loop            r12=$0044 r15=$bd24
08:bd23 52       add r2          r0=$0af0
08:bd24 b1       from r1        
08:bd25 30       stw (r0)        SRAM=00:0AF0
08:bd26 3c       loop            r12=$0043 r15=$bd24
08:bd23 52       add r2          r0=$0af4
08:bd24 b1       from r1        
08:bd25 30       stw (r0)        SRAM=00:0AF4
08:bd26 3c       loop            r12=$0042 r15=$bd24
08:bd23 52       add r2          r0=$0af8
08:bd24 b1       from r1        
08:bd25 30       stw (r0)        SRAM=00:0AF8
08:bd26 3c       loop            r12=$0041 r15=$bd24
08:bd23 52       add r2          r0=$0afc
08:bd24 b1       from r1        
08:bd25 30       stw (r0)        SRAM=00:0AFC
08:bd26 3c       loop            r12=$0040 r15=$bd24
08:bd23 52       add r2          r0=$0b00
08:bd24 b1       from r1        
08:bd25 30       stw (r0)        SRAM=00:0B00
08:bd26 3c       loop            r12=$003f r15=$bd24
08:bd23 52       add r2          r0=$0b04
08:bd24 b1       from r1        
08:bd25 30       stw (r0)        SRAM=00:0B04
08:bd26 3c       loop            r12=$003e r15=$bd24
08:bd23 52       add r2          r0=$0b08
08:bd24 b1       from r1        
08:bd25 30       stw (r0)        SRAM=00:0B08
08:bd26 3c       loop            r12=$003d r15=$bd24
08:bd23 52       add r2          r0=$0b0c
08:bd24 b1       from r1        
08:bd25 30       stw (r0)        SRAM=00:0B0C
08:bd26 3c       loop            r12=$003c r15=$bd24
08:bd23 52       add r2          r0=$0b10
08:bd24 b1       from r1        
08:bd25 30       stw (r0)        SRAM=00:0B10
08:bd26 3c       loop            r12=$003b r15=$bd24
08:bd23 52       add r2          r0=$0b14
08:bd24 b1       from r1        
08:bd25 30       stw (r0)        SRAM=00:0B14
08:bd26 3c       loop            r12=$003a r15=$bd24
08:bd23 52       add r2          r0=$0b18
08:bd24 b1       from r1        
08:bd25 30       stw (r0)        SRAM=00:0B18
08:bd26 3c       loop            r12=$0039 r15=$bd24
08:bd23 52       add r2          r0=$0b1c
08:bd24 b1       from r1        
08:bd25 30       stw (r0)        SRAM=00:0B1C
08:bd26 3c       loop            r12=$0038 r15=$bd24
08:bd23 52       add r2          r0=$0b20
08:bd24 b1       from r1        
08:bd25 30       stw (r0)        SRAM=00:0B20
08:bd26 3c       loop            r12=$0037 r15=$bd24
08:bd23 52       add r2          r0=$0b24
08:bd24 b1       from r1        
08:bd25 30       stw (r0)        SRAM=00:0B24
08:bd26 3c       loop            r12=$0036 r15=$bd24
08:bd23 52       add r2          r0=$0b28
08:bd24 b1       from r1        
08:bd25 30       stw (r0)        SRAM=00:0B28
08:bd26 3c       loop            r12=$0035 r15=$bd24
08:bd23 52       add r2          r0=$0b2c
08:bd24 b1       from r1        
08:bd25 30       stw (r0)        SRAM=00:0B2C
08:bd26 3c       loop            r12=$0034 r15=$bd24
08:bd23 52       add r2          r0=$0b30
08:bd24 b1       from r1        
08:bd25 30       stw (r0)        SRAM=00:0B30
08:bd26 3c       loop            r12=$0033 r15=$bd24
08:bd23 52       add r2          r0=$0b34
08:bd24 b1       from r1        
08:bd25 30       stw (r0)        SRAM=00:0B34
08:bd26 3c       loop            r12=$0032 r15=$bd24
08:bd23 52       add r2          r0=$0b38
08:bd24 b1       from r1        
08:bd25 30       stw (r0)        SRAM=00:0B38
08:bd26 3c       loop            r12=$0031 r15=$bd24
08:bd23 52       add r2          r0=$0b3c
08:bd24 b1       from r1        
08:bd25 30       stw (r0)        SRAM=00:0B3C
08:bd26 3c       loop            r12=$0030 r15=$bd24
08:bd23 52       add r2          r0=$0b40
08:bd24 b1       from r1        
08:bd25 30       stw (r0)        SRAM=00:0B40
08:bd26 3c       loop            r12=$002f r15=$bd24
08:bd23 52       add r2          r0=$0b44
08:bd24 b1       from r1        
08:bd25 30       stw (r0)        SRAM=00:0B44
08:bd26 3c       loop            r12=$002e r15=$bd24
08:bd23 52       add r2          r0=$0b48
08:bd24 b1       from r1        
08:bd25 30       stw (r0)        SRAM=00:0B48
08:bd26 3c       loop            r12=$002d r15=$bd24
08:bd23 52       add r2          r0=$0b4c
08:bd24 b1       from r1        
08:bd25 30       stw (r0)        SRAM=00:0B4C
08:bd26 3c       loop            r12=$002c r15=$bd24
08:bd23 52       add r2          r0=$0b50
08:bd24 b1       from r1        
08:bd25 30       stw (r0)        SRAM=00:0B50
08:bd26 3c       loop            r12=$002b r15=$bd24
08:bd23 52       add r2          r0=$0b54
08:bd24 b1       from r1        
08:bd25 30       stw (r0)        SRAM=00:0B54
08:bd26 3c       loop            r12=$002a r15=$bd24
08:bd23 52       add r2          r0=$0b58
08:bd24 b1       from r1        
08:bd25 30       stw (r0)        SRAM=00:0B58
08:bd26 3c       loop            r12=$0029 r15=$bd24
08:bd23 52       add r2          r0=$0b5c
08:bd24 b1       from r1        
08:bd25 30       stw (r0)        SRAM=00:0B5C
08:bd26 3c       loop            r12=$0028 r15=$bd24
08:bd23 52       add r2          r0=$0b60
08:bd24 b1       from r1        
08:bd25 30       stw (r0)        SRAM=00:0B60
08:bd26 3c       loop            r12=$0027 r15=$bd24
08:bd23 52       add r2          r0=$0b64
08:bd24 b1       from r1        
08:bd25 30       stw (r0)        SRAM=00:0B64
08:bd26 3c       loop            r12=$0026 r15=$bd24
08:bd23 52       add r2          r0=$0b68
08:bd24 b1       from r1        
08:bd25 30       stw (r0)        SRAM=00:0B68
08:bd26 3c       loop            r12=$0025 r15=$bd24
08:bd23 52       add r2          r0=$0b6c
08:bd24 b1       from r1        
08:bd25 30       stw (r0)        SRAM=00:0B6C
08:bd26 3c       loop            r12=$0024 r15=$bd24
08:bd23 52       add r2          r0=$0b70
08:bd24 b1       from r1        
08:bd25 30       stw (r0)        SRAM=00:0B70
08:bd26 3c       loop            r12=$0023 r15=$bd24
08:bd23 52       add r2          r0=$0b74
08:bd24 b1       from r1        
08:bd25 30       stw (r0)        SRAM=00:0B74
08:bd26 3c       loop            r12=$0022 r15=$bd24
08:bd23 52       add r2          r0=$0b78
08:bd24 b1       from r1        
08:bd25 30       stw (r0)        SRAM=00:0B78
08:bd26 3c       loop            r12=$0021 r15=$bd24
08:bd23 52       add r2          r0=$0b7c
08:bd24 b1       from r1        
08:bd25 30       stw (r0)        SRAM=00:0B7C
08:bd26 3c       loop            r12=$0020 r15=$bd24
08:bd23 52       add r2          r0=$0b80
08:bd24 b1       from r1        
08:bd25 30       stw (r0)        SRAM=00:0B80
08:bd26 3c       loop            r12=$001f r15=$bd24
08:bd23 52       add r2          r0=$0b84
08:bd24 b1       from r1        
08:bd25 30       stw (r0)        SRAM=00:0B84
08:bd26 3c       loop            r12=$001e r15=$bd24
08:bd23 52       add r2          r0=$0b88
08:bd24 b1       from r1        
08:bd25 30       stw (r0)        SRAM=00:0B88
08:bd26 3c       loop            r12=$001d r15=$bd24
08:bd23 52       add r2          r0=$0b8c
08:bd24 b1       from r1        
08:bd25 30       stw (r0)        SRAM=00:0B8C
08:bd26 3c       loop            r12=$001c r15=$bd24
08:bd23 52       add r2          r0=$0b90
08:bd24 b1       from r1        
08:bd25 30       stw (r0)        SRAM=00:0B90
08:bd26 3c       loop            r12=$001b r15=$bd24
08:bd23 52       add r2          r0=$0b94
08:bd24 b1       from r1        
08:bd25 30       stw (r0)        SRAM=00:0B94
08:bd26 3c       loop            r12=$001a r15=$bd24
08:bd23 52       add r2          r0=$0b98
08:bd24 b1       from r1        
08:bd25 30       stw (r0)        SRAM=00:0B98
08:bd26 3c       loop            r12=$0019 r15=$bd24
08:bd23 52       add r2          r0=$0b9c
08:bd24 b1       from r1        
08:bd25 30       stw (r0)        SRAM=00:0B9C
08:bd26 3c       loop            r12=$0018 r15=$bd24
08:bd23 52       add r2          r0=$0ba0
08:bd24 b1       from r1        
08:bd25 30       stw (r0)        SRAM=00:0BA0
08:bd26 3c       loop            r12=$0017 r15=$bd24
08:bd23 52       add r2          r0=$0ba4
08:bd24 b1       from r1        
08:bd25 30       stw (r0)        SRAM=00:0BA4
08:bd26 3c       loop            r12=$0016 r15=$bd24
08:bd23 52       add r2          r0=$0ba8
08:bd24 b1       from r1        
08:bd25 30       stw (r0)        SRAM=00:0BA8
08:bd26 3c       loop            r12=$0015 r15=$bd24
08:bd23 52       add r2          r0=$0bac
08:bd24 b1       from r1        
08:bd25 30       stw (r0)        SRAM=00:0BAC
08:bd26 3c       loop            r12=$0014 r15=$bd24
08:bd23 52       add r2          r0=$0bb0
08:bd24 b1       from r1        
08:bd25 30       stw (r0)        SRAM=00:0BB0
08:bd26 3c       loop            r12=$0013 r15=$bd24
08:bd23 52       add r2          r0=$0bb4
08:bd24 b1       from r1        
08:bd25 30       stw (r0)        SRAM=00:0BB4
08:bd26 3c       loop            r12=$0012 r15=$bd24
08:bd23 52       add r2          r0=$0bb8
08:bd24 b1       from r1        
08:bd25 30       stw (r0)        SRAM=00:0BB8
08:bd26 3c       loop            r12=$0011 r15=$bd24
08:bd23 52       add r2          r0=$0bbc
08:bd24 b1       from r1        
08:bd25 30       stw (r0)        SRAM=00:0BBC
08:bd26 3c       loop            r12=$0010 r15=$bd24
08:bd23 52       add r2          r0=$0bc0
08:bd24 b1       from r1        
08:bd25 30       stw (r0)        SRAM=00:0BC0
08:bd26 3c       loop            r12=$000f r15=$bd24
08:bd23 52       add r2          r0=$0bc4
08:bd24 b1       from r1        
08:bd25 30       stw (r0)        SRAM=00:0BC4
08:bd26 3c       loop            r12=$000e r15=$bd24
08:bd23 52       add r2          r0=$0bc8
08:bd24 b1       from r1        
08:bd25 30       stw (r0)        SRAM=00:0BC8
08:bd26 3c       loop            r12=$000d r15=$bd24
08:bd23 52       add r2          r0=$0bcc
08:bd24 b1       from r1        
08:bd25 30       stw (r0)        SRAM=00:0BCC
08:bd26 3c       loop            r12=$000c r15=$bd24
08:bd23 52       add r2          r0=$0bd0
08:bd24 b1       from r1        
08:bd25 30       stw (r0)        SRAM=00:0BD0
08:bd26 3c       loop            r12=$000b r15=$bd24
08:bd23 52       add r2          r0=$0bd4
08:bd24 b1       from r1        
08:bd25 30       stw (r0)        SRAM=00:0BD4
08:bd26 3c       loop            r12=$000a r15=$bd24
08:bd23 52       add r2          r0=$0bd8
08:bd24 b1       from r1        
08:bd25 30       stw (r0)        SRAM=00:0BD8
08:bd26 3c       loop            r12=$0009 r15=$bd24
08:bd23 52       add r2          r0=$0bdc
08:bd24 b1       from r1        
08:bd25 30       stw (r0)        SRAM=00:0BDC
08:bd26 3c       loop            r12=$0008 r15=$bd24
08:bd23 52       add r2          r0=$0be0
08:bd24 b1       from r1        
08:bd25 30       stw (r0)        SRAM=00:0BE0
08:bd26 3c       loop            r12=$0007 r15=$bd24
08:bd23 52       add r2          r0=$0be4
08:bd24 b1       from r1        
08:bd25 30       stw (r0)        SRAM=00:0BE4
08:bd26 3c       loop            r12=$0006 r15=$bd24
08:bd23 52       add r2          r0=$0be8
08:bd24 b1       from r1        
08:bd25 30       stw (r0)        SRAM=00:0BE8
08:bd26 3c       loop            r12=$0005 r15=$bd24
08:bd23 52       add r2          r0=$0bec
08:bd24 b1       from r1        
08:bd25 30       stw (r0)        SRAM=00:0BEC
08:bd26 3c       loop            r12=$0004 r15=$bd24
08:bd23 52       add r2          r0=$0bf0
08:bd24 b1       from r1        
08:bd25 30       stw (r0)        SRAM=00:0BF0
08:bd26 3c       loop            r12=$0003 r15=$bd24
08:bd23 52       add r2          r0=$0bf4
08:bd24 b1       from r1        
08:bd25 30       stw (r0)        SRAM=00:0BF4
08:bd26 3c       loop            r12=$0002 r15=$bd24
08:bd23 52       add r2          r0=$0bf8
08:bd24 b1       from r1        
08:bd25 30       stw (r0)        SRAM=00:0BF8
08:bd26 3c       loop            r12=$0001 r15=$bd24
08:bd23 52       add r2          r0=$0bfc
08:bd24 b1       from r1        
08:bd25 30       stw (r0)        SRAM=00:0BFC
08:bd26 3c       loop            r12=$0000 Z=1
08:bd27 52       add r2          r0=$0c00 Z=0
08:bd28 20       with r0         B=1
08:bd29 11       move r1,r0      r1=$0c00 B=0
08:bd2a f0 55 55 iwt r0,#$5555   r0=$5555
08:bd2d ac 10    ibt r12,#$10    r12=$0010
08:bd2f 2f       with r15        B=1
08:bd30 1d       move r13,r15    r13=$bd31 B=0
08:bd31 31       stw (r1)        SRAM=00:0C00
08:bd32 d1       inc r1          r1=$0c01
08:bd33 3c       loop            r12=$000f r15=$bd31
08:bd30 d1       inc r1          r1=$0c02
08:bd31 31       stw (r1)        SRAM=00:0C02
08:bd32 d1       inc r1          r1=$0c03
08:bd33 3c       loop            r12=$000e r15=$bd31
08:bd30 d1       inc r1          r1=$0c04
08:bd31 31       stw (r1)        SRAM=00:0C04
08:bd32 d1       inc r1          r1=$0c05
08:bd33 3c       loop            r12=$000d r15=$bd31
08:bd30 d1       inc r1          r1=$0c06
08:bd31 31       stw (r1)        SRAM=00:0C06
08:bd32 d1       inc r1          r1=$0c07
08:bd33 3c       loop            r12=$000c r15=$bd31
08:bd30 d1       inc r1          r1=$0c08
08:bd31 31       stw (r1)        SRAM=00:0C08
08:bd32 d1       inc r1          r1=$0c09
08:bd33 3c       loop            r12=$000b r15=$bd31
08:bd30 d1       inc r1          r1=$0c0a
08:bd31 31       stw (r1)        SRAM=00:0C0A
08:bd32 d1       inc r1          r1=$0c0b
08:bd33 3c       loop            r12=$000a r15=$bd31
08:bd30 d1       inc r1          r1=$0c0c
08:bd31 31       stw (r1)        SRAM=00:0C0C
08:bd32 d1       inc r1          r1=$0c0d
08:bd33 3c       loop            r12=$0009 r15=$bd31
08:bd30 d1       inc r1          r1=$0c0e
08:bd31 31       stw (r1)        SRAM=00:0C0E
08:bd32 d1       inc r1          r1=$0c0f
08:bd33 3c       loop            r12=$0008 r15=$bd31
08:bd30 d1       inc r1          r1=$0c10
08:bd31 31       stw (r1)        SRAM=00:0C10
08:bd32 d1       inc r1          r1=$0c11
08:bd33 3c       loop            r12=$0007 r15=$bd31
08:bd30 d1       inc r1          r1=$0c12
08:bd31 31       stw (r1)        SRAM=00:0C12
08:bd32 d1       inc r1          r1=$0c13
08:bd33 3c       loop            r12=$0006 r15=$bd31
08:bd30 d1       inc r1          r1=$0c14
08:bd31 31       stw (r1)        SRAM=00:0C14
08:bd32 d1       inc r1          r1=$0c15
08:bd33 3c       loop            r12=$0005 r15=$bd31
08:bd30 d1       inc r1          r1=$0c16
08:bd31 31       stw (r1)        SRAM=00:0C16
08:bd32 d1       inc r1          r1=$0c17
08:bd33 3c       loop            r12=$0004 r15=$bd31
08:bd30 d1       inc r1          r1=$0c18
08:bd31 31       stw (r1)        SRAM=00:0C18
08:bd32 d1       inc r1          r1=$0c19
08:bd33 3c       loop            r12=$0003 r15=$bd31
08:bd30 d1       inc r1          r1=$0c1a
08:bd31 31       stw (r1)        SRAM=00:0C1A
08:bd32 d1       inc r1          r1=$0c1b
08:bd33 3c       loop            r12=$0002 r15=$bd31
08:bd30 d1       inc r1          r1=$0c1c
08:bd31 31       stw (r1)        SRAM=00:0C1C
08:bd32 d1       inc r1          r1=$0c1d
08:bd33 3c       loop            r12=$0001 r15=$bd31
08:bd30 d1       inc r1          r1=$0c1e
08:bd31 31       stw (r1)        SRAM=00:0C1E
08:bd32 d1       inc r1          r1=$0c1f
08:bd33 3c       loop            r12=$0000 Z=1
08:bd34 d1       inc r1          r1=$0c20 Z=0
08:bd35 00       stop            G=0
