org $0B8000

DATA_0B8000:         db $00, $01, $00, $01, $00, $01, $00, $01
DATA_0B8008:         db $00, $01, $00, $01, $FF, $00, $FF, $00
DATA_0B8010:         db $FF, $00, $FE, $00, $FE, $00, $FE, $00
DATA_0B8018:         db $FD, $00, $FD, $00, $FC, $00, $FC, $00
DATA_0B8020:         db $FB, $00, $FA, $00, $FA, $00, $F9, $00
DATA_0B8028:         db $F8, $00, $F8, $00, $F7, $00, $F6, $00
DATA_0B8030:         db $F5, $00, $F4, $00, $F3, $00, $F2, $00
DATA_0B8038:         db $F1, $00, $F0, $00, $EF, $00, $EE, $00
DATA_0B8040:         db $ED, $00, $EB, $00, $EA, $00, $E9, $00
DATA_0B8048:         db $E7, $00, $E6, $00, $E5, $00, $E3, $00
DATA_0B8050:         db $E2, $00, $E0, $00, $DF, $00, $DD, $00
DATA_0B8058:         db $DC, $00, $DA, $00, $D8, $00, $D7, $00
DATA_0B8060:         db $D5, $00, $D3, $00, $D1, $00, $CF, $00
DATA_0B8068:         db $CE, $00, $CC, $00, $CA, $00, $C8, $00
DATA_0B8070:         db $C6, $00, $C4, $00, $C2, $00, $C0, $00
DATA_0B8078:         db $BE, $00, $BC, $00, $B9, $00, $B7, $00
DATA_0B8080:         db $B5, $00, $B3, $00, $B1, $00, $AE, $00
DATA_0B8088:         db $AC, $00, $AA, $00, $A7, $00, $A5, $00
DATA_0B8090:         db $A2, $00, $A0, $00, $9D, $00, $9B, $00
DATA_0B8098:         db $98, $00, $96, $00, $93, $00, $91, $00
DATA_0B80A0:         db $8E, $00, $8C, $00, $89, $00, $86, $00
DATA_0B80A8:         db $84, $00, $81, $00, $7E, $00, $7B, $00
DATA_0B80B0:         db $79, $00, $76, $00, $73, $00, $70, $00
DATA_0B80B8:         db $6D, $00, $6B, $00, $68, $00, $65, $00
DATA_0B80C0:         db $62, $00, $5F, $00, $5C, $00, $59, $00
DATA_0B80C8:         db $56, $00, $53, $00, $50, $00, $4D, $00
DATA_0B80D0:         db $4A, $00, $47, $00, $44, $00, $41, $00
DATA_0B80D8:         db $3E, $00, $3B, $00, $38, $00, $35, $00
DATA_0B80E0:         db $32, $00, $2F, $00, $2C, $00, $29, $00
DATA_0B80E8:         db $26, $00, $22, $00, $1F, $00, $1C, $00
DATA_0B80F0:         db $19, $00, $16, $00, $13, $00, $10, $00
DATA_0B80F8:         db $0D, $00, $09, $00, $06, $00, $03, $00
DATA_0B8100:         db $00, $00, $FD, $FF, $FA, $FF, $F7, $FF
DATA_0B8108:         db $F3, $FF, $F0, $FF, $ED, $FF, $EA, $FF
DATA_0B8110:         db $E7, $FF, $E4, $FF, $E1, $FF, $DE, $FF
DATA_0B8118:         db $DA, $FF, $D7, $FF, $D4, $FF, $D1, $FF
DATA_0B8120:         db $CE, $FF, $CB, $FF, $C8, $FF, $C5, $FF
DATA_0B8128:         db $C2, $FF, $BF, $FF, $BC, $FF, $B9, $FF
DATA_0B8130:         db $B6, $FF, $B3, $FF, $B0, $FF, $AD, $FF
DATA_0B8138:         db $AA, $FF, $A7, $FF, $A4, $FF, $A1, $FF
DATA_0B8140:         db $9E, $FF, $9B, $FF, $98, $FF, $95, $FF
DATA_0B8148:         db $93, $FF, $90, $FF, $8D, $FF, $8A, $FF
DATA_0B8150:         db $87, $FF, $85, $FF, $82, $FF, $7F, $FF
DATA_0B8158:         db $7C, $FF, $7A, $FF, $77, $FF, $74, $FF
DATA_0B8160:         db $72, $FF, $6F, $FF, $6D, $FF, $6A, $FF
DATA_0B8168:         db $68, $FF, $65, $FF, $63, $FF, $60, $FF
DATA_0B8170:         db $5E, $FF, $5B, $FF, $59, $FF, $56, $FF
DATA_0B8178:         db $54, $FF, $52, $FF, $4F, $FF, $4D, $FF
DATA_0B8180:         db $4B, $FF, $49, $FF, $47, $FF, $44, $FF
DATA_0B8188:         db $42, $FF, $40, $FF, $3E, $FF, $3C, $FF
DATA_0B8190:         db $3A, $FF, $38, $FF, $36, $FF, $34, $FF
DATA_0B8198:         db $32, $FF, $31, $FF, $2F, $FF, $2D, $FF
DATA_0B81A0:         db $2B, $FF, $29, $FF, $28, $FF, $26, $FF
DATA_0B81A8:         db $24, $FF, $23, $FF, $21, $FF, $20, $FF
DATA_0B81B0:         db $1E, $FF, $1D, $FF, $1B, $FF, $1A, $FF
DATA_0B81B8:         db $19, $FF, $17, $FF, $16, $FF, $15, $FF
DATA_0B81C0:         db $13, $FF, $12, $FF, $11, $FF, $10, $FF
DATA_0B81C8:         db $0F, $FF, $0E, $FF, $0D, $FF, $0C, $FF
DATA_0B81D0:         db $0B, $FF, $0A, $FF, $09, $FF, $08, $FF
DATA_0B81D8:         db $08, $FF, $07, $FF, $06, $FF, $06, $FF
DATA_0B81E0:         db $05, $FF, $04, $FF, $04, $FF, $03, $FF
DATA_0B81E8:         db $03, $FF, $02, $FF, $02, $FF, $02, $FF
DATA_0B81F0:         db $01, $FF, $01, $FF, $01, $FF, $00, $FF
DATA_0B81F8:         db $00, $FF, $00, $FF, $00, $FF, $00, $FF
DATA_0B8200:         db $00, $FF, $00, $FF, $00, $FF, $00, $FF
DATA_0B8208:         db $00, $FF, $00, $FF, $01, $FF, $01, $FF
DATA_0B8210:         db $01, $FF, $02, $FF, $02, $FF, $02, $FF
DATA_0B8218:         db $03, $FF, $03, $FF, $04, $FF, $04, $FF
DATA_0B8220:         db $05, $FF, $06, $FF, $06, $FF, $07, $FF
DATA_0B8228:         db $08, $FF, $08, $FF, $09, $FF, $0A, $FF
DATA_0B8230:         db $0B, $FF, $0C, $FF, $0D, $FF, $0E, $FF
DATA_0B8238:         db $0F, $FF, $10, $FF, $11, $FF, $12, $FF
DATA_0B8240:         db $13, $FF, $15, $FF, $16, $FF, $17, $FF
DATA_0B8248:         db $19, $FF, $1A, $FF, $1B, $FF, $1D, $FF
DATA_0B8250:         db $1E, $FF, $20, $FF, $21, $FF, $23, $FF
DATA_0B8258:         db $24, $FF, $26, $FF, $28, $FF, $29, $FF
DATA_0B8260:         db $2B, $FF, $2D, $FF, $2F, $FF, $31, $FF
DATA_0B8268:         db $32, $FF, $34, $FF, $36, $FF, $38, $FF
DATA_0B8270:         db $3A, $FF, $3C, $FF, $3E, $FF, $40, $FF
DATA_0B8278:         db $42, $FF, $44, $FF, $47, $FF, $49, $FF
DATA_0B8280:         db $4B, $FF, $4D, $FF, $4F, $FF, $52, $FF
DATA_0B8288:         db $54, $FF, $56, $FF, $59, $FF, $5B, $FF
DATA_0B8290:         db $5E, $FF, $60, $FF, $63, $FF, $65, $FF
DATA_0B8298:         db $68, $FF, $6A, $FF, $6D, $FF, $6F, $FF
DATA_0B82A0:         db $72, $FF, $74, $FF, $77, $FF, $7A, $FF
DATA_0B82A8:         db $7C, $FF, $7F, $FF, $82, $FF, $85, $FF
DATA_0B82B0:         db $87, $FF, $8A, $FF, $8D, $FF, $90, $FF
DATA_0B82B8:         db $93, $FF, $95, $FF, $98, $FF, $9B, $FF
DATA_0B82C0:         db $9E, $FF, $A1, $FF, $A4, $FF, $A7, $FF
DATA_0B82C8:         db $AA, $FF, $AD, $FF, $B0, $FF, $B3, $FF
DATA_0B82D0:         db $B6, $FF, $B9, $FF, $BC, $FF, $BF, $FF
DATA_0B82D8:         db $C2, $FF, $C5, $FF, $C8, $FF, $CB, $FF
DATA_0B82E0:         db $CE, $FF, $D1, $FF, $D4, $FF, $D7, $FF
DATA_0B82E8:         db $DA, $FF, $DE, $FF, $E1, $FF, $E4, $FF
DATA_0B82F0:         db $E7, $FF, $EA, $FF, $ED, $FF, $F0, $FF
DATA_0B82F8:         db $F3, $FF, $F7, $FF, $FA, $FF, $FD, $FF
DATA_0B8300:         db $00, $00, $03, $00, $06, $00, $09, $00
DATA_0B8308:         db $0D, $00, $10, $00, $13, $00, $16, $00
DATA_0B8310:         db $19, $00, $1C, $00, $1F, $00, $22, $00
DATA_0B8318:         db $26, $00, $29, $00, $2C, $00, $2F, $00
DATA_0B8320:         db $32, $00, $35, $00, $38, $00, $3B, $00
DATA_0B8328:         db $3E, $00, $41, $00, $44, $00, $47, $00
DATA_0B8330:         db $4A, $00, $4D, $00, $50, $00, $53, $00
DATA_0B8338:         db $56, $00, $59, $00, $5C, $00, $5F, $00
DATA_0B8340:         db $62, $00, $65, $00, $68, $00, $6B, $00
DATA_0B8348:         db $6D, $00, $70, $00, $73, $00, $76, $00
DATA_0B8350:         db $79, $00, $7B, $00, $7E, $00, $81, $00
DATA_0B8358:         db $84, $00, $86, $00, $89, $00, $8C, $00
DATA_0B8360:         db $8E, $00, $91, $00, $93, $00, $96, $00
DATA_0B8368:         db $98, $00, $9B, $00, $9D, $00, $A0, $00
DATA_0B8370:         db $A2, $00, $A5, $00, $A7, $00, $AA, $00
DATA_0B8378:         db $AC, $00, $AE, $00, $B1, $00, $B3, $00
DATA_0B8380:         db $B5, $00, $B7, $00, $B9, $00, $BC, $00
DATA_0B8388:         db $BE, $00, $C0, $00, $C2, $00, $C4, $00
DATA_0B8390:         db $C6, $00, $C8, $00, $CA, $00, $CC, $00
DATA_0B8398:         db $CE, $00, $CF, $00, $D1, $00, $D3, $00
DATA_0B83A0:         db $D5, $00, $D7, $00, $D8, $00, $DA, $00
DATA_0B83A8:         db $DC, $00, $DD, $00, $DF, $00, $E0, $00
DATA_0B83B0:         db $E2, $00, $E3, $00, $E5, $00, $E6, $00
DATA_0B83B8:         db $E7, $00, $E9, $00, $EA, $00, $EB, $00
DATA_0B83C0:         db $ED, $00, $EE, $00, $EF, $00, $F0, $00
DATA_0B83C8:         db $F1, $00, $F2, $00, $F3, $00, $F4, $00
DATA_0B83D0:         db $F5, $00, $F6, $00, $F7, $00, $F8, $00
DATA_0B83D8:         db $F8, $00, $F9, $00, $FA, $00, $FA, $00
DATA_0B83E0:         db $FB, $00, $FC, $00, $FC, $00, $FD, $00
DATA_0B83E8:         db $FD, $00, $FE, $00, $FE, $00, $FE, $00
DATA_0B83F0:         db $FF, $00, $FF, $00, $FF, $00, $00, $01
DATA_0B83F8:         db $00, $01, $00, $01, $00, $01, $00, $01
DATA_0B8400:         db $00, $01, $00, $01, $00, $01, $00, $01
DATA_0B8408:         db $00, $01, $00, $01, $FF, $00, $FF, $00
DATA_0B8410:         db $FF, $00, $FE, $00, $FE, $00, $FE, $00
DATA_0B8418:         db $FD, $00, $FD, $00, $FC, $00, $FC, $00
DATA_0B8420:         db $FB, $00, $FA, $00, $FA, $00, $F9, $00
DATA_0B8428:         db $F8, $00, $F8, $00, $F7, $00, $F6, $00
DATA_0B8430:         db $F5, $00, $F4, $00, $F3, $00, $F2, $00
DATA_0B8438:         db $F1, $00, $F0, $00, $EF, $00, $EE, $00
DATA_0B8440:         db $ED, $00, $EB, $00, $EA, $00, $E9, $00
DATA_0B8448:         db $E7, $00, $E6, $00, $E5, $00, $E3, $00
DATA_0B8450:         db $E2, $00, $E0, $00, $DF, $00, $DD, $00
DATA_0B8458:         db $DC, $00, $DA, $00, $D8, $00, $D7, $00
DATA_0B8460:         db $D5, $00, $D3, $00, $D1, $00, $CF, $00
DATA_0B8468:         db $CE, $00, $CC, $00, $CA, $00, $C8, $00
DATA_0B8470:         db $C6, $00, $C4, $00, $C2, $00, $C0, $00
DATA_0B8478:         db $BE, $00, $BC, $00, $B9, $00, $B7, $00
DATA_0B8480:         db $B5, $00, $B3, $00, $B1, $00, $AE, $00
DATA_0B8488:         db $AC, $00, $AA, $00, $A7, $00, $A5, $00
DATA_0B8490:         db $A2, $00, $A0, $00, $9D, $00, $9B, $00
DATA_0B8498:         db $98, $00, $96, $00, $93, $00, $91, $00
DATA_0B84A0:         db $8E, $00, $8C, $00, $89, $00, $86, $00
DATA_0B84A8:         db $84, $00, $81, $00, $7E, $00, $7B, $00
DATA_0B84B0:         db $79, $00, $76, $00, $73, $00, $70, $00
DATA_0B84B8:         db $6D, $00, $6B, $00, $68, $00, $65, $00
DATA_0B84C0:         db $62, $00, $5F, $00, $5C, $00, $59, $00
DATA_0B84C8:         db $56, $00, $53, $00, $50, $00, $4D, $00
DATA_0B84D0:         db $4A, $00, $47, $00, $44, $00, $41, $00
DATA_0B84D8:         db $3E, $00, $3B, $00, $38, $00, $35, $00
DATA_0B84E0:         db $32, $00, $2F, $00, $2C, $00, $29, $00
DATA_0B84E8:         db $26, $00, $22, $00, $1F, $00, $1C, $00
DATA_0B84F0:         db $19, $00, $16, $00, $13, $00, $10, $00
DATA_0B84F8:         db $0D, $00, $09, $00, $06, $00, $03, $00

000B:8500 A0 08        ibt   r0,#0008
000B:8502 3F DF        romb
000B:8504 F0 18 AC     iwt   r0,#AC18
000B:8507 1E 59        add   r9
000B:8509 F0 98 AB     iwt   r0,#AB98
000B:850C 1A 59        add   r9
000B:850E EF           getb
000B:850F DE           inc   r14
000B:8510 3D EF        getbh
000B:8512 20 1B        move  r11,r0
000B:8514 24 16        move  r6,r4
000B:8516 15 9F        fmult
000B:8518 2A 1E        move  r14,r10
000B:851A EF           getb
000B:851B DE           inc   r14
000B:851C 3D EF        getbh
000B:851E 20 1A        move  r10,r0
000B:8520 21 16        move  r6,r1
000B:8522 9F           fmult
000B:8523 65           sub   r5
000B:8524 67           sub   r7
000B:8525 3D CC        xor   r12
000B:8527 0A 2D        bpl   8556
000B:8529 60           sub   r0
000B:852A 24 16        move  r6,r4
000B:852C BB 9F        fmult
000B:852E 57           add   r7
000B:852F 9E           lob
000B:8530 16 4D        swap
000B:8532 B2 13 9F     fmult
000B:8535 A5 08        ibt   r5,#0008
000B:8537 24 16        move  r6,r4
000B:8539 BA 9F        fmult
000B:853B 63           sub   r3
000B:853C 20 17        move  r7,r0
000B:853E 2D BD        moves r13,r13
000B:8540 08 0A        bne   854C
000B:8542 01           nop
000B:8543 68           sub   r8
000B:8544 55           add   r5
000B:8545 25 55        add   r5
000B:8547 3F 65        cmp   r5
000B:8549 0D 0B        bcs   8556
000B:854B 60           sub   r0
000B:854C 3E A7 1E     sms   (003C),r7
000B:854F A0 01        ibt   r0,#0001
000B:8551 3E A0 1F     sms   (003E),r0
000B:8554 00           stop
000B:8555 01           nop

000B:8556 3E A0 1F     sms   (003E),r0
000B:8559 00           stop
000B:855A 01           nop

000B:855B A0 08        ibt   r0,#0008
000B:855D 3F DF        romb
000B:855F F0 18 AC     iwt   r0,#AC18
000B:8562 1E 51        add   r1
000B:8564 F0 98 AB     iwt   r0,#AB98
000B:8567 1A 51        add   r1
000B:8569 EF           getb
000B:856A DE           inc   r14
000B:856B 3D EF        getbh
000B:856D 11 9F        fmult
000B:856F 2A 1E        move  r14,r10
000B:8571 EF           getb
000B:8572 DE           inc   r14
000B:8573 3D EF        getbh
000B:8575 9F           fmult
000B:8576 00           stop
000B:8577 01           nop

000B:8578 9F           fmult
000B:8579 57           add   r7
000B:857A 3E A0 1E     sms   (003C),r0
000B:857D 50           add   r0
000B:857E D0           inc   r0
000B:857F 3E A0 1C     sms   (0038),r0
000B:8582 29 16        move  r6,r9
000B:8584 B1 9F        fmult
000B:8586 3E A0 1B     sms   (0036),r0
000B:8589 58           add   r8
000B:858A 53           add   r3
000B:858B 3E A0 1F     sms   (003E),r0
000B:858E 50           add   r0
000B:858F D0           inc   r0
000B:8590 3E A0 1D     sms   (003A),r0
000B:8593 00           stop
000B:8594 01           nop

000B:8595 94           link  #04
000B:8596 FF 9C 85     iwt   r15,#859C
000B:8599 01           nop
000B:859A 00           stop
000B:859B 01           nop

000B:859C A0 08        ibt   r0,#0008
000B:859E 3F DF        romb
000B:85A0 F0 18 AC     iwt   r0,#AC18
000B:85A3 1E 51        add   r1
000B:85A5 F0 98 AB     iwt   r0,#AB98
000B:85A8 12 51        add   r1
000B:85AA EF           getb
000B:85AB DE           inc   r14
000B:85AC 3D EF        getbh
000B:85AE 3D 9F        lmult
000B:85B0 F3 80 00     iwt   r3,#0080
000B:85B3 24 53        add   r3
000B:85B5 3F 50        adc   #00
000B:85B7 24 C0        hib
000B:85B9 9E           lob
000B:85BA 4D           swap
000B:85BB 11 C4        or    r4
000B:85BD 22 1E        move  r14,r2
000B:85BF EF           getb
000B:85C0 DE           inc   r14
000B:85C1 3D EF        getbh
000B:85C3 3D 9F        lmult
000B:85C5 24 53        add   r3
000B:85C7 3F 50        adc   #00
000B:85C9 24 C0        hib
000B:85CB 9E           lob
000B:85CC 4D           swap
000B:85CD C4           or    r4
000B:85CE 9B           jmp   r11
000B:85CF 01           nop

000B:85D0 A0 08        ibt   r0,#0008
000B:85D2 3F DF        romb
000B:85D4 F0 18 AC     iwt   r0,#AC18
000B:85D7 1E 51        add   r1
000B:85D9 F0 98 AB     iwt   r0,#AB98
000B:85DC 12 51        add   r1
000B:85DE EF           getb
000B:85DF DE           inc   r14
000B:85E0 3D EF        getbh
000B:85E2 3D 9F        lmult
000B:85E4 24 C0        hib
000B:85E6 9E           lob
000B:85E7 4D           swap
000B:85E8 18 C4        or    r4
000B:85EA 22 1E        move  r14,r2
000B:85EC EF           getb
000B:85ED DE           inc   r14
000B:85EE 3D EF        getbh
000B:85F0 3D 9F        lmult
000B:85F2 24 C0        hib
000B:85F4 9E           lob
000B:85F5 4D           swap
000B:85F6 17 C4        or    r4
000B:85F8 F1 00 22     iwt   r1,#2200
000B:85FB B9 16 59     add   r9
000B:85FE 21 56        add   r6
000B:8600 16 41        ldw   (r1)
000B:8602 B7 19 9F     fmult
000B:8605 B8 1A 9F     fmult
000B:8608 00           stop
000B:8609 01           nop

000B:860A FB 00 00     iwt   r11,#0000
000B:860D A5 10        ibt   r5,#0010
000B:860F A7 F8        ibt   r7,#FFF8
000B:8611 B2 77        and   r7
000B:8613 03           lsr
000B:8614 03           lsr
000B:8615 3E A0 10     sms   (0020),r0
000B:8618 5B           add   r11
000B:8619 40           ldw   (r0)
000B:861A 5A           add   r10
000B:861B 68           sub   r8
000B:861C 3F 69        cmp   r9
000B:861E 0A 71        bpl   8691
000B:8620 01           nop
000B:8621 59           add   r9
000B:8622 0B 6D        bmi   8691
000B:8624 01           nop
000B:8625 D1           inc   r1
000B:8626 3D A0 10     lms   r0,(0020)
000B:8629 1A 3E 72     and   #02
000B:862C 2B 5A        add   r10
000B:862E 22 62        sub   r2
000B:8630 3D A8 1E     lms   r8,(003C)
000B:8633 3D A9 1F     lms   r9,(003E)
000B:8636 A7 10        ibt   r7,#0010
000B:8638 A5 38        ibt   r5,#0038
000B:863A AC 04        ibt   r12,#0004
000B:863C 02           cache
000B:863D 2F 1D        move  r13,r15
000B:863F 20 B3        moves r0,r3
000B:8641 0B 03        bmi   8646
000B:8643 01           nop
000B:8644 4F           not
000B:8645 D0           inc   r0
000B:8646 55           add   r5
000B:8647 3D 9F        lmult
000B:8649 24 C0        hib
000B:864B 9E           lob
000B:864C 4D           swap
000B:864D C4           or    r4
000B:864E 3B           stw   (r11)
000B:864F 23 57        add   r7
000B:8651 22 B2        moves r2,r2
000B:8653 08 03        bne   8658
000B:8655 01           nop
000B:8656 29 16        move  r6,r9
000B:8658 B2 3E 62     sub   #02
000B:865B 08 03        bne   8660
000B:865D 01           nop
000B:865E 28 16        move  r6,r8
000B:8660 2B 3E 54     add   #04
000B:8663 3C           loop
000B:8664 D2           inc   r2
000B:8665 BA 3E 60     sub   #00
000B:8668 08 29        bne   8693
000B:866A 01           nop
000B:866B 60           sub   r0
000B:866C 3E A0 08     sms   (0010),r0
000B:866F 3D A2 00     lms   r2,(0000)
000B:8672 3D A3 02     lms   r3,(0004)
000B:8675 FA 08 00     iwt   r10,#0008
000B:8678 FB 02 00     iwt   r11,#0002
000B:867B AC 04        ibt   r12,#0004
000B:867D 2F 1D        move  r13,r15
000B:867F B2 53        add   r3
000B:8681 03           lsr
000B:8682 3D 3B        stb   (r11)
000B:8684 23 12        move  r2,r3
000B:8686 13 3D 4A     ldb   (r10)
000B:8689 2A 3E 54     add   #04
000B:868C 2B 3E 54     add   #04
000B:868F 3C           loop
000B:8690 01           nop
000B:8691 00           stop
000B:8692 01           nop

000B:8693 A2 00        ibt   r2,#0000
000B:8695 3D A3 01     lms   r3,(0002)
000B:8698 FA 06 00     iwt   r10,#0006
000B:869B FB 00 00     iwt   r11,#0000
000B:869E AC 04        ibt   r12,#0004
000B:86A0 2F 1D        move  r13,r15
000B:86A2 B2 53        add   r3
000B:86A4 03           lsr
000B:86A5 3D 3B        stb   (r11)
000B:86A7 23 12        move  r2,r3
000B:86A9 13 3D 4A     ldb   (r10)
000B:86AC 2A 3E 54     add   #04
000B:86AF 2B 3E 54     add   #04
000B:86B2 3C           loop
000B:86B3 01           nop
000B:86B4 00           stop
000B:86B5 01           nop

000B:86B6 3D 9F        lmult
000B:86B8 24 C0        hib
000B:86BA 9E           lob
000B:86BB 4D           swap
000B:86BC C4           or    r4
000B:86BD 00           stop
000B:86BE 01           nop

000B:86BF F1 00 22     iwt   r1,#2200
000B:86C2 26 56        add   r6
000B:86C4 21 56        add   r6
000B:86C6 16 41        ldw   (r1)
000B:86C8 3D 9F        lmult
000B:86CA 24 C0        hib
000B:86CC 9E           lob
000B:86CD 4D           swap
000B:86CE C4           or    r4
000B:86CF 00           stop
000B:86D0 01           nop

000B:86D1 F0 00 22     iwt   r0,#2200
000B:86D4 52           add   r2
000B:86D5 16 40        ldw   (r0)
000B:86D7 B1 03        lsr
000B:86D9 03           lsr
000B:86DA 3D 9F        lmult
000B:86DC 24 C0        hib
000B:86DE 9E           lob
000B:86DF 4D           swap
000B:86E0 C4           or    r4
000B:86E1 23 16        move  r6,r3
000B:86E3 3D 9F        lmult
000B:86E5 24 C0        hib
000B:86E7 9E           lob
000B:86E8 4D           swap
000B:86E9 C4           or    r4
000B:86EA 00           stop
000B:86EB 01           nop

000B:86EC 3D 9F        lmult
000B:86EE 24 C0        hib
000B:86F0 9E           lob
000B:86F1 4D           swap
000B:86F2 C4           or    r4
000B:86F3 4F           not
000B:86F4 D0           inc   r0
000B:86F5 52           add   r2
000B:86F6 51           add   r1
000B:86F7 63           sub   r3
000B:86F8 00           stop
000B:86F9 01           nop

000B:86FA A0 08        ibt   r0,#0008
000B:86FC 3F DF        romb
000B:86FE F0 18 AC     iwt   r0,#AC18
000B:8701 1E 51        add   r1
000B:8703 F0 98 AB     iwt   r0,#AB98
000B:8706 1A 51        add   r1
000B:8708 EF           getb
000B:8709 DE           inc   r14
000B:870A 3D EF        getbh
000B:870C 25 16        move  r6,r5
000B:870E 3D 9F        lmult
000B:8710 24 C0        hib
000B:8712 9E           lob
000B:8713 4D           swap
000B:8714 16 C4        or    r4
000B:8716 B3 3D 9F     lmult
000B:8719 24 C0        hib
000B:871B 9E           lob
000B:871C 4D           swap
000B:871D 11 C4        or    r4
000B:871F 2A 1E        move  r14,r10
000B:8721 EF           getb
000B:8722 DE           inc   r14
000B:8723 3D EF        getbh
000B:8725 25 16        move  r6,r5
000B:8727 3D 9F        lmult
000B:8729 24 C0        hib
000B:872B 9E           lob
000B:872C 4D           swap
000B:872D 16 C4        or    r4
000B:872F B2 3D 9F     lmult
000B:8732 24 C0        hib
000B:8734 9E           lob
000B:8735 4D           swap
000B:8736 C4           or    r4
000B:8737 00           stop
000B:8738 01           nop

000B:8739 3D 9F        lmult
000B:873B 24 C0        hib
000B:873D 9E           lob
000B:873E 4D           swap
000B:873F 16 C4        or    r4
000B:8741 F3 00 22     iwt   r3,#2200
000B:8744 B2 52        add   r2
000B:8746 53           add   r3
000B:8747 40           ldw   (r0)
000B:8748 3D 9F        lmult
000B:874A 24 C0        hib
000B:874C 9E           lob
000B:874D 4D           swap
000B:874E C4           or    r4
000B:874F 00           stop
000B:8750 01           nop

000B:8751 3F DF        romb
000B:8753 3E A1 01     sms   (0002),r1
000B:8756 3E A2 02     sms   (0004),r2
000B:8759 F0 62 13     iwt   r0,#1362
000B:875C 5A           add   r10
000B:875D 40           ldw   (r0)
000B:875E 24 B0        moves r4,r0
000B:8760 0A 03        bpl   8765
000B:8762 BE 00        stop
000B:8764 01           nop

000B:8765 58           add   r8
000B:8766 1E 58        add   r8
000B:8768 3E A4 24     sms   (0048),r4
000B:876B 3F EF        getbs
000B:876D DE           inc   r14
000B:876E 13 5C        add   r12
000B:8770 3F EF        getbs
000B:8772 DE           inc   r14
000B:8773 1B 5D        add   r13
000B:8775 3F EF        getbs
000B:8777 DE           inc   r14
000B:8778 15 5C        add   r12
000B:877A 3F EF        getbs
000B:877C 19 5D        add   r13
000B:877E B5 3D 9F     lmult
000B:8781 24 C0        hib
000B:8783 9E           lob
000B:8784 4D           swap
000B:8785 C4           or    r4
000B:8786 65           sub   r5
000B:8787 51           add   r1
000B:8788 3E A0 01     sms   (0002),r0
000B:878B B3 3D 9F     lmult
000B:878E 24 C0        hib
000B:8790 9E           lob
000B:8791 4D           swap
000B:8792 C4           or    r4
000B:8793 63           sub   r3
000B:8794 11 51        add   r1
000B:8796 3D A6 26     lms   r6,(004C)
000B:8799 B9 3D 9F     lmult
000B:879C 24 C0        hib
000B:879E 9E           lob
000B:879F 4D           swap
000B:87A0 C4           or    r4
000B:87A1 69           sub   r9
000B:87A2 52           add   r2
000B:87A3 3E A0 02     sms   (0004),r0
000B:87A6 BB 3D 9F     lmult
000B:87A9 24 C0        hib
000B:87AB 9E           lob
000B:87AC 4D           swap
000B:87AD C4           or    r4
000B:87AE 6B           sub   r11
000B:87AF 12 52        add   r2
000B:87B1 3D A4 24     lms   r4,(0048)
000B:87B4 3D A0 00     lms   r0,(0000)
000B:87B7 57           add   r7
000B:87B8 1E 57        add   r7
000B:87BA EF           getb
000B:87BB DE           inc   r14
000B:87BC 1E 3D EF     getbh
000B:87BF F0 42 10     iwt   r0,#1042
000B:87C2 5A           add   r10
000B:87C3 13 3D 40     ldb   (r0)
000B:87C6 B8 58        add   r8
000B:87C8 50           add   r0
000B:87C9 3E 88        mult  #08
000B:87CB 3D C3        xor   r3
000B:87CD 13 4D        swap
000B:87CF F0 80 11     iwt   r0,#1180
000B:87D2 5A           add   r10
000B:87D3 3D 40        ldb   (r0)
000B:87D5 3E 88        mult  #08
000B:87D7 3E A0 00     sms   (0000),r0
000B:87DA F0 E0 10     iwt   r0,#10E0
000B:87DD 5A           add   r10
000B:87DE 3D 40        ldb   (r0)
000B:87E0 1A 4D        swap
000B:87E2 AC 06        ibt   r12,#0006
000B:87E4 02           cache
000B:87E5 2F 1D        move  r13,r15
000B:87E7 3F EF        getbs
000B:87E9 F9 00 40     iwt   r9,#4000
000B:87EC 29 73        and   r3
000B:87EE 09 05        beq   87F5
000B:87F0 DE           inc   r14
000B:87F1 4F           not
000B:87F2 D0           inc   r0
000B:87F3 A9 08        ibt   r9,#0008
000B:87F5 15 51        add   r1
000B:87F7 3F EF        getbs
000B:87F9 A8 00        ibt   r8,#0000
000B:87FB 23 B3        moves r3,r3
000B:87FD 0A 05        bpl   8804
000B:87FF DE           inc   r14
000B:8800 4F           not
000B:8801 D0           inc   r0
000B:8802 A8 08        ibt   r8,#0008
000B:8804 16 52        add   r2
000B:8806 EF           getb
000B:8807 DE           inc   r14
000B:8808 3D EF        getbh
000B:880A DE           inc   r14
000B:880B 17 3D C3     xor   r3
000B:880E EF           getb
000B:880F 3E 72        and   #02
000B:8811 08 05        bne   8818
000B:8813 01           nop
000B:8814 25 59        add   r9
000B:8816 26 58        add   r8
000B:8818 3D EF        getbh
000B:881A DE           inc   r14
000B:881B B5 34        stw   (r4)
000B:881D D4           inc   r4
000B:881E D4           inc   r4
000B:881F 15 3D CA     xor   r10
000B:8822 B6 34        stw   (r4)
000B:8824 D4           inc   r4
000B:8825 D4           inc   r4
000B:8826 3D A0 00     lms   r0,(0000)
000B:8829 57           add   r7
000B:882A 34           stw   (r4)
000B:882B D4           inc   r4
000B:882C D4           inc   r4
000B:882D B5 34        stw   (r4)
000B:882F BC 3E 64     sub   #04
000B:8832 08 0B        bne   883F
000B:8834 D4           inc   r4
000B:8835 A0 20        ibt   r0,#0020
000B:8837 24 50        add   r0
000B:8839 3D A1 01     lms   r1,(0002)
000B:883C 3D A2 02     lms   r2,(0004)
000B:883F 3C           loop
000B:8840 D4           inc   r4
000B:8841 00           stop
000B:8842 01           nop

DATA_0B8843:         db $00, $00, $59, $00, $A7, $59, $A7, $00
DATA_0B884B:         db $00, $00, $00, $00, $A7, $00, $59, $A7
DATA_0B8853:         db $59, $00, $00, $00, $59, $A7, $00, $00
DATA_0B885B:         db $00, $00, $00, $59, $00, $A7, $00, $00
DATA_0B8863:         db $A7, $00, $59, $A7, $59, $00, $00, $00
DATA_0B886B:         db $A7, $59, $00, $00, $00, $00, $00, $59
DATA_0B8873:         db $00, $A7, $59, $A7, $00, $00, $00, $00
DATA_0B887B:         db $00, $A7, $00, $59, $00, $00, $59, $00
DATA_0B8883:         db $A7, $A7, $59, $00, $00, $00, $59, $A7
DATA_0B888B:         db $00, $00, $00, $00, $00, $A7, $00, $59
DATA_0B8893:         db $08, $04, $01, $00, $02, $04, $08, $02
DATA_0B889B:         db $00, $01, $04, $08, $02, $00, $01, $08
DATA_0B88A3:         db $04, $01, $00, $02, $01, $02, $04, $00
DATA_0B88AB:         db $08, $01, $02, $04, $00, $08, $04, $08
DATA_0B88B3:         db $02, $00, $01, $08, $04, $01, $00, $02
DATA_0B88BB:         db $81, $80, $01, $00, $00, $01, $00, $80
DATA_0B88C3:         db $00, $81, $80, $81, $00, $00, $01, $00
DATA_0B88CB:         db $01, $81, $00, $80, $01, $00, $80, $00
DATA_0B88D3:         db $81, $81, $80, $01, $00, $00, $80, $81
DATA_0B88DB:         db $00, $00, $01, $00, $01, $81, $00, $80
DATA_0B88E3:         db $01, $0F, $0F, $00, $01, $0F, $01, $01
DATA_0B88EB:         db $00, $0F, $FF, $01, $0F, $00, $01, $0F
DATA_0B88F3:         db $01, $FF, $00, $01, $01, $0F, $0F, $00
DATA_0B88FB:         db $01, $0F, $01, $01, $00, $0F, $FF, $01
DATA_0B8903:         db $0F, $00, $01, $0F, $01, $FF, $00, $01
DATA_0B890B:         db $01, $0F, $01, $00, $0F, $0F, $01, $0F
DATA_0B8913:         db $00, $01, $01, $0F, $FF, $00, $01, $01
DATA_0B891B:         db $FF, $0F, $00, $01, $01, $0F, $01, $00
DATA_0B8923:         db $0F, $0F, $01, $0F, $00, $01, $01, $0F
DATA_0B892B:         db $FF, $00, $01, $01, $FF, $0F, $00, $01
DATA_0B8933:         db $3E, $C2, $3E, $00, $C2, $3E, $C2, $3E
DATA_0B893B:         db $00, $C2, $3E, $C2, $C2, $00, $3E, $C2
DATA_0B8943:         db $3E, $3E, $00, $C2, $C2, $3E, $3E, $00
DATA_0B894B:         db $C2, $C2, $3E, $3E, $00, $C2, $3E, $C2
DATA_0B8953:         db $3E, $00, $C2, $C2, $3E, $C2, $00, $3E
DATA_0B895B:         db $41, $40, $C0, $00, $C1, $41, $40, $C0
DATA_0B8963:         db $00, $C1, $C0, $C1, $40, $00, $41, $C1
DATA_0B896B:         db $C0, $41, $00, $40, $01, $0F, $0F, $00
DATA_0B8973:         db $01, $0F, $01, $01, $00, $0F, $00, $00
DATA_0B897B:         db $0F, $00, $01, $0F, $01, $00, $00, $00
DATA_0B8983:         db $01, $0F, $01, $00, $0F, $0F, $01, $0F
DATA_0B898B:         db $00, $01, $01, $0F, $00, $00, $01, $00
DATA_0B8993:         db $00, $0F, $00, $01, $0F, $00, $01, $00
DATA_0B899B:         db $0E, $01, $0E, $0F, $00, $00, $0E, $01
DATA_0B89A3:         db $0F, $00, $00, $00, $0F, $01, $00, $0E
DATA_0B89AB:         db $00, $0F, $00, $00, $0F, $0F, $00, $00
DATA_0B89B3:         db $00, $0F, $70, $80, $80, $80, $80, $00
DATA_0B89BB:         db $02, $80, $80, $04, $01, $80, $80, $80
DATA_0B89C3:         db $80, $80, $70, $80, $80, $80, $80, $07
DATA_0B89CB:         db $06, $80, $80, $05, $09, $80, $80, $80
DATA_0B89D3:         db $80, $80, $00, $00, $FF, $00, $01, $FF
DATA_0B89DB:         db $01, $00, $00, $00, $01

000B:89E0 FF 00 00     iwt   r15,#0000
000B:89E3 00           stop
000B:89E4 00           stop
000B:89E5 00           stop
000B:89E6 FF 00 01     iwt   r15,#0100
000B:89E9 F0 02 19     iwt   r0,#1902
000B:89EC 5A           add   r10
000B:89ED 11 40        ldw   (r0)
000B:89EF F0 06 00     iwt   r0,#0006
000B:89F2 15 51        add   r1
000B:89F4 3E A5 25     sms   (004A),r5
000B:89F7 A0 FF        ibt   r0,#FFFF
000B:89F9 3E A0 20     sms   (0040),r0
000B:89FC 3E A0 21     sms   (0042),r0
000B:89FF F0 01 19     iwt   r0,#1901
000B:8A02 5A           add   r10
000B:8A03 3D 40        ldb   (r0)
000B:8A05 3E A0 0C     sms   (0018),r0
000B:8A08 F0 E2 10     iwt   r0,#10E2
000B:8A0B 5A           add   r10
000B:8A0C 17 40        ldw   (r0)
000B:8A0E F0 82 11     iwt   r0,#1182
000B:8A11 5A           add   r10
000B:8A12 18 40        ldw   (r0)
000B:8A14 F0 76 19     iwt   r0,#1976
000B:8A17 5A           add   r10
000B:8A18 19 40        ldw   (r0)
000B:8A1A 3E A7 17     sms   (002E),r7
000B:8A1D 3E A8 18     sms   (0030),r8
000B:8A20 3E A9 19     sms   (0032),r9
000B:8A23 94           link  #04
000B:8A24 FF 44 8C     iwt   r15,#8C44
000B:8A27 01           nop
000B:8A28 60           sub   r0
000B:8A29 3E A0 21     sms   (0042),r0
000B:8A2C 3D A5 25     lms   r5,(004A)
000B:8A2F 3D A7 17     lms   r7,(002E)
000B:8A32 3D A8 18     lms   r8,(0030)
000B:8A35 3D A9 19     lms   r9,(0032)
000B:8A38 F0 00 19     iwt   r0,#1900
000B:8A3B 5A           add   r10
000B:8A3C 11 3D 40     ldb   (r0)
000B:8A3F B1 95        sex
000B:8A41 0A 03        bpl   8A46
000B:8A43 01           nop
000B:8A44 00           stop
000B:8A45 01           nop

000B:8A46 B1 3E 62     sub   #02
000B:8A49 09 05        beq   8A50
000B:8A4B 01           nop
000B:8A4C FF 1B 8B     iwt   r15,#8B1B
000B:8A4F 01           nop
000B:8A50 A0 01        ibt   r0,#0001
000B:8A52 3E A0 21     sms   (0042),r0
000B:8A55 F0 76 19     iwt   r0,#1976
000B:8A58 5A           add   r10
000B:8A59 11 40        ldw   (r0)
000B:8A5B F0 00 E0     iwt   r0,#E000
000B:8A5E 3E A0 03     sms   (0006),r0
000B:8A61 3E A1 04     sms   (0008),r1
000B:8A64 B1 60        sub   r0
000B:8A66 C0           hib
000B:8A67 3E A0 05     sms   (000A),r0
000B:8A6A A4 40        ibt   r4,#0040
000B:8A6C 74           and   r4
000B:8A6D 08 28        bne   8A97
000B:8A6F 01           nop
000B:8A70 A0 02        ibt   r0,#0002
000B:8A72 3E A0 21     sms   (0042),r0
000B:8A75 B8 3E 7F     and   #0F
000B:8A78 3E 68        sub   #08
000B:8A7A 0B 0C        bmi   8A88
000B:8A7C A1 18        ibt   r1,#0018
000B:8A7E B8 3F 7F     bic   #0F
000B:8A81 18 3E C6     or    #06
000B:8A84 05 35        bra   8ABB

000B:8A86 01           nop

000B:8A87 A1 20        ibt   r1,#0020
000B:8A89 3D A0 21     lms   r0,(0042)
000B:8A8C D0           inc   r0
000B:8A8D 90           sbk
000B:8A8E B8 3F 7F     bic   #0F
000B:8A91 18 3E C9     or    #09
000B:8A94 05 25        bra   8ABB

000B:8A96 01           nop

000B:8A97 A0 04        ibt   r0,#0004
000B:8A99 3E A0 21     sms   (0042),r0
000B:8A9C B7 3E 7F     and   #0F
000B:8A9F 3E 68        sub   #08
000B:8AA1 0B 0C        bmi   8AAF
000B:8AA3 A1 08        ibt   r1,#0008
000B:8AA5 B7 3F 7F     bic   #0F
000B:8AA8 17 3E C6     or    #06
000B:8AAB 05 0E        bra   8ABB

000B:8AAD 01           nop

000B:8AAE A1 10        ibt   r1,#0010
000B:8AB0 3D A0 21     lms   r0,(0042)
000B:8AB3 D0           inc   r0
000B:8AB4 90           sbk
000B:8AB5 B7 3F 7F     bic   #0F
000B:8AB8 17 3E C9     or    #09
000B:8ABB F0 E2 10     iwt   r0,#10E2
000B:8ABE 5A           add   r10
000B:8ABF B7 30        stw   (r0)
000B:8AC1 F0 82 11     iwt   r0,#1182
000B:8AC4 5A           add   r10
000B:8AC5 B8 30        stw   (r0)
000B:8AC7 F0 76 19     iwt   r0,#1976
000B:8ACA 5A           add   r10
000B:8ACB B9 30        stw   (r0)
000B:8ACD 3D A5 25     lms   r5,(004A)
000B:8AD0 25 51        add   r1
000B:8AD2 94           link  #04
000B:8AD3 FF 44 8C     iwt   r15,#8C44
000B:8AD6 01           nop
000B:8AD7 3D A7 17     lms   r7,(002E)
000B:8ADA 3D A8 18     lms   r8,(0030)
000B:8ADD 3D A9 19     lms   r9,(0032)
000B:8AE0 F0 E2 10     iwt   r0,#10E2
000B:8AE3 5A           add   r10
000B:8AE4 B7 30        stw   (r0)
000B:8AE6 F0 82 11     iwt   r0,#1182
000B:8AE9 5A           add   r10
000B:8AEA B8 30        stw   (r0)
000B:8AEC F0 36 1A     iwt   r0,#1A36
000B:8AEF 5A           add   r10
000B:8AF0 16 40        ldw   (r0)
000B:8AF2 F0 38 1A     iwt   r0,#1A38
000B:8AF5 5A           add   r10
000B:8AF6 40           ldw   (r0)
000B:8AF7 26 C0        hib
000B:8AF9 9E           lob
000B:8AFA 4D           swap
000B:8AFB 16 C6        or    r6
000B:8AFD 3D A5 0F     lms   r5,(001E)
000B:8B00 B5 3D 9F     lmult
000B:8B03 24 C0        hib
000B:8B05 9E           lob
000B:8B06 4D           swap
000B:8B07 C4           or    r4
000B:8B08 19 59        add   r9
000B:8B0A F0 76 19     iwt   r0,#1976
000B:8B0D 5A           add   r10
000B:8B0E B9 30        stw   (r0)
000B:8B10 A1 FF        ibt   r1,#FFFF
000B:8B12 F0 00 19     iwt   r0,#1900
000B:8B15 5A           add   r10
000B:8B16 B1 3D 30     stb   (r0)
000B:8B19 00           stop
000B:8B1A 01           nop

000B:8B1B D0           inc   r0
000B:8B1C 09 46        beq   8B64
000B:8B1E 01           nop
000B:8B1F A0 10        ibt   r0,#0010
000B:8B21 3E A0 21     sms   (0042),r0
000B:8B24 29 4F        not
000B:8B26 D9           inc   r9
000B:8B27 B8 3E 7F     and   #0F
000B:8B2A 3E 68        sub   #08
000B:8B2C 0B 11        bmi   8B3F
000B:8B2E A1 18        ibt   r1,#0018
000B:8B30 3D A0 21     lms   r0,(0042)
000B:8B33 D0           inc   r0
000B:8B34 90           sbk
000B:8B35 B8 3F 7F     bic   #0F
000B:8B38 18 3E C6     or    #06
000B:8B3B 05 09        bra   8B46

000B:8B3D 01           nop

000B:8B3E A1 20        ibt   r1,#0020
000B:8B40 B8 3F 7F     bic   #0F
000B:8B43 18 3E C9     or    #09
000B:8B46 94           link  #04
000B:8B47 FF 05 8C     iwt   r15,#8C05
000B:8B4A 01           nop
000B:8B4B 3D A0 0C     lms   r0,(0018)
000B:8B4E 3E 66        sub   #06
000B:8B50 08 05        bne   8B57
000B:8B52 01           nop
000B:8B53 FF FA 8B     iwt   r15,#8BFA
000B:8B56 01           nop
000B:8B57 F3 00 80     iwt   r3,#8000
000B:8B5A B3 19 69     sub   r9
000B:8B5D B7 3E 7F     and   #0F
000B:8B60 3E 68        sub   #08
000B:8B62 0B 12        bmi   8B76
000B:8B64 A1 08        ibt   r1,#0008
000B:8B66 3D A0 21     lms   r0,(0042)
000B:8B69 3E 52        add   #02
000B:8B6B 90           sbk
000B:8B6C B7 3F 7F     bic   #0F
000B:8B6F 17 3E C6     or    #06
000B:8B72 05 0F        bra   8B83

000B:8B74 01           nop

000B:8B75 A1 10        ibt   r1,#0010
000B:8B77 3D A0 21     lms   r0,(0042)
000B:8B7A 3E 54        add   #04
000B:8B7C 90           sbk
000B:8B7D B7 3F 7F     bic   #0F
000B:8B80 17 3E C9     or    #09
000B:8B83 94           link  #04
000B:8B84 FF 05 8C     iwt   r15,#8C05
000B:8B87 01           nop
000B:8B88 F0 01 19     iwt   r0,#1901
000B:8B8B 5A           add   r10
000B:8B8C 3D 40        ldb   (r0)
000B:8B8E 3E 62        sub   #02
000B:8B90 0A 68        bpl   8BFA
000B:8B92 01           nop
000B:8B93 F0 E0 15     iwt   r0,#15E0
000B:8B96 5A           add   r10
000B:8B97 15 40        ldw   (r0)
000B:8B99 B5 C0        hib
000B:8B9B E0           dec   r0
000B:8B9C 08 5C        bne   8BFA
000B:8B9E 01           nop
000B:8B9F A0 40        ibt   r0,#0040
000B:8BA1 3E A0 21     sms   (0042),r0
000B:8BA4 B5 4D        swap
000B:8BA6 3F C1        xor   #01
000B:8BA8 15 4D        swap
000B:8BAA F0 36 1A     iwt   r0,#1A36
000B:8BAD 5A           add   r10
000B:8BAE 16 40        ldw   (r0)
000B:8BB0 F0 38 1A     iwt   r0,#1A38
000B:8BB3 5A           add   r10
000B:8BB4 40           ldw   (r0)
000B:8BB5 26 C0        hib
000B:8BB7 9E           lob
000B:8BB8 4D           swap
000B:8BB9 16 C6        or    r6
000B:8BBB F0 80 01     iwt   r0,#0180
000B:8BBE 3D 9F        lmult
000B:8BC0 24 C0        hib
000B:8BC2 9E           lob
000B:8BC3 4D           swap
000B:8BC4 16 C4        or    r4
000B:8BC6 A0 08        ibt   r0,#0008
000B:8BC8 3F DF        romb
000B:8BCA F0 98 AB     iwt   r0,#AB98
000B:8BCD 1E 55        add   r5
000B:8BCF F0 18 AC     iwt   r0,#AC18
000B:8BD2 12 55        add   r5
000B:8BD4 EF           getb
000B:8BD5 DE           inc   r14
000B:8BD6 3D EF        getbh
000B:8BD8 3D 9F        lmult
000B:8BDA 24 C0        hib
000B:8BDC 9E           lob
000B:8BDD 4D           swap
000B:8BDE 14 C4        or    r4
000B:8BE0 F0 20 12     iwt   r0,#1220
000B:8BE3 5A           add   r10
000B:8BE4 B4 30        stw   (r0)
000B:8BE6 22 1E        move  r14,r2
000B:8BE8 EF           getb
000B:8BE9 DE           inc   r14
000B:8BEA 3D EF        getbh
000B:8BEC 3D 9F        lmult
000B:8BEE 24 C0        hib
000B:8BF0 9E           lob
000B:8BF1 4D           swap
000B:8BF2 14 C4        or    r4
000B:8BF4 F0 22 12     iwt   r0,#1222
000B:8BF7 5A           add   r10
000B:8BF8 B4 30        stw   (r0)
000B:8BFA A1 FF        ibt   r1,#FFFF
000B:8BFC F0 00 19     iwt   r0,#1900
000B:8BFF 5A           add   r10
000B:8C00 B1 3D 30     stb   (r0)
000B:8C03 00           stop
000B:8C04 01           nop

000B:8C05 3E AB 35     sms   (006A),r11
000B:8C08 F0 E2 10     iwt   r0,#10E2
000B:8C0B 5A           add   r10
000B:8C0C B7 30        stw   (r0)
000B:8C0E F0 82 11     iwt   r0,#1182
000B:8C11 5A           add   r10
000B:8C12 B8 30        stw   (r0)
000B:8C14 F0 76 19     iwt   r0,#1976
000B:8C17 5A           add   r10
000B:8C18 B9 30        stw   (r0)
000B:8C1A 3D A5 25     lms   r5,(004A)
000B:8C1D 25 51        add   r1
000B:8C1F 94           link  #04
000B:8C20 FF 44 8C     iwt   r15,#8C44
000B:8C23 01           nop

000B:8C24 3D A7 17     lms   r7,(002E)
000B:8C27 3D A8 18     lms   r8,(0030)
000B:8C2A 3D A9 19     lms   r9,(0032)
000B:8C2D F0 E2 10     iwt   r0,#10E2
000B:8C30 5A           add   r10
000B:8C31 B7 30        stw   (r0)
000B:8C33 F0 82 11     iwt   r0,#1182
000B:8C36 5A           add   r10
000B:8C37 B8 30        stw   (r0)
000B:8C39 F0 76 19     iwt   r0,#1976
000B:8C3C 5A           add   r10
000B:8C3D B9 30        stw   (r0)
000B:8C3F 3D AB 35     lms   r11,(006A)
000B:8C42 9B           jmp   r11
000B:8C43 01           nop

000B:8C44 3E AB 30     sms   (0060),r11
000B:8C47 60           sub   r0
000B:8C48 3E A0 22     sms   (0044),r0
000B:8C4B A3 28        ibt   r3,#0028
000B:8C4D F0 42 15     iwt   r0,#1542
000B:8C50 5A           add   r10
000B:8C51 B3 30        stw   (r0)
000B:8C53 F0 00 87     iwt   r0,#8700
000B:8C56 12 C0        hib
000B:8C58 17 45        ldw   (r5)
000B:8C5A 3E A7 27     sms   (004E),r7
000B:8C5D B7 C0        hib
000B:8C5F 62           sub   r2
000B:8C60 09 03        beq   8C65
000B:8C62 01           nop
000B:8C63 9B           jmp   r11
000B:8C64 01           nop

000B:8C65 A0 01        ibt   r0,#0001
000B:8C67 3E A0 22     sms   (0044),r0
000B:8C6A F0 0B 00     iwt   r0,#000B
000B:8C6D 3F DF        romb
000B:8C6F F3 AE 92     iwt   r3,#92AE
000B:8C72 B7 9E        lob
000B:8C74 50           add   r0
000B:8C75 1E 53        add   r3
000B:8C77 EF           getb
000B:8C78 DE           inc   r14
000B:8C79 1E 3D EF     getbh
000B:8C7C EF           getb
000B:8C7D 28 B0        moves r8,r0
000B:8C7F 08 0E        bne   8C8F
000B:8C81 DE           inc   r14
000B:8C82 A0 02        ibt   r0,#0002
000B:8C84 3E A0 22     sms   (0044),r0
000B:8C87 94           link  #04
000B:8C88 FF C0 8C     iwt   r15,#8CC0
000B:8C8B 01           nop
000B:8C8C 05 2D        bra   8CBB

000B:8C8E 01           nop

000B:8C8F E0           dec   r0
000B:8C90 08 0E        bne   8CA0
000B:8C92 01           nop
000B:8C93 A0 03        ibt   r0,#0003
000B:8C95 3E A0 22     sms   (0044),r0
000B:8C98 94           link  #04
000B:8C99 FF FB 8E     iwt   r15,#8EFB
000B:8C9C 01           nop
000B:8C9D 05 1C        bra   8CBB

000B:8C9F 01           nop

000B:8CA0 E0           dec   r0
000B:8CA1 08 0E        bne   8CB1
000B:8CA3 01           nop
000B:8CA4 A0 04        ibt   r0,#0004
000B:8CA6 3E A0 22     sms   (0044),r0
000B:8CA9 94           link  #04
000B:8CAA FF 27 90     iwt   r15,#9027
000B:8CAD 01           nop
000B:8CAE 05 0B        bra   8CBB

000B:8CB0 01           nop

000B:8CB1 A0 05        ibt   r0,#0005
000B:8CB3 3E A0 22     sms   (0044),r0
000B:8CB6 94           link  #04
000B:8CB7 FF 18 92     iwt   r15,#9218
000B:8CBA 01           nop
000B:8CBB 3D AB 30     lms   r11,(0060)
000B:8CBE 9B           jmp   r11
000B:8CBF 01           nop

000B:8CC0 60           sub   r0
000B:8CC1 3E A0 20     sms   (0040),r0
000B:8CC4 F0 00 19     iwt   r0,#1900
000B:8CC7 5A           add   r10
000B:8CC8 19 3D 40     ldb   (r0)
000B:8CCB B8 69        sub   r9
000B:8CCD 09 07        beq   8CD6
000B:8CCF 01           nop
000B:8CD0 FF EB 8D     iwt   r15,#8DEB
000B:8CD3 3E AB 31     sms   (0062),r11
000B:8CD6 A0 10        ibt   r0,#0010
000B:8CD8 3E A0 20     sms   (0040),r0
000B:8CDB 13 EF        getb
000B:8CDD F0 01 19     iwt   r0,#1901
000B:8CE0 5A           add   r10
000B:8CE1 3D 40        ldb   (r0)
000B:8CE3 3F 63        cmp   r3
000B:8CE5 08 E9        bne   8CD0
000B:8CE7 01           nop
000B:8CE8 A0 11        ibt   r0,#0011
000B:8CEA 3E A0 20     sms   (0040),r0
000B:8CED A0 08        ibt   r0,#0008
000B:8CEF 3F DF        romb
000B:8CF1 3D A1 0F     lms   r1,(001E)
000B:8CF4 F0 98 AB     iwt   r0,#AB98
000B:8CF7 1E 51        add   r1
000B:8CF9 F2 00 01     iwt   r2,#0100
000B:8CFC 3E A1 04     sms   (0008),r1
000B:8CFF B1 9E        lob
000B:8D01 15 95        sex
000B:8D03 0A 04        bpl   8D09
000B:8D05 01           nop
000B:8D06 4F           not
000B:8D07 D0           inc   r0
000B:8D08 52           add   r2
000B:8D09 3E A0 03     sms   (0006),r0
000B:8D0C F2 12 BA     iwt   r2,#BA12
000B:8D0F 12 52        add   r2
000B:8D11 3E A1 09     sms   (0012),r1
000B:8D14 F0 E1 10     iwt   r0,#10E1
000B:8D17 5A           add   r10
000B:8D18 17 3D 40     ldb   (r0)
000B:8D1B F0 E2 10     iwt   r0,#10E2
000B:8D1E 5A           add   r10
000B:8D1F 18 40        ldw   (r0)
000B:8D21 3E A8 28     sms   (0050),r8
000B:8D24 B8 9E        lob
000B:8D26 4D           swap
000B:8D27 17 C7        or    r7
000B:8D29 28 C0        hib
000B:8D2B F0 36 1A     iwt   r0,#1A36
000B:8D2E 5A           add   r10
000B:8D2F 16 40        ldw   (r0)
000B:8D31 F0 38 1A     iwt   r0,#1A38
000B:8D34 5A           add   r10
000B:8D35 40           ldw   (r0)
000B:8D36 3E A0 00     sms   (0000),r0
000B:8D39 26 C0        hib
000B:8D3B 9E           lob
000B:8D3C 4D           swap
000B:8D3D 16 C6        or    r6
000B:8D3F EF           getb
000B:8D40 DE           inc   r14
000B:8D41 3D EF        getbh
000B:8D43 3D 9F        lmult
000B:8D45 24 C0        hib
000B:8D47 9E           lob
000B:8D48 4D           swap
000B:8D49 C4           or    r4
000B:8D4A 13 3E 60     sub   #00
000B:8D4D 0A 08        bpl   8D57
000B:8D4F 27 63        sub   r3
000B:8D51 28 3F 50     adc   #00
000B:8D54 05 07        bra   8D5D

000B:8D56 28 63        sub   r3
000B:8D58 0D 03        bcs   8D5D
000B:8D5A 28 E8        dec   r8
000B:8D5C 28 4D        swap
000B:8D5E B7 C0        hib
000B:8D60 18 C8        or    r8
000B:8D62 F0 E2 10     iwt   r0,#10E2
000B:8D65 5A           add   r10
000B:8D66 B8 30        stw   (r0)
000B:8D68 F0 E1 10     iwt   r0,#10E1
000B:8D6B 5A           add   r10
000B:8D6C B7 3D 30     stb   (r0)
000B:8D6F 3D A0 28     lms   r0,(0050)
000B:8D72 28 60        sub   r0
000B:8D74 A0 0B        ibt   r0,#000B
000B:8D76 3F DF        romb
000B:8D78 22 1E        move  r14,r2
000B:8D7A EF           getb
000B:8D7B DE           inc   r14
000B:8D7C 3D EF        getbh
000B:8D7E 3E A0 05     sms   (000A),r0
000B:8D81 25 B5        moves r5,r5
000B:8D83 0A 04        bpl   8D89
000B:8D85 20 4F        not
000B:8D87 D0           inc   r0
000B:8D88 20 16        move  r6,r0
000B:8D8A 3E A8 10     sms   (0020),r8
000B:8D8D 3E A6 06     sms   (000C),r6
000B:8D90 B8 4F        not
000B:8D92 D0           inc   r0
000B:8D93 11 3D 9F     lmult
000B:8D96 3E A1 07     sms   (000E),r1
000B:8D99 3E A4 08     sms   (0010),r4
000B:8D9C F0 81 11     iwt   r0,#1181
000B:8D9F 5A           add   r10
000B:8DA0 17 3D 40     ldb   (r0)
000B:8DA3 F0 82 11     iwt   r0,#1182
000B:8DA6 5A           add   r10
000B:8DA7 18 40        ldw   (r0)
000B:8DA9 B8 9E        lob
000B:8DAB 4D           swap
000B:8DAC 17 C7        or    r7
000B:8DAE 28 C0        hib
000B:8DB0 21 B1        moves r1,r1
000B:8DB2 0A 09        bpl   8DBD
000B:8DB4 27 54        add   r4
000B:8DB6 0D 0A        bcs   8DC2
000B:8DB8 28 E8        dec   r8
000B:8DBA 05 06        bra   8DC2

000B:8DBC 28 54        add   r4
000B:8DBE 28 3F 50     adc   #00
000B:8DC1 28 4D        swap
000B:8DC3 B7 C0        hib
000B:8DC5 18 C8        or    r8
000B:8DC7 F0 82 11     iwt   r0,#1182
000B:8DCA 5A           add   r10
000B:8DCB B8 30        stw   (r0)
000B:8DCD F0 81 11     iwt   r0,#1181
000B:8DD0 5A           add   r10
000B:8DD1 B7 3D 30     stb   (r0)
000B:8DD4 A3 00        ibt   r3,#0000
000B:8DD6 F0 42 15     iwt   r0,#1542
000B:8DD9 5A           add   r10
000B:8DDA B3 30        stw   (r0)
000B:8DDC F0 22 12     iwt   r0,#1222
000B:8DDF 5A           add   r10
000B:8DE0 B3 30        stw   (r0)
000B:8DE2 F0 20 12     iwt   r0,#1220
000B:8DE5 5A           add   r10
000B:8DE6 B3 30        stw   (r0)
000B:8DE8 00           stop
000B:8DE9 01           nop

000B:8DEA 3E AB 31     sms   (0062),r11
000B:8DED 3D A0 20     lms   r0,(0040)
000B:8DF0 D0           inc   r0
000B:8DF1 90           sbk
000B:8DF2 19 EF        getb
000B:8DF4 DE           inc   r14
000B:8DF5 3E A9 0B     sms   (0016),r9
000B:8DF8 3E A8 0A     sms   (0014),r8
000B:8DFB 94           link  #04
000B:8DFC FF 6E 92     iwt   r15,#926E
000B:8DFF 01           nop
000B:8E00 F0 EB 94     iwt   r0,#94EB
000B:8E03 1E 59        add   r9
000B:8E05 15 EF        getb
000B:8E07 A0 0B        ibt   r0,#000B
000B:8E09 3F DF        romb
000B:8E0B F1 00 01     iwt   r1,#0100
000B:8E0E B5 9E        lob
000B:8E10 12 95        sex
000B:8E12 0A 04        bpl   8E18
000B:8E14 01           nop
000B:8E15 4F           not
000B:8E16 D0           inc   r0
000B:8E17 51           add   r1
000B:8E18 F1 12 BA     iwt   r1,#BA12
000B:8E1B 1E 51        add   r1
000B:8E1D 3D A6 00     lms   r6,(0000)
000B:8E20 B9 3E 71     and   #01
000B:8E23 08 02        bne   8E27
000B:8E25 01           nop
000B:8E26 E6           dec   r6
000B:8E27 EF           getb
000B:8E28 DE           inc   r14
000B:8E29 3D EF        getbh
000B:8E2B 22 B2        moves r2,r2
000B:8E2D 0A 03        bpl   8E32
000B:8E2F 01           nop
000B:8E30 4F           not
000B:8E31 D0           inc   r0
000B:8E32 3D 9F        lmult
000B:8E34 24 18        move  r8,r4
000B:8E36 24 C0        hib
000B:8E38 9E           lob
000B:8E39 4D           swap
000B:8E3A 17 C4        or    r4
000B:8E3C 3E A7 27     sms   (004E),r7
000B:8E3F F0 00 19     iwt   r0,#1900
000B:8E42 5A           add   r10
000B:8E43 3D 40        ldb   (r0)
000B:8E45 50           add   r0
000B:8E46 4D           swap
000B:8E47 E0           dec   r0
000B:8E48 09 15        beq   8E5F
000B:8E4A 01           nop
000B:8E4B 3D A3 01     lms   r3,(0002)
000B:8E4E E3           dec   r3
000B:8E4F B7 4F        not
000B:8E51 D0           inc   r0
000B:8E52 63           sub   r3
000B:8E53 3E 54        add   #04
000B:8E55 3E 68        sub   #08
000B:8E57 0C 06        bcc   8E5F
000B:8E59 01           nop
000B:8E5A 3D AB 31     lms   r11,(0062)
000B:8E5D 9B           jmp   r11
000B:8E5E 01           nop

000B:8E5F 3D A0 20     lms   r0,(0040)
000B:8E62 D0           inc   r0
000B:8E63 90           sbk
000B:8E64 3D A3 0A     lms   r3,(0014)
000B:8E67 F0 00 19     iwt   r0,#1900
000B:8E6A 5A           add   r10
000B:8E6B B3 3D 30     stb   (r0)
000B:8E6E 3D A3 0B     lms   r3,(0016)
000B:8E71 F0 01 19     iwt   r0,#1901
000B:8E74 5A           add   r10
000B:8E75 B3 3D 30     stb   (r0)
000B:8E78 3D A0 12     lms   r0,(0024)
000B:8E7B 23 3E 66     sub   #06
000B:8E7E 08 03        bne   8E83
000B:8E80 01           nop
000B:8E81 3E 62        sub   #02
000B:8E83 57           add   r7
000B:8E84 17 3E 68     sub   #08
000B:8E87 F0 82 11     iwt   r0,#1182
000B:8E8A 5A           add   r10
000B:8E8B B7 30        stw   (r0)
000B:8E8D F0 81 11     iwt   r0,#1181
000B:8E90 5A           add   r10
000B:8E91 B8 3D 30     stb   (r0)
000B:8E94 F7 00 01     iwt   r7,#0100
000B:8E97 3D A0 0B     lms   r0,(0016)
000B:8E9A 3E 66        sub   #06
000B:8E9C 09 1E        beq   8EBC
000B:8E9E 01           nop
000B:8E9F 3D A0 0C     lms   r0,(0018)
000B:8EA2 3E 66        sub   #06
000B:8EA4 09 16        beq   8EBC
000B:8EA6 01           nop
000B:8EA7 3D A0 21     lms   r0,(0042)
000B:8EAA 3E 60        sub   #00
000B:8EAC 0B 0E        bmi   8EBC
000B:8EAE 01           nop
000B:8EAF F0 76 19     iwt   r0,#1976
000B:8EB2 5A           add   r10
000B:8EB3 40           ldw   (r0)
000B:8EB4 C0           hib
000B:8EB5 50           add   r0
000B:8EB6 77           and   r7
000B:8EB7 15 C5        or    r5
000B:8EB9 05 16        bra   8ED1

000B:8EBB 01           nop

000B:8EBC F8 FE 01     iwt   r8,#01FE
000B:8EBF F1 80 00     iwt   r1,#0080
000B:8EC2 F0 76 19     iwt   r0,#1976
000B:8EC5 5A           add   r10
000B:8EC6 40           ldw   (r0)
000B:8EC7 C0           hib
000B:8EC8 50           add   r0
000B:8EC9 65           sub   r5
000B:8ECA 51           add   r1
000B:8ECB 78           and   r8
000B:8ECC 67           sub   r7
000B:8ECD 0B 02        bmi   8ED1
000B:8ECF 25 C7        or    r7
000B:8ED1 3E A5 0F     sms   (001E),r5
000B:8ED4 B5 03        lsr
000B:8ED6 15 4D        swap
000B:8ED8 F0 76 19     iwt   r0,#1976
000B:8EDB 5A           add   r10
000B:8EDC B5 30        stw   (r0)
000B:8EDE A1 00        ibt   r1,#0000
000B:8EE0 F0 E1 10     iwt   r0,#10E1
000B:8EE3 5A           add   r10
000B:8EE4 B1 3D 30     stb   (r0)
000B:8EE7 F0 42 15     iwt   r0,#1542
000B:8EEA 5A           add   r10
000B:8EEB B1 30        stw   (r0)
000B:8EED F0 22 12     iwt   r0,#1222
000B:8EF0 5A           add   r10
000B:8EF1 B1 30        stw   (r0)
000B:8EF3 F0 20 12     iwt   r0,#1220
000B:8EF6 5A           add   r10
000B:8EF7 B1 30        stw   (r0)
000B:8EF9 00           stop
000B:8EFA 01           nop

000B:8EFB 60           sub   r0
000B:8EFC 3E A0 20     sms   (0040),r0
000B:8EFF F0 00 19     iwt   r0,#1900
000B:8F02 5A           add   r10
000B:8F03 19 3D 40     ldb   (r0)
000B:8F06 B8 69        sub   r9
000B:8F08 08 6F        bne   8F79
000B:8F0A 01           nop
000B:8F0B A0 10        ibt   r0,#0010
000B:8F0D 3E A0 20     sms   (0040),r0
000B:8F10 F0 36 1A     iwt   r0,#1A36
000B:8F13 5A           add   r10
000B:8F14 11 40        ldw   (r0)
000B:8F16 F0 38 1A     iwt   r0,#1A38
000B:8F19 5A           add   r10
000B:8F1A 12 40        ldw   (r0)
000B:8F1C 21 C0        hib
000B:8F1E B2 9E        lob
000B:8F20 4D           swap
000B:8F21 11 C1        or    r1
000B:8F23 F0 81 11     iwt   r0,#1181
000B:8F26 5A           add   r10
000B:8F27 17 3D 40     ldb   (r0)
000B:8F2A F0 82 11     iwt   r0,#1182
000B:8F2D 5A           add   r10
000B:8F2E 18 40        ldw   (r0)
000B:8F30 B8 9E        lob
000B:8F32 4D           swap
000B:8F33 17 C7        or    r7
000B:8F35 28 C0        hib
000B:8F37 F0 76 19     iwt   r0,#1976
000B:8F3A 5A           add   r10
000B:8F3B 19 40        ldw   (r0)
000B:8F3D 29 B9        moves r9,r9
000B:8F3F 0A 09        bpl   8F4A
000B:8F41 27 61        sub   r1
000B:8F43 0D 0A        bcs   8F4F
000B:8F45 28 E8        dec   r8
000B:8F47 05 06        bra   8F4F

000B:8F49 28 51        add   r1
000B:8F4B 28 3F 50     adc   #00
000B:8F4E 28 9E        lob
000B:8F50 28 4D        swap
000B:8F52 B7 C0        hib
000B:8F54 18 C8        or    r8
000B:8F56 F0 82 11     iwt   r0,#1182
000B:8F59 5A           add   r10
000B:8F5A B8 30        stw   (r0)
000B:8F5C F0 81 11     iwt   r0,#1181
000B:8F5F 5A           add   r10
000B:8F60 B7 3D 30     stb   (r0)
000B:8F63 A3 00        ibt   r3,#0000
000B:8F65 F0 42 15     iwt   r0,#1542
000B:8F68 5A           add   r10
000B:8F69 B3 30        stw   (r0)
000B:8F6B F0 22 12     iwt   r0,#1222
000B:8F6E 5A           add   r10
000B:8F6F B3 30        stw   (r0)
000B:8F71 F0 20 12     iwt   r0,#1220
000B:8F74 5A           add   r10
000B:8F75 B3 30        stw   (r0)
000B:8F77 00           stop
000B:8F78 01           nop

000B:8F79 3E AB 31     sms   (0062),r11
000B:8F7C 3D A0 20     lms   r0,(0040)
000B:8F7F D0           inc   r0
000B:8F80 90           sbk
000B:8F81 19 EF        getb
000B:8F83 DE           inc   r14
000B:8F84 B9 3F 77     bic   #07
000B:8F87 3E A0 0B     sms   (0016),r0
000B:8F8A 3E A8 0A     sms   (0014),r8
000B:8F8D F0 E2 10     iwt   r0,#10E2
000B:8F90 5A           add   r10
000B:8F91 19 40        ldw   (r0)
000B:8F93 F0 00 19     iwt   r0,#1900
000B:8F96 5A           add   r10
000B:8F97 3D 40        ldb   (r0)
000B:8F99 50           add   r0
000B:8F9A 4D           swap
000B:8F9B E0           dec   r0
000B:8F9C 09 0E        beq   8FAC
000B:8F9E 01           nop
000B:8F9F B9 3E 7F     and   #0F
000B:8FA2 3E 68        sub   #08
000B:8FA4 0A 06        bpl   8FAC
000B:8FA6 01           nop
000B:8FA7 3D AB 31     lms   r11,(0062)
000B:8FAA 9B           jmp   r11
000B:8FAB 01           nop

000B:8FAC 3D A0 20     lms   r0,(0040)
000B:8FAF D0           inc   r0
000B:8FB0 90           sbk
000B:8FB1 3D A3 0B     lms   r3,(0016)
000B:8FB4 F0 01 19     iwt   r0,#1901
000B:8FB7 5A           add   r10
000B:8FB8 B3 3D 30     stb   (r0)
000B:8FBB 3D A3 0A     lms   r3,(0014)
000B:8FBE F0 00 19     iwt   r0,#1900
000B:8FC1 5A           add   r10
000B:8FC2 B3 3D 30     stb   (r0)
000B:8FC5 B9 3E 58     add   #08
000B:8FC8 3F 7F        bic   #0F
000B:8FCA 13 3E 68     sub   #08
000B:8FCD F0 E2 10     iwt   r0,#10E2
000B:8FD0 5A           add   r10
000B:8FD1 B3 30        stw   (r0)
000B:8FD3 B9 3E 58     add   #08
000B:8FD6 19 3E 7F     and   #0F
000B:8FD9 F7 00 80     iwt   r7,#8000
000B:8FDC F0 82 11     iwt   r0,#1182
000B:8FDF 5A           add   r10
000B:8FE0 18 40        ldw   (r0)
000B:8FE2 B8 3E 7F     and   #0F
000B:8FE5 3E 68        sub   #08
000B:8FE7 0A 05        bpl   8FEE
000B:8FE9 28 69        sub   r9
000B:8FEB 05 02        bra   8FEF

000B:8FED D7           inc   r7

000B:8FEE 59           add   r9
000B:8FEF B7 4D        swap
000B:8FF1 3E A0 0F     sms   (001E),r0
000B:8FF4 03           lsr
000B:8FF5 15 4D        swap
000B:8FF7 F0 76 19     iwt   r0,#1976
000B:8FFA 5A           add   r10
000B:8FFB B5 30        stw   (r0)
000B:8FFD F0 82 11     iwt   r0,#1182
000B:9000 5A           add   r10
000B:9001 B8 30        stw   (r0)
000B:9003 A1 00        ibt   r1,#0000
000B:9005 F0 E1 10     iwt   r0,#10E1
000B:9008 5A           add   r10
000B:9009 B1 3D 30     stb   (r0)
000B:900C F0 81 11     iwt   r0,#1181
000B:900F 5A           add   r10
000B:9010 B1 3D 30     stb   (r0)
000B:9013 F0 42 15     iwt   r0,#1542
000B:9016 5A           add   r10
000B:9017 B1 30        stw   (r0)
000B:9019 F0 22 12     iwt   r0,#1222
000B:901C 5A           add   r10
000B:901D B1 30        stw   (r0)
000B:901F F0 20 12     iwt   r0,#1220
000B:9022 5A           add   r10
000B:9023 B1 30        stw   (r0)
000B:9025 00           stop
000B:9026 01           nop

000B:9027 60           sub   r0
000B:9028 3E A0 20     sms   (0040),r0
000B:902B F0 00 19     iwt   r0,#1900
000B:902E 5A           add   r10
000B:902F 19 3D 40     ldb   (r0)
000B:9032 B8 69        sub   r9
000B:9034 09 07        beq   903D
000B:9036 01           nop
000B:9037 FF 87 90     iwt   r15,#9087
000B:903A 3E AB 31     sms   (0062),r11
000B:903D 13 EF        getb
000B:903F B3 16 3F 73  bic   #03
000B:9043 F0 01 19     iwt   r0,#1901
000B:9046 5A           add   r10
000B:9047 3D 40        ldb   (r0)
000B:9049 3F 66        cmp   r6
000B:904B 08 EA        bne   9037
000B:904D 01           nop
000B:904E B3 3E 73     and   #03
000B:9051 3E 63        sub   #03
000B:9053 08 02        bne   9057
000B:9055 DE           inc   r14
000B:9056 DE           inc   r14
000B:9057 94           link  #04
000B:9058 FF 6E 92     iwt   r15,#926E
000B:905B 01           nop
000B:905C B6 03        lsr
000B:905E 03           lsr
000B:905F 3F 77        bic   #07
000B:9061 16 3E 54     add   #04
000B:9064 F0 F2 94     iwt   r0,#94F2
000B:9067 1E 56        add   r6
000B:9069 13 EF        getb
000B:906B 94           link  #04
000B:906C FF 86 91     iwt   r15,#9186
000B:906F 01           nop
000B:9070 A3 00        ibt   r3,#0000
000B:9072 F0 42 15     iwt   r0,#1542
000B:9075 5A           add   r10
000B:9076 B3 30        stw   (r0)
000B:9078 F0 22 12     iwt   r0,#1222
000B:907B 5A           add   r10
000B:907C B3 30        stw   (r0)
000B:907E F0 20 12     iwt   r0,#1220
000B:9081 5A           add   r10
000B:9082 B3 30        stw   (r0)
000B:9084 00           stop
000B:9085 01           nop

000B:9086 3E AB 31     sms   (0062),r11
000B:9089 3D A0 20     lms   r0,(0040)
000B:908C D0           inc   r0
000B:908D 90           sbk
000B:908E 19 EF        getb
000B:9090 DE           inc   r14
000B:9091 B9 3F 73     bic   #03
000B:9094 3E A0 0B     sms   (0016),r0
000B:9097 3E A8 0A     sms   (0014),r8
000B:909A B9 3E 73     and   #03
000B:909D 3E 63        sub   #03
000B:909F 08 0A        bne   90AB
000B:90A1 01           nop
000B:90A2 1D EF        getb
000B:90A4 DE           inc   r14
000B:90A5 3E AD 2D     sms   (005A),r13
000B:90A8 3E AE 2C     sms   (0058),r14
000B:90AB 94           link  #04
000B:90AC FF 6E 92     iwt   r15,#926E
000B:90AF 01           nop
000B:90B0 3D A0 00     lms   r0,(0000)
000B:90B3 20 16        move  r6,r0
000B:90B5 3D 9F        lmult
000B:90B7 24 1B        move  r11,r4
000B:90B9 3D A0 01     lms   r0,(0002)
000B:90BC 20 16        move  r6,r0
000B:90BE 3D 9F        lmult
000B:90C0 2B 54        add   r4
000B:90C2 B9 03        lsr
000B:90C4 03           lsr
000B:90C5 13 3F 77     bic   #07
000B:90C8 F0 F2 94     iwt   r0,#94F2
000B:90CB 1E 53        add   r3
000B:90CD F0 00 19     iwt   r0,#1900
000B:90D0 5A           add   r10
000B:90D1 3D 40        ldb   (r0)
000B:90D3 50           add   r0
000B:90D4 4D           swap
000B:90D5 E0           dec   r0
000B:90D6 09 18        beq   90F0
000B:90D8 01           nop
000B:90D9 EF           getb
000B:90DA DE           inc   r14
000B:90DB 3D EF        getbh
000B:90DD 3F 6B        cmp   r11
000B:90DF 0A 0A        bpl   90EB
000B:90E1 DE           inc   r14
000B:90E2 EF           getb
000B:90E3 DE           inc   r14
000B:90E4 3D EF        getbh
000B:90E6 3F 6B        cmp   r11
000B:90E8 0A 09        bpl   90F3
000B:90EA DE           inc   r14
000B:90EB 3D AB 31     lms   r11,(0062)
000B:90EE 9B           jmp   r11
000B:90EF 01           nop

000B:90F0 2E 3E 54     add   #04
000B:90F3 3D A0 20     lms   r0,(0040)
000B:90F6 D0           inc   r0
000B:90F7 90           sbk
000B:90F8 3D A3 0B     lms   r3,(0016)
000B:90FB F0 01 19     iwt   r0,#1901
000B:90FE 5A           add   r10
000B:90FF B3 3D 30     stb   (r0)
000B:9102 3D A3 0A     lms   r3,(0014)
000B:9105 F0 00 19     iwt   r0,#1900
000B:9108 5A           add   r10
000B:9109 B3 3D 30     stb   (r0)
000B:910C 3E AE 2E     sms   (005C),r14
000B:910F 3D A0 00     lms   r0,(0000)
000B:9112 11 4F        not
000B:9114 D1           inc   r1
000B:9115 3D A0 01     lms   r0,(0002)
000B:9118 12 4F        not
000B:911A D2           inc   r2
000B:911B F0 74 BC     iwt   r0,#BC74
000B:911E A8 0B        ibt   r8,#000B
000B:9120 A5 0B        ibt   r5,#000B
000B:9122 2F 1B        move  r11,r15
000B:9124 3D 98        ljmp  r8
000B:9126 01           nop

000B:9127 A0 0B        ibt   r0,#000B
000B:9129 3F DF        romb
000B:912B 3D AE 2E     lms   r14,(005C)
000B:912E 13 EF        getb
000B:9130 DE           inc   r14
000B:9131 F4 00 40     iwt   r4,#4000
000B:9134 B1 4D        swap
000B:9136 15 54        add   r4
000B:9138 EF           getb
000B:9139 DE           inc   r14
000B:913A 11 3D EF     getbh
000B:913D F0 76 19     iwt   r0,#1976
000B:9140 5A           add   r10
000B:9141 17 40        ldw   (r0)
000B:9143 B5 67        sub   r7
000B:9145 54           add   r4
000B:9146 0A 08        bpl   9150
000B:9148 01           nop
000B:9149 B5 54        add   r4
000B:914B 15 54        add   r4
000B:914D 21 4F        not
000B:914F D1           inc   r1
000B:9150 3E A1 0F     sms   (001E),r1
000B:9153 F2 00 01     iwt   r2,#0100
000B:9156 21 B1        moves r1,r1
000B:9158 0A 05        bpl   915F
000B:915A 25 62        sub   r2
000B:915C 05 02        bra   9160

000B:915E 01           nop

000B:915F 52           add   r2
000B:9160 F0 76 19     iwt   r0,#1976
000B:9163 5A           add   r10
000B:9164 B5 30        stw   (r0)
000B:9166 25 11        move  r1,r5
000B:9168 3D A5 0F     lms   r5,(001E)
000B:916B 94           link  #04
000B:916C FF B0 91     iwt   r15,#91B0
000B:916F 01           nop
000B:9170 A3 00        ibt   r3,#0000
000B:9172 F0 42 15     iwt   r0,#1542
000B:9175 5A           add   r10
000B:9176 B3 30        stw   (r0)
000B:9178 F0 22 12     iwt   r0,#1222
000B:917B 5A           add   r10
000B:917C B3 30        stw   (r0)
000B:917E F0 20 12     iwt   r0,#1220
000B:9181 5A           add   r10
000B:9182 B3 30        stw   (r0)
000B:9184 00           stop
000B:9185 01           nop

000B:9186 F0 76 19     iwt   r0,#1976
000B:9189 5A           add   r10
000B:918A 11 40        ldw   (r0)
000B:918C F0 36 1A     iwt   r0,#1A36
000B:918F 5A           add   r10
000B:9190 16 40        ldw   (r0)
000B:9192 F0 38 1A     iwt   r0,#1A38
000B:9195 5A           add   r10
000B:9196 40           ldw   (r0)
000B:9197 26 C0        hib
000B:9199 9E           lob
000B:919A 4D           swap
000B:919B 16 C6        or    r6
000B:919D 3D A5 0F     lms   r5,(001E)
000B:91A0 B5 3D 9F     lmult
000B:91A3 24 C0        hib
000B:91A5 9E           lob
000B:91A6 4D           swap
000B:91A7 C4           or    r4
000B:91A8 11 51        add   r1
000B:91AA F0 76 19     iwt   r0,#1976
000B:91AD 5A           add   r10
000B:91AE B1 30        stw   (r0)
000B:91B0 F7 00 40     iwt   r7,#4000
000B:91B3 25 B5        moves r5,r5
000B:91B5 0A 05        bpl   91BC
000B:91B7 21 57        add   r7
000B:91B9 05 02        bra   91BD

000B:91BB 01           nop

000B:91BC 67           sub   r7
000B:91BD B1 03        lsr
000B:91BF 03           lsr
000B:91C0 03           lsr
000B:91C1 03           lsr
000B:91C2 03           lsr
000B:91C3 03           lsr
000B:91C4 11 3F 71     bic   #01
000B:91C7 23 16        move  r6,r3
000B:91C9 A0 0B        ibt   r0,#000B
000B:91CB 3F DF        romb
000B:91CD F0 00 81     iwt   r0,#8100
000B:91D0 1E 51        add   r1
000B:91D2 F0 00 80     iwt   r0,#8000
000B:91D5 12 51        add   r1
000B:91D7 EF           getb
000B:91D8 DE           inc   r14
000B:91D9 3D EF        getbh
000B:91DB 3D 9F        lmult
000B:91DD F3 80 00     iwt   r3,#0080
000B:91E0 24 53        add   r3
000B:91E2 3F 50        adc   #00
000B:91E4 24 C0        hib
000B:91E6 9E           lob
000B:91E7 4D           swap
000B:91E8 11 C4        or    r4
000B:91EA 22 1E        move  r14,r2
000B:91EC EF           getb
000B:91ED DE           inc   r14
000B:91EE 3D EF        getbh
000B:91F0 3D 9F        lmult
000B:91F2 24 53        add   r3
000B:91F4 3F 50        adc   #00
000B:91F6 24 C0        hib
000B:91F8 9E           lob
000B:91F9 4D           swap
000B:91FA C4           or    r4
000B:91FB 3E 58        add   #08
000B:91FD 3D A3 11     lms   r3,(0022)
000B:9200 23 60        sub   r0
000B:9202 F0 E2 10     iwt   r0,#10E2
000B:9205 5A           add   r10
000B:9206 B3 30        stw   (r0)
000B:9208 3D A3 12     lms   r3,(0024)
000B:920B B3 61        sub   r1
000B:920D 13 3E 68     sub   #08
000B:9210 F0 82 11     iwt   r0,#1182
000B:9213 5A           add   r10
000B:9214 B3 30        stw   (r0)
000B:9216 9B           jmp   r11
000B:9217 01           nop

000B:9218 A0 02        ibt   r0,#0002
000B:921A 3E A0 20     sms   (0040),r0
000B:921D F0 E2 10     iwt   r0,#10E2
000B:9220 5A           add   r10
000B:9221 40           ldw   (r0)
000B:9222 11 3F 7F     bic   #0F
000B:9225 F0 82 11     iwt   r0,#1182
000B:9228 5A           add   r10
000B:9229 40           ldw   (r0)
000B:922A 12 3F 7F     bic   #0F
000B:922D EF           getb
000B:922E DE           inc   r14
000B:922F 11 C1        or    r1
000B:9231 EF           getb
000B:9232 C2           or    r2
000B:9233 90           sbk
000B:9234 F0 E2 10     iwt   r0,#10E2
000B:9237 5A           add   r10
000B:9238 B1 30        stw   (r0)
000B:923A F3 00 01     iwt   r3,#0100
000B:923D F2 FE 01     iwt   r2,#01FE
000B:9240 F0 00 19     iwt   r0,#1900
000B:9243 5A           add   r10
000B:9244 11 3D 40     ldb   (r0)
000B:9247 3D A0 0F     lms   r0,(001E)
000B:924A 21 3E 62     sub   #02
000B:924D 0A 05        bpl   9254
000B:924F 01           nop
000B:9250 53           add   r3
000B:9251 05 03        bra   9256

000B:9253 72           and   r2

000B:9254 4F           not
000B:9255 D0           inc   r0
000B:9256 3E A0 0F     sms   (001E),r0
000B:9259 A3 03        ibt   r3,#0003
000B:925B F0 00 19     iwt   r0,#1900
000B:925E 5A           add   r10
000B:925F B3 3D 30     stb   (r0)
000B:9262 F3 00 80     iwt   r3,#8000
000B:9265 F0 76 19     iwt   r0,#1976
000B:9268 5A           add   r10
000B:9269 40           ldw   (r0)
000B:926A 53           add   r3
000B:926B 90           sbk
000B:926C 00           stop
000B:926D 01           nop

000B:926E 3E AB 32     sms   (0064),r11
000B:9271 F0 E2 10     iwt   r0,#10E2
000B:9274 5A           add   r10
000B:9275 40           ldw   (r0)
000B:9276 17 3E 58     add   #08
000B:9279 B7 1B 3F 7F  bic   #0F
000B:927D F0 82 11     iwt   r0,#1182
000B:9280 5A           add   r10
000B:9281 40           ldw   (r0)
000B:9282 18 3E 58     add   #08
000B:9285 B8 1C 3F 7F  bic   #0F
000B:9289 3F EF        getbs
000B:928B 3E 60        sub   #00
000B:928D 0B 02        bmi   9291
000B:928F DE           inc   r14
000B:9290 50           add   r0
000B:9291 5B           add   r11
000B:9292 3E A0 11     sms   (0022),r0
000B:9295 67           sub   r7
000B:9296 3E A0 00     sms   (0000),r0
000B:9299 3F EF        getbs
000B:929B 3E 60        sub   #00
000B:929D 0B 02        bmi   92A1
000B:929F DE           inc   r14
000B:92A0 50           add   r0
000B:92A1 5C           add   r12
000B:92A2 3E A0 12     sms   (0024),r0
000B:92A5 68           sub   r8
000B:92A6 3E A0 01     sms   (0002),r0
000B:92A9 3D AB 32     lms   r11,(0064)
000B:92AC 9B           jmp   r11
000B:92AD 01           nop

DATA_0B92AE:         db $6E, $93, $72, $93, $76, $93, $7A, $93
DATA_0B92B6:         db $7E, $93, $82, $93, $86, $93, $8A, $93
DATA_0B92BE:         db $8E, $93, $92, $93, $96, $93, $9A, $93
DATA_0B92C6:         db $9E, $93, $A2, $93, $A6, $93, $AA, $93
DATA_0B92CE:         db $AB, $93, $B0, $93, $B5, $93, $BA, $93
DATA_0B92D6:         db $BF, $93, $C3, $93, $C7, $93, $CB, $93
DATA_0B92DE:         db $CF, $93, $D3, $93, $D7, $93, $DB, $93
DATA_0B92E6:         db $DF, $93, $E3, $93, $E7, $93, $EB, $93
DATA_0B92EE:         db $EF, $93, $F3, $93, $F7, $93, $FB, $93
DATA_0B92F6:         db $FF, $93, $03, $94, $07, $94, $0B, $94
DATA_0B92FE:         db $0F, $94, $13, $94, $17, $94, $1B, $94
DATA_0B9306:         db $1F, $94, $23, $94, $27, $94, $2B, $94
DATA_0B930E:         db $2E, $94, $32, $94, $36, $94, $3A, $94
DATA_0B9316:         db $3E, $94, $42, $94, $46, $94, $4A, $94
DATA_0B931E:         db $4E, $94, $52, $94, $56, $94, $5A, $94
DATA_0B9326:         db $5E, $94, $62, $94, $66, $94, $6A, $94
DATA_0B932E:         db $6D, $94, $71, $94, $75, $94, $79, $94
DATA_0B9336:         db $7D, $94, $81, $94, $85, $94, $89, $94
DATA_0B933E:         db $8D, $94, $91, $94, $95, $94, $99, $94
DATA_0B9346:         db $9D, $94, $A1, $94, $A5, $94, $A9, $94
DATA_0B934E:         db $AC, $94, $B0, $94, $B4, $94, $B8, $94
DATA_0B9356:         db $BC, $94, $C0, $94, $C4, $94, $C8, $94
DATA_0B935E:         db $CC, $94, $D0, $94, $D4, $94, $D8, $94
DATA_0B9366:         db $DC, $94, $E0, $94, $E4, $94, $E8, $94
DATA_0B936E:         db $00, $00, $00, $08, $00, $01, $08, $08
DATA_0B9376:         db $00, $02, $F0, $08, $00, $02, $00, $08
DATA_0B937E:         db $00, $03, $10, $08, $00, $03, $08, $08
DATA_0B9386:         db $00, $04, $D0, $08, $00, $04, $E0, $08
DATA_0B938E:         db $00, $04, $F0, $08, $00, $04, $00, $08
DATA_0B9396:         db $00, $05, $20, $08, $00, $05, $18, $08
DATA_0B939E:         db $00, $05, $10, $08, $00, $05, $08, $08
DATA_0B93A6:         db $00, $06, $00, $01, $01, $02, $03, $E0
DATA_0B93AE:         db $08, $08, $02, $0B, $A0, $00, $08, $02
DATA_0B93B6:         db $1B, $20, $08, $00, $02, $13, $60, $00
DATA_0B93BE:         db $00, $02, $20, $10, $10, $02, $21, $08
DATA_0B93C6:         db $10, $02, $2A, $00, $10, $02, $28, $F0
DATA_0B93CE:         db $10, $02, $22, $10, $08, $02, $29, $F0
DATA_0B93D6:         db $08, $02, $38, $10, $F0, $02, $3A, $08
DATA_0B93DE:         db $F0, $02, $31, $00, $F0, $02, $30, $F0
DATA_0B93E6:         db $F0, $02, $39, $10, $00, $02, $32, $F0
DATA_0B93EE:         db $00, $02, $40, $20, $40, $02, $40, $18
DATA_0B93F6:         db $40, $02, $40, $10, $40, $02, $41, $08
DATA_0B93FE:         db $40, $02, $40, $30, $38, $02, $40, $28
DATA_0B9406:         db $38, $02, $40, $20, $38, $02, $40, $38
DATA_0B940E:         db $30, $02, $40, $30, $30, $02, $40, $38
DATA_0B9416:         db $28, $02, $40, $40, $20, $02, $40, $38
DATA_0B941E:         db $20, $02, $40, $40, $18, $02, $40, $40
DATA_0B9426:         db $10, $02, $42, $40, $08, $03, $08, $08
DATA_0B942E:         db $02, $58, $20, $90, $02, $58, $18, $90
DATA_0B9436:         db $02, $58, $10, $90, $02, $5A, $08, $90
DATA_0B943E:         db $02, $58, $30, $A0, $02, $58, $28, $A0
DATA_0B9446:         db $02, $58, $20, $A0, $02, $58, $38, $B0
DATA_0B944E:         db $02, $58, $30, $B0, $02, $58, $38, $C0
DATA_0B9456:         db $02, $58, $40, $D0, $02, $58, $38, $D0
DATA_0B945E:         db $02, $58, $40, $E0, $02, $58, $40, $F0
DATA_0B9466:         db $02, $59, $40, $00, $03, $07, $08, $02
DATA_0B946E:         db $49, $90, $08, $02, $48, $90, $10, $02
DATA_0B9476:         db $48, $90, $18, $02, $48, $A0, $20, $02
DATA_0B947E:         db $48, $90, $20, $02, $48, $A0, $28, $02
DATA_0B9486:         db $48, $B0, $30, $02, $48, $A0, $30, $02
DATA_0B948E:         db $48, $D0, $38, $02, $48, $C0, $38, $02
DATA_0B9496:         db $48, $B0, $38, $02, $4A, $00, $40, $02
DATA_0B949E:         db $48, $F0, $40, $02, $48, $E0, $40, $02
DATA_0B94A6:         db $48, $D0, $40, $03, $08, $08, $02, $52
DATA_0B94AE:         db $90, $00, $02, $50, $90, $F0, $02, $50
DATA_0B94B6:         db $90, $E0, $02, $50, $A0, $D0, $02, $50
DATA_0B94BE:         db $90, $D0, $02, $50, $A0, $C0, $02, $50
DATA_0B94C6:         db $B0, $B0, $02, $50, $A0, $B0, $02, $50
DATA_0B94CE:         db $D0, $A0, $02, $50, $C0, $A0, $02, $50
DATA_0B94D6:         db $B0, $A0, $02, $51, $00, $90, $02, $50
DATA_0B94DE:         db $F0, $90, $02, $50, $E0, $90, $02, $50
DATA_0B94E6:         db $D0, $90, $03, $08, $07, $40, $C0, $26
DATA_0B94EE:         db $DA, $14, $EC, $00, $A9, $00, $44, $01
DATA_0B94F6:         db $0F, $8F, $02, $00, $49, $03, $84, $04
DATA_0B94FE:         db $1F, $46, $01, $00, $09, $3D, $04, $42
DATA_0B9506:         db $7F, $51, $00, $00

000B:950A F6 00 55     iwt   r6,#5500
000B:950D 19 9F        fmult
000B:950F FA FE 01     iwt   r10,#01FE
000B:9512 A6 F6        ibt   r6,#FFF6
000B:9514 94           link  #04
000B:9515 FF 9C 85     iwt   r15,#859C
000B:9518 01           nop
000B:9519 3E A0 10     sms   (0020),r0
000B:951C 3E A1 11     sms   (0022),r1
000B:951F B7 59        add   r9
000B:9521 11 7A        and   r10
000B:9523 A6 E2        ibt   r6,#FFE2
000B:9525 94           link  #04
000B:9526 FF 9C 85     iwt   r15,#859C
000B:9529 01           nop
000B:952A 3E A0 12     sms   (0024),r0
000B:952D 3E A1 13     sms   (0026),r1
000B:9530 B5 69        sub   r9
000B:9532 11 7A        and   r10
000B:9534 A6 CE        ibt   r6,#FFCE
000B:9536 94           link  #04
000B:9537 FF 9C 85     iwt   r15,#859C
000B:953A 01           nop
000B:953B 3E A0 14     sms   (0028),r0
000B:953E 3E A1 15     sms   (002A),r1
000B:9541 25 11        move  r1,r5
000B:9543 A6 BA        ibt   r6,#FFBA
000B:9545 94           link  #04
000B:9546 FF 9C 85     iwt   r15,#859C
000B:9549 01           nop
000B:954A 3E A0 16     sms   (002C),r0
000B:954D 3E A1 17     sms   (002E),r1
000B:9550 28 B8        moves r8,r8
000B:9552 09 11        beq   9565
000B:9554 01           nop
000B:9555 F7 20 00     iwt   r7,#0020
000B:9558 AC 04        ibt   r12,#0004
000B:955A 02           cache
000B:955B 2F 1D        move  r13,r15
000B:955D 47           ldw   (r7)
000B:955E 4F           not
000B:955F D0           inc   r0
000B:9560 27 3E 54     add   #04
000B:9563 3C           loop
000B:9564 90           sbk
000B:9565 00           stop
000B:9566 01           nop

000B:9567 F0 20 12     iwt   r0,#1220
000B:956A 5A           add   r10
000B:956B 40           ldw   (r0)
000B:956C 50           add   r0
000B:956D 50           add   r0
000B:956E 16 50        add   r0
000B:9570 F3 00 22     iwt   r3,#2200
000B:9573 F0 36 1A     iwt   r0,#1A36
000B:9576 5A           add   r10
000B:9577 11 40        ldw   (r0)
000B:9579 B1 03        lsr
000B:957B 03           lsr
000B:957C 3F 71        bic   #01
000B:957E 53           add   r3
000B:957F 40           ldw   (r0)
000B:9580 3D 9F        lmult
000B:9582 3E 60        sub   #00
000B:9584 0A 03        bpl   9589
000B:9586 01           nop
000B:9587 4F           not
000B:9588 D0           inc   r0
000B:9589 3D 96        div2
000B:958B 51           add   r1
000B:958C F6 F8 0F     iwt   r6,#0FF8
000B:958F 3F 66        cmp   r6
000B:9591 0A 02        bpl   9595
000B:9593 20 16        move  r6,r0
000B:9595 F0 36 1A     iwt   r0,#1A36
000B:9598 5A           add   r10
000B:9599 B6 30        stw   (r0)
000B:959B 26 17        move  r7,r6
000B:959D F0 C0 12     iwt   r0,#12C0
000B:95A0 5A           add   r10
000B:95A1 40           ldw   (r0)
000B:95A2 50           add   r0
000B:95A3 50           add   r0
000B:95A4 12 50        add   r0
000B:95A6 B6 03        lsr
000B:95A8 03           lsr
000B:95A9 3F 71        bic   #01
000B:95AB 53           add   r3
000B:95AC 16 40        ldw   (r0)
000B:95AE F0 38 1A     iwt   r0,#1A38
000B:95B1 5A           add   r10
000B:95B2 11 40        ldw   (r0)
000B:95B4 B2 3D 9F     lmult
000B:95B7 B1 64        sub   r4
000B:95B9 90           sbk
000B:95BA B7 03        lsr
000B:95BC 03           lsr
000B:95BD 16 03        lsr
000B:95BF A0 0C        ibt   r0,#000C
000B:95C1 3D 9F        lmult
000B:95C3 24 C0        hib
000B:95C5 9E           lob
000B:95C6 4D           swap
000B:95C7 11 C4        or    r4
000B:95C9 F0 B6 1B     iwt   r0,#1BB6
000B:95CC 5A           add   r10
000B:95CD B1 30        stw   (r0)
000B:95CF F0 B8 1B     iwt   r0,#1BB8
000B:95D2 5A           add   r10
000B:95D3 B1 30        stw   (r0)
000B:95D5 00           stop
000B:95D6 01           nop

DATA_0B95D7:         db $F6, $FB, $24, $02, $02, $F6, $FB, $24
DATA_0B95DF:         db $02, $02, $FA, $E9, $24, $02, $02

000B:95E6 B8 3D 9F     lmult
000B:95E9 24 C0        hib
000B:95EB 9E           lob
000B:95EC 4D           swap
000B:95ED 18 C4        or    r4
000B:95EF F0 80 16     iwt   r0,#1680
000B:95F2 5A           add   r10
000B:95F3 11 40        ldw   (r0)
000B:95F5 F0 82 16     iwt   r0,#1682
000B:95F8 5A           add   r10
000B:95F9 12 40        ldw   (r0)
000B:95FB F3 00 20     iwt   r3,#2000
000B:95FE F0 80 11     iwt   r0,#1180
000B:9601 5A           add   r10
000B:9602 3D 40        ldb   (r0)
000B:9604 3E 88        mult  #08
000B:9606 13 53        add   r3
000B:9608 A0 0B        ibt   r0,#000B
000B:960A 3F DF        romb
000B:960C F4 D7 95     iwt   r4,#95D7
000B:960F F0 02 14     iwt   r0,#1402
000B:9612 5A           add   r10
000B:9613 3D 40        ldb   (r0)
000B:9615 3E 85        mult  #05
000B:9617 1E 54        add   r4
000B:9619 F0 62 13     iwt   r0,#1362
000B:961C 5A           add   r10
000B:961D 14 40        ldw   (r0)
000B:961F 3F EF        getbs
000B:9621 DE           inc   r14
000B:9622 51           add   r1
000B:9623 34           stw   (r4)
000B:9624 20 11        move  r1,r0
000B:9626 D4           inc   r4
000B:9627 D4           inc   r4
000B:9628 3F EF        getbs
000B:962A DE           inc   r14
000B:962B 52           add   r2
000B:962C 34           stw   (r4)
000B:962D 20 12        move  r2,r0
000B:962F D4           inc   r4
000B:9630 D4           inc   r4
000B:9631 EF           getb
000B:9632 DE           inc   r14
000B:9633 3D EF        getbh
000B:9635 DE           inc   r14
000B:9636 53           add   r3
000B:9637 34           stw   (r4)
000B:9638 D4           inc   r4
000B:9639 D4           inc   r4
000B:963A EF           getb
000B:963B DE           inc   r14
000B:963C 34           stw   (r4)
000B:963D D4           inc   r4
000B:963E B8 19 58     add   r8
000B:9641 22 3E 58     add   #08
000B:9644 F0 41 10     iwt   r0,#1041
000B:9647 5A           add   r10
000B:9648 3D 40        ldb   (r0)
000B:964A 03           lsr
000B:964B 03           lsr
000B:964C 03           lsr
000B:964D 1C 3E 67     sub   #07
000B:9650 09 48        beq   969A
000B:9652 D4           inc   r4
000B:9653 F0 34 02     iwt   r0,#0234
000B:9656 17 53        add   r3
000B:9658 02           cache
000B:9659 2F 1D        move  r13,r15
000B:965B BB 3E 68     sub   #08
000B:965E 0B 0B        bmi   966B
000B:9660 01           nop
000B:9661 2B 3E 68     sub   #08
000B:9664 29 58        add   r8
000B:9666 A0 08        ibt   r0,#0008
000B:9668 05 18        bra   9682

000B:966A 01           nop

000B:966B 24 15        move  r5,r4
000B:966D B8 3D 96     div2
000B:9670 3D 96        div2
000B:9672 16 3D 96     div2
000B:9675 BB 3D 9F     lmult
000B:9678 24 C0        hib
000B:967A 9E           lob
000B:967B 4D           swap
000B:967C C4           or    r4
000B:967D 19 59        add   r9
000B:967F 25 14        move  r4,r5
000B:9681 BB 12 52     add   r2
000B:9684 B9 C0        hib
000B:9686 95           sex
000B:9687 11 51        add   r1
000B:9689 B1 34        stw   (r4)
000B:968B D4           inc   r4
000B:968C D4           inc   r4
000B:968D B2 34        stw   (r4)
000B:968F D4           inc   r4
000B:9690 D4           inc   r4
000B:9691 B7 34        stw   (r4)
000B:9693 D4           inc   r4
000B:9694 D4           inc   r4
000B:9695 60           sub   r0
000B:9696 34           stw   (r4)
000B:9697 D4           inc   r4
000B:9698 3C           loop
000B:9699 D4           inc   r4
000B:969A 29 58        add   r8
000B:969C B9 C0        hib
000B:969E 95           sex
000B:969F 11 51        add   r1
000B:96A1 22 3E 58     add   #08
000B:96A4 21 3E 67     sub   #07
000B:96A7 B1 34        stw   (r4)
000B:96A9 D4           inc   r4
000B:96AA D4           inc   r4
000B:96AB B2 34        stw   (r4)
000B:96AD D4           inc   r4
000B:96AE D4           inc   r4
000B:96AF F0 26 02     iwt   r0,#0226
000B:96B2 53           add   r3
000B:96B3 34           stw   (r4)
000B:96B4 D4           inc   r4
000B:96B5 D4           inc   r4
000B:96B6 A0 02        ibt   r0,#0002
000B:96B8 34           stw   (r4)
000B:96B9 D4           inc   r4
000B:96BA D4           inc   r4
000B:96BB 29 58        add   r8
000B:96BD B9 C0        hib
000B:96BF 19 95        sex
000B:96C1 00           stop
000B:96C2 01           nop

000B:96C3 02           cache
000B:96C4 F1 00 20     iwt   r1,#2000
000B:96C7 3D A0 4A     lms   r0,(0094)
000B:96CA 3E F0 EE 1E  sm    (1EEE),r0
000B:96CE C1           or    r1
000B:96CF FA F2 1E     iwt   r10,#1EF2
000B:96D2 AC 20        ibt   r12,#0020
000B:96D4 2F 1D        move  r13,r15
000B:96D6 3A           stw   (r10)
000B:96D7 DA           inc   r10
000B:96D8 3C           loop
000B:96D9 DA           inc   r10
000B:96DA 3D A0 4E     lms   r0,(009C)
000B:96DD C1           or    r1
000B:96DE 20 13        move  r3,r0
000B:96E0 AC 20        ibt   r12,#0020
000B:96E2 2F 1D        move  r13,r15
000B:96E4 3A           stw   (r10)
000B:96E5 DA           inc   r10
000B:96E6 3C           loop
000B:96E7 DA           inc   r10
000B:96E8 00           stop
000B:96E9 01           nop

000B:96EA 02           cache
000B:96EB A1 F8        ibt   r1,#FFF8
000B:96ED B9 71        and   r1
000B:96EF 3D 96        div2
000B:96F1 3D 96        div2
000B:96F3 F1 32 1F     iwt   r1,#1F32
000B:96F6 1A 51        add   r1
000B:96F8 B9 3E 77     and   #07
000B:96FB 3E 64        sub   #04
000B:96FD 88           mult  r8
000B:96FE 12 52        add   r2
000B:9700 22 14        move  r4,r2
000B:9702 F8 00 FC     iwt   r8,#FC00
000B:9705 F1 00 20     iwt   r1,#2000
000B:9708 3D A0 4E     lms   r0,(009C)
000B:970B 13 C1        or    r1
000B:970D F6 32 1F     iwt   r6,#1F32
000B:9710 F7 73 1F     iwt   r7,#1F73
000B:9713 BA 3F 66     cmp   r6
000B:9716 0B 13        bmi   972B
000B:9718 01           nop
000B:9719 BA 3F 67     cmp   r7
000B:971C 0A 0D        bpl   972B
000B:971E 01           nop
000B:971F B4 C0        hib
000B:9721 95           sex
000B:9722 11 53        add   r3
000B:9724 4A           ldw   (r10)
000B:9725 61           sub   r1
000B:9726 0A 03        bpl   972B
000B:9728 01           nop
000B:9729 B1 3A        stw   (r10)
000B:972B 2A 55        add   r5
000B:972D 22 58        add   r8
000B:972F 0A 05        bpl   9736
000B:9731 24 F8 80 FC  iwt   r8,#FC80
000B:9735 24 52        add   r2
000B:9737 0A DB        bpl   9714
000B:9739 BA 3D A1 4A  lms   r1,(0094)
000B:973D A2 F8        ibt   r2,#FFF8
000B:973F A0 18        ibt   r0,#0018
000B:9741 3F 61        cmp   r1
000B:9743 09 16        beq   975B
000B:9745 01           nop
000B:9746 0C 13        bcc   975B
000B:9748 61           sub   r1
000B:9749 3E 57        add   #07
000B:974B 72           and   r2
000B:974C 03           lsr
000B:974D 03           lsr
000B:974E 1C 03        lsr
000B:9750 FA 32 1F     iwt   r10,#1F32
000B:9753 23 10        move  r0,r3
000B:9755 2F 1D        move  r13,r15
000B:9757 3A           stw   (r10)
000B:9758 DA           inc   r10
000B:9759 3C           loop
000B:975A DA           inc   r10
000B:975B F0 60 01     iwt   r0,#0160
000B:975E 61           sub   r1
000B:975F 11 C0        hib
000B:9761 08 1A        bne   977D
000B:9763 01           nop
000B:9764 3E 67        sub   #07
000B:9766 72           and   r2
000B:9767 03           lsr
000B:9768 11 03        lsr
000B:976A 1C 03        lsr
000B:976C F0 32 1F     iwt   r0,#1F32
000B:976F 1B 51        add   r1
000B:9771 A0 40        ibt   r0,#0040
000B:9773 1C 6C        sub   r12
000B:9775 23 10        move  r0,r3
000B:9777 2F 1D        move  r13,r15
000B:9779 3B           stw   (r11)
000B:977A DB           inc   r11
000B:977B 3C           loop
000B:977C DB           inc   r11
000B:977D F0 32 1F     iwt   r0,#1F32
000B:9780 40           ldw   (r0)
000B:9781 3E F0 F0 1E  sm    (1EF0),r0
000B:9785 00           stop
000B:9786 01           nop

; freespace
DATA_0B9787:         db $01, $01, $01, $01, $01, $01, $01, $01
DATA_0B978F:         db $01, $01, $01, $01, $01, $01, $01, $01
DATA_0B9797:         db $01, $01, $01, $01, $01, $01, $01, $01
DATA_0B979F:         db $01, $01, $01, $01, $01, $01, $01, $01
DATA_0B97A7:         db $01, $01, $01, $01, $01, $01, $01, $01
DATA_0B97AF:         db $01, $01, $01, $01, $01, $01, $01, $01
DATA_0B97B7:         db $01, $01, $01, $01, $01, $01, $01, $01
DATA_0B97BF:         db $01, $01, $01, $01, $01, $01, $01, $01
DATA_0B97C7:         db $01, $01, $01, $01, $01, $01, $01, $01
DATA_0B97CF:         db $01, $01, $01, $01, $01, $01, $01, $01
DATA_0B97D7:         db $01, $01, $01, $01, $01, $01, $01, $01
DATA_0B97DF:         db $01, $01, $01, $01, $01, $01, $01, $01
DATA_0B97E7:         db $01, $01, $01, $01, $01, $01, $01, $01
DATA_0B97EF:         db $01, $01, $01, $01, $01, $01, $01, $01
DATA_0B97F7:         db $01, $01, $01, $01, $01, $01, $01, $01
DATA_0B97FF:         db $01

000B:9800 3D F0 74 19  lm    r0,(1974)
000B:9804 3E 77        and   #07
000B:9806 3E A0 7C     sms   (00F8),r0
000B:9809 3D A1 54     lms   r1,(00A8)
000B:980C E1           dec   r1
000B:980D 0A 04        bpl   9813
000B:980F D1           inc   r1
000B:9810 21 4F        not
000B:9812 D1           inc   r1
000B:9813 3D A0 55     lms   r0,(00AA)
000B:9816 E0           dec   r0
000B:9817 0A 03        bpl   981C
000B:9819 D0           inc   r0
000B:981A 4F           not
000B:981B D0           inc   r0
000B:981C 61           sub   r1
000B:981D 0D 02        bcs   9821
000B:981F 51           add   r1
000B:9820 B1 C0        hib
000B:9822 11 3E 64     sub   #04
000B:9825 0C 03        bcc   982A
000B:9827 01           nop
000B:9828 A0 03        ibt   r0,#0003
000B:982A 3E C4        or    #04
000B:982C 3E A0 3B     sms   (0076),r0
000B:982F 94           link  #04
000B:9830 FF 79 99     iwt   r15,#9979
000B:9833 01           nop
000B:9834 F0 08 00     iwt   r0,#0008
000B:9837 3E A0 60     sms   (00C0),r0
000B:983A 3D A0 EB     lms   r0,(01D6)
000B:983D A1 20        ibt   r1,#0020
000B:983F 61           sub   r1
000B:9840 0B 3D        bmi   987F
000B:9842 01           nop
000B:9843 3D A0 C0     lms   r0,(0180)
000B:9846 3E 60        sub   #00
000B:9848 09 35        beq   987F
000B:984A 01           nop
000B:984B A1 E0        ibt   r1,#FFE0
000B:984D 0A 03        bpl   9852
000B:984F 01           nop
000B:9850 A1 20        ibt   r1,#0020
000B:9852 51           add   r1
000B:9853 11 3D C1     xor   r1
000B:9856 0B 02        bmi   985A
000B:9858 01           nop
000B:9859 60           sub   r0
000B:985A 90           sbk
000B:985B 3D A1 BF     lms   r1,(017E)
000B:985E 51           add   r1
000B:985F 90           sbk
000B:9860 3D A0 C1     lms   r0,(0182)
000B:9863 3E 62        sub   #02
000B:9865 08 07        bne   986E
000B:9867 D0           inc   r0
000B:9868 3E A0 C2     sms   (0184),r0
000B:986B 05 07        bra   9874

000B:986D 01           nop
000B:986E 0D 03        bcs   9873
000B:9870 01           nop
000B:9871 D0           inc   r0
000B:9872 D0           inc   r0
000B:9873 90           sbk
000B:9874 A5 20        ibt   r5,#0020
000B:9876 A6 00        ibt   r6,#0000
000B:9878 F8 00 04     iwt   r8,#0400
000B:987B FF 35 99     iwt   r15,#9935
000B:987E 01           nop
000B:987F 3D F0 71 00  lm    r0,(0071)
000B:9883 3E 7F        and   #0F
000B:9885 20 11        move  r1,r0
000B:9887 08 18        bne   98A1
000B:9889 E0           dec   r0
000B:988A A5 02        ibt   r5,#0002
000B:988C A6 00        ibt   r6,#0000
000B:988E F8 00 04     iwt   r8,#0400
000B:9891 AA 00        ibt   r10,#0000
000B:9893 3D A0 54     lms   r0,(00A8)
000B:9896 3E 60        sub   #00
000B:9898 09 1F        beq   98B9
000B:989A 01           nop
000B:989B FA 00 F8     iwt   r10,#F800
000B:989E 05 19        bra   98B9

000B:98A0 01           nop
000B:98A1 3E 85        mult  #05
000B:98A3 FE 7A FB     iwt   r14,#FB7A
000B:98A6 1E 5E        add   r14
000B:98A8 EF           getb
000B:98A9 1A 4D        swap
000B:98AB DE           inc   r14
000B:98AC EF           getb
000B:98AD DE           inc   r14
000B:98AE 16 3D EF     getbh
000B:98B1 DE           inc   r14
000B:98B2 EF           getb
000B:98B3 DE           inc   r14
000B:98B4 18 3D EF     getbh
000B:98B7 A5 0C        ibt   r5,#000C
000B:98B9 3D A2 C2     lms   r2,(0184)
000B:98BC E2           dec   r2
000B:98BD 0A 35        bpl   98F4
000B:98BF D2           inc   r2
000B:98C0 3D A0 C1     lms   r0,(0182)
000B:98C3 E0           dec   r0
000B:98C4 0B 2E        bmi   98F4
000B:98C6 01           nop
000B:98C7 3D AE FB     lms   r14,(01F6)
000B:98CA EE           dec   r14
000B:98CB 0B 09        bmi   98D6
000B:98CD 01           nop
000B:98CE 3E 62        sub   #02
000B:98D0 0C 58        bcc   992A
000B:98D2 01           nop
000B:98D3 05 58        bra   992D

000B:98D5 01           nop

000B:98D6 3E A0 C1     sms   (0182),r0
000B:98D9 AE 04        ibt   r14,#0004
000B:98DB 3E AE FB     sms   (01F6),r14
000B:98DE 3E 62        sub   #02
000B:98E0 0C 48        bcc   992A
000B:98E2 01           nop
000B:98E3 08 48        bne   992D
000B:98E5 01           nop
000B:98E6 3D A0 62     lms   r0,(00C4)
000B:98E9 3F C2        xor   #02
000B:98EB 90           sbk
000B:98EC 3D A0 BF     lms   r0,(017E)
000B:98EF 4F           not
000B:98F0 D0           inc   r0
000B:98F1 05 37        bra   992A

000B:98F3 90           sbk
000B:98F4 B1 3E 73     and   #03
000B:98F7 09 34        beq   992D
000B:98F9 01           nop
000B:98FA 11 3E 72     and   #02
000B:98FD E2           dec   r2
000B:98FE 0B 0B        bmi   990B
000B:9900 01           nop
000B:9901 3E A1 62     sms   (00C4),r1
000B:9904 60           sub   r0
000B:9905 3E A0 C2     sms   (0184),r0
000B:9908 05 20        bra   992A

000B:990A 01           nop
000B:990B 3D A0 62     lms   r0,(00C4)
000B:990E 61           sub   r1
000B:990F 09 19        beq   992A
000B:9911 01           nop
000B:9912 3D A0 54     lms   r0,(00A8)
000B:9915 3E 60        sub   #00
000B:9917 09 07        beq   9920
000B:9919 01           nop
000B:991A E1           dec   r1
000B:991B 3D C1        xor   r1
000B:991D 0A 0E        bpl   992D
000B:991F D1           inc   r1
000B:9920 A0 04        ibt   r0,#0004
000B:9922 3E A0 C1     sms   (0182),r0
000B:9925 A0 04        ibt   r0,#0004
000B:9927 3E A0 FB     sms   (01F6),r0
000B:992A 2A 4F        not
000B:992C DA           inc   r10
000B:992D F4 00 04     iwt   r4,#0400
000B:9930 94           link  #04
000B:9931 FF D9 9B     iwt   r15,#9BD9
000B:9934 01           nop
000B:9935 25 17        move  r7,r5
000B:9937 3D A0 63     lms   r0,(00C6)
000B:993A E0           dec   r0
000B:993B 0B 2F        bmi   996C
000B:993D 01           nop
000B:993E 28 B8        moves r8,r8
000B:9940 0B 16        bmi   9958
000B:9942 01           nop
000B:9943 A5 02        ibt   r5,#0002
000B:9945 B6 3D 96     div2
000B:9948 3D 96        div2
000B:994A 16 3D 96     div2
000B:994D F8 00 FF     iwt   r8,#FF00
000B:9950 94           link  #04
000B:9951 FF F3 9B     iwt   r15,#9BF3
000B:9954 01           nop
000B:9955 05 1F        bra   9976

000B:9957 01           nop

000B:9958 3D A0 7F     lms   r0,(00FE)
000B:995B F4 40 01     iwt   r4,#0140
000B:995E 74           and   r4
000B:995F 08 0B        bne   996C
000B:9961 60           sub   r0
000B:9962 3E A0 63     sms   (00C6),r0
000B:9965 A4 14        ibt   r4,#0014
000B:9967 94           link  #04
000B:9968 FF C2 CB     iwt   r15,#CBC2
000B:996B 01           nop
000B:996C 94           link  #04
000B:996D FF 9F 9B     iwt   r15,#9B9F
000B:9970 01           nop
000B:9971 94           link  #04
000B:9972 FF BF 9B     iwt   r15,#9BBF
000B:9975 01           nop
000B:9976 60           sub   r0
000B:9977 00           stop
000B:9978 01           nop

000B:9979 3E AB 34     sms   (0068),r11
000B:997C 3D A0 C1     lms   r0,(0182)
000B:997F E0           dec   r0
000B:9980 0B 0E        bmi   9990
000B:9982 50           add   r0
000B:9983 FE 72 FB     iwt   r14,#FB72
000B:9986 1E 5E        add   r14
000B:9988 EF           getb
000B:9989 DE           inc   r14
000B:998A 1C 3D EF     getbh
000B:998D 05 10        bra   999F

000B:998F 01           nop

000B:9990 FC A0 00     iwt   r12,#00A0
000B:9993 3D F0 74 19  lm    r0,(1974)
000B:9997 3E 72        and   #02
000B:9999 09 04        beq   999F
000B:999B 01           nop
000B:999C FC E0 00     iwt   r12,#00E0
000B:999F AD 54        ibt   r13,#0054
000B:99A1 A2 20        ibt   r2,#0020
000B:99A3 A3 00        ibt   r3,#0000
000B:99A5 3D A0 BF     lms   r0,(017E)
000B:99A8 15 C0        hib
000B:99AA F6 00 01     iwt   r6,#0100
000B:99AD 94           link  #04
000B:99AE FF 8A F2     iwt   r15,#F28A
000B:99B1 01           nop
000B:99B2 F0 81 01     iwt   r0,#0181
000B:99B5 3E A0 5F     sms   (00BE),r0
000B:99B8 94           link  #04
000B:99B9 FF 5A CE     iwt   r15,#CE5A
000B:99BC 01           nop
000B:99BD FE 44 EB     iwt   r14,#EB44
000B:99C0 94           link  #04
000B:99C1 FF 7C CF     iwt   r15,#CF7C
000B:99C4 01           nop
000B:99C5 3D A0 63     lms   r0,(00C6)
000B:99C8 E0           dec   r0
000B:99C9 0A 06        bpl   99D1
000B:99CB 01           nop
000B:99CC 94           link  #04
000B:99CD FF 33 CB     iwt   r15,#CB33
000B:99D0 01           nop
000B:99D1 3D AB 34     lms   r11,(0068)
000B:99D4 9B           jmp   r11
000B:99D5 01           nop

000B:99D6 A0 64        ibt   r0,#0064
000B:99D8 3E A0 3B     sms   (0076),r0
000B:99DB 94           link  #04
000B:99DC FF 60 9B     iwt   r15,#9B60
000B:99DF 01           nop
000B:99E0 3D A0 EB     lms   r0,(01D6)
000B:99E3 A1 50        ibt   r1,#0050
000B:99E5 61           sub   r1
000B:99E6 0B 26        bmi   9A0E
000B:99E8 01           nop
000B:99E9 3D A0 C0     lms   r0,(0180)
000B:99EC A2 10        ibt   r2,#0010
000B:99EE 52           add   r2
000B:99EF 90           sbk
000B:99F0 60           sub   r0
000B:99F1 3E A0 5A     sms   (00B4),r0
000B:99F4 3E A0 54     sms   (00A8),r0
000B:99F7 F0 80 00     iwt   r0,#0080
000B:99FA 3E A0 55     sms   (00AA),r0
000B:99FD 94           link  #04
000B:99FE FF 5A CE     iwt   r15,#CE5A
000B:9A01 01           nop
000B:9A02 FE 44 EB     iwt   r14,#EB44
000B:9A05 94           link  #04
000B:9A06 FF 7C CF     iwt   r15,#CF7C
000B:9A09 01           nop
000B:9A0A FF 06 9B     iwt   r15,#9B06
000B:9A0D 01           nop
000B:9A0E 3D A0 E2     lms   r0,(01C4)
000B:9A11 E0           dec   r0
000B:9A12 0A 13        bpl   9A27
000B:9A14 01           nop
000B:9A15 3D A0 44     lms   r0,(0088)
000B:9A18 3D A1 42     lms   r1,(0084)
000B:9A1B C1           or    r1
000B:9A1C 3D A1 43     lms   r1,(0086)
000B:9A1F C1           or    r1
000B:9A20 3D A1 39     lms   r1,(0072)
000B:9A23 71           and   r1
000B:9A24 08 05        bne   9A2B
000B:9A26 01           nop
000B:9A27 FF E4 9A     iwt   r15,#9AE4
000B:9A2A 01           nop
000B:9A2B A0 08        ibt   r0,#0008
000B:9A2D 3F DF        romb
000B:9A2F 3D A0 BF     lms   r0,(017E)
000B:9A32 11 C0        hib
000B:9A34 F0 18 AE     iwt   r0,#AE18
000B:9A37 1E 51        add   r1
000B:9A39 EF           getb
000B:9A3A A6 08        ibt   r6,#0008
000B:9A3C 86           mult  r6
000B:9A3D 50           add   r0
000B:9A3E 50           add   r0
000B:9A3F C0           hib
000B:9A40 95           sex
000B:9A41 3D A2 62     lms   r2,(00C4)
000B:9A44 E2           dec   r2
000B:9A45 0B 03        bmi   9A4A
000B:9A47 01           nop
000B:9A48 4F           not
000B:9A49 D0           inc   r0
000B:9A4A 3D A2 46     lms   r2,(008C)
000B:9A4D 12 52        add   r2
000B:9A4F F0 58 AE     iwt   r0,#AE58
000B:9A52 1E 51        add   r1
000B:9A54 EF           getb
000B:9A55 86           mult  r6
000B:9A56 50           add   r0
000B:9A57 50           add   r0
000B:9A58 C0           hib
000B:9A59 13 95        sex
000B:9A5B 3D A0 48     lms   r0,(0090)
000B:9A5E 63           sub   r3
000B:9A5F A3 10        ibt   r3,#0010
000B:9A61 13 53        add   r3
000B:9A63 A0 0A        ibt   r0,#000A
000B:9A65 3F DF        romb
000B:9A67 F5 C4 01     iwt   r5,#01C4
000B:9A6A 94           link  #04
000B:9A6B FF C4 F0     iwt   r15,#F0C4
000B:9A6E 01           nop
000B:9A6F F0 A2 10     iwt   r0,#10A2
000B:9A72 51           add   r1
000B:9A73 B2 30        stw   (r0)
000B:9A75 F0 42 11     iwt   r0,#1142
000B:9A78 51           add   r1
000B:9A79 B3 30        stw   (r0)
000B:9A7B A5 02        ibt   r5,#0002
000B:9A7D F0 4C 1E     iwt   r0,#1E4C
000B:9A80 51           add   r1
000B:9A81 B5 30        stw   (r0)
000B:9A83 A5 06        ibt   r5,#0006
000B:9A85 F0 82 17     iwt   r0,#1782
000B:9A88 51           add   r1
000B:9A89 B5 30        stw   (r0)
000B:9A8B A5 01        ibt   r5,#0001
000B:9A8D F0 C2 13     iwt   r0,#13C2
000B:9A90 51           add   r1
000B:9A91 B5 30        stw   (r0)
000B:9A93 F5 15 00     iwt   r5,#0015
000B:9A96 94           link  #04
000B:9A97 FF 10 EF     iwt   r15,#EF10
000B:9A9A 01           nop
000B:9A9B 0B 47        bmi   9AE4
000B:9A9D 60           sub   r0
000B:9A9E A0 67        ibt   r0,#0067
000B:9AA0 3E A0 3D     sms   (007A),r0
000B:9AA3 D0           inc   r0
000B:9AA4 3E A0 E2     sms   (01C4),r0
000B:9AA7 A5 02        ibt   r5,#0002
000B:9AA9 F0 00 0F     iwt   r0,#0F00
000B:9AAC 51           add   r1
000B:9AAD B5 30        stw   (r0)
000B:9AAF F0 E2 10     iwt   r0,#10E2
000B:9AB2 51           add   r1
000B:9AB3 B2 30        stw   (r0)
000B:9AB5 F0 82 11     iwt   r0,#1182
000B:9AB8 51           add   r1
000B:9AB9 B3 30        stw   (r0)
000B:9ABB 3D A0 BF     lms   r0,(017E)
000B:9ABE C0           hib
000B:9ABF 15 50        add   r0
000B:9AC1 F0 78 19     iwt   r0,#1978
000B:9AC4 51           add   r1
000B:9AC5 B5 30        stw   (r0)
000B:9AC7 3D A0 62     lms   r0,(00C4)
000B:9ACA 15 3F C2     xor   #02
000B:9ACD F0 00 14     iwt   r0,#1400
000B:9AD0 51           add   r1
000B:9AD1 B5 30        stw   (r0)
000B:9AD3 F5 00 F8     iwt   r5,#F800
000B:9AD6 F0 D6 19     iwt   r0,#19D6
000B:9AD9 51           add   r1
000B:9ADA B5 30        stw   (r0)
000B:9ADC A5 07        ibt   r5,#0007
000B:9ADE F0 76 19     iwt   r0,#1976
000B:9AE1 51           add   r1
000B:9AE2 B5 30        stw   (r0)
000B:9AE4 3D A0 63     lms   r0,(00C6)
000B:9AE7 E0           dec   r0
000B:9AE8 0A 1F        bpl   9B09
000B:9AEA 01           nop
000B:9AEB 94           link  #04
000B:9AEC FF BF CC     iwt   r15,#CCBF
000B:9AEF 01           nop
000B:9AF0 FE 44 EB     iwt   r14,#EB44
000B:9AF3 94           link  #04
000B:9AF4 FF 7C CF     iwt   r15,#CF7C
000B:9AF7 01           nop
000B:9AF8 94           link  #04
000B:9AF9 FF 33 CB     iwt   r15,#CB33
000B:9AFC 01           nop
000B:9AFD 3D F1 71 00  lm    r1,(0071)
000B:9B01 94           link  #04
000B:9B02 FF D3 E1     iwt   r15,#E1D3
000B:9B05 01           nop
000B:9B06 60           sub   r0
000B:9B07 00           stop
000B:9B08 01           nop

000B:9B09 94           link  #04
000B:9B0A FF 5A CE     iwt   r15,#CE5A
000B:9B0D 01           nop
000B:9B0E FE 44 EB     iwt   r14,#EB44
000B:9B11 94           link  #04
000B:9B12 FF 7C CF     iwt   r15,#CF7C
000B:9B15 01           nop
000B:9B16 3D F1 71 00  lm    r1,(0071)
000B:9B1A B1 3E 73     and   #03
000B:9B1D 09 06        beq   9B25
000B:9B1F 01           nop
000B:9B20 3E 72        and   #02
000B:9B22 3E A0 62     sms   (00C4),r0
000B:9B25 A5 02        ibt   r5,#0002
000B:9B27 B1 3E 7F     and   #0F
000B:9B2A 09 03        beq   9B2F
000B:9B2C 01           nop
000B:9B2D A5 08        ibt   r5,#0008
000B:9B2F 25 17        move  r7,r5
000B:9B31 3E 85        mult  #05
000B:9B33 FE C5 FB     iwt   r14,#FBC5
000B:9B36 1E 5E        add   r14
000B:9B38 EF           getb
000B:9B39 1A 4D        swap
000B:9B3B DE           inc   r14
000B:9B3C EF           getb
000B:9B3D DE           inc   r14
000B:9B3E 16 3D EF     getbh
000B:9B41 DE           inc   r14
000B:9B42 EF           getb
000B:9B43 DE           inc   r14
000B:9B44 18 3D EF     getbh
000B:9B47 94           link  #04
000B:9B48 FF F3 9B     iwt   r15,#9BF3
000B:9B4B 01           nop
000B:9B4C 3D A0 65     lms   r0,(00CA)
000B:9B4F E0           dec   r0
000B:9B50 0B 03        bmi   9B55
000B:9B52 01           nop
000B:9B53 AA 00        ibt   r10,#0000
000B:9B55 F4 00 02     iwt   r4,#0200
000B:9B58 94           link  #04
000B:9B59 FF D9 9B     iwt   r15,#9BD9
000B:9B5C 01           nop
000B:9B5D 60           sub   r0
000B:9B5E 00           stop
000B:9B5F 01           nop

000B:9B60 3E AB 34     sms   (0068),r11
000B:9B63 FC 00 00     iwt   r12,#0000
000B:9B66 3D F0 74 19  lm    r0,(1974)
000B:9B6A 3E 74        and   #04
000B:9B6C 09 04        beq   9B72
000B:9B6E 01           nop
000B:9B6F FC 20 00     iwt   r12,#0020
000B:9B72 AD 54        ibt   r13,#0054
000B:9B74 A2 20        ibt   r2,#0020
000B:9B76 A3 00        ibt   r3,#0000
000B:9B78 3D A0 BF     lms   r0,(017E)
000B:9B7B 15 C0        hib
000B:9B7D 3D A0 EB     lms   r0,(01D6)
000B:9B80 A6 50        ibt   r6,#0050
000B:9B82 66           sub   r6
000B:9B83 0B 07        bmi   9B8C
000B:9B85 01           nop
000B:9B86 3D A0 C0     lms   r0,(0180)
000B:9B89 55           add   r5
000B:9B8A 15 9E        lob
000B:9B8C F6 00 01     iwt   r6,#0100
000B:9B8F 94           link  #04
000B:9B90 FF 8A F2     iwt   r15,#F28A
000B:9B93 01           nop
000B:9B94 F0 71 01     iwt   r0,#0171
000B:9B97 3E A0 5F     sms   (00BE),r0
000B:9B9A 3D AB 34     lms   r11,(0068)
000B:9B9D 9B           jmp   r11
000B:9B9E 01           nop

000B:9B9F 3D A0 5A     lms   r0,(00B4)
000B:9BA2 66           sub   r6
000B:9BA3 0B 04        bmi   9BA9
000B:9BA5 56           add   r6
000B:9BA6 25 4F        not
000B:9BA8 D5           inc   r5
000B:9BA9 55           add   r5
000B:9BAA 90           sbk
000B:9BAB 3E A0 54     sms   (00A8),r0
000B:9BAE 66           sub   r6
000B:9BAF 09 0C        beq   9BBD
000B:9BB1 01           nop
000B:9BB2 3D C5        xor   r5
000B:9BB4 0B 07        bmi   9BBD
000B:9BB6 01           nop
000B:9BB7 3E A6 5A     sms   (00B4),r6
000B:9BBA 3E A6 54     sms   (00A8),r6
000B:9BBD 9B           jmp   r11
000B:9BBE 01           nop

000B:9BBF 3D A0 55     lms   r0,(00AA)
000B:9BC2 68           sub   r8
000B:9BC3 0B 04        bmi   9BC9
000B:9BC5 58           add   r8
000B:9BC6 27 4F        not
000B:9BC8 D7           inc   r7
000B:9BC9 57           add   r7
000B:9BCA 90           sbk
000B:9BCB 68           sub   r8
000B:9BCC 09 09        beq   9BD7
000B:9BCE 01           nop
000B:9BCF 3D C7        xor   r7
000B:9BD1 0B 04        bmi   9BD7
000B:9BD3 01           nop
000B:9BD4 3E A8 55     sms   (00AA),r8
000B:9BD7 9B           jmp   r11
000B:9BD8 01           nop

000B:9BD9 3D A0 BF     lms   r0,(017E)
000B:9BDC 1E 6A        sub   r10
000B:9BDE 09 11        beq   9BF1
000B:9BE0 01           nop
000B:9BE1 0B 04        bmi   9BE7
000B:9BE3 01           nop
000B:9BE4 24 4F        not
000B:9BE6 D4           inc   r4
000B:9BE7 54           add   r4
000B:9BE8 90           sbk
000B:9BE9 6A           sub   r10
000B:9BEA 3D CE        xor   r14
000B:9BEC 0A 03        bpl   9BF1
000B:9BEE 01           nop
000B:9BEF BA 90        sbk
000B:9BF1 9B           jmp   r11
000B:9BF2 01           nop

000B:9BF3 3E AB 34     sms   (0068),r11
000B:9BF6 94           link  #04
000B:9BF7 FF 9F 9B     iwt   r15,#9B9F
000B:9BFA 01           nop
000B:9BFB 3D A0 63     lms   r0,(00C6)
000B:9BFE 3E 63        sub   #03
000B:9C00 0D 16        bcs   9C18
000B:9C02 01           nop
000B:9C03 3D A0 55     lms   r0,(00AA)
000B:9C06 A3 30        ibt   r3,#0030
000B:9C08 63           sub   r3
000B:9C09 0A 0A        bpl   9C15
000B:9C0B 90           sbk
000B:9C0C A0 03        ibt   r0,#0003
000B:9C0E 3E A0 63     sms   (00C6),r0
000B:9C11 60           sub   r0
000B:9C12 3E A0 65     sms   (00CA),r0
000B:9C15 05 76        bra   9C8D

000B:9C17 01           nop

000B:9C18 3D A0 65     lms   r0,(00CA)
000B:9C1B E0           dec   r0
000B:9C1C 0A 2C        bpl   9C4A
000B:9C1E 01           nop
000B:9C1F A4 0F        ibt   r4,#000F
000B:9C21 A6 0E        ibt   r6,#000E
000B:9C23 94           link  #04
000B:9C24 FF 73 CC     iwt   r15,#CC73
000B:9C27 01           nop
000B:9C28 3D A0 7F     lms   r0,(00FE)
000B:9C2B F3 58 01     iwt   r3,#0158
000B:9C2E 73           and   r3
000B:9C2F 08 16        bne   9C47
000B:9C31 60           sub   r0
000B:9C32 D0           inc   r0
000B:9C33 3E A0 65     sms   (00CA),r0
000B:9C36 A4 14        ibt   r4,#0014
000B:9C38 94           link  #04
000B:9C39 FF C2 CB     iwt   r15,#CBC2
000B:9C3C 01           nop
000B:9C3D 3D A0 60     lms   r0,(00C0)
000B:9C40 E0           dec   r0
000B:9C41 0A 04        bpl   9C47
000B:9C43 60           sub   r0
000B:9C44 3E A0 63     sms   (00C6),r0
000B:9C47 05 30        bra   9C79

000B:9C49 01           nop

000B:9C4A A4 0E        ibt   r4,#000E
000B:9C4C 94           link  #04
000B:9C4D FF 09 CC     iwt   r15,#CC09
000B:9C50 01           nop
000B:9C51 A2 04        ibt   r2,#0004
000B:9C53 3D A0 7F     lms   r0,(00FE)
000B:9C56 F3 40 01     iwt   r3,#0140
000B:9C59 73           and   r3
000B:9C5A 09 25        beq   9C81
000B:9C5C 01           nop
000B:9C5D 3D A0 7F     lms   r0,(00FE)
000B:9C60 A3 18        ibt   r3,#0018
000B:9C62 73           and   r3
000B:9C63 09 0E        beq   9C73
000B:9C65 60           sub   r0
000B:9C66 3E A0 65     sms   (00CA),r0
000B:9C69 A4 08        ibt   r4,#0008
000B:9C6B 94           link  #04
000B:9C6C FF C2 CB     iwt   r15,#CBC2
000B:9C6F 01           nop
000B:9C70 05 07        bra   9C79

000B:9C72 01           nop

000B:9C73 A2 FC        ibt   r2,#FFFC
000B:9C75 E8           dec   r8
000B:9C76 0B 09        bmi   9C81
000B:9C78 D8           inc   r8
000B:9C79 94           link  #04
000B:9C7A FF BF 9B     iwt   r15,#9BBF
000B:9C7D 01           nop
000B:9C7E 05 0D        bra   9C8D

000B:9C80 01           nop

000B:9C81 3D A0 55     lms   r0,(00AA)
000B:9C84 52           add   r2
000B:9C85 A2 D0        ibt   r2,#FFD0
000B:9C87 62           sub   r2
000B:9C88 0A 02        bpl   9C8C
000B:9C8A 52           add   r2
000B:9C8B B2 90        sbk
000B:9C8D 3D AB 34     lms   r11,(0068)
000B:9C90 9B           jmp   r11
000B:9C91 01           nop

000B:9C92 3D F0 04 1E  lm    r0,(1E04)
000B:9C96 F1 C0 00     iwt   r1,#00C0
000B:9C99 61           sub   r1
000B:9C9A 0D 0D        bcs   9CA9
000B:9C9C 51           add   r1
000B:9C9D D0           inc   r0
000B:9C9E A1 3F        ibt   r1,#003F
000B:9CA0 71           and   r1
000B:9CA1 08 06        bne   9CA9
000B:9CA3 01           nop
000B:9CA4 A0 7F        ibt   r0,#007F
000B:9CA6 3E A0 3D     sms   (007A),r0
000B:9CA9 3D A0 63     lms   r0,(00C6)
000B:9CAC E0           dec   r0
000B:9CAD 0B 05        bmi   9CB4
000B:9CAF 01           nop
000B:9CB0 FF D0 9C     iwt   r15,#9CD0
000B:9CB3 01           nop
000B:9CB4 94           link  #04
000B:9CB5 FF CE A8     iwt   r15,#A8CE
000B:9CB8 01           nop
000B:9CB9 94           link  #04
000B:9CBA FF A4 A1     iwt   r15,#A1A4
000B:9CBD 01           nop
000B:9CBE 94           link  #04
000B:9CBF FF 33 CB     iwt   r15,#CB33
000B:9CC2 01           nop
000B:9CC3 94           link  #04
000B:9CC4 FF D0 9C     iwt   r15,#9CD0
000B:9CC7 01           nop
000B:9CC8 94           link  #04
000B:9CC9 FF 87 9F     iwt   r15,#9F87
000B:9CCC 01           nop
000B:9CCD 60           sub   r0
000B:9CCE 00           stop
000B:9CCF 01           nop

000B:9CD0 3D F1 71 00  lm    r1,(0071)
000B:9CD4 3D F2 73 00  lm    r2,(0073)
000B:9CD8 3D A0 60     lms   r0,(00C0)
000B:9CDB E0           dec   r0
000B:9CDC 0B 19        bmi   9CF7
000B:9CDE 01           nop
000B:9CDF 3D A7 C4     lms   r7,(0188)
000B:9CE2 27 B7        moves r7,r7
000B:9CE4 0A 0D        bpl   9CF3
000B:9CE6 01           nop
000B:9CE7 3D A0 C5     lms   r0,(018A)
000B:9CEA F4 60 00     iwt   r4,#0060
000B:9CED 54           add   r4
000B:9CEE 90           sbk
000B:9CEF 57           add   r7
000B:9CF0 3E A0 C4     sms   (0188),r0
000B:9CF3 FF C1 9D     iwt   r15,#9DC1
000B:9CF6 01           nop
000B:9CF7 3D A7 C6     lms   r7,(018C)
000B:9CFA E7           dec   r7
000B:9CFB 0B 0D        bmi   9D0A
000B:9CFD D7           inc   r7
000B:9CFE 3D A0 C7     lms   r0,(018E)
000B:9D01 F4 A0 FF     iwt   r4,#FFA0
000B:9D04 54           add   r4
000B:9D05 90           sbk
000B:9D06 57           add   r7
000B:9D07 3E A0 C6     sms   (018C),r0
000B:9D0A 3D A7 61     lms   r7,(00C2)
000B:9D0D A8 FF        ibt   r8,#FFFF
000B:9D0F B1 3E 74     and   #04
000B:9D12 09 05        beq   9D19
000B:9D14 01           nop
000B:9D15 A8 01        ibt   r8,#0001
000B:9D17 A0 05        ibt   r0,#0005
000B:9D19 67           sub   r7
000B:9D1A 09 04        beq   9D20
000B:9D1C 57           add   r7
000B:9D1D B7 58        add   r8
000B:9D1F 90           sbk
000B:9D20 09 0D        beq   9D2F
000B:9D22 01           nop
000B:9D23 3D F0 85 00  lm    r0,(0085)
000B:9D27 72           and   r2
000B:9D28 08 11        bne   9D3B
000B:9D2A 01           nop
000B:9D2B FF AA 9E     iwt   r15,#9EAA
000B:9D2E 01           nop
000B:9D2F 3D F0 85 00  lm    r0,(0085)
000B:9D33 72           and   r2
000B:9D34 08 05        bne   9D3B
000B:9D36 01           nop
000B:9D37 FF C1 9D     iwt   r15,#9DC1
000B:9D3A 01           nop
000B:9D3B A0 38        ibt   r0,#0038
000B:9D3D 3E A0 3D     sms   (007A),r0
000B:9D40 F0 70 01     iwt   r0,#0170
000B:9D43 3D F6 3A 1E  lm    r6,(1E3A)
000B:9D47 3D 9F        lmult
000B:9D49 24 C0        hib
000B:9D4B 9E           lob
000B:9D4C 4D           swap
000B:9D4D 17 C4        or    r4
000B:9D4F F6 60 FB     iwt   r6,#FB60
000B:9D52 3D A0 C0     lms   r0,(0180)
000B:9D55 3E 60        sub   #00
000B:9D57 09 41        beq   9D9A
000B:9D59 01           nop
000B:9D5A A0 08        ibt   r0,#0008
000B:9D5C 3F DF        romb
000B:9D5E FE 58 AE     iwt   r14,#AE58
000B:9D61 3D A0 5B     lms   r0,(00B6)
000B:9D64 1E 5E        add   r14
000B:9D66 3F EF        getbs
000B:9D68 50           add   r0
000B:9D69 50           add   r0
000B:9D6A 3D 9F        lmult
000B:9D6C 24 C0        hib
000B:9D6E 9E           lob
000B:9D6F 4D           swap
000B:9D70 C4           or    r4
000B:9D71 4F           not
000B:9D72 D0           inc   r0
000B:9D73 17 57        add   r7
000B:9D75 A0 40        ibt   r0,#0040
000B:9D77 2E 60        sub   r0
000B:9D79 3F EF        getbs
000B:9D7B 50           add   r0
000B:9D7C 50           add   r0
000B:9D7D 3D 9F        lmult
000B:9D7F 24 C0        hib
000B:9D81 9E           lob
000B:9D82 4D           swap
000B:9D83 C4           or    r4
000B:9D84 3D A6 55     lms   r6,(00AA)
000B:9D87 E6           dec   r6
000B:9D88 0B 03        bmi   9D8D
000B:9D8A D6           inc   r6
000B:9D8B A6 00        ibt   r6,#0000
000B:9D8D 16 56        add   r6
000B:9D8F 0B 02        bmi   9D93
000B:9D91 16 60        sub   r0
000B:9D93 A0 0A        ibt   r0,#000A
000B:9D95 3F DF        romb
000B:9D97 05 0B        bra   9DA4

000B:9D99 01           nop

000B:9D9A 3D A0 7E     lms   r0,(00FC)
000B:9D9D A4 18        ibt   r4,#0018
000B:9D9F 74           and   r4
000B:9DA0 09 02        beq   9DA4
000B:9DA2 16 60        sub   r0
000B:9DA4 3E A6 55     sms   (00AA),r6
000B:9DA7 3D A0 54     lms   r0,(00A8)
000B:9DAA 57           add   r7
000B:9DAB 3E A0 5A     sms   (00B4),r0
000B:9DAE F0 06 00     iwt   r0,#0006
000B:9DB1 3E A0 60     sms   (00C0),r0
000B:9DB4 60           sub   r0
000B:9DB5 3E A0 6D     sms   (00DA),r0
000B:9DB8 3E A0 61     sms   (00C2),r0
000B:9DBB 3E A0 C6     sms   (018C),r0
000B:9DBE 05 01        bra   9DC1

000B:9DC0 01           nop

000B:9DC1 3D A0 C2     lms   r0,(0184)
000B:9DC4 3E 60        sub   #00
000B:9DC6 09 3F        beq   9E07
000B:9DC8 01           nop
000B:9DC9 3D A4 C3     lms   r4,(0186)
000B:9DCC 17 54        add   r4
000B:9DCE 3D C7        xor   r7
000B:9DD0 0A 1F        bpl   9DF1
000B:9DD2 60           sub   r0
000B:9DD3 90           sbk
000B:9DD4 3E A0 C2     sms   (0184),r0
000B:9DD7 3E A4 54     sms   (00A8),r4
000B:9DDA 3E A4 5A     sms   (00B4),r4
000B:9DDD 20 B4        moves r0,r4
000B:9DDF 0B 03        bmi   9DE4
000B:9DE1 01           nop
000B:9DE2 4F           not
000B:9DE3 D0           inc   r0
000B:9DE4 50           add   r0
000B:9DE5 3E A0 55     sms   (00AA),r0
000B:9DE8 F0 06 00     iwt   r0,#0006
000B:9DEB 3E A0 60     sms   (00C0),r0
000B:9DEE 05 17        bra   9E07

000B:9DF0 01           nop

000B:9DF1 A0 60        ibt   r0,#0060
000B:9DF3 27 B7        moves r7,r7
000B:9DF5 0B 03        bmi   9DFA
000B:9DF7 01           nop
000B:9DF8 A0 A0        ibt   r0,#FFA0
000B:9DFA 54           add   r4
000B:9DFB 90           sbk
000B:9DFC 3E A7 C2     sms   (0184),r7
000B:9DFF 60           sub   r0
000B:9E00 3E A0 55     sms   (00AA),r0
000B:9E03 FF A8 9E     iwt   r15,#9EA8
000B:9E06 01           nop
000B:9E07 3D A0 6D     lms   r0,(00DA)
000B:9E0A E0           dec   r0
000B:9E0B 0B 05        bmi   9E12
000B:9E0D 01           nop
000B:9E0E FF A8 9E     iwt   r15,#9EA8
000B:9E11 01           nop
000B:9E12 3D A0 60     lms   r0,(00C0)
000B:9E15 E0           dec   r0
000B:9E16 0B 0D        bmi   9E25
000B:9E18 B1 3D A0 69  lms   r0,(00D2)
000B:9E1C 3E 65        sub   #05
000B:9E1E 0C 05        bcc   9E25
000B:9E20 B1 FF 1A 9F  iwt   r15,#9F1A
000B:9E24 01           nop
000B:9E25 3E 73        and   #03
000B:9E27 08 05        bne   9E2E
000B:9E29 01           nop
000B:9E2A FF AA 9E     iwt   r15,#9EAA
000B:9E2D 01           nop
000B:9E2E 3E A0 66     sms   (00CC),r0
000B:9E31 A7 FF        ibt   r7,#FFFF
000B:9E33 3E 72        and   #02
000B:9E35 08 03        bne   9E3A
000B:9E37 01           nop
000B:9E38 A7 01        ibt   r7,#0001
000B:9E3A 3D A4 62     lms   r4,(00C4)
000B:9E3D 64           sub   r4
000B:9E3E 09 06        beq   9E46
000B:9E40 54           add   r4
000B:9E41 3E A0 62     sms   (00C4),r0
000B:9E44 20 14        move  r4,r0
000B:9E46 3D A0 5A     lms   r0,(00B4)
000B:9E49 3E 60        sub   #00
000B:9E4B 09 0B        beq   9E58
000B:9E4D 01           nop
000B:9E4E 3D C7        xor   r7
000B:9E50 0A 06        bpl   9E58
000B:9E52 01           nop
000B:9E53 A0 04        ibt   r0,#0004
000B:9E55 3E A0 E8     sms   (01D0),r0
000B:9E58 3D F0 FB 00  lm    r0,(00FB)
000B:9E5C 03           lsr
000B:9E5D 03           lsr
000B:9E5E 17 C4        or    r4
000B:9E60 3D A0 5B     lms   r0,(00B6)
000B:9E63 3F 7F        bic   #0F
000B:9E65 03           lsr
000B:9E66 03           lsr
000B:9E67 17 C7        or    r7
000B:9E69 F0 2B EC     iwt   r0,#EC2B
000B:9E6C 1E 57        add   r7
000B:9E6E EF           getb
000B:9E6F DE           inc   r14
000B:9E70 18 3D EF     getbh
000B:9E73 A0 40        ibt   r0,#0040
000B:9E75 71           and   r1
000B:9E76 09 0D        beq   9E85
000B:9E78 01           nop
000B:9E79 F6 40 01     iwt   r6,#0140
000B:9E7C B8 3D 9F     lmult
000B:9E7F 24 C0        hib
000B:9E81 9E           lob
000B:9E82 4D           swap
000B:9E83 18 C4        or    r4
000B:9E85 3D A0 5A     lms   r0,(00B4)
000B:9E88 68           sub   r8
000B:9E89 09 4B        beq   9ED6
000B:9E8B 01           nop
000B:9E8C 3D C8        xor   r8
000B:9E8E 0A 46        bpl   9ED6
000B:9E90 01           nop
000B:9E91 3D A0 E8     lms   r0,(01D0)
000B:9E94 9E           lob
000B:9E95 09 02        beq   9E99
000B:9E97 01           nop
000B:9E98 D7           inc   r7
000B:9E99 F0 B3 ED     iwt   r0,#EDB3
000B:9E9C 57           add   r7
000B:9E9D 1E 57        add   r7
000B:9E9F EF           getb
000B:9EA0 DE           inc   r14
000B:9EA1 3D EF        getbh
000B:9EA3 3D A7 5A     lms   r7,(00B4)
000B:9EA6 57           add   r7
000B:9EA7 90           sbk
000B:9EA8 9B           jmp   r11
000B:9EA9 01           nop

000B:9EAA 3D A0 60     lms   r0,(00C0)
000B:9EAD E0           dec   r0
000B:9EAE 0B 26        bmi   9ED6
000B:9EB0 01           nop
000B:9EB1 3D A0 63     lms   r0,(00C6)
000B:9EB4 E0           dec   r0
000B:9EB5 0A 1F        bpl   9ED6
000B:9EB7 01           nop
000B:9EB8 FE 2B EC     iwt   r14,#EC2B
000B:9EBB 3D A0 5A     lms   r0,(00B4)
000B:9EBE 3E 60        sub   #00
000B:9EC0 0A 03        bpl   9EC5
000B:9EC2 01           nop
000B:9EC3 DE           inc   r14
000B:9EC4 DE           inc   r14
000B:9EC5 18 EF        getb
000B:9EC7 DE           inc   r14
000B:9EC8 28 3D EF     getbh
000B:9ECB 68           sub   r8
000B:9ECC 09 08        beq   9ED6
000B:9ECE 01           nop
000B:9ECF 3D C8        xor   r8
000B:9ED1 0A 03        bpl   9ED6
000B:9ED3 01           nop
000B:9ED4 9B           jmp   r11
000B:9ED5 01           nop

000B:9ED6 3D F0 FB 00  lm    r0,(00FB)
000B:9EDA 03           lsr
000B:9EDB 03           lsr
000B:9EDC 17 03        lsr
000B:9EDE 3D A0 5B     lms   r0,(00B6)
000B:9EE1 3F 7F        bic   #0F
000B:9EE3 03           lsr
000B:9EE4 03           lsr
000B:9EE5 03           lsr
000B:9EE6 14 C7        or    r7
000B:9EE8 F0 B3 F0     iwt   r0,#F0B3
000B:9EEB 1E 54        add   r4
000B:9EED EF           getb
000B:9EEE DE           inc   r14
000B:9EEF 17 3D EF     getbh
000B:9EF2 3D A8 5A     lms   r8,(00B4)
000B:9EF5 B8 67        sub   r7
000B:9EF7 0A 02        bpl   9EFB
000B:9EF9 01           nop
000B:9EFA D4           inc   r4
000B:9EFB F0 93 F1     iwt   r0,#F193
000B:9EFE 54           add   r4
000B:9EFF 1E 54        add   r4
000B:9F01 EF           getb
000B:9F02 DE           inc   r14
000B:9F03 3D EF        getbh
000B:9F05 20 14        move  r4,r0
000B:9F07 58           add   r8
000B:9F08 20 18        move  r8,r0
000B:9F0A 67           sub   r7
000B:9F0B 3D C4        xor   r4
000B:9F0D 0B 06        bmi   9F15
000B:9F0F 60           sub   r0
000B:9F10 3E A0 66     sms   (00CC),r0
000B:9F13 27 18        move  r8,r7
000B:9F15 3E A8 5A     sms   (00B4),r8
000B:9F18 9B           jmp   r11
000B:9F19 01           nop

000B:9F1A 3D A4 62     lms   r4,(00C4)
000B:9F1D B1 3E 73     and   #03
000B:9F20 09 17        beq   9F39
000B:9F22 01           nop
000B:9F23 3E 72        and   #02
000B:9F25 64           sub   r4
000B:9F26 09 11        beq   9F39
000B:9F28 54           add   r4
000B:9F29 90           sbk
000B:9F2A 20 14        move  r4,r0
000B:9F2C 3D A0 BF     lms   r0,(017E)
000B:9F2F 4F           not
000B:9F30 D0           inc   r0
000B:9F31 9E           lob
000B:9F32 90           sbk
000B:9F33 3D A0 CF     lms   r0,(019E)
000B:9F36 4F           not
000B:9F37 D0           inc   r0
000B:9F38 90           sbk
000B:9F39 F8 00 02     iwt   r8,#0200
000B:9F3C 3D AE BF     lms   r14,(017E)
000B:9F3F BE 95        sex
000B:9F41 0B 04        bmi   9F47
000B:9F43 01           nop
000B:9F44 F8 00 01     iwt   r8,#0100
000B:9F47 3D A6 CF     lms   r6,(019E)
000B:9F4A 3D C6        xor   r6
000B:9F4C 0B 17        bmi   9F65
000B:9F4E 60           sub   r0
000B:9F4F A0 08        ibt   r0,#0008
000B:9F51 3F DF        romb
000B:9F53 F0 18 AE     iwt   r0,#AE18
000B:9F56 1E 5E        add   r14
000B:9F58 EF           getb
000B:9F59 4D           swap
000B:9F5A 9F           fmult
000B:9F5B 3D 96        div2
000B:9F5D 3D 96        div2
000B:9F5F E4           dec   r4
000B:9F60 0A 03        bpl   9F65
000B:9F62 D4           inc   r4
000B:9F63 4F           not
000B:9F64 D0           inc   r0
000B:9F65 27 B0        moves r7,r0
000B:9F67 0A 03        bpl   9F6C
000B:9F69 28 4F        not
000B:9F6B D8           inc   r8
000B:9F6C A0 0A        ibt   r0,#000A
000B:9F6E 3F DF        romb
000B:9F70 3D A0 5A     lms   r0,(00B4)
000B:9F73 68           sub   r8
000B:9F74 09 06        beq   9F7C
000B:9F76 01           nop
000B:9F77 3D C8        xor   r8
000B:9F79 0B 05        bmi   9F80
000B:9F7B 01           nop
000B:9F7C FF D6 9E     iwt   r15,#9ED6
000B:9F7F 01           nop
000B:9F80 3D A0 5A     lms   r0,(00B4)
000B:9F83 57           add   r7
000B:9F84 90           sbk
000B:9F85 9B           jmp   r11
000B:9F86 01           nop

000B:9F87 3E AB 34     sms   (0068),r11
000B:9F8A A2 20        ibt   r2,#0020
000B:9F8C A3 00        ibt   r3,#0000
000B:9F8E AD 54        ibt   r13,#0054
000B:9F90 3D A0 C9     lms   r0,(0192)
000B:9F93 FE 50 FD     iwt   r14,#FD50
000B:9F96 1E 5E        add   r14
000B:9F98 EF           getb
000B:9F99 DE           inc   r14
000B:9F9A 1C 3D EF     getbh
000B:9F9D DE           inc   r14
000B:9F9E EF           getb
000B:9F9F E0           dec   r0
000B:9FA0 0A 15        bpl   9FB7
000B:9FA2 DE           inc   r14
000B:9FA3 3D A6 CB     lms   r6,(0196)
000B:9FA6 3D A4 CC     lms   r4,(0198)
000B:9FA9 3D A8 CD     lms   r8,(019A)
000B:9FAC 3D A9 CE     lms   r9,(019C)
000B:9FAF 94           link  #04
000B:9FB0 FF 4E F3     iwt   r15,#F34E
000B:9FB3 01           nop
000B:9FB4 05 0C        bra   9FC2

000B:9FB6 01           nop

000B:9FB7 3D A5 BF     lms   r5,(017E)
000B:9FBA F6 00 01     iwt   r6,#0100
000B:9FBD 94           link  #04
000B:9FBE FF 8A F2     iwt   r15,#F28A
000B:9FC1 01           nop
000B:9FC2 3D AB 34     lms   r11,(0068)
000B:9FC5 A0 0A        ibt   r0,#000A
000B:9FC7 3F DF        romb
000B:9FC9 3D A0 C0     lms   r0,(0180)
000B:9FCC E0           dec   r0
000B:9FCD 0A 3A        bpl   A009
000B:9FCF 01           nop
000B:9FD0 3D A0 61     lms   r0,(00C2)
000B:9FD3 9E           lob
000B:9FD4 09 06        beq   9FDC
000B:9FD6 50           add   r0
000B:9FD7 AC 05        ibt   r12,#0005
000B:9FD9 05 74        bra   A04F

000B:9FDB 01           nop

000B:9FDC 3D A0 C2     lms   r0,(0184)
000B:9FDF 3E 60        sub   #00
000B:9FE1 09 1F        beq   A002
000B:9FE3 50           add   r0
000B:9FE4 0A 03        bpl   9FE9
000B:9FE6 50           add   r0
000B:9FE7 4F           not
000B:9FE8 D0           inc   r0
000B:9FE9 50           add   r0
000B:9FEA C0           hib
000B:9FEB F6 00 01     iwt   r6,#0100
000B:9FEE 26 60        sub   r0
000B:9FF0 3D 96        div2
000B:9FF2 3D 96        div2
000B:9FF4 F4 00 01     iwt   r4,#0100
000B:9FF7 14 54        add   r4
000B:9FF9 AC 00        ibt   r12,#0000
000B:9FFB A8 04        ibt   r8,#0004
000B:9FFD A9 1F        ibt   r9,#001F
000B:9FFF 05 58        bra   A059

000B:A001 01           nop

000B:A002 3D A1 60     lms   r1,(00C0)
000B:A005 E1           dec   r1
000B:A006 0A 05        bpl   A00D
000B:A008 D1           inc   r1
000B:A009 FF D8 A0     iwt   r15,#A0D8
000B:A00C 01           nop
000B:A00D 3D A0 69     lms   r0,(00D2)
000B:A010 9E           lob
000B:A011 3E 62        sub   #02
000B:A013 0C 0F        bcc   A024
000B:A015 E0           dec   r0
000B:A016 FE E5 FC     iwt   r14,#FCE5
000B:A019 1E 5E        add   r14
000B:A01B 3E 62        sub   #02
000B:A01D 1C           to    r12
000B:A01E 0C 2F        bcc   A04F
000B:A020 EF           getb
000B:A021 05 65        bra   A088

000B:A023 01           nop

000B:A024 AC 0A        ibt   r12,#000A
000B:A026 3D A0 55     lms   r0,(00AA)
000B:A029 E0           dec   r0
000B:A02A 0B 03        bmi   A02F
000B:A02C 01           nop
000B:A02D AC 0F        ibt   r12,#000F
000B:A02F 3D A0 C4     lms   r0,(0188)
000B:A032 3E 60        sub   #00
000B:A034 0A 19        bpl   A04F
000B:A036 50           add   r0
000B:A037 50           add   r0
000B:A038 C0           hib
000B:A039 95           sex
000B:A03A F4 00 01     iwt   r4,#0100
000B:A03D 14 54        add   r4
000B:A03F 3D 96        div2
000B:A041 3D 96        div2
000B:A043 F6 00 01     iwt   r6,#0100
000B:A046 26 60        sub   r0
000B:A048 A8 10        ibt   r8,#0010
000B:A04A A9 00        ibt   r9,#0000
000B:A04C 05 0B        bra   A059

000B:A04E 01           nop

000B:A04F F6 00 01     iwt   r6,#0100
000B:A052 F4 00 01     iwt   r4,#0100
000B:A055 A8 10        ibt   r8,#0010
000B:A057 A9 10        ibt   r9,#0010
000B:A059 60           sub   r0
000B:A05A 3E A0 BF     sms   (017E),r0
000B:A05D 3E A6 CB     sms   (0196),r6
000B:A060 3E A4 CC     sms   (0198),r4
000B:A063 3E A8 CD     sms   (019A),r8
000B:A066 3E A9 CE     sms   (019C),r9
000B:A069 05 1D        bra   A088

000B:A06B 01           nop

000B:A06C A1 FC        ibt   r1,#FFFC
000B:A06E 3D A0 BF     lms   r0,(017E)
000B:A071 65           sub   r5
000B:A072 1E 4D        swap
000B:A074 0A 03        bpl   A079
000B:A076 55           add   r5
000B:A077 A1 04        ibt   r1,#0004
000B:A079 51           add   r1
000B:A07A 1E 9E        lob
000B:A07C 65           sub   r5
000B:A07D 4D           swap
000B:A07E 3D C1        xor   r1
000B:A080 0B 03        bmi   A085
000B:A082 01           nop
000B:A083 25 1E        move  r14,r5
000B:A085 3E AE BF     sms   (017E),r14
000B:A088 3E AC C9     sms   (0192),r12
000B:A08B F0 53 FD     iwt   r0,#FD53
000B:A08E 1E 5C        add   r12
000B:A090 EF           getb
000B:A091 DE           inc   r14
000B:A092 3D EF        getbh
000B:A094 A1 10        ibt   r1,#0010
000B:A096 3E 60        sub   #00
000B:A098 08 36        bne   A0D0
000B:A09A 01           nop
000B:A09B 3D A1 C8     lms   r1,(0190)
000B:A09E 3D A0 FB     lms   r0,(01F6)
000B:A0A1 E0           dec   r0
000B:A0A2 0A 23        bpl   A0C7
000B:A0A4 01           nop
000B:A0A5 F0 36 FD     iwt   r0,#FD36
000B:A0A8 3D AE 60     lms   r14,(00C0)
000B:A0AB EE           dec   r14
000B:A0AC 0B 0E        bmi   A0BC
000B:A0AE DE           inc   r14
000B:A0AF F0 02 FD     iwt   r0,#FD02
000B:A0B2 3D AE 55     lms   r14,(00AA)
000B:A0B5 EE           dec   r14
000B:A0B6 0B 04        bmi   A0BC
000B:A0B8 01           nop
000B:A0B9 F0 1C FD     iwt   r0,#FD1C
000B:A0BC 1E 51        add   r1
000B:A0BE 3F EF        getbs
000B:A0C0 DE           inc   r14
000B:A0C1 11 51        add   r1
000B:A0C3 EF           getb
000B:A0C4 3E A0 FB     sms   (01F6),r0
000B:A0C7 F0 E8 FC     iwt   r0,#FCE8
000B:A0CA 1E 51        add   r1
000B:A0CC EF           getb
000B:A0CD DE           inc   r14
000B:A0CE 3D EF        getbh
000B:A0D0 3E A0 5F     sms   (00BE),r0
000B:A0D3 3E A1 C8     sms   (0190),r1
000B:A0D6 9B           jmp   r11
000B:A0D7 01           nop

000B:A0D8 3D A0 C6     lms   r0,(018C)
000B:A0DB E0           dec   r0
000B:A0DC 0B 1C        bmi   A0FA
000B:A0DE D0           inc   r0
000B:A0DF 50           add   r0
000B:A0E0 50           add   r0
000B:A0E1 C0           hib
000B:A0E2 F4 00 01     iwt   r4,#0100
000B:A0E5 24 60        sub   r0
000B:A0E7 3D 96        div2
000B:A0E9 3D 96        div2
000B:A0EB F6 00 01     iwt   r6,#0100
000B:A0EE 16 56        add   r6
000B:A0F0 A8 10        ibt   r8,#0010
000B:A0F2 A9 1F        ibt   r9,#001F
000B:A0F4 AC 00        ibt   r12,#0000
000B:A0F6 FF 59 A0     iwt   r15,#A059
000B:A0F9 01           nop
000B:A0FA 3D A0 E8     lms   r0,(01D0)
000B:A0FD 9E           lob
000B:A0FE 09 17        beq   A117
000B:A100 01           nop
000B:A101 3D A0 5B     lms   r0,(00B6)
000B:A104 3D A6 62     lms   r6,(00C4)
000B:A107 E6           dec   r6
000B:A108 0A 04        bpl   A10E
000B:A10A 01           nop
000B:A10B 4F           not
000B:A10C D0           inc   r0
000B:A10D 9E           lob
000B:A10E 3E A0 BF     sms   (017E),r0
000B:A111 AC 14        ibt   r12,#0014
000B:A113 FF 88 A0     iwt   r15,#A088
000B:A116 01           nop
000B:A117 3D A0 66     lms   r0,(00CC)
000B:A11A 9E           lob
000B:A11B 09 09        beq   A126
000B:A11D 01           nop
000B:A11E 3D A0 5A     lms   r0,(00B4)
000B:A121 3E 60        sub   #00
000B:A123 08 07        bne   A12C
000B:A125 01           nop
000B:A126 AC 00        ibt   r12,#0000
000B:A128 FF 4F A0     iwt   r15,#A04F
000B:A12B 01           nop
000B:A12C AE 30        ibt   r14,#0030
000B:A12E 0A 06        bpl   A136
000B:A130 01           nop
000B:A131 FE C0 00     iwt   r14,#00C0
000B:A134 4F           not
000B:A135 D0           inc   r0
000B:A136 20 15        move  r5,r0
000B:A138 F6 80 00     iwt   r6,#0080
000B:A13B 66           sub   r6
000B:A13C 0D 0D        bcs   A14B
000B:A13E 56           add   r6
000B:A13F 3D A0 7E     lms   r0,(00FC)
000B:A142 7E           and   r14
000B:A143 26 10        move  r0,r6
000B:A145 09 04        beq   A14B
000B:A147 01           nop
000B:A148 F0 00 02     iwt   r0,#0200
000B:A14B F6 00 40     iwt   r6,#4000
000B:A14E 9F           fmult
000B:A14F 3D A6 C1     lms   r6,(0182)
000B:A152 56           add   r6
000B:A153 F6 00 04     iwt   r6,#0400
000B:A156 66           sub   r6
000B:A157 0D 02        bcs   A15B
000B:A159 01           nop
000B:A15A 56           add   r6
000B:A15B 90           sbk
000B:A15C 1C C0        hib
000B:A15E 3E AC 7C     sms   (00F8),r12
000B:A161 08 11        bne   A174
000B:A163 01           nop
000B:A164 3D A0 7D     lms   r0,(00FA)
000B:A167 FE E1 F7     iwt   r14,#F7E1
000B:A16A 1E 5E        add   r14
000B:A16C EF           getb
000B:A16D E0           dec   r0
000B:A16E 0B 04        bmi   A174
000B:A170 D0           inc   r0
000B:A171 3E A0 3D     sms   (007A),r0
000B:A174 F0 E1 FC     iwt   r0,#FCE1
000B:A177 1E 5C        add   r12
000B:A179 1C EF        getb
000B:A17B 3D A0 C0     lms   r0,(0180)
000B:A17E E0           dec   r0
000B:A17F 0B 1D        bmi   A19E
000B:A181 60           sub   r0
000B:A182 3D A6 5B     lms   r6,(00B6)
000B:A185 3D A0 62     lms   r0,(00C4)
000B:A188 E0           dec   r0
000B:A189 0A 05        bpl   A190
000B:A18B B6 4F        not
000B:A18D D0           inc   r0
000B:A18E 16 9E        lob
000B:A190 F0 80 02     iwt   r0,#0280
000B:A193 25 60        sub   r0
000B:A195 0C 05        bcc   A19C
000B:A197 60           sub   r0
000B:A198 B5 03        lsr
000B:A19A 03           lsr
000B:A19B 03           lsr
000B:A19C B6 60        sub   r0
000B:A19E 15 9E        lob
000B:A1A0 FF 6C A0     iwt   r15,#A06C
000B:A1A3 01           nop
000B:A1A4 3D A1 C0     lms   r1,(0180)
000B:A1A7 60           sub   r0
000B:A1A8 90           sbk
000B:A1A9 3D A0 60     lms   r0,(00C0)
000B:A1AC E0           dec   r0
000B:A1AD 0A 11        bpl   A1C0
000B:A1AF 01           nop
000B:A1B0 3D A0 5A     lms   r0,(00B4)
000B:A1B3 E0           dec   r0
000B:A1B4 0A 03        bpl   A1B9
000B:A1B6 D0           inc   r0
000B:A1B7 4F           not
000B:A1B8 D0           inc   r0
000B:A1B9 F2 00 02     iwt   r2,#0200
000B:A1BC 62           sub   r2
000B:A1BD 0D 16        bcs   A1D5
000B:A1BF 01           nop
000B:A1C0 E1           dec   r1
000B:A1C1 0B 0E        bmi   A1D1
000B:A1C3 D1           inc   r1
000B:A1C4 2B 11        move  r1,r11
000B:A1C6 94           link  #04
000B:A1C7 FF E8 A2     iwt   r15,#A2E8
000B:A1CA 01           nop
000B:A1CB 21 1B        move  r11,r1
000B:A1CD A0 0A        ibt   r0,#000A
000B:A1CF 3F DF        romb
000B:A1D1 FF 24 A3     iwt   r15,#A324
000B:A1D4 01           nop
000B:A1D5 3D A9 46     lms   r9,(008C)
000B:A1D8 3D AA 48     lms   r10,(0090)
000B:A1DB A0 08        ibt   r0,#0008
000B:A1DD 3F DF        romb
000B:A1DF 3D A0 5B     lms   r0,(00B6)
000B:A1E2 FE 18 AE     iwt   r14,#AE18
000B:A1E5 1E 5E        add   r14
000B:A1E7 3F EF        getbs
000B:A1E9 20 12        move  r2,r0
000B:A1EB 3E F0 60 19  sm    (1960),r0
000B:A1EF A0 40        ibt   r0,#0040
000B:A1F1 1E 5E        add   r14
000B:A1F3 3F EF        getbs
000B:A1F5 4F           not
000B:A1F6 D0           inc   r0
000B:A1F7 20 13        move  r3,r0
000B:A1F9 3E F0 62 19  sm    (1962),r0
000B:A1FD E1           dec   r1
000B:A1FE 0A 2A        bpl   A22A
000B:A200 D1           inc   r1
000B:A201 A0 05        ibt   r0,#0005
000B:A203 83           mult  r3
000B:A204 50           add   r0
000B:A205 50           add   r0
000B:A206 50           add   r0
000B:A207 16 50        add   r0
000B:A209 B2 9F        fmult
000B:A20B 19 59        add   r9
000B:A20D 3D FE 12 1E  lm    r14,(1E12)
000B:A211 5E           add   r14
000B:A212 90           sbk
000B:A213 B3 9F        fmult
000B:A215 1A 5A        add   r10
000B:A217 3D FE 16 1E  lm    r14,(1E16)
000B:A21B 5E           add   r14
000B:A21C 90           sbk
000B:A21D 3D A0 5B     lms   r0,(00B6)
000B:A220 95           sex
000B:A221 3D 96        div2
000B:A223 3D 96        div2
000B:A225 9E           lob
000B:A226 90           sbk
000B:A227 05 B9        bra   A1E2

000B:A229 D1           inc   r1

000B:A22A A0 0A        ibt   r0,#000A
000B:A22C 3F DF        romb
000B:A22E FE 7A EB     iwt   r14,#EB7A
000B:A231 3E AB 32     sms   (0064),r11
000B:A234 A2 00        ibt   r2,#0000
000B:A236 3E A2 7F     sms   (00FE),r2
000B:A239 3E A2 80     sms   (0100),r2
000B:A23C 3E A2 7D     sms   (00FA),r2
000B:A23F A3 01        ibt   r3,#0001
000B:A241 23 14        move  r4,r3
000B:A243 94           link  #04
000B:A244 FF A1 A5     iwt   r15,#A5A1
000B:A247 02           cache
000B:A248 94           link  #04
000B:A249 FF A4 A5     iwt   r15,#A5A4
000B:A24C 3E A3 FF     sms   (01FE),r3
000B:A24F E4           dec   r4
000B:A250 0B 03        bmi   A255
000B:A252 D4           inc   r4
000B:A253 23 14        move  r4,r3
000B:A255 94           link  #04
000B:A256 FF A4 A5     iwt   r15,#A5A4
000B:A259 3E 94        jmp r4
000B:A25B FF A4 A5     iwt   r15,#A5A4
000B:A25E 3E 3D A3 6E  lms   r3,(00DC)
000B:A262 60           sub   r0
000B:A263 90           sbk
000B:A264 E1           dec   r1
000B:A265 0B 26        bmi   A28D
000B:A267 D1           inc   r1
000B:A268 3D A0 C2     lms   r0,(0184)
000B:A26B 3E 60        sub   #00
000B:A26D 08 1B        bne   A28A
000B:A26F 60           sub   r0
000B:A270 3D A5 5A     lms   r5,(00B4)
000B:A273 20 B5        moves r0,r5
000B:A275 0A 03        bpl   A27A
000B:A277 01           nop
000B:A278 4F           not
000B:A279 D0           inc   r0
000B:A27A F3 80 02     iwt   r3,#0280
000B:A27D 63           sub   r3
000B:A27E 0C 0A        bcc   A28A
000B:A280 60           sub   r0
000B:A281 B5 3D 96     div2
000B:A284 3E A0 C3     sms   (0186),r0
000B:A287 3E A0 C2     sms   (0184),r0
000B:A28A 3E A0 5A     sms   (00B4),r0
000B:A28D A3 10        ibt   r3,#0010
000B:A28F 94           link  #04
000B:A290 FF 1B A7     iwt   r15,#A71B
000B:A293 3E 3D A0 80  lms   r0,(0100)
000B:A297 15 03        lsr
000B:A299 04           rol
000B:A29A 90           sbk
000B:A29B B2 03        lsr
000B:A29D 22 04        rol
000B:A29F A3 F0        ibt   r3,#FFF0
000B:A2A1 3D A4 5D     lms   r4,(00BA)
000B:A2A4 94           link  #04
000B:A2A5 FF 1B A7     iwt   r15,#A71B
000B:A2A8 3E 3E A4 5C  sms   (00B8),r4
000B:A2AC 3D A0 80     lms   r0,(0100)
000B:A2AF 15 03        lsr
000B:A2B1 04           rol
000B:A2B2 15 03        lsr
000B:A2B4 04           rol
000B:A2B5 90           sbk
000B:A2B6 B2 03        lsr
000B:A2B8 22 04        rol
000B:A2BA B2 03        lsr
000B:A2BC 22 04        rol
000B:A2BE B2 03        lsr
000B:A2C0 0D 0A        bcs   A2CC
000B:A2C2 60           sub   r0
000B:A2C3 F0 08 00     iwt   r0,#0008
000B:A2C6 3E A0 60     sms   (00C0),r0
000B:A2C9 05 19        bra   A2E4

000B:A2CB 01           nop
000B:A2CC 3E A2 C0     sms   (0180),r2
000B:A2CF 94           link  #04
000B:A2D0 FF 99 DA     iwt   r15,#DA99
000B:A2D3 01           nop
000B:A2D4 3E A4 5B     sms   (00B6),r4
000B:A2D7 60           sub   r0
000B:A2D8 3E A0 5C     sms   (00B8),r0
000B:A2DB 3E A0 5D     sms   (00BA),r0
000B:A2DE 3E A0 5E     sms   (00BC),r0
000B:A2E1 3E A0 6D     sms   (00DA),r0
000B:A2E4 FF 67 A5     iwt   r15,#A567
000B:A2E7 01           nop
000B:A2E8 A0 08        ibt   r0,#0008
000B:A2EA 3F DF        romb
000B:A2EC FE 18 AE     iwt   r14,#AE18
000B:A2EF 3D A0 5B     lms   r0,(00B6)
000B:A2F2 1E 5E        add   r14
000B:A2F4 3F EF        getbs
000B:A2F6 4F           not
000B:A2F7 D0           inc   r0
000B:A2F8 A3 0E        ibt   r3,#000E
000B:A2FA 83           mult  r3
000B:A2FB 50           add   r0
000B:A2FC 50           add   r0
000B:A2FD C0           hib
000B:A2FE 95           sex
000B:A2FF 19 53        add   r3
000B:A301 3D A0 48     lms   r0,(0090)
000B:A304 59           add   r9
000B:A305 90           sbk
000B:A306 3D F0 16 1E  lm    r0,(1E16)
000B:A30A 59           add   r9
000B:A30B 90           sbk
000B:A30C A0 40        ibt   r0,#0040
000B:A30E 1E 5E        add   r14
000B:A310 3F EF        getbs
000B:A312 83           mult  r3
000B:A313 50           add   r0
000B:A314 50           add   r0
000B:A315 C0           hib
000B:A316 19 95        sex
000B:A318 3D A0 46     lms   r0,(008C)
000B:A31B 59           add   r9
000B:A31C 90           sbk
000B:A31D 3D F0 12 1E  lm    r0,(1E12)
000B:A321 59           add   r9
000B:A322 9B           jmp   r11
000B:A323 90           sbk

000B:A324 FE 86 EB     iwt   r14,#EB86
000B:A327 3D A0 61     lms   r0,(00C2)
000B:A32A 3E 62        sub   #02
000B:A32C 0C 04        bcc   A332
000B:A32E 01           nop
000B:A32F FE 98 EB     iwt   r14,#EB98
000B:A332 3E AB 32     sms   (0064),r11
000B:A335 3D A9 46     lms   r9,(008C)
000B:A338 3D AA 48     lms   r10,(0090)
000B:A33B A2 00        ibt   r2,#0000
000B:A33D 3E A2 7F     sms   (00FE),r2
000B:A340 3E A2 80     sms   (0100),r2
000B:A343 3E A2 81     sms   (0102),r2
000B:A346 3E A2 7D     sms   (00FA),r2
000B:A349 3E A2 5B     sms   (00B6),r2
000B:A34C A3 01        ibt   r3,#0001
000B:A34E A4 00        ibt   r4,#0000
000B:A350 94           link  #04
000B:A351 FF 82 D2     iwt   r15,#D282
000B:A354 02           cache
000B:A355 94           link  #04
000B:A356 FF 88 D2     iwt   r15,#D288
000B:A359 3E A3 FF     sms   (01FE),r3
000B:A35C 94           link  #04
000B:A35D FF 88 D2     iwt   r15,#D288
000B:A360 3E 94        jmp r4
000B:A362 FF 88 D2     iwt   r15,#D288
000B:A365 3E 29 54     add   #04
000B:A368 20 B1        moves r0,r1
000B:A36A 09 4D        beq   A3B9
000B:A36C 03           lsr
000B:A36D 3D A5 C2     lms   r5,(0184)
000B:A370 25 B5        moves r5,r5
000B:A372 08 3E        bne   A3B2
000B:A374 03           lsr
000B:A375 C1           or    r1
000B:A376 20 15        move  r5,r0
000B:A378 03           lsr
000B:A379 03           lsr
000B:A37A 03           lsr
000B:A37B 03           lsr
000B:A37C C5           or    r5
000B:A37D 3E 73        and   #03
000B:A37F E0           dec   r0
000B:A380 08 3A        bne   A3BC
000B:A382 E0           dec   r0
000B:A383 3D A0 60     lms   r0,(00C0)
000B:A386 E0           dec   r0
000B:A387 0A 29        bpl   A3B2
000B:A389 01           nop
000B:A38A B1 3E 7F     and   #0F
000B:A38D 09 02        beq   A391
000B:A38F D0           inc   r0
000B:A390 60           sub   r0
000B:A391 D0           inc   r0
000B:A392 3D F1 71 00  lm    r1,(0071)
000B:A396 71           and   r1
000B:A397 09 19        beq   A3B2
000B:A399 D3           inc   r3
000B:A39A 20 11        move  r1,r0
000B:A39C 3D A0 D9     lms   r0,(01B2)
000B:A39F 50           add   r0
000B:A3A0 0C 10        bcc   A3B2
000B:A3A2 01           nop
000B:A3A3 3D A5 83     lms   r5,(0106)
000B:A3A6 B5 3E 73     and   #03
000B:A3A9 61           sub   r1
000B:A3AA 08 06        bne   A3B2
000B:A3AC 01           nop
000B:A3AD 94           link  #04
000B:A3AE FF 36 DC     iwt   r15,#DC36
000B:A3B1 01           nop
000B:A3B2 60           sub   r0
000B:A3B3 3E A0 54     sms   (00A8),r0
000B:A3B6 3E A0 5A     sms   (00B4),r0
000B:A3B9 05 13        bra   A3CE

000B:A3BB 01           nop

000B:A3BC 3D A0 54     lms   r0,(00A8)
000B:A3BF 3D 96        div2
000B:A3C1 3E A0 C3     sms   (0186),r0
000B:A3C4 3E A0 C2     sms   (0184),r0
000B:A3C7 60           sub   r0
000B:A3C8 3E A0 54     sms   (00A8),r0
000B:A3CB 3E A0 5A     sms   (00B4),r0
000B:A3CE A3 10        ibt   r3,#0010
000B:A3D0 94           link  #04
000B:A3D1 FF EF D3     iwt   r15,#D3EF
000B:A3D4 3E 94        jmp r4
000B:A3D6 FF EF D3     iwt   r15,#D3EF
000B:A3D9 3E B2 3E 73  and   #03
000B:A3DD 09 6C        beq   A44B
000B:A3DF 01           nop
000B:A3E0 3D A3 55     lms   r3,(00AA)
000B:A3E3 23 B3        moves r3,r3
000B:A3E5 0A 63        bpl   A44A
000B:A3E7 60           sub   r0
000B:A3E8 90           sbk
000B:A3E9 D0           inc   r0
000B:A3EA 3E A0 69     sms   (00D2),r0
000B:A3ED A0 14        ibt   r0,#0014
000B:A3EF 3E A0 F3     sms   (01E6),r0
000B:A3F2 3D A0 D9     lms   r0,(01B2)
000B:A3F5 50           add   r0
000B:A3F6 0C 42        bcc   A43A
000B:A3F8 01           nop
000B:A3F9 3D F0 71 00  lm    r0,(0071)
000B:A3FD 3E 78        and   #08
000B:A3FF 09 39        beq   A43A
000B:A401 01           nop
000B:A402 F0 00 F8     iwt   r0,#F800
000B:A405 77           and   r7
000B:A406 F1 00 A0     iwt   r1,#A000
000B:A409 61           sub   r1
000B:A40A 08 2E        bne   A43A
000B:A40C 01           nop
000B:A40D 2E 15        move  r5,r14
000B:A40F B6 9E        lob
000B:A411 FE BC EB     iwt   r14,#EBBC
000B:A414 1E 5E        add   r14
000B:A416 EF           getb
000B:A417 25 1E        move  r14,r5
000B:A419 A5 08        ibt   r5,#0008
000B:A41B 11 75        and   r5
000B:A41D 09 1B        beq   A43A
000B:A41F 4D           swap
000B:A420 50           add   r0
000B:A421 3D A0 00     lms   r0,(0000)
000B:A424 3E 7F        and   #0F
000B:A426 0C 03        bcc   A42B
000B:A428 01           nop
000B:A429 3F 5F        adc   #0F
000B:A42B 3E 6E        sub   #0E
000B:A42D 3E 68        sub   #08
000B:A42F 0D 09        bcs   A43A
000B:A431 01           nop
000B:A432 94           link  #04
000B:A433 FF 20 DC     iwt   r15,#DC20
000B:A436 01           nop
000B:A437 05 12        bra   A44B

000B:A439 01           nop

000B:A43A A0 1F        ibt   r0,#001F
000B:A43C 3E A0 3D     sms   (007A),r0
000B:A43F 3E A3 C5     sms   (018A),r3
000B:A442 3E A3 C4     sms   (0188),r3
000B:A445 A0 08        ibt   r0,#0008
000B:A447 3E A0 EE     sms   (01DC),r0
000B:A44A DA           inc   r10
000B:A44B A3 F0        ibt   r3,#FFF0
000B:A44D 3D A4 5C     lms   r4,(00B8)
000B:A450 94           link  #04
000B:A451 FF EF D3     iwt   r15,#D3EF
000B:A454 3E 3E A1 0A  sms   (0014),r1
000B:A458 3D A0 08     lms   r0,(0010)
000B:A45B 3E A0 5C     sms   (00B8),r0
000B:A45E 3D A0 00     lms   r0,(0000)
000B:A461 3E A0 10     sms   (0020),r0
000B:A464 3D A0 01     lms   r0,(0002)
000B:A467 3E A0 11     sms   (0022),r0
000B:A46A 3E A6 12     sms   (0024),r6
000B:A46D 3E A7 13     sms   (0026),r7
000B:A470 3D A4 5D     lms   r4,(00BA)
000B:A473 94           link  #04
000B:A474 FF EF D3     iwt   r15,#D3EF
000B:A477 3E 3E A1 0B  sms   (0016),r1
000B:A47B 3D A0 08     lms   r0,(0010)
000B:A47E 3E A0 5D     sms   (00BA),r0
000B:A481 3D A0 00     lms   r0,(0000)
000B:A484 3E A0 14     sms   (0028),r0
000B:A487 3D A0 01     lms   r0,(0002)
000B:A48A 3E A0 15     sms   (002A),r0
000B:A48D 3E A6 16     sms   (002C),r6
000B:A490 3E A7 17     sms   (002E),r7
000B:A493 3D A4 5E     lms   r4,(00BC)
000B:A496 94           link  #04
000B:A497 FF EF D3     iwt   r15,#D3EF
000B:A49A 3E 3E A1 0C  sms   (0018),r1
000B:A49E 3D A4 08     lms   r4,(0010)
000B:A4A1 3E A4 5E     sms   (00BC),r4
000B:A4A4 B2 3E 77     and   #07
000B:A4A7 08 22        bne   A4CB
000B:A4A9 01           nop
000B:A4AA 3D A0 DA     lms   r0,(01B4)
000B:A4AD 3E 60        sub   #00
000B:A4AF 09 09        beq   A4BA
000B:A4B1 01           nop
000B:A4B2 A4 00        ibt   r4,#0000
000B:A4B4 A5 00        ibt   r5,#0000
000B:A4B6 FF 3C A5     iwt   r15,#A53C
000B:A4B9 01           nop
000B:A4BA 3D A0 60     lms   r0,(00C0)
000B:A4BD E0           dec   r0
000B:A4BE 0A 07        bpl   A4C7
000B:A4C0 01           nop
000B:A4C1 F0 08 00     iwt   r0,#0008
000B:A4C4 3E A0 60     sms   (00C0),r0
000B:A4C7 FF 67 A5     iwt   r15,#A567
000B:A4CA 01           nop
000B:A4CB 3D A0 0A     lms   r0,(0014)
000B:A4CE 3D A5 0B     lms   r5,(0016)
000B:A4D1 65           sub   r5
000B:A4D2 0B 03        bmi   A4D7
000B:A4D4 55           add   r5
000B:A4D5 25 10        move  r0,r5
000B:A4D7 3D A5 0C     lms   r5,(0018)
000B:A4DA 25 13        move  r3,r5
000B:A4DC 63           sub   r3
000B:A4DD 0A 03        bpl   A4E2
000B:A4DF 53           add   r3
000B:A4E0 20 13        move  r3,r0
000B:A4E2 2A 53        add   r3
000B:A4E4 B5 63        sub   r3
000B:A4E6 08 06        bne   A4EE
000B:A4E8 01           nop
000B:A4E9 94           link  #04
000B:A4EA FF 1D DB     iwt   r15,#DB1D
000B:A4ED 01           nop
000B:A4EE 3D A0 0B     lms   r0,(0016)
000B:A4F1 63           sub   r3
000B:A4F2 08 1B        bne   A50F
000B:A4F4 01           nop
000B:A4F5 3D A0 14     lms   r0,(0028)
000B:A4F8 3E A0 00     sms   (0000),r0
000B:A4FB 3D A0 15     lms   r0,(002A)
000B:A4FE 3E A0 01     sms   (0002),r0
000B:A501 3D A6 16     lms   r6,(002C)
000B:A504 3D A7 17     lms   r7,(002E)
000B:A507 3D A4 5D     lms   r4,(00BA)
000B:A50A 94           link  #04
000B:A50B FF 99 DA     iwt   r15,#DA99
000B:A50E 01           nop
000B:A50F 3D A0 0A     lms   r0,(0014)
000B:A512 63           sub   r3
000B:A513 08 1B        bne   A530
000B:A515 01           nop
000B:A516 3D A0 10     lms   r0,(0020)
000B:A519 3E A0 00     sms   (0000),r0
000B:A51C 3D A0 11     lms   r0,(0022)
000B:A51F 3E A0 01     sms   (0002),r0
000B:A522 3D A6 12     lms   r6,(0024)
000B:A525 3D A7 13     lms   r7,(0026)
000B:A528 3D A4 5C     lms   r4,(00B8)
000B:A52B 94           link  #04
000B:A52C FF 1D DB     iwt   r15,#DB1D
000B:A52F 01           nop
000B:A530 3D A5 55     lms   r5,(00AA)
000B:A533 60           sub   r0
000B:A534 3E A0 55     sms   (00AA),r0
000B:A537 A0 FF        ibt   r0,#FFFF
000B:A539 3E A0 47     sms   (008E),r0
000B:A53C 3E A4 5B     sms   (00B6),r4
000B:A53F 60           sub   r0
000B:A540 3E A0 5C     sms   (00B8),r0
000B:A543 3E A0 5D     sms   (00BA),r0
000B:A546 3E A0 5E     sms   (00BC),r0
000B:A549 3D A0 60     lms   r0,(00C0)
000B:A54C E0           dec   r0
000B:A54D 0B 18        bmi   A567
000B:A54F 60           sub   r0
000B:A550 3E A0 60     sms   (00C0),r0
000B:A553 3D A0 54     lms   r0,(00A8)
000B:A556 3E A0 5A     sms   (00B4),r0
000B:A559 3E A0 C4     sms   (0188),r0
000B:A55C 3E A5 C7     sms   (018E),r5
000B:A55F 3E A5 C6     sms   (018C),r5
000B:A562 94           link  #04
000B:A563 FF 2D DF     iwt   r15,#DF2D
000B:A566 01           nop
000B:A567 3E A9 46     sms   (008C),r9
000B:A56A 3E AA 48     sms   (0090),r10
000B:A56D 3E A2 7E     sms   (00FC),r2
000B:A570 3D A0 81     lms   r0,(0102)
000B:A573 E0           dec   r0
000B:A574 0B 07        bmi   A57D
000B:A576 01           nop
000B:A577 A0 14        ibt   r0,#0014
000B:A579 00           stop
000B:A57A 01           nop
000B:A57B 05 1F        bra   A59C

000B:A57D 3D A0 80     lms   r0,(0100)
000B:A580 C2           or    r2
000B:A581 F6 F8 01     iwt   r6,#01F8
000B:A584 3D F5 EC 1F  lm    r5,(1FEC)
000B:A588 E5           dec   r5
000B:A589 0A 09        bpl   A594
000B:A58B D5           inc   r5
000B:A58C 76           and   r6
000B:A58D 66           sub   r6
000B:A58E 09 08        beq   A598
000B:A590 01           nop
000B:A591 05 09        bra   A59C

000B:A593 01           nop

000B:A594 76           and   r6
000B:A595 08 05        bne   A59C
000B:A597 01           nop
000B:A598 A0 10        ibt   r0,#0010
000B:A59A 00           stop
000B:A59B 01           nop
000B:A59C 3D AB 32     lms   r11,(0064)
000B:A59F 9B           jmp   r11
000B:A5A0 01           nop

000B:A5A1 A1 00        ibt   r1,#0000
000B:A5A3 3E AB 31     sms   (0062),r11
000B:A5A6 22 52        add   r2
000B:A5A8 21 51        add   r1
000B:A5AA 21 51        add   r1
000B:A5AC 94           link  #04
000B:A5AD FF 24 A6     iwt   r15,#A624
000B:A5B0 17 3E 72     and   #02
000B:A5B3 09 6A        beq   A61F
000B:A5B5 01           nop
000B:A5B6 3D A0 5A     lms   r0,(00B4)
000B:A5B9 3E 60        sub   #00
000B:A5BB 09 06        beq   A5C3
000B:A5BD D2           inc   r2
000B:A5BE 3D C3        xor   r3
000B:A5C0 0A 5D        bpl   A61F
000B:A5C2 01           nop
000B:A5C3 D1           inc   r1
000B:A5C4 3D C3        xor   r3
000B:A5C6 0B 03        bmi   A5CB
000B:A5C8 01           nop
000B:A5C9 4F           not
000B:A5CA D0           inc   r0
000B:A5CB F5 00 03     iwt   r5,#0300
000B:A5CE 55           add   r5
000B:A5CF 0A 22        bpl   A5F3
000B:A5D1 01           nop
000B:A5D2 F0 00 F8     iwt   r0,#F800
000B:A5D5 77           and   r7
000B:A5D6 F5 00 40     iwt   r5,#4000
000B:A5D9 65           sub   r5
000B:A5DA 08 17        bne   A5F3
000B:A5DC D1           inc   r1
000B:A5DD D1           inc   r1
000B:A5DE 60           sub   r0
000B:A5DF 3E A0 0E     sms   (001C),r0
000B:A5E2 3E A0 0F     sms   (001E),r0
000B:A5E5 3E A1 02     sms   (0004),r1
000B:A5E8 94           link  #04
000B:A5E9 FF 81 DF     iwt   r15,#DF81
000B:A5EC 01           nop
000B:A5ED 3D A1 02     lms   r1,(0004)
000B:A5F0 05 2D        bra   A61F

000B:A5F2 01           nop

000B:A5F3 3D F0 60 19  lm    r0,(1960)
000B:A5F7 84           mult  r4
000B:A5F8 50           add   r0
000B:A5F9 50           add   r0
000B:A5FA 15 4D        swap
000B:A5FC 3D F0 8B 00  lm    r0,(008B)
000B:A600 55           add   r5
000B:A601 90           sbk
000B:A602 B5 95        sex
000B:A604 19 3D 59     adc   r9
000B:A607 3D F0 62 19  lm    r0,(1962)
000B:A60B 4F           not
000B:A60C D0           inc   r0
000B:A60D 84           mult  r4
000B:A60E 50           add   r0
000B:A60F 50           add   r0
000B:A610 15 4D        swap
000B:A612 3D F0 8F 00  lm    r0,(008F)
000B:A616 55           add   r5
000B:A617 90           sbk
000B:A618 B5 95        sex
000B:A61A 1A 3D 5A     adc   r10
000B:A61D A4 00        ibt   r4,#0000
000B:A61F FF 14 D5     iwt   r15,#D514
000B:A622 01           nop
000B:A623 17 EF        getb
000B:A625 DE           inc   r14
000B:A626 3D F5 60 19  lm    r5,(1960)
000B:A62A B5 18 87     mult  r7
000B:A62D 3D F0 62 19  lm    r0,(1962)
000B:A631 16 87        mult  r7
000B:A633 17 EF        getb
000B:A635 DE           inc   r14
000B:A636 87           mult  r7
000B:A637 58           add   r8
000B:A638 50           add   r0
000B:A639 50           add   r0
000B:A63A C0           hib
000B:A63B 95           sex
000B:A63C 59           add   r9
000B:A63D 18 3E 58     add   #08
000B:A640 B7 85        mult  r5
000B:A642 66           sub   r6
000B:A643 50           add   r0
000B:A644 50           add   r0
000B:A645 C0           hib
000B:A646 95           sex
000B:A647 5A           add   r10
000B:A648 A7 20        ibt   r7,#0020
000B:A64A 57           add   r7
000B:A64B 3D A6 E5     lms   r6,(01CA)
000B:A64E E6           dec   r6
000B:A64F 17           to    r7
000B:A650 0B 05        bmi   A657
000B:A652 50           add   r0
000B:A653 FF EA A6     iwt   r15,#A6EA
000B:A656 01           nop
000B:A657 3D A5 53     lms   r5,(00A6)
000B:A65A 65           sub   r5
000B:A65B F5 E0 00     iwt   r5,#00E0
000B:A65E 65           sub   r5
000B:A65F 3D A5 52     lms   r5,(00A4)
000B:A662 0D 1A        bcs   A67E
000B:A664 B8 65        sub   r5
000B:A666 C0           hib
000B:A667 08 15        bne   A67E
000B:A669 B8 03        lsr
000B:A66B 03           lsr
000B:A66C 03           lsr
000B:A66D A5 3E        ibt   r5,#003E
000B:A66F 15 75        and   r5
000B:A671 F0 E0 01     iwt   r0,#01E0
000B:A674 77           and   r7
000B:A675 50           add   r0
000B:A676 C5           or    r5
000B:A677 F5 9E 40     iwt   r5,#409E
000B:A67A 55           add   r5
000B:A67B 05 2B        bra   A6A8

000B:A67D 40           ldw   (r0)

000B:A67E 70           merge
000B:A67F 09 64        beq   A6E5
000B:A681 16 9E        lob
000B:A683 C0           hib
000B:A684 3E 7E        and   #0E
000B:A686 3F 88        umult #08
000B:A688 C6           or    r6
000B:A689 F6 AA 0C     iwt   r6,#0CAA
000B:A68C 56           add   r6
000B:A68D 3D 40        ldb   (r0)
000B:A68F A6 3F        ibt   r6,#003F
000B:A691 76           and   r6
000B:A692 16 4D        swap
000B:A694 F0 E0 01     iwt   r0,#01E0
000B:A697 15 77        and   r7
000B:A699 B8 9E        lob
000B:A69B 03           lsr
000B:A69C 03           lsr
000B:A69D 03           lsr
000B:A69E C5           or    r5
000B:A69F 03           lsr
000B:A6A0 C6           or    r6
000B:A6A1 50           add   r0
000B:A6A2 F6 00 80     iwt   r6,#8000
000B:A6A5 56           add   r6
000B:A6A6 00           stop
000B:A6A7 01           nop

000B:A6A8 20 16        move  r6,r0
000B:A6AA C0           hib
000B:A6AB 3F 83        umult #03
000B:A6AD 2E 15        move  r5,r14
000B:A6AF FE 12 BB     iwt   r14,#BB12
000B:A6B2 1E 5E        add   r14
000B:A6B4 3E A8 00     sms   (0000),r8
000B:A6B7 EF           getb
000B:A6B8 DE           inc   r14
000B:A6B9 27 96        asr
000B:A6BB 3E A7 01     sms   (0002),r7
000B:A6BE A8 F8        ibt   r8,#FFF8
000B:A6C0 3D EF        getbh
000B:A6C2 DE           inc   r14
000B:A6C3 20 17        move  r7,r0
000B:A6C5 C0           hib
000B:A6C6 78           and   r8
000B:A6C7 A8 72        ibt   r8,#0072
000B:A6C9 68           sub   r8
000B:A6CA 3E 6F        sub   #0F
000B:A6CC 0D 10        bcs   A6DE
000B:A6CE 18 A8 11     ibt   r8,#0011
000B:A6D1 58           add   r8
000B:A6D2 3D F8 08 1E  lm    r8,(1E08)
000B:A6D6 78           and   r8
000B:A6D7 09 05        beq   A6DE
000B:A6D9 18 27 3E C2  or    #02
000B:A6DD 18 EF        getb
000B:A6DF 27 10        move  r0,r7
000B:A6E1 25 1E        move  r14,r5
000B:A6E3 9B           jmp   r11
000B:A6E4 01           nop
000B:A6E5 A6 01        ibt   r6,#0001
000B:A6E7 05 C4        bra   A6AD

000B:A6E9 60           sub   r0

000B:A6EA 3D F0 94 00  lm    r0,(0094)
000B:A6EE 3F 77        bic   #07
000B:A6F0 B8 60        sub   r0
000B:A6F2 03           lsr
000B:A6F3 03           lsr
000B:A6F4 A5 42        ibt   r5,#0042
000B:A6F6 65           sub   r5
000B:A6F7 0D 1D        bcs   A716
000B:A6F9 55           add   r5
000B:A6FA 03           lsr
000B:A6FB 08 08        bne   A705
000B:A6FD 50           add   r0
000B:A6FE 3D F0 F0 1E  lm    r0,(1EF0)
000B:A702 05 07        bra   A70B

000B:A704 F5 F5 30     iwt   r5,#30F5
000B:A707 1F 55        add   r5
000B:A709 40           ldw   (r0)
000B:A70A F5 FF 1F     iwt   r5,#1FFF
000B:A70D 75           and   r5
000B:A70E 3D F5 9C 00  lm    r5,(009C)
000B:A712 65           sub   r5
000B:A713 50           add   r0
000B:A714 17 57        add   r7
000B:A716 FF 58 A6     iwt   r15,#A658
000B:A719 3D 3E AB 31  sms   (0062),r11
000B:A71D 22 52        add   r2
000B:A71F 94           link  #04
000B:A720 FF 24 A6     iwt   r15,#A624
000B:A723 17 24 B3     moves r4,r3
000B:A726 0B 05        bmi   A72D
000B:A728 01           nop
000B:A729 FF BE A8     iwt   r15,#A8BE
000B:A72C 01           nop
000B:A72D 3D A0 5B     lms   r0,(00B6)
000B:A730 A1 20        ibt   r1,#0020
000B:A732 11 51        add   r1
000B:A734 A0 3F        ibt   r0,#003F
000B:A736 71           and   r1
000B:A737 08 09        bne   A742
000B:A739 01           nop
000B:A73A 3D A0 5A     lms   r0,(00B4)
000B:A73D E0           dec   r0
000B:A73E 0A 02        bpl   A742
000B:A740 01           nop
000B:A741 E1           dec   r1
000B:A742 A0 40        ibt   r0,#0040
000B:A744 71           and   r1
000B:A745 09 05        beq   A74C
000B:A747 01           nop
000B:A748 FF 12 A8     iwt   r15,#A812
000B:A74B 01           nop
000B:A74C A5 00        ibt   r5,#0000
000B:A74E B1 95        sex
000B:A750 0A 06        bpl   A758
000B:A752 23 4F        not
000B:A754 D3           inc   r3
000B:A755 F5 80 00     iwt   r5,#0080
000B:A758 3E A5 08     sms   (0010),r5
000B:A75B 3D A0 01     lms   r0,(0002)
000B:A75E 11 3E 7F     and   #0F
000B:A761 21 1C        move  r12,r1
000B:A763 A5 05        ibt   r5,#0005
000B:A765 23 B3        moves r3,r3
000B:A767 0A 03        bpl   A76C
000B:A769 01           nop
000B:A76A A5 04        ibt   r5,#0004
000B:A76C B7 75        and   r5
000B:A76E 1D 65        sub   r5
000B:A770 09 2A        beq   A79C
000B:A772 01           nop
000B:A773 3E A6 02     sms   (0004),r6
000B:A776 3E A7 03     sms   (0006),r7
000B:A779 3E A8 04     sms   (0008),r8
000B:A77C 3D A8 00     lms   r8,(0000)
000B:A77F 3E A8 05     sms   (000A),r8
000B:A782 3D A7 01     lms   r7,(0002)
000B:A785 3E A7 06     sms   (000C),r7
000B:A788 3E A5 07     sms   (000E),r5
000B:A78B B3 57        add   r7
000B:A78D 94           link  #04
000B:A78E FF 4C A6     iwt   r15,#A64C
000B:A791 3D 3D A5 07  lms   r5,(000E)
000B:A795 75           and   r5
000B:A796 65           sub   r5
000B:A797 08 42        bne   A7DB
000B:A799 01           nop
000B:A79A 21 63        sub   r3
000B:A79C 3E AE 2E     sms   (005C),r14
000B:A79F B8 4D        swap
000B:A7A1 23 B3        moves r3,r3
000B:A7A3 0A 03        bpl   A7A8
000B:A7A5 03           lsr
000B:A7A6 D0           inc   r0
000B:A7A7 D0           inc   r0
000B:A7A8 FE 0E BD     iwt   r14,#BD0E
000B:A7AB 1E 5E        add   r14
000B:A7AD 3D A0 00     lms   r0,(0000)
000B:A7B0 3E 7F        and   #0F
000B:A7B2 50           add   r0
000B:A7B3 50           add   r0
000B:A7B4 50           add   r0
000B:A7B5 1E 5E        add   r14
000B:A7B7 15 EF        getb
000B:A7B9 DE           inc   r14
000B:A7BA 3F EF        getbs
000B:A7BC 3D AE 2E     lms   r14,(005C)
000B:A7BF 11 61        sub   r1
000B:A7C1 09 06        beq   A7C9
000B:A7C3 B1 3D C3     xor   r3
000B:A7C6 0B 0E        bmi   A7D6
000B:A7C8 01           nop
000B:A7C9 23 B3        moves r3,r3
000B:A7CB 0B 03        bmi   A7D0
000B:A7CD D1           inc   r1
000B:A7CE E1           dec   r1
000B:A7CF E1           dec   r1
000B:A7D0 3E A5 08     sms   (0010),r5
000B:A7D3 05 37        bra   A80C

000B:A7D5 D2           inc   r2

000B:A7D6 2D BD        moves r13,r13
000B:A7D8 09 34        beq   A80E
000B:A7DA 01           nop
000B:A7DB 2C 11        move  r1,r12
000B:A7DD 3D A6 02     lms   r6,(0004)
000B:A7E0 3D A7 03     lms   r7,(0006)
000B:A7E3 3D A8 04     lms   r8,(0008)
000B:A7E6 3D A0 05     lms   r0,(000A)
000B:A7E9 3E A0 00     sms   (0000),r0
000B:A7EC 3D A0 06     lms   r0,(000C)
000B:A7EF 3E A0 01     sms   (0002),r0
000B:A7F2 A0 02        ibt   r0,#0002
000B:A7F4 23 B3        moves r3,r3
000B:A7F6 0A 03        bpl   A7FB
000B:A7F8 01           nop
000B:A7F9 A0 03        ibt   r0,#0003
000B:A7FB 77           and   r7
000B:A7FC 09 10        beq   A80E
000B:A7FE 01           nop
000B:A7FF D2           inc   r2
000B:A800 23 B3        moves r3,r3
000B:A802 0B 06        bmi   A80A
000B:A804 21 3F CF     xor   #0F
000B:A807 05 04        bra   A80D

000B:A809 2A 4F        not

000B:A80B D1           inc   r1
000B:A80C 2A 51        add   r1
000B:A80E FF BE A8     iwt   r15,#A8BE
000B:A811 01           nop
000B:A812 A5 40        ibt   r5,#0040
000B:A814 B1 95        sex
000B:A816 0A 06        bpl   A81E
000B:A818 23 4F        not
000B:A81A D3           inc   r3
000B:A81B F5 C0 00     iwt   r5,#00C0
000B:A81E 3E A5 08     sms   (0010),r5
000B:A821 3D A0 00     lms   r0,(0000)
000B:A824 11 3E 7F     and   #0F
000B:A827 21 1C        move  r12,r1
000B:A829 B7 1D 3E 74  and   #04
000B:A82D 08 24        bne   A853
000B:A82F 01           nop
000B:A830 3E A6 02     sms   (0004),r6
000B:A833 3E A7 03     sms   (0006),r7
000B:A836 3E A8 04     sms   (0008),r8
000B:A839 3D A0 00     lms   r0,(0000)
000B:A83C 3E A0 05     sms   (000A),r0
000B:A83F 18 53        add   r3
000B:A841 3D A0 01     lms   r0,(0002)
000B:A844 3E A0 06     sms   (000C),r0
000B:A847 94           link  #04
000B:A848 FF 4C A6     iwt   r15,#A64C
000B:A84B 3D 3E 74     and   #04
000B:A84E 09 42        beq   A892
000B:A850 01           nop
000B:A851 21 63        sub   r3
000B:A853 3E AE 2E     sms   (005C),r14
000B:A856 B8 4D        swap
000B:A858 23 B3        moves r3,r3
000B:A85A 0A 03        bpl   A85F
000B:A85C 03           lsr
000B:A85D D0           inc   r0
000B:A85E D0           inc   r0
000B:A85F FE 0A BD     iwt   r14,#BD0A
000B:A862 1E 5E        add   r14
000B:A864 3D A0 01     lms   r0,(0002)
000B:A867 3E 7F        and   #0F
000B:A869 50           add   r0
000B:A86A 50           add   r0
000B:A86B 50           add   r0
000B:A86C 1E 5E        add   r14
000B:A86E 15 EF        getb
000B:A870 DE           inc   r14
000B:A871 3F EF        getbs
000B:A873 3D AE 2E     lms   r14,(005C)
000B:A876 11 61        sub   r1
000B:A878 09 06        beq   A880
000B:A87A B1 3D C3     xor   r3
000B:A87D 0B 0E        bmi   A88D
000B:A87F 01           nop
000B:A880 23 B3        moves r3,r3
000B:A882 0B 03        bmi   A887
000B:A884 D1           inc   r1
000B:A885 E1           dec   r1
000B:A886 E1           dec   r1
000B:A887 3E A5 08     sms   (0010),r5
000B:A88A 05 30        bra   A8BC

000B:A88C D2           inc   r2

000B:A88D 2D BD        moves r13,r13
000B:A88F 08 2D        bne   A8BE
000B:A891 01           nop
000B:A892 2C 11        move  r1,r12
000B:A894 3D A6 02     lms   r6,(0004)
000B:A897 3D A7 03     lms   r7,(0006)
000B:A89A 3D A8 04     lms   r8,(0008)
000B:A89D 3D A0 05     lms   r0,(000A)
000B:A8A0 3E A0 00     sms   (0000),r0
000B:A8A3 3D A0 06     lms   r0,(000C)
000B:A8A6 3E A0 01     sms   (0002),r0
000B:A8A9 B7 3E 72     and   #02
000B:A8AC 09 10        beq   A8BE
000B:A8AE 01           nop
000B:A8AF D2           inc   r2
000B:A8B0 23 B3        moves r3,r3
000B:A8B2 0B 06        bmi   A8BA
000B:A8B4 21 3F CF     xor   #0F
000B:A8B7 05 04        bra   A8BD

000B:A8B9 29 4F        not

000B:A8BB D1           inc   r1
000B:A8BC 29 51        add   r1
000B:A8BE 3D A4 08     lms   r4,(0010)
000B:A8C1 23 B4        moves r3,r4
000B:A8C3 0B 05        bmi   A8CA
000B:A8C5 01           nop
000B:A8C6 FF 31 D6     iwt   r15,#D631
000B:A8C9 01           nop
000B:A8CA FF FD D7     iwt   r15,#D7FD
000B:A8CD 01           nop
000B:A8CE 3D A5 60     lms   r5,(00C0)
000B:A8D1 E5           dec   r5
000B:A8D2 0A 15        bpl   A8E9
000B:A8D4 D5           inc   r5
000B:A8D5 3D A0 57     lms   r0,(00AE)
000B:A8D8 3E 64        sub   #04
000B:A8DA 08 06        bne   A8E2
000B:A8DC 01           nop
000B:A8DD A9 00        ibt   r9,#0000
000B:A8DF 05 0F        bra   A8F0

000B:A8E1 01           nop
000B:A8E2 3D A0 C0     lms   r0,(0180)
000B:A8E5 E0           dec   r0
000B:A8E6 0A 05        bpl   A8ED
000B:A8E8 01           nop
000B:A8E9 FF BF CC     iwt   r15,#CCBF
000B:A8EC 01           nop
000B:A8ED F9 00 03     iwt   r9,#0300
000B:A8F0 A0 08        ibt   r0,#0008
000B:A8F2 3F DF        romb
000B:A8F4 3D A6 5A     lms   r6,(00B4)
000B:A8F7 3D A7 5B     lms   r7,(00B6)
000B:A8FA F0 18 AE     iwt   r0,#AE18
000B:A8FD 1E 57        add   r7
000B:A8FF 3F EF        getbs
000B:A901 50           add   r0
000B:A902 50           add   r0
000B:A903 3D 9F        lmult
000B:A905 24 C0        hib
000B:A907 9E           lob
000B:A908 4D           swap
000B:A909 18 C4        or    r4
000B:A90B F0 58 AE     iwt   r0,#AE58
000B:A90E 1E 57        add   r7
000B:A910 3F EF        getbs
000B:A912 50           add   r0
000B:A913 50           add   r0
000B:A914 3D 9F        lmult
000B:A916 24 C0        hib
000B:A918 9E           lob
000B:A919 4D           swap
000B:A91A 1E C4        or    r4
000B:A91C A0 20        ibt   r0,#0020
000B:A91E 17 57        add   r7
000B:A920 A0 3F        ibt   r0,#003F
000B:A922 77           and   r7
000B:A923 08 06        bne   A92B
000B:A925 01           nop
000B:A926 E6           dec   r6
000B:A927 0A 02        bpl   A92B
000B:A929 D6           inc   r6
000B:A92A E7           dec   r7
000B:A92B B7 95        sex
000B:A92D 0A 03        bpl   A932
000B:A92F 29 4F        not
000B:A931 D9           inc   r9
000B:A932 A0 40        ibt   r0,#0040
000B:A934 77           and   r7
000B:A935 09 02        beq   A939
000B:A937 2E 28 59     add   r9
000B:A93A 3E A8 54     sms   (00A8),r8
000B:A93D 3D F0 B4 01  lm    r0,(01B4)
000B:A941 3E 60        sub   #00
000B:A943 09 04        beq   A949
000B:A945 01           nop
000B:A946 FE 00 04     iwt   r14,#0400
000B:A949 3E AE 55     sms   (00AA),r14
000B:A94C FF 5A CE     iwt   r15,#CE5A
000B:A94F 01           nop
000B:A950 94           link  #04
000B:A951 FF 37 AE     iwt   r15,#AE37
000B:A954 01           nop
000B:A955 3D A0 EB     lms   r0,(01D6)
000B:A958 A2 50        ibt   r2,#0050
000B:A95A 62           sub   r2
000B:A95B 0B 0B        bmi   A968
000B:A95D 01           nop
000B:A95E 3D A0 C7     lms   r0,(018E)
000B:A961 A2 10        ibt   r2,#0010
000B:A963 52           add   r2
000B:A964 FF 83 AD     iwt   r15,#AD83
000B:A967 90           sbk
000B:A968 3D A1 C0     lms   r1,(0180)
000B:A96B E1           dec   r1
000B:A96C 0B 05        bmi   A973
000B:A96E D1           inc   r1
000B:A96F FF 0F AA     iwt   r15,#AA0F
000B:A972 01           nop
000B:A973 94           link  #04
000B:A974 FF BF CC     iwt   r15,#CCBF
000B:A977 01           nop
000B:A978 FE AA EB     iwt   r14,#EBAA
000B:A97B 94           link  #04
000B:A97C FF 7C CF     iwt   r15,#CF7C
000B:A97F 01           nop
000B:A980 3D A1 C0     lms   r1,(0180)
000B:A983 E1           dec   r1
000B:A984 0A E9        bpl   A96F
000B:A986 D1           inc   r1
000B:A987 F0 00 01     iwt   r0,#0100
000B:A98A 3E A0 C1     sms   (0182),r0
000B:A98D 3D A0 60     lms   r0,(00C0)
000B:A990 E0           dec   r0
000B:A991 0A 51        bpl   A9E4
000B:A993 01           nop
000B:A994 3D A0 46     lms   r0,(008C)
000B:A997 18 3E 58     add   #08
000B:A99A 3D A0 48     lms   r0,(0090)
000B:A99D A7 18        ibt   r7,#0018
000B:A99F 57           add   r7
000B:A9A0 94           link  #04
000B:A9A1 FF 20 D3     iwt   r15,#D320
000B:A9A4 3D F0 00 F8  lm    r0,(F800)
000B:A9A8 77           and   r7
000B:A9A9 F5 00 48     iwt   r5,#4800
000B:A9AC 65           sub   r5
000B:A9AD 08 35        bne   A9E4
000B:A9AF 01           nop
000B:A9B0 B6 C0        hib
000B:A9B2 A1 1E        ibt   r1,#001E
000B:A9B4 61           sub   r1
000B:A9B5 50           add   r0
000B:A9B6 FE 94 FD     iwt   r14,#FD94
000B:A9B9 1E 5E        add   r14
000B:A9BB EF           getb
000B:A9BC 3D F1 71 00  lm    r1,(0071)
000B:A9C0 71           and   r1
000B:A9C1 09 21        beq   A9E4
000B:A9C3 DE           inc   r14
000B:A9C4 A0 5D        ibt   r0,#005D
000B:A9C6 3E A0 3D     sms   (007A),r0
000B:A9C9 EF           getb
000B:A9CA 3E A0 5B     sms   (00B6),r0
000B:A9CD 4D           swap
000B:A9CE 3E A0 C5     sms   (018A),r0
000B:A9D1 60           sub   r0
000B:A9D2 3E A0 C4     sms   (0188),r0
000B:A9D5 3E A0 C6     sms   (018C),r0
000B:A9D8 3E A0 5A     sms   (00B4),r0
000B:A9DB F1 00 01     iwt   r1,#0100
000B:A9DE 3E A1 C0     sms   (0180),r1
000B:A9E1 05 2C        bra   AA0F

000B:A9E3 01           nop

000B:A9E4 3D F0 71 00  lm    r0,(0071)
000B:A9E8 16 3E 73     and   #03
000B:A9EB 09 17        beq   AA04
000B:A9ED 01           nop
000B:A9EE A5 00        ibt   r5,#0000
000B:A9F0 F6 80 01     iwt   r6,#0180
000B:A9F3 3E 72        and   #02
000B:A9F5 3E A0 62     sms   (00C4),r0
000B:A9F8 09 07        beq   AA01
000B:A9FA 01           nop
000B:A9FB F5 00 80     iwt   r5,#8000
000B:A9FE F6 80 FE     iwt   r6,#FE80
000B:AA01 3E A5 BF     sms   (017E),r5
000B:AA04 A5 10        ibt   r5,#0010
000B:AA06 94           link  #04
000B:AA07 FF 9F 9B     iwt   r15,#9B9F
000B:AA0A 01           nop
000B:AA0B FF 9C AC     iwt   r15,#AC9C
000B:AA0E 01           nop
000B:AA0F 94           link  #04
000B:AA10 FF A0 AD     iwt   r15,#ADA0
000B:AA13 01           nop
000B:AA14 3D A0 46     lms   r0,(008C)
000B:AA17 18 3E 58     add   #08
000B:AA1A 28 19        move  r9,r8
000B:AA1C 3D A0 48     lms   r0,(0090)
000B:AA1F AA 18        ibt   r10,#0018
000B:AA21 5A           add   r10
000B:AA22 20 1A        move  r10,r0
000B:AA24 94           link  #04
000B:AA25 FF 20 D3     iwt   r15,#D320
000B:AA28 3D F0 00 F8  lm    r0,(F800)
000B:AA2C 77           and   r7
000B:AA2D F5 00 48     iwt   r5,#4800
000B:AA30 17 65        sub   r5
000B:AA32 B6 C0        hib
000B:AA34 A5 1E        ibt   r5,#001E
000B:AA36 65           sub   r5
000B:AA37 3E 88        mult  #08
000B:AA39 F6 E1 FD     iwt   r6,#FDE1
000B:AA3C 16 56        add   r6
000B:AA3E A0 70        ibt   r0,#0070
000B:AA40 61           sub   r1
000B:AA41 0C 05        bcc   AA48
000B:AA43 01           nop
000B:AA44 FF F4 AA     iwt   r15,#AAF4
000B:AA47 01           nop
000B:AA48 3E A1 C1     sms   (0182),r1
000B:AA4B A0 FE        ibt   r0,#FFFE
000B:AA4D 3D A2 C4     lms   r2,(0188)
000B:AA50 E2           dec   r2
000B:AA51 0B 03        bmi   AA56
000B:AA53 D2           inc   r2
000B:AA54 A0 02        ibt   r0,#0002
000B:AA56 51           add   r1
000B:AA57 F3 00 01     iwt   r3,#0100
000B:AA5A 63           sub   r3
000B:AA5B 0C 02        bcc   AA5F
000B:AA5D 53           add   r3
000B:AA5E 60           sub   r0
000B:AA5F 3E A0 C0     sms   (0180),r0
000B:AA62 A3 72        ibt   r3,#0072
000B:AA64 63           sub   r3
000B:AA65 08 33        bne   AA9A
000B:AA67 01           nop
000B:AA68 F5 C5 01     iwt   r5,#01C5
000B:AA6B 94           link  #04
000B:AA6C FF C4 F0     iwt   r15,#F0C4
000B:AA6F 01           nop
000B:AA70 A0 36        ibt   r0,#0036
000B:AA72 3E A0 3D     sms   (007A),r0
000B:AA75 3D A3 46     lms   r3,(008C)
000B:AA78 F0 A2 10     iwt   r0,#10A2
000B:AA7B 51           add   r1
000B:AA7C B3 30        stw   (r0)
000B:AA7E 3D A0 48     lms   r0,(0090)
000B:AA81 13 3E 5F     add   #0F
000B:AA84 F0 42 11     iwt   r0,#1142
000B:AA87 51           add   r1
000B:AA88 B3 30        stw   (r0)
000B:AA8A A3 06        ibt   r3,#0006
000B:AA8C F0 C2 13     iwt   r0,#13C2
000B:AA8F 51           add   r1
000B:AA90 B3 30        stw   (r0)
000B:AA92 A3 03        ibt   r3,#0003
000B:AA94 F0 82 17     iwt   r0,#1782
000B:AA97 51           add   r1
000B:AA98 B3 30        stw   (r0)
000B:AA9A E2           dec   r2
000B:AA9B 0B 17        bmi   AAB4
000B:AA9D D2           inc   r2
000B:AA9E 29 18        move  r8,r9
000B:AAA0 BA 3E 57     add   #07
000B:AAA3 94           link  #04
000B:AAA4 FF 20 D3     iwt   r15,#D320
000B:AAA7 3D 3E 73     and   #03
000B:AAAA 09 44        beq   AAF0
000B:AAAC 01           nop
000B:AAAD 3D A0 48     lms   r0,(0090)
000B:AAB0 E0           dec   r0
000B:AAB1 05 3D        bra   AAF0

000B:AAB3 90           sbk

000B:AAB4 94           link  #04
000B:AAB5 FF 86 AD     iwt   r15,#AD86
000B:AAB8 01           nop
000B:AAB9 08 35        bne   AAF0
000B:AABB 01           nop
000B:AABC 3D A0 C5     lms   r0,(018A)
000B:AABF C0           hib
000B:AAC0 03           lsr
000B:AAC1 03           lsr
000B:AAC2 03           lsr
000B:AAC3 03           lsr
000B:AAC4 FE AA FD     iwt   r14,#FDAA
000B:AAC7 1E 5E        add   r14
000B:AAC9 13 EF        getb
000B:AACB B9 3E 7F     and   #0F
000B:AACE 63           sub   r3
000B:AACF A0 01        ibt   r0,#0001
000B:AAD1 0B 03        bmi   AAD6
000B:AAD3 DE           inc   r14
000B:AAD4 A0 FF        ibt   r0,#FFFF
000B:AAD6 59           add   r9
000B:AAD7 3E 68        sub   #08
000B:AAD9 3E A0 46     sms   (008C),r0
000B:AADC 13 EF        getb
000B:AADE BA 3E 7F     and   #0F
000B:AAE1 63           sub   r3
000B:AAE2 A0 01        ibt   r0,#0001
000B:AAE4 0B 03        bmi   AAE9
000B:AAE6 01           nop
000B:AAE7 A0 FF        ibt   r0,#FFFF
000B:AAE9 5A           add   r10
000B:AAEA A3 18        ibt   r3,#0018
000B:AAEC 63           sub   r3
000B:AAED 3E A0 48     sms   (0090),r0
000B:AAF0 FF 5C AC     iwt   r15,#AC5C
000B:AAF3 01           nop
000B:AAF4 F0 00 01     iwt   r0,#0100
000B:AAF7 3E A0 C1     sms   (0182),r0
000B:AAFA 94           link  #04
000B:AAFB FF 86 AD     iwt   r15,#AD86
000B:AAFE 01           nop
000B:AAFF 09 05        beq   AB06
000B:AB01 01           nop
000B:AB02 FF DF AB     iwt   r15,#ABDF
000B:AB05 01           nop
000B:AB06 27 B7        moves r7,r7
000B:AB08 08 76        bne   AB80
000B:AB0A 01           nop
000B:AB0B 29 11        move  r1,r9
000B:AB0D 3E AA 2A     sms   (0054),r10
000B:AB10 F2 00 40     iwt   r2,#4000
000B:AB13 3D A0 C5     lms   r0,(018A)
000B:AB16 C0           hib
000B:AB17 03           lsr
000B:AB18 03           lsr
000B:AB19 03           lsr
000B:AB1A 03           lsr
000B:AB1B 20 13        move  r3,r0
000B:AB1D 3E 54        add   #04
000B:AB1F 3E 7E        and   #0E
000B:AB21 FE BA FD     iwt   r14,#FDBA
000B:AB24 1E 5E        add   r14
000B:AB26 14 3F EF     getbs
000B:AB29 DE           inc   r14
000B:AB2A 18 3F EF     getbs
000B:AB2D 29 3E 7F     and   #0F
000B:AB30 2A 3E 7F     and   #0F
000B:AB33 AC 04        ibt   r12,#0004
000B:AB35 2F 1D        move  r13,r15
000B:AB37 B9 54        add   r4
000B:AB39 A5 10        ibt   r5,#0010
000B:AB3B 65           sub   r5
000B:AB3C 0D 15        bcs   AB53
000B:AB3E 55           add   r5
000B:AB3F 20 19        move  r9,r0
000B:AB41 BA 58        add   r8
000B:AB43 65           sub   r5
000B:AB44 0D 0D        bcs   AB53
000B:AB46 55           add   r5
000B:AB47 20 1A        move  r10,r0
000B:AB49 94           link  #04
000B:AB4A FF 86 AD     iwt   r15,#AD86
000B:AB4D 01           nop
000B:AB4E 08 04        bne   AB54
000B:AB50 01           nop
000B:AB51 3C           loop
000B:AB52 01           nop
000B:AB53 D2           inc   r2
000B:AB54 22 52        add   r2
000B:AB56 0D 12        bcs   AB6A
000B:AB58 01           nop
000B:AB59 3E A9 00     sms   (0000),r9
000B:AB5C 3E AA 01     sms   (0002),r10
000B:AB5F B3 3E 5C     add   #0C
000B:AB62 21 19        move  r9,r1
000B:AB64 3D AA 2A     lms   r10,(0054)
000B:AB67 05 B6        bra   AB1F

000B:AB69 01           nop

000B:AB6A 0B 5A        bmi   ABC6
000B:AB6C 01           nop
000B:AB6D 20 B2        moves r0,r2
000B:AB6F 09 06        beq   AB77
000B:AB71 03           lsr
000B:AB72 3E 63        sub   #03
000B:AB74 08 35        bne   ABAB
000B:AB76 D0           inc   r0
000B:AB77 F2 00 C0     iwt   r2,#C000
000B:AB7A B3 3F C8     xor   #08
000B:AB7D 05 E3        bra   AB62

000B:AB7F 01           nop

000B:AB80 A0 5D        ibt   r0,#005D
000B:AB82 3E A0 3D     sms   (007A),r0
000B:AB85 A0 72        ibt   r0,#0072
000B:AB87 3E A0 C0     sms   (0180),r0
000B:AB8A A0 02        ibt   r0,#0002
000B:AB8C 3E A0 C4     sms   (0188),r0
000B:AB8F 3D A0 62     lms   r0,(00C4)
000B:AB92 E0           dec   r0
000B:AB93 0B 04        bmi   AB99
000B:AB95 60           sub   r0
000B:AB96 F0 00 80     iwt   r0,#8000
000B:AB99 3E A0 C5     sms   (018A),r0
000B:AB9C C0           hib
000B:AB9D 3E A0 5B     sms   (00B6),r0
000B:ABA0 60           sub   r0
000B:ABA1 3E A0 5A     sms   (00B4),r0
000B:ABA4 3E A0 C6     sms   (018C),r0
000B:ABA7 FF 5C AC     iwt   r15,#AC5C
000B:ABAA 01           nop
000B:ABAB A0 FE        ibt   r0,#FFFE
000B:ABAD 09 09        beq   ABB8
000B:ABAF 01           nop
000B:ABB0 A0 02        ibt   r0,#0002
000B:ABB2 3D A9 00     lms   r9,(0000)
000B:ABB5 3D AA 01     lms   r10,(0002)
000B:ABB8 53           add   r3
000B:ABB9 3E 7E        and   #0E
000B:ABBB 50           add   r0
000B:ABBC 50           add   r0
000B:ABBD 50           add   r0
000B:ABBE 50           add   r0
000B:ABBF 3E A0 5B     sms   (00B6),r0
000B:ABC2 4D           swap
000B:ABC3 3E A0 C5     sms   (018A),r0
000B:ABC6 B1 3F 7F     bic   #0F
000B:ABC9 C9           or    r9
000B:ABCA 20 19        move  r9,r0
000B:ABCC 3E 68        sub   #08
000B:ABCE 3E A0 46     sms   (008C),r0
000B:ABD1 3D A0 2A     lms   r0,(0054)
000B:ABD4 3F 7F        bic   #0F
000B:ABD6 CA           or    r10
000B:ABD7 20 1A        move  r10,r0
000B:ABD9 A3 18        ibt   r3,#0018
000B:ABDB 63           sub   r3
000B:ABDC 3E A0 48     sms   (0090),r0
000B:ABDF 3D A1 C5     lms   r1,(018A)
000B:ABE2 3D F0 71 00  lm    r0,(0071)
000B:ABE6 3E 7F        and   #0F
000B:ABE8 09 09        beq   ABF3
000B:ABEA 01           nop
000B:ABEB FE C9 FD     iwt   r14,#FDC9
000B:ABEE 1E 5E        add   r14
000B:ABF0 EF           getb
000B:ABF1 11 4D        swap
000B:ABF3 B1 C0        hib
000B:ABF5 03           lsr
000B:ABF6 03           lsr
000B:ABF7 03           lsr
000B:ABF8 03           lsr
000B:ABF9 3E 7E        and   #0E
000B:ABFB FE BA FD     iwt   r14,#FDBA
000B:ABFE 1E 5E        add   r14
000B:AC00 29 12        move  r2,r9
000B:AC02 2A 13        move  r3,r10
000B:AC04 3F EF        getbs
000B:AC06 50           add   r0
000B:AC07 DE           inc   r14
000B:AC08 19 59        add   r9
000B:AC0A 29 18        move  r8,r9
000B:AC0C 3F EF        getbs
000B:AC0E 50           add   r0
000B:AC0F 1A 5A        add   r10
000B:AC11 2A 10        move  r0,r10
000B:AC13 94           link  #04
000B:AC14 FF 20 D3     iwt   r15,#D320
000B:AC17 3D F0 00 F8  lm    r0,(F800)
000B:AC1B 77           and   r7
000B:AC1C F5 00 48     iwt   r5,#4800
000B:AC1F 17 65        sub   r5
000B:AC21 B6 C0        hib
000B:AC23 A5 1E        ibt   r5,#001E
000B:AC25 65           sub   r5
000B:AC26 3E 88        mult  #08
000B:AC28 F6 E1 FD     iwt   r6,#FDE1
000B:AC2B 16 56        add   r6
000B:AC2D 94           link  #04
000B:AC2E FF 86 AD     iwt   r15,#AD86
000B:AC31 01           nop
000B:AC32 09 09        beq   AC3D
000B:AC34 01           nop
000B:AC35 3E A1 C5     sms   (018A),r1
000B:AC38 B1 C0        hib
000B:AC3A 3E A0 5B     sms   (00B6),r0
000B:AC3D F6 00 01     iwt   r6,#0100
000B:AC40 3D A0 44     lms   r0,(0088)
000B:AC43 3D A2 42     lms   r2,(0084)
000B:AC46 C2           or    r2
000B:AC47 3D A2 43     lms   r2,(0086)
000B:AC4A C2           or    r2
000B:AC4B 3D A2 38     lms   r2,(0070)
000B:AC4E 72           and   r2
000B:AC4F 09 04        beq   AC55
000B:AC51 01           nop
000B:AC52 F6 80 01     iwt   r6,#0180
000B:AC55 A5 10        ibt   r5,#0010
000B:AC57 94           link  #04
000B:AC58 FF 9F 9B     iwt   r15,#9B9F
000B:AC5B 01           nop
000B:AC5C 3D A0 BF     lms   r0,(017E)
000B:AC5F 3D AA C5     lms   r10,(018A)
000B:AC62 11 6A        sub   r10
000B:AC64 0A 03        bpl   AC69
000B:AC66 21 4F        not
000B:AC68 D1           inc   r1
000B:AC69 3D A4 C6     lms   r4,(018C)
000B:AC6C F0 00 40     iwt   r0,#4000
000B:AC6F 61           sub   r1
000B:AC70 0C 08        bcc   AC7A
000B:AC72 01           nop
000B:AC73 08 0D        bne   AC82
000B:AC75 60           sub   r0
000B:AC76 E4           dec   r4
000B:AC77 0B 09        bmi   AC82
000B:AC79 60           sub   r0
000B:AC7A F0 00 80     iwt   r0,#8000
000B:AC7D 1A 3D CA     xor   r10
000B:AC80 A0 01        ibt   r0,#0001
000B:AC82 90           sbk
000B:AC83 3D A0 5A     lms   r0,(00B4)
000B:AC86 E0           dec   r0
000B:AC87 0A 03        bpl   AC8C
000B:AC89 D0           inc   r0
000B:AC8A 4F           not
000B:AC8B D0           inc   r0
000B:AC8C 50           add   r0
000B:AC8D 50           add   r0
000B:AC8E F4 00 02     iwt   r4,#0200
000B:AC91 64           sub   r4
000B:AC92 0C 03        bcc   AC97
000B:AC94 54           add   r4
000B:AC95 20 14        move  r4,r0
000B:AC97 94           link  #04
000B:AC98 FF D9 9B     iwt   r15,#9BD9
000B:AC9B 01           nop
000B:AC9C 3D A0 5A     lms   r0,(00B4)
000B:AC9F E0           dec   r0
000B:ACA0 0A 03        bpl   ACA5
000B:ACA2 D0           inc   r0
000B:ACA3 4F           not
000B:ACA4 D0           inc   r0
000B:ACA5 F1 80 00     iwt   r1,#0080
000B:ACA8 61           sub   r1
000B:ACA9 0C 02        bcc   ACAD
000B:ACAB 11 51        add   r1
000B:ACAD 3D A0 C3     lms   r0,(0186)
000B:ACB0 51           add   r1
000B:ACB1 90           sbk
000B:ACB2 F1 00 06     iwt   r1,#0600
000B:ACB5 61           sub   r1
000B:ACB6 0C 0A        bcc   ACC2
000B:ACB8 01           nop
000B:ACB9 90           sbk
000B:ACBA 3D A0 C2     lms   r0,(0184)
000B:ACBD 3F C2        xor   #02
000B:ACBF 09 05        beq   ACC6
000B:ACC1 90           sbk
000B:ACC2 FF 83 AD     iwt   r15,#AD83
000B:ACC5 01           nop
000B:ACC6 A0 08        ibt   r0,#0008
000B:ACC8 3F DF        romb
000B:ACCA 3D A0 BF     lms   r0,(017E)
000B:ACCD C0           hib
000B:ACCE 20 1A        move  r10,r0
000B:ACD0 AE 40        ibt   r14,#0040
000B:ACD2 5E           add   r14
000B:ACD3 95           sex
000B:ACD4 0A 08        bpl   ACDE
000B:ACD6 01           nop
000B:ACD7 A0 7F        ibt   r0,#007F
000B:ACD9 3D CA        xor   r10
000B:ACDB D0           inc   r0
000B:ACDC 1A 9E        lob
000B:ACDE F0 18 AE     iwt   r0,#AE18
000B:ACE1 1E 5A        add   r10
000B:ACE3 11 EF        getb
000B:ACE5 A0 40        ibt   r0,#0040
000B:ACE7 1E 5E        add   r14
000B:ACE9 12 EF        getb
000B:ACEB A0 0A        ibt   r0,#000A
000B:ACED 3F DF        romb
000B:ACEF A5 05        ibt   r5,#0005
000B:ACF1 A6 E8        ibt   r6,#FFE8
000B:ACF3 3D A0 5F     lms   r0,(00BE)
000B:ACF6 F3 86 01     iwt   r3,#0186
000B:ACF9 19 63        sub   r3
000B:ACFB 09 05        beq   AD02
000B:ACFD 01           nop
000B:ACFE A5 04        ibt   r5,#0004
000B:AD00 A6 F2        ibt   r6,#FFF2
000B:AD02 B5 13 81     mult  r1
000B:AD05 B6 82        mult  r2
000B:AD07 53           add   r3
000B:AD08 50           add   r0
000B:AD09 50           add   r0
000B:AD0A C0           hib
000B:AD0B 13 95        sex
000B:AD0D 3D A8 62     lms   r8,(00C4)
000B:AD10 E8           dec   r8
000B:AD11 0B 04        bmi   AD17
000B:AD13 D8           inc   r8
000B:AD14 23 4F        not
000B:AD16 D3           inc   r3
000B:AD17 B5 14 82     mult  r2
000B:AD1A B6 81        mult  r1
000B:AD1C 64           sub   r4
000B:AD1D 50           add   r0
000B:AD1E 50           add   r0
000B:AD1F C0           hib
000B:AD20 95           sex
000B:AD21 14 3E 5E     add   #0E
000B:AD24 F5 C6 01     iwt   r5,#01C6
000B:AD27 94           link  #04
000B:AD28 FF C4 F0     iwt   r15,#F0C4
000B:AD2B 01           nop
000B:AD2C 3D A0 3D     lms   r0,(007A)
000B:AD2F E0           dec   r0
000B:AD30 0A 06        bpl   AD38
000B:AD32 01           nop
000B:AD33 A0 45        ibt   r0,#0045
000B:AD35 3E A0 3D     sms   (007A),r0
000B:AD38 3D A0 46     lms   r0,(008C)
000B:AD3B 13 53        add   r3
000B:AD3D F0 A2 10     iwt   r0,#10A2
000B:AD40 51           add   r1
000B:AD41 B3 30        stw   (r0)
000B:AD43 3D A0 48     lms   r0,(0090)
000B:AD46 14 54        add   r4
000B:AD48 F0 42 11     iwt   r0,#1142
000B:AD4B 51           add   r1
000B:AD4C B4 30        stw   (r0)
000B:AD4E A3 40        ibt   r3,#0040
000B:AD50 A4 04        ibt   r4,#0004
000B:AD52 29 B9        moves r9,r9
000B:AD54 09 04        beq   AD5A
000B:AD56 01           nop
000B:AD57 D4           inc   r4
000B:AD58 23 03        lsr
000B:AD5A F0 4E 1E     iwt   r0,#1E4E
000B:AD5D 51           add   r1
000B:AD5E B3 30        stw   (r0)
000B:AD60 F0 C2 13     iwt   r0,#13C2
000B:AD63 51           add   r1
000B:AD64 B4 30        stw   (r0)
000B:AD66 A3 09        ibt   r3,#0009
000B:AD68 F0 82 17     iwt   r0,#1782
000B:AD6B 51           add   r1
000B:AD6C B3 30        stw   (r0)
000B:AD6E A0 40        ibt   r0,#0040
000B:AD70 5A           add   r10
000B:AD71 E8           dec   r8
000B:AD72 0A 06        bpl   AD7A
000B:AD74 D8           inc   r8
000B:AD75 A3 7F        ibt   r3,#007F
000B:AD77 3D C3        xor   r3
000B:AD79 D0           inc   r0
000B:AD7A 9E           lob
000B:AD7B 13 50        add   r0
000B:AD7D F0 4C 1E     iwt   r0,#1E4C
000B:AD80 51           add   r1
000B:AD81 B3 30        stw   (r0)
000B:AD83 60           sub   r0
000B:AD84 00           stop
000B:AD85 01           nop

000B:AD86 27 B7        moves r7,r7
000B:AD88 08 14        bne   AD9E
000B:AD8A 60           sub   r0
000B:AD8B BA 3E 7F     and   #0F
000B:AD8E 03           lsr
000B:AD8F 1E 56        add   r6
000B:AD91 15 EF        getb
000B:AD93 B9 3E 7F     and   #0F
000B:AD96 03           lsr
000B:AD97 FE D9 FD     iwt   r14,#FDD9
000B:AD9A 1E 5E        add   r14
000B:AD9C EF           getb
000B:AD9D 75           and   r5
000B:AD9E 9B           jmp   r11
000B:AD9F 01           nop

000B:ADA0 3D A2 5A     lms   r2,(00B4)
000B:ADA3 3D A0 C8     lms   r0,(0190)
000B:ADA6 9E           lob
000B:ADA7 52           add   r2
000B:ADA8 90           sbk
000B:ADA9 C0           hib
000B:ADAA 13 95        sex
000B:ADAC A0 08        ibt   r0,#0008
000B:ADAE 3F DF        romb
000B:ADB0 3D A0 5B     lms   r0,(00B6)
000B:ADB3 FE 18 AE     iwt   r14,#AE18
000B:ADB6 1E 5E        add   r14
000B:ADB8 EF           getb
000B:ADB9 14 95        sex
000B:ADBB 09 0C        beq   ADC9
000B:ADBD 01           nop
000B:ADBE 23 10        move  r0,r3
000B:ADC0 22 14        move  r4,r2
000B:ADC2 0A 05        bpl   ADC9
000B:ADC4 24 4F        not
000B:ADC6 D4           inc   r4
000B:ADC7 4F           not
000B:ADC8 D0           inc   r0
000B:ADC9 3E A4 54     sms   (00A8),r4
000B:ADCC 20 18        move  r8,r0
000B:ADCE A0 40        ibt   r0,#0040
000B:ADD0 1E 5E        add   r14
000B:ADD2 EF           getb
000B:ADD3 1E 95        sex
000B:ADD5 09 0C        beq   ADE3
000B:ADD7 01           nop
000B:ADD8 23 10        move  r0,r3
000B:ADDA 22 1E        move  r14,r2
000B:ADDC 0B 05        bmi   ADE3
000B:ADDE 2E 4F        not
000B:ADE0 DE           inc   r14
000B:ADE1 4F           not
000B:ADE2 D0           inc   r0
000B:ADE3 3E AE 55     sms   (00AA),r14
000B:ADE6 23 B0        moves r3,r0
000B:ADE8 09 3D        beq   AE27
000B:ADEA 01           nop
000B:ADEB 28 B8        moves r8,r8
000B:ADED 09 38        beq   AE27
000B:ADEF 01           nop
000B:ADF0 50           add   r0
000B:ADF1 12 04        rol
000B:ADF3 B8 58        add   r8
000B:ADF5 22 04        rol
000B:ADF7 3D A0 46     lms   r0,(008C)
000B:ADFA 03           lsr
000B:ADFB 3D A0 48     lms   r0,(0090)
000B:ADFE 04           rol
000B:ADFF 3D C2        xor   r2
000B:AE01 3E 73        and   #03
000B:AE03 E0           dec   r0
000B:AE04 03           lsr
000B:AE05 09 03        beq   AE0A
000B:AE07 04           rol
000B:AE08 A0 FF        ibt   r0,#FFFF
000B:AE0A D0           inc   r0
000B:AE0B 03           lsr
000B:AE0C 0C 0B        bcc   AE19
000B:AE0E 01           nop
000B:AE0F 28 B8        moves r8,r8
000B:AE11 09 06        beq   AE19
000B:AE13 01           nop
000B:AE14 0B 03        bmi   AE19
000B:AE16 D8           inc   r8
000B:AE17 E8           dec   r8
000B:AE18 E8           dec   r8
000B:AE19 03           lsr
000B:AE1A 0C 0B        bcc   AE27
000B:AE1C 01           nop
000B:AE1D 23 B3        moves r3,r3
000B:AE1F 09 06        beq   AE27
000B:AE21 01           nop
000B:AE22 0B 03        bmi   AE27
000B:AE24 D3           inc   r3
000B:AE25 E3           dec   r3
000B:AE26 E3           dec   r3
000B:AE27 3D A0 46     lms   r0,(008C)
000B:AE2A 58           add   r8
000B:AE2B 90           sbk
000B:AE2C 3D A0 48     lms   r0,(0090)
000B:AE2F 53           add   r3
000B:AE30 90           sbk
000B:AE31 A0 0A        ibt   r0,#000A
000B:AE33 3F DF        romb
000B:AE35 9B           jmp   r11
000B:AE36 01           nop

000B:AE37 3E AB 34     sms   (0068),r11
000B:AE3A 3D A0 C0     lms   r0,(0180)
000B:AE3D E0           dec   r0
000B:AE3E A1 72        ibt   r1,#0072
000B:AE40 61           sub   r1
000B:AE41 FE 86 01     iwt   r14,#0186
000B:AE44 F0 8C FD     iwt   r0,#FD8C
000B:AE47 0D 06        bcs   AE4F
000B:AE49 01           nop
000B:AE4A 3E 54        add   #04
000B:AE4C FE 87 01     iwt   r14,#0187
000B:AE4F 3E AE 5F     sms   (00BE),r14
000B:AE52 3D AE C2     lms   r14,(0184)
000B:AE55 1E 5E        add   r14
000B:AE57 EF           getb
000B:AE58 DE           inc   r14
000B:AE59 1C 3D EF     getbh
000B:AE5C AD 54        ibt   r13,#0054
000B:AE5E A2 20        ibt   r2,#0020
000B:AE60 A3 00        ibt   r3,#0000
000B:AE62 3D A0 BF     lms   r0,(017E)
000B:AE65 15 C0        hib
000B:AE67 F6 00 40     iwt   r6,#4000
000B:AE6A 56           add   r6
000B:AE6B 50           add   r0
000B:AE6C 09 10        beq   AE7E
000B:AE6E 01           nop
000B:AE6F 0C 0A        bcc   AE7B
000B:AE71 60           sub   r0
000B:AE72 A0 7F        ibt   r0,#007F
000B:AE74 3D C5        xor   r5
000B:AE76 D0           inc   r0
000B:AE77 15 9E        lob
000B:AE79 A0 02        ibt   r0,#0002
000B:AE7B 3E A0 62     sms   (00C4),r0
000B:AE7E 3D A0 EB     lms   r0,(01D6)
000B:AE81 A6 50        ibt   r6,#0050
000B:AE83 66           sub   r6
000B:AE84 0B 07        bmi   AE8D
000B:AE86 01           nop
000B:AE87 3D A0 C7     lms   r0,(018E)
000B:AE8A 55           add   r5
000B:AE8B 15 9E        lob
000B:AE8D 3D A6 C1     lms   r6,(0182)
000B:AE90 94           link  #04
000B:AE91 FF 8A F2     iwt   r15,#F28A
000B:AE94 01           nop
000B:AE95 A0 0A        ibt   r0,#000A
000B:AE97 3F DF        romb
000B:AE99 3D AB 34     lms   r11,(0068)
000B:AE9C 9B           jmp   r11
000B:AE9D 01           nop

000B:AE9E 60           sub   r0
000B:AE9F 3E A0 5A     sms   (00B4),r0
000B:AEA2 3E A0 C5     sms   (018A),r0
000B:AEA5 3D A0 EB     lms   r0,(01D6)
000B:AEA8 A1 50        ibt   r1,#0050
000B:AEAA 61           sub   r1
000B:AEAB 0B 0B        bmi   AEB8
000B:AEAD 01           nop
000B:AEAE 3D A0 CA     lms   r0,(0194)
000B:AEB1 A2 10        ibt   r2,#0010
000B:AEB3 52           add   r2
000B:AEB4 FF 9C AF     iwt   r15,#AF9C
000B:AEB7 90           sbk
000B:AEB8 3D F0 71 00  lm    r0,(0071)
000B:AEBC 20 13        move  r3,r0
000B:AEBE 17 3F 7F     bic   #0F
000B:AEC1 15 3E 73     and   #03
000B:AEC4 3E 7C        and   #0C
000B:AEC6 03           lsr
000B:AEC7 16 03        lsr
000B:AEC9 3D A0 C1     lms   r0,(0182)
000B:AECC 3D A1 C0     lms   r1,(0180)
000B:AECF 61           sub   r1
000B:AED0 3E 73        and   #03
000B:AED2 20 14        move  r4,r0
000B:AED4 03           lsr
000B:AED5 0C 07        bcc   AEDE
000B:AED7 01           nop
000B:AED8 25 1E        move  r14,r5
000B:AEDA 26 15        move  r5,r6
000B:AEDC 2E 16        move  r6,r14
000B:AEDE F0 2D FC     iwt   r0,#FC2D
000B:AEE1 1E 54        add   r4
000B:AEE3 EF           getb
000B:AEE4 1E 03        lsr
000B:AEE6 0C 09        bcc   AEF1
000B:AEE8 01           nop
000B:AEE9 26 03        lsr
000B:AEEB 04           rol
000B:AEEC 50           add   r0
000B:AEED 3E 72        and   #02
000B:AEEF 16 C6        or    r6
000B:AEF1 EE           dec   r14
000B:AEF2 0B 09        bmi   AEFD
000B:AEF4 01           nop
000B:AEF5 25 03        lsr
000B:AEF7 04           rol
000B:AEF8 50           add   r0
000B:AEF9 3E 72        and   #02
000B:AEFB 15 C5        or    r5
000B:AEFD B6 56        add   r6
000B:AEFF 50           add   r0
000B:AF00 C5           or    r5
000B:AF01 11 C7        or    r7
000B:AF03 3D A2 C1     lms   r2,(0182)
000B:AF06 F0 25 FC     iwt   r0,#FC25
000B:AF09 52           add   r2
000B:AF0A 1E 52        add   r2
000B:AF0C EF           getb
000B:AF0D 15 71        and   r1
000B:AF0F 08 07        bne   AF18
000B:AF11 DE           inc   r14
000B:AF12 3E A2 C0     sms   (0180),r2
000B:AF15 05 3A        bra   AF51

000B:AF17 01           nop
000B:AF18 3D A5 DA     lms   r5,(01B4)
000B:AF1B 25 B5        moves r5,r5
000B:AF1D 08 07        bne   AF26
000B:AF1F 01           nop
000B:AF20 15 3F CF     xor   #0F
000B:AF23 21 3D 75     bic   r5
000B:AF26 F5 00 01     iwt   r5,#0100
000B:AF29 EF           getb
000B:AF2A 71           and   r1
000B:AF2B 09 06        beq   AF33
000B:AF2D 60           sub   r0
000B:AF2E F5 00 FF     iwt   r5,#FF00
000B:AF31 A0 02        ibt   r0,#0002
000B:AF33 3D A6 60     lms   r6,(00C0)
000B:AF36 E6           dec   r6
000B:AF37 0A 04        bpl   AF3D
000B:AF39 D6           inc   r6
000B:AF3A 3E A5 5A     sms   (00B4),r5
000B:AF3D 20 15        move  r5,r0
000B:AF3F B2 03        lsr
000B:AF41 0D 0E        bcs   AF51
000B:AF43 01           nop
000B:AF44 3D F0 7F 01  lm    r0,(017F)
000B:AF48 A6 7F        ibt   r6,#007F
000B:AF4A 76           and   r6
000B:AF4B 08 04        bne   AF51
000B:AF4D 01           nop
000B:AF4E 3E A5 62     sms   (00C4),r5
000B:AF51 3E A1 C5     sms   (018A),r1
000B:AF54 3D A6 5A     lms   r6,(00B4)
000B:AF57 E6           dec   r6
000B:AF58 0A 04        bpl   AF5E
000B:AF5A D6           inc   r6
000B:AF5B 26 4F        not
000B:AF5D D6           inc   r6
000B:AF5E F0 00 04     iwt   r0,#0400
000B:AF61 3D 9F        lmult
000B:AF63 24 C0        hib
000B:AF65 9E           lob
000B:AF66 4D           swap
000B:AF67 14 C4        or    r4
000B:AF69 3D AA C2     lms   r10,(0184)
000B:AF6C 94           link  #04
000B:AF6D FF D9 9B     iwt   r15,#9BD9
000B:AF70 01           nop
000B:AF71 26 B6        moves r6,r6
000B:AF73 08 0A        bne   AF7F
000B:AF75 60           sub   r0
000B:AF76 3E A0 C4     sms   (0188),r0
000B:AF79 3E A0 C3     sms   (0186),r0
000B:AF7C 05 1E        bra   AF9C

000B:AF7E 01           nop
000B:AF7F F0 80 00     iwt   r0,#0080
000B:AF82 66           sub   r6
000B:AF83 0D 03        bcs   AF88
000B:AF85 56           add   r6
000B:AF86 26 10        move  r0,r6
000B:AF88 3D A1 C4     lms   r1,(0188)
000B:AF8B 51           add   r1
000B:AF8C 90           sbk
000B:AF8D F1 00 03     iwt   r1,#0300
000B:AF90 61           sub   r1
000B:AF91 0C 09        bcc   AF9C
000B:AF93 01           nop
000B:AF94 90           sbk
000B:AF95 3D A0 C3     lms   r0,(0186)
000B:AF98 3E 77        and   #07
000B:AF9A D0           inc   r0
000B:AF9B 90           sbk
000B:AF9C 94           link  #04
000B:AF9D FF A4 AF     iwt   r15,#AFA4
000B:AFA0 01           nop
000B:AFA1 60           sub   r0
000B:AFA2 00           stop
000B:AFA3 01           nop
000B:AFA4 3E AB 34     sms   (0068),r11
000B:AFA7 FC 60 20     iwt   r12,#2060
000B:AFAA 3D A0 5F     lms   r0,(00BE)
000B:AFAD FD 98 01     iwt   r13,#0198
000B:AFB0 6D           sub   r13
000B:AFB1 09 10        beq   AFC3
000B:AFB3 01           nop
000B:AFB4 FC C0 20     iwt   r12,#20C0
000B:AFB7 3D F0 74 19  lm    r0,(1974)
000B:AFBB 3E 72        and   #02
000B:AFBD 09 04        beq   AFC3
000B:AFBF 01           nop
000B:AFC0 FC E0 20     iwt   r12,#20E0
000B:AFC3 AD 54        ibt   r13,#0054
000B:AFC5 A2 20        ibt   r2,#0020
000B:AFC7 A3 00        ibt   r3,#0000
000B:AFC9 3D A0 BF     lms   r0,(017E)
000B:AFCC 15 C0        hib
000B:AFCE 3D A0 EB     lms   r0,(01D6)
000B:AFD1 A6 50        ibt   r6,#0050
000B:AFD3 66           sub   r6
000B:AFD4 0B 07        bmi   AFDD
000B:AFD6 01           nop
000B:AFD7 3D A0 CA     lms   r0,(0194)
000B:AFDA 55           add   r5
000B:AFDB 15 9E        lob
000B:AFDD 3D A6 C3     lms   r6,(0186)
000B:AFE0 E6           dec   r6
000B:AFE1 0B 10        bmi   AFF3
000B:AFE3 D6           inc   r6
000B:AFE4 A0 10        ibt   r0,#0010
000B:AFE6 55           add   r5
000B:AFE7 03           lsr
000B:AFE8 03           lsr
000B:AFE9 03           lsr
000B:AFEA 03           lsr
000B:AFEB 03           lsr
000B:AFEC B6 60        sub   r0
000B:AFEE E0           dec   r0
000B:AFEF 16 3E 77     and   #07
000B:AFF2 D6           inc   r6
000B:AFF3 F0 98 01     iwt   r0,#0198
000B:AFF6 56           add   r6
000B:AFF7 3E A0 5F     sms   (00BE),r0
000B:AFFA F6 00 01     iwt   r6,#0100
000B:AFFD 94           link  #04
000B:AFFE FF 8A F2     iwt   r15,#F28A
000B:B001 01           nop
000B:B002 94           link  #04
000B:B003 FF CE A8     iwt   r15,#A8CE
000B:B006 01           nop
000B:B007 94           link  #04
000B:B008 FF 11 B0     iwt   r15,#B011
000B:B00B 01           nop
000B:B00C 3D AB 34     lms   r11,(0068)
000B:B00F 9B           jmp   r11
000B:B010 01           nop

000B:B011 3E AB 32     sms   (0064),r11
000B:B014 3D A0 C2     lms   r0,(0184)
000B:B017 11 C0        hib
000B:B019 3D A0 BF     lms   r0,(017E)
000B:B01C 3D A2 62     lms   r2,(00C4)
000B:B01F E2           dec   r2
000B:B020 0B 0D        bmi   B02F
000B:B022 C0           hib
000B:B023 A3 7F        ibt   r3,#007F
000B:B025 3D C3        xor   r3
000B:B027 D0           inc   r0
000B:B028 9E           lob
000B:B029 21 3D C3     xor   r3
000B:B02C D1           inc   r1
000B:B02D 21 9E        lob
000B:B02F 61           sub   r1
000B:B030 09 2C        beq   B05E
000B:B032 01           nop
000B:B033 3D A1 5A     lms   r1,(00B4)
000B:B036 21 B1        moves r1,r1
000B:B038 08 1F        bne   B059
000B:B03A 01           nop
000B:B03B 3D A1 C1     lms   r1,(0182)
000B:B03E 21 B1        moves r1,r1
000B:B040 09 17        beq   B059
000B:B042 01           nop
000B:B043 A2 01        ibt   r2,#0001
000B:B045 4D           swap
000B:B046 0A 06        bpl   B04E
000B:B048 4D           swap
000B:B049 4F           not
000B:B04A D0           inc   r0
000B:B04B 9E           lob
000B:B04C A2 FF        ibt   r2,#FFFF
000B:B04E A3 20        ibt   r3,#0020
000B:B050 63           sub   r3
000B:B051 0C 06        bcc   B059
000B:B053 01           nop
000B:B054 B1 52        add   r2
000B:B056 3E 73        and   #03
000B:B058 90           sbk
000B:B059 A0 FE        ibt   r0,#FFFE
000B:B05B 05 02        bra   B05F

000B:B05D 01           nop

000B:B05E 51           add   r1
000B:B05F 3E A0 C6     sms   (018C),r0
000B:B062 3D A9 46     lms   r9,(008C)
000B:B065 3D AA 48     lms   r10,(0090)
000B:B068 A2 00        ibt   r2,#0000
000B:B06A 3E A2 7F     sms   (00FE),r2
000B:B06D 3E A2 80     sms   (0100),r2
000B:B070 3E A2 81     sms   (0102),r2
000B:B073 3E A2 7D     sms   (00FA),r2
000B:B076 3E A2 C9     sms   (0192),r2
000B:B079 A3 00        ibt   r3,#0000
000B:B07B FE 6A EB     iwt   r14,#EB6A
000B:B07E A1 02        ibt   r1,#0002
000B:B080 A4 FF        ibt   r4,#FFFF
000B:B082 94           link  #04
000B:B083 FF 9E B3     iwt   r15,#B39E
000B:B086 3E F4 80 00  sm    (0080),r4
000B:B08A 94           link  #04
000B:B08B FF A9 B3     iwt   r15,#B3A9
000B:B08E 3E A4 FF     sms   (01FE),r4
000B:B091 94           link  #04
000B:B092 FF A9 B3     iwt   r15,#B3A9
000B:B095 3E A4 00     sms   (0000),r4
000B:B098 94           link  #04
000B:B099 FF A9 B3     iwt   r15,#B3A9
000B:B09C 3E F4 C0 00  sm    (00C0),r4
000B:B0A0 94           link  #04
000B:B0A1 FF A9 B3     iwt   r15,#B3A9
000B:B0A4 3E 3D A0 80  lms   r0,(0100)
000B:B0A8 15 03        lsr
000B:B0AA 04           rol
000B:B0AB 90           sbk
000B:B0AC B2 03        lsr
000B:B0AE 22 04        rol
000B:B0B0 B3 03        lsr
000B:B0B2 23 04        rol
000B:B0B4 A1 03        ibt   r1,#0003
000B:B0B6 A4 FF        ibt   r4,#FFFF
000B:B0B8 94           link  #04
000B:B0B9 FF A9 B3     iwt   r15,#B3A9
000B:B0BC 3E A4 40     sms   (0080),r4
000B:B0BF 94           link  #04
000B:B0C0 FF A9 B3     iwt   r15,#B3A9
000B:B0C3 3E A4 FF     sms   (01FE),r4
000B:B0C6 94           link  #04
000B:B0C7 FF A9 B3     iwt   r15,#B3A9
000B:B0CA 3E 3D A0 DA  lms   r0,(01B4)
000B:B0CE 3E 60        sub   #00
000B:B0D0 09 04        beq   B0D6
000B:B0D2 01           nop
000B:B0D3 22 3E C7     or    #07
000B:B0D6 3D A0 C6     lms   r0,(018C)
000B:B0D9 3E A0 C7     sms   (018E),r0
000B:B0DC 3D A0 C9     lms   r0,(0192)
000B:B0DF E0           dec   r0
000B:B0E0 0A 04        bpl   B0E6
000B:B0E2 60           sub   r0
000B:B0E3 3E A0 C8     sms   (0190),r0
000B:B0E6 3D A7 C5     lms   r7,(018A)
000B:B0E9 A4 00        ibt   r4,#0000
000B:B0EB 3D A1 C1     lms   r1,(0182)
000B:B0EE B1 03        lsr
000B:B0F0 0C 07        bcc   B0F9
000B:B0F2 01           nop
000B:B0F3 29 1E        move  r14,r9
000B:B0F5 2A 19        move  r9,r10
000B:B0F7 2E 1A        move  r10,r14
000B:B0F9 F0 31 FC     iwt   r0,#FC31
000B:B0FC 1E 51        add   r1
000B:B0FE EF           getb
000B:B0FF 20 18        move  r8,r0
000B:B101 1E 03        lsr
000B:B103 0C 04        bcc   B109
000B:B105 01           nop
000B:B106 2A 4F        not
000B:B108 DA           inc   r10
000B:B109 EE           dec   r14
000B:B10A 0B 04        bmi   B110
000B:B10C 01           nop
000B:B10D 29 4F        not
000B:B10F D9           inc   r9
000B:B110 AC 00        ibt   r12,#0000
000B:B112 B1 3E 8A     mult  #0A
000B:B115 FE 35 FC     iwt   r14,#FC35
000B:B118 1E 5E        add   r14
000B:B11A EF           getb
000B:B11B DE           inc   r14
000B:B11C 3D EF        getbh
000B:B11E 72           and   r2
000B:B11F 09 13        beq   B134
000B:B121 DE           inc   r14
000B:B122 73           and   r3
000B:B123 09 05        beq   B12A
000B:B125 60           sub   r0
000B:B126 3D A0 62     lms   r0,(00C4)
000B:B129 E0           dec   r0
000B:B12A 15 4F        not
000B:B12C D5           inc   r5
000B:B12D A4 00        ibt   r4,#0000
000B:B12F 60           sub   r0
000B:B130 FF C2 B1     iwt   r15,#B1C2
000B:B133 01           nop
000B:B134 EF           getb
000B:B135 DE           inc   r14
000B:B136 3D EF        getbh
000B:B138 16 72        and   r2
000B:B13A 08 22        bne   B15E
000B:B13C DE           inc   r14
000B:B13D EF           getb
000B:B13E DE           inc   r14
000B:B13F 3D EF        getbh
000B:B141 72           and   r2
000B:B142 08 05        bne   B149
000B:B144 01           nop
000B:B145 FF E1 B1     iwt   r15,#B1E1
000B:B148 01           nop
000B:B149 3D A5 62     lms   r5,(00C4)
000B:B14C E5           dec   r5
000B:B14D BA 3E 7F     and   #0F
000B:B150 09 08        beq   B15A
000B:B152 01           nop
000B:B153 3E 78        and   #08
000B:B155 09 03        beq   B15A
000B:B157 E0           dec   r0
000B:B158 A0 01        ibt   r0,#0001
000B:B15A FF F1 B1     iwt   r15,#B1F1
000B:B15D 01           nop
000B:B15E B9 1D 3E 7F  and   #0F
000B:B162 66           sub   r6
000B:B163 08 1C        bne   B181
000B:B165 01           nop
000B:B166 EF           getb
000B:B167 DE           inc   r14
000B:B168 3D EF        getbh
000B:B16A 72           and   r2
000B:B16B 08 DC        bne   B149
000B:B16D 01           nop
000B:B16E 3D A0 62     lms   r0,(00C4)
000B:B171 E0           dec   r0
000B:B172 15 4F        not
000B:B174 D5           inc   r5
000B:B175 B9 3E 78     and   #08
000B:B178 09 37        beq   B1B1
000B:B17A 01           nop
000B:B17B 2D 3F CF     xor   #0F
000B:B17E 05 31        bra   B1B1

000B:B180 01           nop

000B:B181 EF           getb
000B:B182 DE           inc   r14
000B:B183 3D EF        getbh
000B:B185 72           and   r2
000B:B186 08 C1        bne   B149
000B:B188 DE           inc   r14
000B:B189 EF           getb
000B:B18A DE           inc   r14
000B:B18B 3D EF        getbh
000B:B18D A5 FF        ibt   r5,#FFFF
000B:B18F 72           and   r2
000B:B190 09 06        beq   B198
000B:B192 DE           inc   r14
000B:B193 A5 01        ibt   r5,#0001
000B:B195 2D 3F CF     xor   #0F
000B:B198 BD 3E 63     sub   #03
000B:B19B 3E 65        sub   #05
000B:B19D 0C 12        bcc   B1B1
000B:B19F 01           nop
000B:B1A0 EF           getb
000B:B1A1 DE           inc   r14
000B:B1A2 3D EF        getbh
000B:B1A4 72           and   r2
000B:B1A5 08 0A        bne   B1B1
000B:B1A7 01           nop
000B:B1A8 3D A0 5A     lms   r0,(00B4)
000B:B1AB 3D C5        xor   r5
000B:B1AD 0B 02        bmi   B1B1
000B:B1AF 01           nop
000B:B1B0 DC           inc   r12
000B:B1B1 F0 C1 FC     iwt   r0,#FCC1
000B:B1B4 5D           add   r13
000B:B1B5 1E 5D        add   r13
000B:B1B7 14 EF        getb
000B:B1B9 25 B5        moves r5,r5
000B:B1BB 0B 03        bmi   B1C0
000B:B1BD 24 4F        not
000B:B1BF D4           inc   r4
000B:B1C0 DE           inc   r14
000B:B1C1 EF           getb
000B:B1C2 20 16        move  r6,r0
000B:B1C4 BA 3E 7F     and   #0F
000B:B1C7 1E 3E 6C     sub   #0C
000B:B1CA 0C 04        bcc   B1D0
000B:B1CC 01           nop
000B:B1CD AE 10        ibt   r14,#0010
000B:B1CF 6E           sub   r14
000B:B1D0 66           sub   r6
000B:B1D1 1E 3E 68     sub   #08
000B:B1D4 0A 0B        bpl   B1E1
000B:B1D6 01           nop
000B:B1D7 3D AE 60     lms   r14,(00C0)
000B:B1DA EE           dec   r14
000B:B1DB 0B 08        bmi   B1E5
000B:B1DD DE           inc   r14
000B:B1DE 0C 05        bcc   B1E5
000B:B1E0 01           nop
000B:B1E1 FF 41 B2     iwt   r15,#B241
000B:B1E4 01           nop
000B:B1E5 3E 60        sub   #00
000B:B1E7 09 0A        beq   B1F3
000B:B1E9 01           nop
000B:B1EA A0 FF        ibt   r0,#FFFF
000B:B1EC 0A 03        bpl   B1F1
000B:B1EE 01           nop
000B:B1EF A0 01        ibt   r0,#0001
000B:B1F1 1A 5A        add   r10
000B:B1F3 60           sub   r0
000B:B1F4 3E A0 60     sms   (00C0),r0
000B:B1F7 EC           dec   r12
000B:B1F8 0A 0B        bpl   B205
000B:B1FA DC           inc   r12
000B:B1FB F0 B9 FC     iwt   r0,#FCB9
000B:B1FE 1E 51        add   r1
000B:B200 EF           getb
000B:B201 77           and   r7
000B:B202 09 0F        beq   B213
000B:B204 01           nop
000B:B205 B1 55        add   r5
000B:B207 3E 73        and   #03
000B:B209 3E A0 C1     sms   (0182),r0
000B:B20C EC           dec   r12
000B:B20D 0A 04        bpl   B213
000B:B20F DC           inc   r12
000B:B210 3E A0 C0     sms   (0180),r0
000B:B213 B1 3E 87     mult  #07
000B:B216 FE 5D FC     iwt   r14,#FC5D
000B:B219 1E 5E        add   r14
000B:B21B EF           getb
000B:B21C DE           inc   r14
000B:B21D 3D EF        getbh
000B:B21F 72           and   r2
000B:B220 09 08        beq   B22A
000B:B222 DE           inc   r14
000B:B223 73           and   r3
000B:B224 08 30        bne   B256
000B:B226 15           to    r5
000B:B227 05 3F        bra   B268

000B:B229 60           sub   r0

000B:B22A EF           getb
000B:B22B DE           inc   r14
000B:B22C 3D EF        getbh
000B:B22E 16 72        and   r2
000B:B230 08 20        bne   B252
000B:B232 DE           inc   r14
000B:B233 DE           inc   r14
000B:B234 DE           inc   r14
000B:B235 EF           getb
000B:B236 3D F6 73 00  lm    r6,(0073)
000B:B23A 76           and   r6
000B:B23B 09 3F        beq   B27C
000B:B23D 01           nop
000B:B23E 2A 3E 64     sub   #04
000B:B241 60           sub   r0
000B:B242 3E A0 C1     sms   (0182),r0
000B:B245 3E A0 C0     sms   (0180),r0
000B:B248 F0 08 00     iwt   r0,#0008
000B:B24B 3E A0 60     sms   (00C0),r0
000B:B24E FF 7C B2     iwt   r15,#B27C
000B:B251 01           nop
000B:B252 66           sub   r6
000B:B253 08 07        bne   B25C
000B:B255 01           nop
000B:B256 3D A5 62     lms   r5,(00C4)
000B:B259 05 0D        bra   B268

000B:B25B E5           dec   r5

000B:B25C EF           getb
000B:B25D DE           inc   r14
000B:B25E 3D EF        getbh
000B:B260 A5 01        ibt   r5,#0001
000B:B262 72           and   r2
000B:B263 08 03        bne   B268
000B:B265 01           nop
000B:B266 A5 FF        ibt   r5,#FFFF
000B:B268 F0 BD FC     iwt   r0,#FCBD
000B:B26B 1E 51        add   r1
000B:B26D EF           getb
000B:B26E 77           and   r7
000B:B26F 09 0B        beq   B27C
000B:B271 01           nop
000B:B272 B1 55        add   r5
000B:B274 3E 73        and   #03
000B:B276 3E A0 C1     sms   (0182),r0
000B:B279 3E A0 C0     sms   (0180),r0
000B:B27C A0 10        ibt   r0,#0010
000B:B27E 81           mult  r1
000B:B27F FE 79 FC     iwt   r14,#FC79
000B:B282 1E 5E        add   r14
000B:B284 EF           getb
000B:B285 DE           inc   r14
000B:B286 3D EF        getbh
000B:B288 1C 72        and   r2
000B:B28A 08 05        bne   B291
000B:B28C 01           nop
000B:B28D FF 67 B3     iwt   r15,#B367
000B:B290 01           nop
000B:B291 20 16        move  r6,r0
000B:B293 1B 6C        sub   r12
000B:B295 BC 73        and   r3
000B:B297 1C 3D CC     xor   r12
000B:B29A 26 6C        sub   r12
000B:B29C B9 3E 7F     and   #0F
000B:B29F 08 22        bne   B2C3
000B:B2A1 DE           inc   r14
000B:B2A2 2C BC        moves r12,r12
000B:B2A4 09 39        beq   B2DF
000B:B2A6 01           nop
000B:B2A7 26 B6        moves r6,r6
000B:B2A9 08 07        bne   B2B2
000B:B2AB 01           nop
000B:B2AC 2E 3E 56     add   #06
000B:B2AF 05 77        bra   B328

000B:B2B1 01           nop

000B:B2B2 EF           getb
000B:B2B3 DE           inc   r14
000B:B2B4 3D EF        getbh
000B:B2B6 DE           inc   r14
000B:B2B7 DE           inc   r14
000B:B2B8 A5 01        ibt   r5,#0001
000B:B2BA 7C           and   r12
000B:B2BB 08 6B        bne   B328
000B:B2BD DE           inc   r14
000B:B2BE A5 FF        ibt   r5,#FFFF
000B:B2C0 05 66        bra   B328

000B:B2C2 01           nop

000B:B2C3 A5 01        ibt   r5,#0001
000B:B2C5 3E 78        and   #08
000B:B2C7 08 05        bne   B2CE
000B:B2C9 01           nop
000B:B2CA A5 FF        ibt   r5,#FFFF
000B:B2CC DE           inc   r14
000B:B2CD DE           inc   r14
000B:B2CE EF           getb
000B:B2CF DE           inc   r14
000B:B2D0 3D EF        getbh
000B:B2D2 72           and   r2
000B:B2D3 09 0A        beq   B2DF
000B:B2D5 01           nop
000B:B2D6 29 55        add   r5
000B:B2D8 FE 7F FC     iwt   r14,#FC7F
000B:B2DB 7C           and   r12
000B:B2DC 08 4A        bne   B328
000B:B2DE 01           nop
000B:B2DF 2B BB        moves r11,r11
000B:B2E1 09 42        beq   B325
000B:B2E3 01           nop
000B:B2E4 A0 10        ibt   r0,#0010
000B:B2E6 81           mult  r1
000B:B2E7 FE 7F FC     iwt   r14,#FC7F
000B:B2EA 1E 5E        add   r14
000B:B2EC EF           getb
000B:B2ED DE           inc   r14
000B:B2EE 3D EF        getbh
000B:B2F0 72           and   r2
000B:B2F1 08 74        bne   B367
000B:B2F3 EE           dec   r14
000B:B2F4 EE           dec   r14
000B:B2F5 3D EF        getbh
000B:B2F7 EE           dec   r14
000B:B2F8 3E EF        getbl
000B:B2FA 2E 3E 54     add   #04
000B:B2FD A5 01        ibt   r5,#0001
000B:B2FF 72           and   r2
000B:B300 09 05        beq   B307
000B:B302 01           nop
000B:B303 A5 FF        ibt   r5,#FFFF
000B:B305 DE           inc   r14
000B:B306 DE           inc   r14
000B:B307 EF           getb
000B:B308 77           and   r7
000B:B309 08 5C        bne   B367
000B:B30B 01           nop
000B:B30C 2E 3E 54     add   #04
000B:B30F EF           getb
000B:B310 DE           inc   r14
000B:B311 3D EF        getbh
000B:B313 72           and   r2
000B:B314 08 51        bne   B367
000B:B316 60           sub   r0
000B:B317 29 55        add   r5
000B:B319 3E A0 C1     sms   (0182),r0
000B:B31C 3E A0 C0     sms   (0180),r0
000B:B31F F0 08 00     iwt   r0,#0008
000B:B322 3E A0 60     sms   (00C0),r0
000B:B325 05 40        bra   B367

000B:B327 01           nop

000B:B328 EF           getb
000B:B329 DE           inc   r14
000B:B32A 3D EF        getbh
000B:B32C 1D 72        and   r2
000B:B32E 08 09        bne   B339
000B:B330 DE           inc   r14
000B:B331 2C BC        moves r12,r12
000B:B333 09 0D        beq   B342
000B:B335 01           nop
000B:B336 05 BB        bra   B2F3

000B:B338 EE           dec   r14

000B:B339 6D           sub   r13
000B:B33A 09 2B        beq   B367
000B:B33C 01           nop
000B:B33D 26 B6        moves r6,r6
000B:B33F 08 13        bne   B354
000B:B341 01           nop
000B:B342 A5 01        ibt   r5,#0001
000B:B344 EF           getb
000B:B345 DE           inc   r14
000B:B346 77           and   r7
000B:B347 08 17        bne   B360
000B:B349 DE           inc   r14
000B:B34A A5 FF        ibt   r5,#FFFF
000B:B34C EF           getb
000B:B34D 77           and   r7
000B:B34E 08 10        bne   B360
000B:B350 01           nop
000B:B351 05 14        bra   B367

000B:B353 01           nop

000B:B354 25 B5        moves r5,r5
000B:B356 0A 03        bpl   B35B
000B:B358 01           nop
000B:B359 DE           inc   r14
000B:B35A DE           inc   r14
000B:B35B EF           getb
000B:B35C 77           and   r7
000B:B35D 09 08        beq   B367
000B:B35F 01           nop
000B:B360 B1 55        add   r5
000B:B362 3E 73        and   #03
000B:B364 3E A0 C1     sms   (0182),r0
000B:B367 B8 03        lsr
000B:B369 0C 04        bcc   B36F
000B:B36B 03           lsr
000B:B36C 2A 4F        not
000B:B36E DA           inc   r10
000B:B36F 0C 04        bcc   B375
000B:B371 01           nop
000B:B372 29 4F        not
000B:B374 D9           inc   r9
000B:B375 B1 03        lsr
000B:B377 0C 07        bcc   B380
000B:B379 01           nop
000B:B37A 29 1E        move  r14,r9
000B:B37C 2A 19        move  r9,r10
000B:B37E 2E 1A        move  r10,r14
000B:B380 3D A0 C1     lms   r0,(0182)
000B:B383 FE 21 FC     iwt   r14,#FC21
000B:B386 1E 5E        add   r14
000B:B388 EF           getb
000B:B389 3E A0 5B     sms   (00B6),r0
000B:B38C 54           add   r4
000B:B38D 9E           lob
000B:B38E 3D AE 62     lms   r14,(00C4)
000B:B391 EE           dec   r14
000B:B392 0A 03        bpl   B397
000B:B394 4D           swap
000B:B395 4F           not
000B:B396 D0           inc   r0
000B:B397 3E A0 C2     sms   (0184),r0
000B:B39A FF 14 D2     iwt   r15,#D214
000B:B39D 01           nop
000B:B39E 3E AB 31     sms   (0062),r11
000B:B3A1 94           link  #04
000B:B3A2 FF 16 D3     iwt   r15,#D316
000B:B3A5 02           cache
000B:B3A6 05 0A        bra   B3B2

000B:B3A8 22 3E AB 31  sms   (0062),r11
000B:B3AC 94           link  #04
000B:B3AD FF 17 D3     iwt   r15,#D317
000B:B3B0 3F 22 52     adc   #02
000B:B3B3 71           and   r1
000B:B3B4 09 02        beq   B3B8
000B:B3B6 01           nop
000B:B3B7 D2           inc   r2
000B:B3B8 94           link  #04
000B:B3B9 FF EC D4     iwt   r15,#D4EC
000B:B3BC 01           nop
000B:B3BD 23 53        add   r3
000B:B3BF F0 00 F8     iwt   r0,#F800
000B:B3C2 77           and   r7
000B:B3C3 C0           hib
000B:B3C4 03           lsr
000B:B3C5 D0           inc   r0
000B:B3C6 1F 5F        add   r15
000B:B3C8 FF 80 B4     iwt   r15,#B480
000B:B3CB 01           nop

DATA_0BB3CC:         db $01, $80, $B4, $01, $01, $80, $B4, $01
DATA_0BB3D4:         db $01, $80, $B4, $01, $01, $80, $B4, $01
DATA_0BB3DC:         db $01, $80, $B4, $01, $01, $28, $D6, $01
DATA_0BB3E4:         db $01, $80, $B4, $01, $01, $39, $B4, $01
DATA_0BB3EC:         db $01, $80, $B4, $01, $01, $83, $D8, $01
DATA_0BB3F4:         db $01, $80, $B4, $01, $01, $80, $B4, $01
DATA_0BB3FC:         db $01, $80, $B4, $01, $01, $80, $B4, $01
DATA_0BB404:         db $01, $80, $B4, $01, $01, $80, $B4, $01
DATA_0BB40C:         db $01, $80, $B4, $01, $01, $80, $B4, $01
DATA_0BB414:         db $01, $80, $B4, $01, $01, $80, $B4, $01
DATA_0BB41C:         db $01, $9A, $D5, $01, $01, $1F, $D6, $01
DATA_0BB424:         db $01, $80, $B4, $01, $01, $80, $B4, $01
DATA_0BB42C:         db $01, $80, $B4, $01, $01, $80, $B4, $01
DATA_0BB434:         db $01, $80, $B4, $01, $01

000B:B439 D3           inc   r3
000B:B43A 3D A0 C6     lms   r0,(018C)
000B:B43D 64           sub   r4
000B:B43E 08 40        bne   B480
000B:B440 54           add   r4
000B:B441 3D A5 C7     lms   r5,(018E)
000B:B444 65           sub   r5
000B:B445 08 39        bne   B480
000B:B447 01           nop
000B:B448 3D A0 5A     lms   r0,(00B4)
000B:B44B 3E 60        sub   #00
000B:B44D 09 31        beq   B480
000B:B44F 01           nop
000B:B450 3D A0 C9     lms   r0,(0192)
000B:B453 D0           inc   r0
000B:B454 90           sbk
000B:B455 3D A0 C8     lms   r0,(0190)
000B:B458 A5 02        ibt   r5,#0002
000B:B45A 65           sub   r5
000B:B45B 0D 05        bcs   B462
000B:B45D 55           add   r5
000B:B45E D0           inc   r0
000B:B45F 05 1F        bra   B480

000B:B461 90           sbk
000B:B462 E2           dec   r2
000B:B463 E3           dec   r3
000B:B464 3D A0 54     lms   r0,(00A8)
000B:B467 4F           not
000B:B468 D0           inc   r0
000B:B469 3D 96        div2
000B:B46B 3D 96        div2
000B:B46D 3E A0 0E     sms   (001C),r0
000B:B470 A0 80        ibt   r0,#FF80
000B:B472 3E A0 0F     sms   (001E),r0
000B:B475 3E A1 21     sms   (0042),r1
000B:B478 94           link  #04
000B:B479 FF 81 DF     iwt   r15,#DF81
000B:B47C 01           nop
000B:B47D 3D A1 21     lms   r1,(0042)
000B:B480 3D AB 31     lms   r11,(0062)
000B:B483 9B           jmp   r11
000B:B484 01           nop

000B:B485 60           sub   r0
000B:B486 3E A0 69     sms   (00D2),r0
000B:B489 3D A6 5A     lms   r6,(00B4)
000B:B48C 3D A0 C3     lms   r0,(0186)
000B:B48F 56           add   r6
000B:B490 90           sbk
000B:B491 C0           hib
000B:B492 3E 77        and   #07
000B:B494 3E A0 7C     sms   (00F8),r0
000B:B497 3D A5 60     lms   r5,(00C0)
000B:B49A E5           dec   r5
000B:B49B 0A 09        bpl   B4A6
000B:B49D D5           inc   r5
000B:B49E 94           link  #04
000B:B49F FF F1 CC     iwt   r15,#CCF1
000B:B4A2 01           nop
000B:B4A3 05 0E        bra   B4B3

000B:B4A5 01           nop

000B:B4A6 3E A6 54     sms   (00A8),r6
000B:B4A9 3D A2 55     lms   r2,(00AA)
000B:B4AC A0 28        ibt   r0,#0028
000B:B4AE 94           link  #04
000B:B4AF FF 27 CE     iwt   r15,#CE27
000B:B4B2 01           nop
000B:B4B3 3D A0 60     lms   r0,(00C0)
000B:B4B6 3E A0 C1     sms   (0182),r0
000B:B4B9 3D A0 5B     lms   r0,(00B6)
000B:B4BC 3E A0 C2     sms   (0184),r0
000B:B4BF 94           link  #04
000B:B4C0 FF 64 CF     iwt   r15,#CF64
000B:B4C3 01           nop
000B:B4C4 3D A0 60     lms   r0,(00C0)
000B:B4C7 E0           dec   r0
000B:B4C8 0A 49        bpl   B513
000B:B4CA 01           nop
000B:B4CB 3D A0 C1     lms   r0,(0182)
000B:B4CE 3E 60        sub   #00
000B:B4D0 08 41        bne   B513
000B:B4D2 01           nop
000B:B4D3 3D A0 5B     lms   r0,(00B6)
000B:B4D6 3D A1 C2     lms   r1,(0184)
000B:B4D9 61           sub   r1
000B:B4DA 95           sex
000B:B4DB 0B 20        bmi   B4FD
000B:B4DD 01           nop
000B:B4DE A1 21        ibt   r1,#0021
000B:B4E0 61           sub   r1
000B:B4E1 0C 30        bcc   B513
000B:B4E3 01           nop
000B:B4E4 3D A0 C0     lms   r0,(0180)
000B:B4E7 E0           dec   r0
000B:B4E8 0A 29        bpl   B513
000B:B4EA 01           nop
000B:B4EB F0 80 00     iwt   r0,#0080
000B:B4EE 90           sbk
000B:B4EF 3E A0 FB     sms   (01F6),r0
000B:B4F2 A0 3C        ibt   r0,#003C
000B:B4F4 3E A0 3D     sms   (007A),r0
000B:B4F7 F1 00 FC     iwt   r1,#FC00
000B:B4FA 05 0B        bra   B507

000B:B4FC 60           sub   r0

000B:B4FD A1 1F        ibt   r1,#001F
000B:B4FF 51           add   r1
000B:B500 0A 11        bpl   B513
000B:B502 60           sub   r0
000B:B503 3D F1 3C 1E  lm    r1,(1E3C)
000B:B507 3E A0 BF     sms   (017E),r0
000B:B50A 3E A1 55     sms   (00AA),r1
000B:B50D F0 08 00     iwt   r0,#0008
000B:B510 3E A0 60     sms   (00C0),r0
000B:B513 3D A0 C0     lms   r0,(0180)
000B:B516 E0           dec   r0
000B:B517 0A 05        bpl   B51E
000B:B519 D0           inc   r0
000B:B51A FF CA B5     iwt   r15,#B5CA
000B:B51D 01           nop
000B:B51E 3D A1 60     lms   r1,(00C0)
000B:B521 E1           dec   r1
000B:B522 0A 5A        bpl   B57E
000B:B524 D1           inc   r1
000B:B525 3E 52        add   #02
000B:B527 3E A0 C0     sms   (0180),r0
000B:B52A F1 00 01     iwt   r1,#0100
000B:B52D 61           sub   r1
000B:B52E 0C 4B        bcc   B57B
000B:B530 51           add   r1
000B:B531 3D A0 FB     lms   r0,(01F6)
000B:B534 E0           dec   r0
000B:B535 0A 42        bpl   B579
000B:B537 01           nop
000B:B538 3D F0 B7 00  lm    r0,(00B7)
000B:B53C 4F           not
000B:B53D D0           inc   r0
000B:B53E 3E A0 BF     sms   (017E),r0
000B:B541 A0 0A        ibt   r0,#000A
000B:B543 3E A0 3D     sms   (007A),r0
000B:B546 F5 CB 01     iwt   r5,#01CB
000B:B549 94           link  #04
000B:B54A FF C4 F0     iwt   r15,#F0C4
000B:B54D 01           nop
000B:B54E 3D A5 46     lms   r5,(008C)
000B:B551 F0 A2 10     iwt   r0,#10A2
000B:B554 51           add   r1
000B:B555 B5 30        stw   (r0)
000B:B557 3D A0 48     lms   r0,(0090)
000B:B55A 15 3E 5C     add   #0C
000B:B55D F0 42 11     iwt   r0,#1142
000B:B560 51           add   r1
000B:B561 B5 30        stw   (r0)
000B:B563 3D A5 0E     lms   r5,(001C)
000B:B566 A5 07        ibt   r5,#0007
000B:B568 F0 4C 1E     iwt   r0,#1E4C
000B:B56B 51           add   r1
000B:B56C B5 30        stw   (r0)
000B:B56E A5 04        ibt   r5,#0004
000B:B570 F0 82 17     iwt   r0,#1782
000B:B573 51           add   r1
000B:B574 B5 30        stw   (r0)
000B:B576 05 03        bra   B57B

000B:B578 60           sub   r0

000B:B579 21 10        move  r0,r1
000B:B57B 3E A0 C0     sms   (0180),r0
000B:B57E F2 90 01     iwt   r2,#0190
000B:B581 F1 80 00     iwt   r1,#0080
000B:B584 61           sub   r1
000B:B585 09 3C        beq   B5C3
000B:B587 51           add   r1
000B:B588 20 16        move  r6,r0
000B:B58A A2 20        ibt   r2,#0020
000B:B58C A3 00        ibt   r3,#0000
000B:B58E A8 10        ibt   r8,#0010
000B:B590 A9 10        ibt   r9,#0010
000B:B592 FC 21 20     iwt   r12,#2021
000B:B595 AD 54        ibt   r13,#0054
000B:B597 94           link  #04
000B:B598 FF 4C F3     iwt   r15,#F34C
000B:B59B 01           nop
000B:B59C A2 20        ibt   r2,#0020
000B:B59E A3 00        ibt   r3,#0000
000B:B5A0 3D A0 5A     lms   r0,(00B4)
000B:B5A3 50           add   r0
000B:B5A4 3D A5 BF     lms   r5,(017E)
000B:B5A7 55           add   r5
000B:B5A8 90           sbk
000B:B5A9 15 C0        hib
000B:B5AB F6 00 01     iwt   r6,#0100
000B:B5AE 26 14        move  r4,r6
000B:B5B0 FC 01 00     iwt   r12,#0001
000B:B5B3 AD 54        ibt   r13,#0054
000B:B5B5 A1 00        ibt   r1,#0000
000B:B5B7 94           link  #04
000B:B5B8 FF 8E F2     iwt   r15,#F28E
000B:B5BB 01           nop
000B:B5BC 60           sub   r0
000B:B5BD 3E A0 92     sms   (0124),r0
000B:B5C0 F2 88 01     iwt   r2,#0188
000B:B5C3 3E A2 5F     sms   (00BE),r2
000B:B5C6 FF 36 B6     iwt   r15,#B636
000B:B5C9 01           nop
000B:B5CA 3D F0 B7 00  lm    r0,(00B7)
000B:B5CE 1A 4F        not
000B:B5D0 DA           inc   r10
000B:B5D1 3D A0 5A     lms   r0,(00B4)
000B:B5D4 14 3D 96     div2
000B:B5D7 14 64        sub   r4
000B:B5D9 94           link  #04
000B:B5DA FF D9 9B     iwt   r15,#9BD9
000B:B5DD 01           nop
000B:B5DE 3D A0 60     lms   r0,(00C0)
000B:B5E1 E0           dec   r0
000B:B5E2 0A 26        bpl   B60A
000B:B5E4 60           sub   r0
000B:B5E5 FC 01 20     iwt   r12,#2001
000B:B5E8 3D A0 39     lms   r0,(0072)
000B:B5EB 3D A1 42     lms   r1,(0084)
000B:B5EE 71           and   r1
000B:B5EF 09 2C        beq   B61D
000B:B5F1 01           nop
000B:B5F2 A0 49        ibt   r0,#0049
000B:B5F4 3E A0 3D     sms   (007A),r0
000B:B5F7 F0 C0 FC     iwt   r0,#FCC0
000B:B5FA 3E A0 55     sms   (00AA),r0
000B:B5FD F0 06 00     iwt   r0,#0006
000B:B600 3E A0 60     sms   (00C0),r0
000B:B603 A0 0A        ibt   r0,#000A
000B:B605 3F DF        romb
000B:B607 05 14        bra   B61D

000B:B609 01           nop

000B:B60A 3E A0 BF     sms   (017E),r0
000B:B60D FC 21 00     iwt   r12,#0021
000B:B610 3D A0 55     lms   r0,(00AA)
000B:B613 F1 80 00     iwt   r1,#0080
000B:B616 61           sub   r1
000B:B617 0B 04        bmi   B61D
000B:B619 01           nop
000B:B61A FC 40 40     iwt   r12,#4040
000B:B61D AD 54        ibt   r13,#0054
000B:B61F A2 20        ibt   r2,#0020
000B:B621 A3 00        ibt   r3,#0000
000B:B623 3D A0 BF     lms   r0,(017E)
000B:B626 15 C0        hib
000B:B628 F6 00 01     iwt   r6,#0100
000B:B62B 94           link  #04
000B:B62C FF 8A F2     iwt   r15,#F28A
000B:B62F 01           nop
000B:B630 F0 88 01     iwt   r0,#0188
000B:B633 3E A0 5F     sms   (00BE),r0
000B:B636 A0 0A        ibt   r0,#000A
000B:B638 3F DF        romb
000B:B63A 3D A0 60     lms   r0,(00C0)
000B:B63D E0           dec   r0
000B:B63E 0B 10        bmi   B650
000B:B640 01           nop
000B:B641 3D A0 5A     lms   r0,(00B4)
000B:B644 F1 00 02     iwt   r1,#0200
000B:B647 61           sub   r1
000B:B648 0B 10        bmi   B65A
000B:B64A 51           add   r1
000B:B64B 3E 64        sub   #04
000B:B64D 05 0B        bra   B65A

000B:B64F 90           sbk

000B:B650 A0 06        ibt   r0,#0006
000B:B652 3E A0 7D     sms   (00FA),r0
000B:B655 94           link  #04
000B:B656 FF C4 E2     iwt   r15,#E2C4
000B:B659 01           nop
000B:B65A 60           sub   r0
000B:B65B 00           stop
000B:B65C 01           nop

DATA_0BB65D:         db $01, $01, $01, $01, $01, $01, $01, $01
DATA_0BB665:         db $01, $01, $01, $01, $01, $01, $01, $01
DATA_0BB66D:         db $01, $01, $01, $01, $01, $01, $01, $01
DATA_0BB675:         db $01, $01, $01, $01, $01, $01, $01, $01
DATA_0BB67D:         db $01, $01, $01, $01, $01, $01, $01, $01
DATA_0BB685:         db $01, $01, $01, $01, $01, $01, $01, $01
DATA_0BB68D:         db $01, $01, $01, $01, $01, $01, $01, $01
DATA_0BB695:         db $01, $01, $01, $01, $01, $01, $01, $01
DATA_0BB69D:         db $01, $01, $01, $01, $01, $01, $01, $01
DATA_0BB6A5:         db $01, $01, $01, $01, $01, $01, $01, $01
DATA_0BB6AD:         db $01, $01, $01, $01, $01, $01, $01, $01
DATA_0BB6B5:         db $01, $01, $01, $01, $01, $01, $01, $01
DATA_0BB6BD:         db $01, $01, $01, $01, $01, $01, $01, $01
DATA_0BB6C5:         db $01, $01, $01, $01, $01, $01, $01, $01
DATA_0BB6CD:         db $01, $01, $01, $01, $01, $01, $01, $01
DATA_0BB6D5:         db $01, $01, $01, $01, $01, $01, $01, $01
DATA_0BB6DD:         db $01, $01, $01, $01, $01, $01, $01, $01
DATA_0BB6E5:         db $01, $01, $01, $01, $01, $01, $01, $01
DATA_0BB6ED:         db $01, $01, $01, $01, $01, $01, $01, $01
DATA_0BB6F5:         db $01, $01, $01, $01, $01, $01, $01, $01
DATA_0BB6FD:         db $01, $01, $01, $01, $01, $01, $01, $01
DATA_0BB705:         db $01, $01, $01, $01, $01, $01, $01, $01
DATA_0BB70D:         db $01, $01, $01, $01, $01, $01, $01, $01
DATA_0BB715:         db $01, $01, $01, $01, $01, $01, $01, $01
DATA_0BB71D:         db $01, $01, $01, $01, $01, $01, $01, $01
DATA_0BB725:         db $01, $01, $01, $01, $01, $01, $01, $01
DATA_0BB72D:         db $01, $01, $01, $01, $01, $01, $01, $01
DATA_0BB735:         db $01, $01, $01, $01, $01, $01, $01, $01
DATA_0BB73D:         db $01, $01, $01, $01, $01, $01, $01, $01
DATA_0BB745:         db $01, $01, $01, $01, $01, $01, $01, $01
DATA_0BB74D:         db $01, $01, $01, $01, $01, $01, $01, $01
DATA_0BB755:         db $01, $01, $01, $01, $01, $01, $01, $01
DATA_0BB75D:         db $01, $01, $01, $01, $01, $01, $01, $01
DATA_0BB765:         db $01, $01, $01, $01, $01, $01, $01, $01
DATA_0BB76D:         db $01, $01, $01, $01, $01, $01, $01, $01
DATA_0BB775:         db $01, $01, $01, $01, $01, $01, $01, $01
DATA_0BB77D:         db $01, $01, $01, $01, $01, $01, $01, $01
DATA_0BB785:         db $01, $01, $01, $01, $01, $01, $01, $01
DATA_0BB78D:         db $01, $01, $01, $01, $01, $01, $01, $01
DATA_0BB795:         db $01, $01, $01, $01, $01, $01, $01, $01
DATA_0BB79D:         db $01, $01, $01, $01, $01, $01, $01, $01
DATA_0BB7A5:         db $01, $01, $01, $01, $01, $01, $01, $01
DATA_0BB7AD:         db $01, $01, $01, $01, $01, $01, $01, $01
DATA_0BB7B5:         db $01, $01, $01, $01, $01, $01, $01, $01
DATA_0BB7BD:         db $01, $01, $01, $01, $01, $01, $01, $01
DATA_0BB7C5:         db $01, $01, $01, $01, $01, $01, $01, $01
DATA_0BB7CD:         db $01, $01, $01, $01, $01, $01, $01, $01
DATA_0BB7D5:         db $01, $01, $01, $01, $01, $01, $01, $01
DATA_0BB7DD:         db $01, $01, $01, $01, $01, $01, $01, $01
DATA_0BB7E5:         db $01, $01, $01, $01, $01, $01, $01, $01
DATA_0BB7ED:         db $01, $01, $01, $01, $01, $01, $01, $01
DATA_0BB7F5:         db $01, $01, $01, $01, $01, $01, $01, $01
DATA_0BB7FD:         db $01, $01, $01

DATA_0BB800:         db $80, $80, $40, $00, $80, $00, $C0, $80
DATA_0BB808:         db $00, $00, $40, $80, $00, $81, $C0, $00

DATA_0BB810:         db $00, $00, $00, $00, $00, $00, $00, $00
DATA_0BB818:         db $00, $00, $02, $00, $02, $00, $02, $00
DATA_0BB820:         db $02, $00, $02, $00, $02, $00, $02, $00
DATA_0BB828:         db $04, $00, $04, $00, $04, $00, $04, $00
DATA_0BB830:         db $04, $00, $04, $00, $06, $00, $06, $00
DATA_0BB838:         db $06, $00, $06, $00, $06, $00, $06, $00
DATA_0BB840:         db $08, $00, $08, $00, $08, $00, $08, $00
DATA_0BB848:         db $08, $00, $08, $00, $0A, $00, $0A, $00
DATA_0BB850:         db $0A, $00, $0A, $00, $0A, $00, $0A, $00
DATA_0BB858:         db $0A, $00, $0C, $00, $0C, $00, $0C, $00
DATA_0BB860:         db $0C, $00, $0C, $00, $0C, $00, $0E, $00
DATA_0BB868:         db $0E, $00, $0E, $00, $0E, $00, $0E, $00
DATA_0BB870:         db $0E, $00, $0E, $00, $10, $00, $10, $00
DATA_0BB878:         db $10, $00, $10, $00, $10, $00, $10, $00
DATA_0BB880:         db $12, $00, $12, $00, $12, $00, $12, $00
DATA_0BB888:         db $12, $00, $12, $00, $12, $00, $14, $00
DATA_0BB890:         db $14, $00, $14, $00, $14, $00, $14, $00
DATA_0BB898:         db $14, $00, $14, $00, $16, $00, $16, $00
DATA_0BB8A0:         db $16, $00, $16, $00, $16, $00, $16, $00
DATA_0BB8A8:         db $18, $00, $18, $00, $18, $00, $18, $00
DATA_0BB8B0:         db $18, $00, $18, $00, $18, $00, $1A, $00
DATA_0BB8B8:         db $1A, $00, $1A, $00, $1A, $00, $1A, $00
DATA_0BB8C0:         db $1A, $00, $1A, $00, $1C, $00, $1C, $00
DATA_0BB8C8:         db $1C, $00, $1C, $00, $1C, $00, $1C, $00
DATA_0BB8D0:         db $1C, $00, $1E, $00, $1E, $00, $1E, $00
DATA_0BB8D8:         db $1E, $00, $1E, $00, $1E, $00, $1E, $00
DATA_0BB8E0:         db $1E, $00, $20, $00, $20, $00, $20, $00
DATA_0BB8E8:         db $20, $00, $20, $00, $20, $00, $20, $00
DATA_0BB8F0:         db $22, $00, $22, $00, $22, $00, $22, $00
DATA_0BB8F8:         db $22, $00, $22, $00, $22, $00, $22, $00
DATA_0BB900:         db $24, $00, $24, $00, $24, $00, $24, $00
DATA_0BB908:         db $24, $00, $24, $00, $24, $00, $26, $00
DATA_0BB910:         db $26, $00, $26, $00, $26, $00, $26, $00
DATA_0BB918:         db $26, $00, $26, $00, $26, $00, $28, $00
DATA_0BB920:         db $28, $00, $28, $00, $28, $00, $28, $00
DATA_0BB928:         db $28, $00, $28, $00, $28, $00, $2A, $00
DATA_0BB930:         db $2A, $00, $2A, $00, $2A, $00, $2A, $00
DATA_0BB938:         db $2A, $00, $2A, $00, $2A, $00, $2A, $00
DATA_0BB940:         db $2C, $00, $2C, $00, $2C, $00, $2C, $00
DATA_0BB948:         db $2C, $00, $2C, $00, $2C, $00, $2C, $00
DATA_0BB950:         db $2E, $00, $2E, $00, $2E, $00, $2E, $00
DATA_0BB958:         db $2E, $00, $2E, $00, $2E, $00, $2E, $00
DATA_0BB960:         db $2E, $00, $30, $00, $30, $00, $30, $00
DATA_0BB968:         db $30, $00, $30, $00, $30, $00, $30, $00
DATA_0BB970:         db $30, $00, $30, $00, $32, $00, $32, $00
DATA_0BB978:         db $32, $00, $32, $00, $32, $00, $32, $00
DATA_0BB980:         db $32, $00, $32, $00, $32, $00, $32, $00
DATA_0BB988:         db $34, $00, $34, $00, $34, $00, $34, $00
DATA_0BB990:         db $34, $00, $34, $00, $34, $00, $34, $00
DATA_0BB998:         db $34, $00, $34, $00, $36, $00, $36, $00
DATA_0BB9A0:         db $36, $00, $36, $00, $36, $00, $36, $00
DATA_0BB9A8:         db $36, $00, $36, $00, $36, $00, $36, $00
DATA_0BB9B0:         db $38, $00, $38, $00, $38, $00, $38, $00
DATA_0BB9B8:         db $38, $00, $38, $00, $38, $00, $38, $00
DATA_0BB9C0:         db $38, $00, $38, $00, $38, $00, $3A, $00
DATA_0BB9C8:         db $3A, $00, $3A, $00, $3A, $00, $3A, $00
DATA_0BB9D0:         db $3A, $00, $3A, $00, $3A, $00, $3A, $00
DATA_0BB9D8:         db $3A, $00, $3A, $00, $3C, $00, $3C, $00
DATA_0BB9E0:         db $3C, $00, $3C, $00, $3C, $00, $3C, $00
DATA_0BB9E8:         db $3C, $00, $3C, $00, $3C, $00, $3C, $00
DATA_0BB9F0:         db $3C, $00, $3E, $00, $3E, $00, $3E, $00
DATA_0BB9F8:         db $3E, $00, $3E, $00, $3E, $00, $3E, $00
DATA_0BBA00:         db $3E, $00, $3E, $00, $3E, $00, $3E, $00
DATA_0BBA08:         db $3E, $00, $40, $00, $40, $00, $40, $00
DATA_0BBA10:         db $40, $00, $00, $00, $06, $00, $0C, $00
DATA_0BBA18:         db $12, $00, $19, $00, $1F, $00, $25, $00
DATA_0BBA20:         db $2C, $00, $32, $00, $39, $00, $40, $00
DATA_0BBA28:         db $46, $00, $4D, $00, $54, $00, $5B, $00
DATA_0BBA30:         db $62, $00, $6A, $00, $71, $00, $79, $00
DATA_0BBA38:         db $80, $00, $88, $00, $91, $00, $99, $00
DATA_0BBA40:         db $A2, $00, $AB, $00, $B4, $00, $BD, $00
DATA_0BBA48:         db $C7, $00, $D2, $00, $DC, $00, $E8, $00
DATA_0BBA50:         db $F3, $00, $00, $01, $0C, $01, $1A, $01
DATA_0BBA58:         db $28, $01, $37, $01, $48, $01, $59, $01
DATA_0BBA60:         db $6B, $01, $7F, $01, $94, $01, $AB, $01
DATA_0BBA68:         db $C3, $01, $DE, $01, $FC, $01, $1D, $02
DATA_0BBA70:         db $41, $02, $6A, $02, $97, $02, $CB, $02
DATA_0BBA78:         db $06, $03, $4B, $03, $9D, $03, $FE, $03
DATA_0BBA80:         db $74, $04, $06, $05, $C3, $05, $BD, $06
DATA_0BBA88:         db $1B, $08, $27, $0A, $8E, $0D, $5B, $14
DATA_0BBA90:         db $BC, $28, $FF, $7F, $44, $D7, $A6, $EB
DATA_0BBA98:         db $72, $F2, $D9, $F5, $E5, $F7, $43, $F9
DATA_0BBAA0:         db $3D, $FA, $FA, $FA, $8C, $FB, $02, $FC
DATA_0BBAA8:         db $63, $FC, $B5, $FC, $FA, $FC, $35, $FD
DATA_0BBAB0:         db $69, $FD, $96, $FD, $BF, $FD, $E3, $FD
DATA_0BBAB8:         db $04, $FE, $22, $FE, $3D, $FE, $55, $FE
DATA_0BBAC0:         db $6C, $FE, $81, $FE, $95, $FE, $A7, $FE
DATA_0BBAC8:         db $B8, $FE, $C9, $FE, $D8, $FE, $E6, $FE
DATA_0BBAD0:         db $F4, $FE, $01, $FF, $0D, $FF, $18, $FF
DATA_0BBAD8:         db $24, $FF, $2E, $FF, $39, $FF, $43, $FF
DATA_0BBAE0:         db $4C, $FF, $55, $FF, $5E, $FF, $67, $FF
DATA_0BBAE8:         db $6F, $FF, $78, $FF, $80, $FF, $87, $FF
DATA_0BBAF0:         db $8F, $FF, $96, $FF, $9E, $FF, $A5, $FF
DATA_0BBAF8:         db $AC, $FF, $B3, $FF, $BA, $FF, $C0, $FF
DATA_0BBB00:         db $C7, $FF, $CE, $FF, $D4, $FF, $DB, $FF
DATA_0BBB08:         db $E1, $FF, $E7, $FF, $EE, $FF, $F4, $FF
DATA_0BBB10:         db $FA, $FF, $00, $00, $06, $00, $0C, $00
DATA_0BBB18:         db $12, $00, $19, $00, $1F, $00, $25, $00
DATA_0BBB20:         db $2C, $00, $32, $00, $39, $00, $40, $00
DATA_0BBB28:         db $46, $00, $4D, $00, $54, $00, $5B, $00
DATA_0BBB30:         db $62, $00, $6A, $00, $71, $00, $79, $00
DATA_0BBB38:         db $80, $00, $88, $00, $91, $00, $99, $00
DATA_0BBB40:         db $A2, $00, $AB, $00, $B4, $00, $BD, $00
DATA_0BBB48:         db $C7, $00, $D2, $00, $DC, $00, $E8, $00
DATA_0BBB50:         db $F3, $00, $00, $01, $0C, $01, $1A, $01
DATA_0BBB58:         db $28, $01, $37, $01, $48, $01, $59, $01
DATA_0BBB60:         db $6B, $01, $7F, $01, $94, $01, $AB, $01
DATA_0BBB68:         db $C3, $01, $DE, $01, $FC, $01, $1D, $02
DATA_0BBB70:         db $41, $02, $6A, $02, $97, $02, $CB, $02
DATA_0BBB78:         db $06, $03, $4B, $03, $9D, $03, $FE, $03
DATA_0BBB80:         db $74, $04, $06, $05, $C3, $05, $BD, $06
DATA_0BBB88:         db $1B, $08, $27, $0A, $8E, $0D, $5B, $14
DATA_0BBB90:         db $BC, $28, $FF, $7F, $44, $D7, $A6, $EB
DATA_0BBB98:         db $72, $F2, $D9, $F5, $E5, $F7, $43, $F9
DATA_0BBBA0:         db $3D, $FA, $FA, $FA, $8C, $FB, $02, $FC
DATA_0BBBA8:         db $63, $FC, $B5, $FC, $FA, $FC, $35, $FD
DATA_0BBBB0:         db $69, $FD, $96, $FD, $BF, $FD, $E3, $FD
DATA_0BBBB8:         db $04, $FE, $22, $FE, $3D, $FE, $55, $FE
DATA_0BBBC0:         db $6C, $FE, $81, $FE, $95, $FE, $A7, $FE
DATA_0BBBC8:         db $B8, $FE, $C9, $FE, $D8, $FE, $E6, $FE
DATA_0BBBD0:         db $F4, $FE, $01, $FF, $0D, $FF, $18, $FF
DATA_0BBBD8:         db $24, $FF, $2E, $FF, $39, $FF, $43, $FF
DATA_0BBBE0:         db $4C, $FF, $55, $FF, $5E, $FF, $67, $FF
DATA_0BBBE8:         db $6F, $FF, $78, $FF, $80, $FF, $87, $FF
DATA_0BBBF0:         db $8F, $FF, $96, $FF, $9E, $FF, $A5, $FF
DATA_0BBBF8:         db $AC, $FF, $B3, $FF, $BA, $FF, $C0, $FF
DATA_0BBC00:         db $C7, $FF, $CE, $FF, $D4, $FF, $DB, $FF
DATA_0BBC08:         db $E1, $FF, $E7, $FF, $EE, $FF, $F4, $FF
DATA_0BBC10:         db $FA, $FF, $3E, $A4, $24, $3E, $AC, $2C
DATA_0BBC18:         db $3E, $AE, $2E, $3E, $AA, $2A

000B:BC1E A0 08        ibt   r0,#0008
000B:BC20 3F DF        romb
000B:BC22 25 55        add   r5
000B:BC24 F0 18 AC     iwt   r0,#AC18
000B:BC27 1E 55        add   r5
000B:BC29 F0 98 AB     iwt   r0,#AB98
000B:BC2C 1A 55        add   r5
000B:BC2E EF           getb
000B:BC2F DE           inc   r14
000B:BC30 3D EF        getbh
000B:BC32 20 16        move  r6,r0
000B:BC34 B8 3D 9F     lmult
000B:BC37 24 C0        hib
000B:BC39 9E           lob
000B:BC3A 4D           swap
000B:BC3B 1C C4        or    r4
000B:BC3D B7 3D 9F     lmult
000B:BC40 24 C0        hib
000B:BC42 9E           lob
000B:BC43 4D           swap
000B:BC44 15 C4        or    r4
000B:BC46 2A 1E        move  r14,r10
000B:BC48 EF           getb
000B:BC49 DE           inc   r14
000B:BC4A 3D EF        getbh
000B:BC4C 20 16        move  r6,r0
000B:BC4E B8 3D 9F     lmult
000B:BC51 24 C0        hib
000B:BC53 9E           lob
000B:BC54 4D           swap
000B:BC55 C4           or    r4
000B:BC56 18 65        sub   r5
000B:BC58 B7 3D 9F     lmult
000B:BC5B 24 C0        hib
000B:BC5D 9E           lob
000B:BC5E 4D           swap
000B:BC5F C4           or    r4
000B:BC60 17 5C        add   r12
000B:BC62 A0 0A        ibt   r0,#000A
000B:BC64 3F DF        romb
000B:BC66 3D AA 2A     lms   r10,(0054)
000B:BC69 3D AC 2C     lms   r12,(0058)
000B:BC6C 3D AE 2E     lms   r14,(005C)
000B:BC6F 3D A4 24     lms   r4,(0048)
000B:BC72 9B           jmp   r11
000B:BC73 01           nop

000B:BC74 A0 0B        ibt   r0,#000B
000B:BC76 3F DF        romb
000B:BC78 3E AB 1C     sms   (0038),r11
000B:BC7B 3E A5 1D     sms   (003A),r5
000B:BC7E 3E A9 1E     sms   (003C),r9
000B:BC81 3E AA 1F     sms   (003E),r10
000B:BC84 F9 10 B8     iwt   r9,#B810
000B:BC87 FA 00 B8     iwt   r10,#B800
000B:BC8A F5 00 22     iwt   r5,#2200
000B:BC8D F7 00 02     iwt   r7,#0200
000B:BC90 F8 FE 01     iwt   r8,#01FE
000B:BC93 23 63        sub   r3
000B:BC95 26 B1        moves r6,r1
000B:BC97 0A 07        bpl   BCA0
000B:BC99 01           nop
000B:BC9A A3 04        ibt   r3,#0004
000B:BC9C B1 16 4F     not
000B:BC9F D6           inc   r6
000B:BCA0 20 B2        moves r0,r2
000B:BCA2 0A 06        bpl   BCAA
000B:BCA4 01           nop
000B:BCA5 D3           inc   r3
000B:BCA6 D3           inc   r3
000B:BCA7 B2 4F        not
000B:BCA9 D0           inc   r0
000B:BCAA 3F 66        cmp   r6
000B:BCAC 0A 08        bpl   BCB6
000B:BCAE D3           inc   r3
000B:BCAF E3           dec   r3
000B:BCB0 20 14        move  r4,r0
000B:BCB2 26 10        move  r0,r6
000B:BCB4 24 16        move  r6,r4
000B:BCB6 50           add   r0
000B:BCB7 55           add   r5
000B:BCB8 40           ldw   (r0)
000B:BCB9 3D 9F        lmult
000B:BCBB 24 C0        hib
000B:BCBD 9E           lob
000B:BCBE 4D           swap
000B:BCBF C4           or    r4
000B:BCC0 50           add   r0
000B:BCC1 3F 67        cmp   r7
000B:BCC3 0C 04        bcc   BCC9
000B:BCC5 01           nop
000B:BCC6 F0 FE 01     iwt   r0,#01FE
000B:BCC9 1E 59        add   r9
000B:BCCB EF           getb
000B:BCCC DE           inc   r14
000B:BCCD 3D EF        getbh
000B:BCCF 20 14        move  r4,r0
000B:BCD1 23 53        add   r3
000B:BCD3 BA 1E 53     add   r3
000B:BCD6 EF           getb
000B:BCD7 DE           inc   r14
000B:BCD8 3D EF        getbh
000B:BCDA 50           add   r0
000B:BCDB 0C 04        bcc   BCE1
000B:BCDD 01           nop
000B:BCDE 24 4F        not
000B:BCE0 D4           inc   r4
000B:BCE1 54           add   r4
000B:BCE2 78           and   r8
000B:BCE3 11 03        lsr
000B:BCE5 3D A9 1E     lms   r9,(003C)
000B:BCE8 3D AA 1F     lms   r10,(003E)
000B:BCEB 3D AB 1C     lms   r11,(0038)
000B:BCEE 2B 3E 53     add   #03
000B:BCF1 3D A8 1D     lms   r8,(003A)
000B:BCF4 BB 3D 98     ljmp  r8
000B:BCF7 01           nop

000B:BCF8 F0 74 BC     iwt   r0,#BC74
000B:BCFB A8 0B        ibt   r8,#000B
000B:BCFD A5 0B        ibt   r5,#000B
000B:BCFF 2F 1B        move  r11,r15
000B:BD01 3D 98        ljmp  r8
000B:BD03 01           nop

000B:BD04 00           stop
000B:BD05 01           nop

000B:BD06 3D A0 5A     lms   r0,(00B4)
000B:BD09 E0           dec   r0
000B:BD0A 0A 03        bpl   BD0F
000B:BD0C D0           inc   r0
000B:BD0D 4F           not
000B:BD0E D0           inc   r0
000B:BD0F C0           hib
000B:BD10 11 3E 64     sub   #04
000B:BD13 0C 03        bcc   BD18
000B:BD15 01           nop
000B:BD16 A0 03        ibt   r0,#0003
000B:BD18 A1 44        ibt   r1,#0044
000B:BD1A C1           or    r1
000B:BD1B 3E A0 3B     sms   (0076),r0
000B:BD1E 3D A0 7E     lms   r0,(00FC)
000B:BD21 3E 7F        and   #0F
000B:BD23 3E A0 CD     sms   (019A),r0
000B:BD26 3D A0 62     lms   r0,(00C4)
000B:BD29 3E A0 CE     sms   (019C),r0
000B:BD2C 60           sub   r0
000B:BD2D 3E A0 D2     sms   (01A4),r0
000B:BD30 3E A0 D3     sms   (01A6),r0
000B:BD33 3E A0 D4     sms   (01A8),r0
000B:BD36 3E A0 D5     sms   (01AA),r0
000B:BD39 3E A0 D6     sms   (01AC),r0
000B:BD3C 94           link  #04
000B:BD3D FF BF CC     iwt   r15,#CCBF
000B:BD40 01           nop
000B:BD41 94           link  #04
000B:BD42 FF 67 BE     iwt   r15,#BE67
000B:BD45 01           nop
000B:BD46 94           link  #04
000B:BD47 FF C5 C3     iwt   r15,#C3C5
000B:BD4A 01           nop
000B:BD4B 94           link  #04
000B:BD4C FF 64 C5     iwt   r15,#C564
000B:BD4F 01           nop
000B:BD50 A5 60        ibt   r5,#0060
000B:BD52 3D A1 7E     lms   r1,(00FC)
000B:BD55 B1 75        and   r5
000B:BD57 09 1D        beq   BD76
000B:BD59 01           nop
000B:BD5A B1 3E 7F     and   #0F
000B:BD5D 09 17        beq   BD76
000B:BD5F 01           nop
000B:BD60 F5 A0 00     iwt   r5,#00A0
000B:BD63 3D A0 C6     lms   r0,(018C)
000B:BD66 3F 65        cmp   r5
000B:BD68 0B 20        bmi   BD8A
000B:BD6A 01           nop
000B:BD6B 3E 68        sub   #08
000B:BD6D 3F 65        cmp   r5
000B:BD6F 0A 19        bpl   BD8A
000B:BD71 E5           dec   r5
000B:BD72 25           with  r5
000B:BD73 05 15        bra   BD8A

000B:BD75 10 F5 00 01  iwt   r5,#0100
000B:BD79 3D A0 C6     lms   r0,(018C)
000B:BD7C 3F 65        cmp   r5
000B:BD7E 0A 0A        bpl   BD8A
000B:BD80 01           nop
000B:BD81 3E 58        add   #08
000B:BD83 3F 65        cmp   r5
000B:BD85 0B 03        bmi   BD8A
000B:BD87 01           nop
000B:BD88 25 10        move  r0,r5
000B:BD8A 90           sbk
000B:BD8B 60           sub   r0
000B:BD8C 20 13        move  r3,r0
000B:BD8E A0 20        ibt   r0,#0020
000B:BD90 20 12        move  r2,r0
000B:BD92 F6 00 01     iwt   r6,#0100
000B:BD95 3D A4 C6     lms   r4,(018C)
000B:BD98 3D A5 C7     lms   r5,(018E)
000B:BD9B 3D A0 D1     lms   r0,(01A2)
000B:BD9E 9E           lob
000B:BD9F 09 09        beq   BDAA
000B:BDA1 01           nop
000B:BDA2 FC 21 C0     iwt   r12,#C021
000B:BDA5 AD 54        ibt   r13,#0054
000B:BDA7 05 11        bra   BDBA

000B:BDA9 01           nop

000B:BDAA 3D A0 7C     lms   r0,(00F8)
000B:BDAD FE 15 FC     iwt   r14,#FC15
000B:BDB0 2E 50        add   r0
000B:BDB2 EF           getb
000B:BDB3 DE           inc   r14
000B:BDB4 3D EF        getbh
000B:BDB6 20 1C        move  r12,r0
000B:BDB8 AD 54        ibt   r13,#0054
000B:BDBA 94           link  #04
000B:BDBB FF 8C F2     iwt   r15,#F28C
000B:BDBE 01           nop
000B:BDBF 3D A0 CE     lms   r0,(019C)
000B:BDC2 3D A1 62     lms   r1,(00C4)
000B:BDC5 3F 61        cmp   r1
000B:BDC7 09 09        beq   BDD2
000B:BDC9 01           nop
000B:BDCA 3D A0 C7     lms   r0,(018E)
000B:BDCD 95           sex
000B:BDCE 4F           not
000B:BDCF D0           inc   r0
000B:BDD0 9E           lob
000B:BDD1 90           sbk
000B:BDD2 A0 0A        ibt   r0,#000A
000B:BDD4 3F DF        romb
000B:BDD6 F0 56 EB     iwt   r0,#EB56
000B:BDD9 12 3E 5E     add   #0E
000B:BDDC 3D A0 62     lms   r0,(00C4)
000B:BDDF 50           add   r0
000B:BDE0 F1 19 FC     iwt   r1,#FC19
000B:BDE3 11 51        add   r1
000B:BDE5 F3 7E 01     iwt   r3,#017E
000B:BDE8 F4 84 01     iwt   r4,#0184
000B:BDEB 3D A9 46     lms   r9,(008C)
000B:BDEE 3D AA 48     lms   r10,(0090)
000B:BDF1 AC 03        ibt   r12,#0003
000B:BDF3 02           cache
000B:BDF4 2F 1D        move  r13,r15
000B:BDF6 21 1E        move  r14,r1
000B:BDF8 16 3F EF     getbs
000B:BDFB D1           inc   r1
000B:BDFC 22 1E        move  r14,r2
000B:BDFE 3F EF        getbs
000B:BE00 18 56        add   r6
000B:BE02 DE           inc   r14
000B:BE03 D2           inc   r2
000B:BE04 D2           inc   r2
000B:BE05 17 3F EF     getbs
000B:BE08 3D A5 5B     lms   r5,(00B6)
000B:BE0B 94           link  #04
000B:BE0C FF 12 BC     iwt   r15,#BC12
000B:BE0F 01           nop
000B:BE10 B8 3E 58     add   #08
000B:BE13 59           add   r9
000B:BE14 33           stw   (r3)
000B:BE15 A6 18        ibt   r6,#0018
000B:BE17 B7 56        add   r6
000B:BE19 5A           add   r10
000B:BE1A 34           stw   (r4)
000B:BE1B D3           inc   r3
000B:BE1C D3           inc   r3
000B:BE1D D4           inc   r4
000B:BE1E 3C           loop
000B:BE1F D4           inc   r4
000B:BE20 3D A0 46     lms   r0,(008C)
000B:BE23 3E A0 CE     sms   (019C),r0
000B:BE26 A0 01        ibt   r0,#0001
000B:BE28 3E A0 D2     sms   (01A4),r0
000B:BE2B 3D A2 7E     lms   r2,(00FC)
000B:BE2E 94           link  #04
000B:BE2F FF BB C1     iwt   r15,#C1BB
000B:BE32 01           nop
000B:BE33 3D A1 CE     lms   r1,(019C)
000B:BE36 3D A0 46     lms   r0,(008C)
000B:BE39 11 61        sub   r1
000B:BE3B F3 7E 01     iwt   r3,#017E
000B:BE3E AC 03        ibt   r12,#0003
000B:BE40 02           cache
000B:BE41 2F 1D        move  r13,r15
000B:BE43 43           ldw   (r3)
000B:BE44 51           add   r1
000B:BE45 90           sbk
000B:BE46 D3           inc   r3
000B:BE47 3C           loop
000B:BE48 D3           inc   r3
000B:BE49 3D A0 48     lms   r0,(0090)
000B:BE4C 3E A0 CC     sms   (0198),r0
000B:BE4F A1 67        ibt   r1,#0067
000B:BE51 3D A0 EB     lms   r0,(01D6)
000B:BE54 61           sub   r1
000B:BE55 09 0E        beq   BE65
000B:BE57 60           sub   r0
000B:BE58 3D A0 C5     lms   r0,(018A)
000B:BE5B 9E           lob
000B:BE5C 09 07        beq   BE65
000B:BE5E 01           nop
000B:BE5F 94           link  #04
000B:BE60 FF C7 C5     iwt   r15,#C5C7
000B:BE63 01           nop
000B:BE64 60           sub   r0
000B:BE65 00           stop
000B:BE66 01           nop

000B:BE67 3E AB 32     sms   (0064),r11
000B:BE6A FE 56 EB     iwt   r14,#EB56
000B:BE6D 3D A9 46     lms   r9,(008C)
000B:BE70 3D AA 48     lms   r10,(0090)
000B:BE73 A2 00        ibt   r2,#0000
000B:BE75 3E A2 7F     sms   (00FE),r2
000B:BE78 3E A2 80     sms   (0100),r2
000B:BE7B 3E A2 7D     sms   (00FA),r2
000B:BE7E 3E A2 6D     sms   (00DA),r2
000B:BE81 A3 01        ibt   r3,#0001
000B:BE83 23 14        move  r4,r3
000B:BE85 60           sub   r0
000B:BE86 94           link  #04
000B:BE87 FF 4D C3     iwt   r15,#C34D
000B:BE8A 02           cache
000B:BE8B B2 16 3E 71  and   #01
000B:BE8F B2 52        add   r2
000B:BE91 12 C6        or    r6
000B:BE93 60           sub   r0
000B:BE94 94           link  #04
000B:BE95 FF 50 C3     iwt   r15,#C350
000B:BE98 3E B2 16 3E+ and   #01
000B:BE9D B2 52        add   r2
000B:BE9F 12 C6        or    r6
000B:BEA1 A3 FF        ibt   r3,#FFFF
000B:BEA3 E4           dec   r4
000B:BEA4 0B 03        bmi   BEA9
000B:BEA6 D4           inc   r4
000B:BEA7 23 14        move  r4,r3
000B:BEA9 A0 FF        ibt   r0,#FFFF
000B:BEAB 94           link  #04
000B:BEAC FF 50 C3     iwt   r15,#C350
000B:BEAF 3E B2 16 3E+ and   #01
000B:BEB4 B2 52        add   r2
000B:BEB6 12 C6        or    r6
000B:BEB8 A0 FF        ibt   r0,#FFFF
000B:BEBA 94           link  #04
000B:BEBB FF 50 C3     iwt   r15,#C350
000B:BEBE 3E B2 16 3E+ and   #01
000B:BEC3 B2 52        add   r2
000B:BEC5 12 C6        or    r6
000B:BEC7 60           sub   r0
000B:BEC8 3E A0 6E     sms   (00DC),r0
000B:BECB 20 B1        moves r0,r1
000B:BECD 09 5C        beq   BF2B
000B:BECF 03           lsr
000B:BED0 03           lsr
000B:BED1 C1           or    r1
000B:BED2 20 15        move  r5,r0
000B:BED4 03           lsr
000B:BED5 03           lsr
000B:BED6 03           lsr
000B:BED7 03           lsr
000B:BED8 C5           or    r5
000B:BED9 3E 73        and   #03
000B:BEDB E0           dec   r0
000B:BEDC 08 2D        bne   BF0B
000B:BEDE 60           sub   r0
000B:BEDF 3E A0 54     sms   (00A8),r0
000B:BEE2 3E A0 5A     sms   (00B4),r0
000B:BEE5 B1 3E 7F     and   #0F
000B:BEE8 09 03        beq   BEED
000B:BEEA D9           inc   r9
000B:BEEB E9           dec   r9
000B:BEEC E9           dec   r9
000B:BEED 3D A0 60     lms   r0,(00C0)
000B:BEF0 3E 60        sub   #00
000B:BEF2 08 37        bne   BF2B
000B:BEF4 01           nop
000B:BEF5 B1 3E 7F     and   #0F
000B:BEF8 09 02        beq   BEFC
000B:BEFA D0           inc   r0
000B:BEFB 60           sub   r0
000B:BEFC D0           inc   r0
000B:BEFD 3D F5 71 00  lm    r5,(0071)
000B:BF01 75           and   r5
000B:BF02 09 27        beq   BF2B
000B:BF04 01           nop
000B:BF05 3E A0 6E     sms   (00DC),r0
000B:BF08 05 21        bra   BF2B

000B:BF0A 01           nop

000B:BF0B 3D A0 54     lms   r0,(00A8)
000B:BF0E 4F           not
000B:BF0F D0           inc   r0
000B:BF10 3D 96        div2
000B:BF12 3D 96        div2
000B:BF14 90           sbk
000B:BF15 3E A0 5A     sms   (00B4),r0
000B:BF18 0B 03        bmi   BF1D
000B:BF1A 50           add   r0
000B:BF1B 4F           not
000B:BF1C D0           inc   r0
000B:BF1D 50           add   r0
000B:BF1E 3E A0 55     sms   (00AA),r0
000B:BF21 A0 47        ibt   r0,#0047
000B:BF23 3E A0 3D     sms   (007A),r0
000B:BF26 A0 20        ibt   r0,#0020
000B:BF28 3E A0 E3     sms   (01C6),r0
000B:BF2B A1 00        ibt   r1,#0000
000B:BF2D A3 10        ibt   r3,#0010
000B:BF2F 94           link  #04
000B:BF30 FF 9A C3     iwt   r15,#C39A
000B:BF33 3E A1 00     sms   (0000),r1
000B:BF36 94           link  #04
000B:BF37 FF 9A C3     iwt   r15,#C39A
000B:BF3A 3E B2 16 3E+ and   #01
000B:BF3F B2 52        add   r2
000B:BF41 12 C6        or    r6
000B:BF43 A1 00        ibt   r1,#0000
000B:BF45 94           link  #04
000B:BF46 FF 9A C3     iwt   r15,#C39A
000B:BF49 3E B2 3E 7F  and   #0F
000B:BF4D 09 13        beq   BF62
000B:BF4F 01           nop
000B:BF50 DA           inc   r10
000B:BF51 3D A0 55     lms   r0,(00AA)
000B:BF54 3E 60        sub   #00
000B:BF56 0A 0A        bpl   BF62
000B:BF58 60           sub   r0
000B:BF59 90           sbk
000B:BF5A 3E A0 69     sms   (00D2),r0
000B:BF5D A0 0A        ibt   r0,#000A
000B:BF5F 3E A0 3D     sms   (007A),r0
000B:BF62 A3 F0        ibt   r3,#FFF0
000B:BF64 3D A4 5C     lms   r4,(00B8)
000B:BF67 94           link  #04
000B:BF68 FF 9A C3     iwt   r15,#C39A
000B:BF6B 3E 3D A0 08  lms   r0,(0010)
000B:BF6F 3E A0 0C     sms   (0018),r0
000B:BF72 3E A0 5C     sms   (00B8),r0
000B:BF75 3E A1 0D     sms   (001A),r1
000B:BF78 3D A0 00     lms   r0,(0000)
000B:BF7B 3E A0 0A     sms   (0014),r0
000B:BF7E 3D A0 01     lms   r0,(0002)
000B:BF81 3E A0 0B     sms   (0016),r0
000B:BF84 3D A4 5D     lms   r4,(00BA)
000B:BF87 94           link  #04
000B:BF88 FF 9A C3     iwt   r15,#C39A
000B:BF8B 3E 3D A0 08  lms   r0,(0010)
000B:BF8F 3E A0 10     sms   (0020),r0
000B:BF92 3E A0 5D     sms   (00BA),r0
000B:BF95 3E A1 11     sms   (0022),r1
000B:BF98 3D A0 00     lms   r0,(0000)
000B:BF9B 3E A0 0E     sms   (001C),r0
000B:BF9E 3D A0 01     lms   r0,(0002)
000B:BFA1 3E A0 0F     sms   (001E),r0
000B:BFA4 B2 16 3E 71  and   #01
000B:BFA8 B2 52        add   r2
000B:BFAA 12 C6        or    r6
000B:BFAC 3D A4 5E     lms   r4,(00BC)
000B:BFAF 94           link  #04
000B:BFB0 FF 9A C3     iwt   r15,#C39A
000B:BFB3 3E 3D A0 08  lms   r0,(0010)
000B:BFB7 3E A0 17     sms   (002E),r0
000B:BFBA 3E A0 5E     sms   (00BC),r0
000B:BFBD 3E A1 18     sms   (0030),r1
000B:BFC0 3D A0 00     lms   r0,(0000)
000B:BFC3 3E A0 15     sms   (002A),r0
000B:BFC6 3D A0 01     lms   r0,(0002)
000B:BFC9 3E A0 16     sms   (002C),r0
000B:BFCC 3E A2 22     sms   (0044),r2
000B:BFCF 3D A0 C7     lms   r0,(018E)
000B:BFD2 3E A0 20     sms   (0040),r0
000B:BFD5 B2 3E 7F     and   #0F
000B:BFD8 09 15        beq   BFEF
000B:BFDA 01           nop
000B:BFDB F0 00 01     iwt   r0,#0100
000B:BFDE 3E A0 55     sms   (00AA),r0
000B:BFE1 B2 3E 76     and   #06
000B:BFE4 09 04        beq   BFEA
000B:BFE6 B2           from  r2
000B:BFE7 05 4F        bra   C038

000B:BFE9 01           nop

000B:BFEA 3E 79        and   #09
000B:BFEC 08 1D        bne   C00B
000B:BFEE 01           nop
000B:BFEF 3D A0 DA     lms   r0,(01B4)
000B:BFF2 3E 60        sub   #00
000B:BFF4 09 0B        beq   C001
000B:BFF6 60           sub   r0
000B:BFF7 3E A0 5B     sms   (00B6),r0
000B:BFFA 3E A0 C7     sms   (018E),r0
000B:BFFD FF 86 C1     iwt   r15,#C186
000B:C000 01           nop
000B:C001 F0 08 00     iwt   r0,#0008
000B:C004 3E A0 60     sms   (00C0),r0
000B:C007 FF A7 C1     iwt   r15,#C1A7
000B:C00A 01           nop
000B:C00B 3E 69        sub   #09
000B:C00D 09 05        beq   C014
000B:C00F 01           nop
000B:C010 FF 7D C0     iwt   r15,#C07D
000B:C013 01           nop
000B:C014 3D A0 C1     lms   r0,(0182)
000B:C017 3E A0 1C     sms   (0038),r0
000B:C01A 3D A1 C4     lms   r1,(0188)
000B:C01D 3E A1 1D     sms   (003A),r1
000B:C020 3D A0 BF     lms   r0,(017E)
000B:C023 3E A0 1E     sms   (003C),r0
000B:C026 3D A0 C2     lms   r0,(0184)
000B:C029 3E A0 1F     sms   (003E),r0
000B:C02C 3D A0 18     lms   r0,(0030)
000B:C02F 94           link  #04
000B:C030 FF EE C2     iwt   r15,#C2EE
000B:C033 01           nop
000B:C034 FF 86 C1     iwt   r15,#C186
000B:C037 01           nop
000B:C038 A0 01        ibt   r0,#0001
000B:C03A 3E A0 CF     sms   (019E),r0
000B:C03D 3D A0 CB     lms   r0,(0196)
000B:C040 3E A0 D0     sms   (01A0),r0
000B:C043 3D A0 0E     lms   r0,(001C)
000B:C046 3E A0 00     sms   (0000),r0
000B:C049 3D A0 0F     lms   r0,(001E)
000B:C04C 3E A0 01     sms   (0002),r0
000B:C04F 3D A0 0E     lms   r0,(001C)
000B:C052 3D A1 10     lms   r1,(0020)
000B:C055 3D A2 54     lms   r2,(00A8)
000B:C058 22 3E 60     sub   #00
000B:C05B 08 09        bne   C066
000B:C05D 01           nop
000B:C05E 3D A2 62     lms   r2,(00C4)
000B:C061 22 9E        lob
000B:C063 08 0C        bne   C071
000B:C065 01           nop
000B:C066 0B 09        bmi   C071
000B:C068 01           nop
000B:C069 94           link  #04
000B:C06A FF A6 C2     iwt   r15,#C2A6
000B:C06D 01           nop
000B:C06E 05 06        bra   C076

000B:C070 01           nop

000B:C071 94           link  #04
000B:C072 FF 5A C2     iwt   r15,#C25A
000B:C075 01           nop
000B:C076 3D A0 11     lms   r0,(0022)
000B:C079 FF 6C C1     iwt   r15,#C16C
000B:C07C 1A FC 80 00  iwt   r12,#0080
000B:C080 FD 00 01     iwt   r13,#0100
000B:C083 B2 3E 78     and   #08
000B:C086 09 79        beq   C101
000B:C088 60           sub   r0
000B:C089 3D A0 0A     lms   r0,(0014)
000B:C08C 3E A0 00     sms   (0000),r0
000B:C08F 3D A0 0B     lms   r0,(0016)
000B:C092 3E A0 01     sms   (0002),r0
000B:C095 3D A1 0C     lms   r1,(0018)
000B:C098 3D A0 CF     lms   r0,(019E)
000B:C09B 9E           lob
000B:C09C 09 3B        beq   C0D9
000B:C09E 01           nop
000B:C09F 3D A0 D0     lms   r0,(01A0)
000B:C0A2 3F 61        cmp   r1
000B:C0A4 08 2C        bne   C0D2
000B:C0A6 01           nop
000B:C0A7 3E 60        sub   #00
000B:C0A9 08 53        bne   C0FE
000B:C0AB 60           sub   r0
000B:C0AC 3D A0 54     lms   r0,(00A8)
000B:C0AF 5C           add   r12
000B:C0B0 3F 6D        cmp   r13
000B:C0B2 0D 18        bcs   C0CC
000B:C0B4 01           nop
000B:C0B5 3D A0 0E     lms   r0,(001C)
000B:C0B8 3E 7F        and   #0F
000B:C0BA 1C 3E 63     sub   #03
000B:C0BD 0B 0D        bmi   C0CC
000B:C0BF DC           inc   r12
000B:C0C0 2A 5C        add   r12
000B:C0C2 DA           inc   r10
000B:C0C3 60           sub   r0
000B:C0C4 A1 04        ibt   r1,#0004
000B:C0C6 2F 1D        move  r13,r15
000B:C0C8 61           sub   r1
000B:C0C9 3C           loop
000B:C0CA 20 11        move  r1,r0
000B:C0CC 3D A0 0D     lms   r0,(001A)
000B:C0CF 05 2D        bra   C0FE

000B:C0D1 01           nop

000B:C0D2 60           sub   r0
000B:C0D3 3E A0 CF     sms   (019E),r0
000B:C0D6 3E A1 D0     sms   (01A0),r1
000B:C0D9 3D A0 0A     lms   r0,(0014)
000B:C0DC 3D A2 54     lms   r2,(00A8)
000B:C0DF 22 3E 60     sub   #00
000B:C0E2 08 09        bne   C0ED
000B:C0E4 01           nop
000B:C0E5 3D A2 62     lms   r2,(00C4)
000B:C0E8 22 9E        lob
000B:C0EA 08 0C        bne   C0F8
000B:C0EC 01           nop
000B:C0ED 0B 09        bmi   C0F8
000B:C0EF 01           nop
000B:C0F0 94           link  #04
000B:C0F1 FF A6 C2     iwt   r15,#C2A6
000B:C0F4 01           nop
000B:C0F5 05 07        bra   C0FE

000B:C0F7 60           sub   r0

000B:C0F8 94           link  #04
000B:C0F9 FF 5A C2     iwt   r15,#C25A
000B:C0FC 01           nop
000B:C0FD 60           sub   r0
000B:C0FE 05 6C        bra   C16C

000B:C100 1A 3D A1 17  lms   r1,(002E)
000B:C104 3D A0 CF     lms   r0,(019E)
000B:C107 9E           lob
000B:C108 09 3C        beq   C146
000B:C10A 01           nop
000B:C10B 3D A0 D0     lms   r0,(01A0)
000B:C10E 3F 61        cmp   r1
000B:C110 08 2D        bne   C13F
000B:C112 01           nop
000B:C113 3E 60        sub   #00
000B:C115 08 54        bne   C16B
000B:C117 60           sub   r0
000B:C118 3D A0 54     lms   r0,(00A8)
000B:C11B 5C           add   r12
000B:C11C 3F 6D        cmp   r13
000B:C11E 0D 19        bcs   C139
000B:C120 01           nop
000B:C121 3D A0 0E     lms   r0,(001C)
000B:C124 3E 7F        and   #0F
000B:C126 3E 6D        sub   #0D
000B:C128 0A 0F        bpl   C139
000B:C12A 1C 4F        not
000B:C12C DC           inc   r12
000B:C12D 2A 5C        add   r12
000B:C12F DA           inc   r10
000B:C130 60           sub   r0
000B:C131 A1 04        ibt   r1,#0004
000B:C133 2F 1D        move  r13,r15
000B:C135 51           add   r1
000B:C136 3C           loop
000B:C137 20 11        move  r1,r0
000B:C139 3D A0 18     lms   r0,(0030)
000B:C13C 05 2D        bra   C16B

000B:C13E 01           nop

000B:C13F 60           sub   r0
000B:C140 3E A0 CF     sms   (019E),r0
000B:C143 3E A1 D0     sms   (01A0),r1
000B:C146 3D A0 15     lms   r0,(002A)
000B:C149 3D A2 54     lms   r2,(00A8)
000B:C14C 22 3E 60     sub   #00
000B:C14F 08 09        bne   C15A
000B:C151 01           nop
000B:C152 3D A2 62     lms   r2,(00C4)
000B:C155 22 9E        lob
000B:C157 08 0C        bne   C165
000B:C159 01           nop
000B:C15A 0B 09        bmi   C165
000B:C15C 01           nop
000B:C15D 94           link  #04
000B:C15E FF A6 C2     iwt   r15,#C2A6
000B:C161 01           nop
000B:C162 05 07        bra   C16B

000B:C164 60           sub   r0

000B:C165 94           link  #04
000B:C166 FF 5A C2     iwt   r15,#C25A
000B:C169 01           nop
000B:C16A 60           sub   r0
000B:C16B 1A 5A        add   r10
000B:C16D B1 12 9E     lob
000B:C170 3E A2 5B     sms   (00B6),r2
000B:C173 3D A0 62     lms   r0,(00C4)
000B:C176 9E           lob
000B:C177 08 05        bne   C17E
000B:C179 B1 4F        not
000B:C17B D0           inc   r0
000B:C17C 12 9E        lob
000B:C17E 3E A2 C7     sms   (018E),r2
000B:C181 94           link  #04
000B:C182 FF 1D DB     iwt   r15,#DB1D
000B:C185 01           nop
000B:C186 3D A2 22     lms   r2,(0044)
000B:C189 60           sub   r0
000B:C18A 3E A0 5C     sms   (00B8),r0
000B:C18D 3E A0 5D     sms   (00BA),r0
000B:C190 3E A0 5E     sms   (00BC),r0
000B:C193 3D A0 60     lms   r0,(00C0)
000B:C196 3E 60        sub   #00
000B:C198 09 0D        beq   C1A7
000B:C19A 60           sub   r0
000B:C19B 3E A0 60     sms   (00C0),r0
000B:C19E 3E A0 69     sms   (00D2),r0
000B:C1A1 3D A0 54     lms   r0,(00A8)
000B:C1A4 3E A0 5A     sms   (00B4),r0
000B:C1A7 3E A9 46     sms   (008C),r9
000B:C1AA 3E AA 48     sms   (0090),r10
000B:C1AD 3E A2 7E     sms   (00FC),r2
000B:C1B0 B2 3E 7F     and   #0F
000B:C1B3 3E A0 C9     sms   (0192),r0
000B:C1B6 3D AB 32     lms   r11,(0064)
000B:C1B9 9B           jmp   r11
000B:C1BA 01           nop

000B:C1BB 3E AB 36     sms   (006C),r11
000B:C1BE 3D A0 89     lms   r0,(0112)
000B:C1C1 9E           lob
000B:C1C2 09 09        beq   C1CD
000B:C1C4 01           nop
000B:C1C5 F1 00 FF     iwt   r1,#FF00
000B:C1C8 B2 71        and   r1
000B:C1CA 09 03        beq   C1CF
000B:C1CC 01           nop
000B:C1CD 9B           jmp   r11
000B:C1CE 01           nop

000B:C1CF A2 00        ibt   r2,#0000
000B:C1D1 A3 01        ibt   r3,#0001
000B:C1D3 23 14        move  r4,r3
000B:C1D5 3D A0 BF     lms   r0,(017E)
000B:C1D8 18 3E 64     sub   #04
000B:C1DB 3D A5 89     lms   r5,(0112)
000B:C1DE 3D A0 C2     lms   r0,(0184)
000B:C1E1 3E 68        sub   #08
000B:C1E3 55           add   r5
000B:C1E4 17 50        add   r0
000B:C1E6 94           link  #04
000B:C1E7 FF 44 C2     iwt   r15,#C244
000B:C1EA 02           cache
000B:C1EB B2 16 3E 71  and   #01
000B:C1EF B2 52        add   r2
000B:C1F1 C6           or    r6
000B:C1F2 50           add   r0
000B:C1F3 C6           or    r6
000B:C1F4 50           add   r0
000B:C1F5 12 C6        or    r6
000B:C1F7 A3 FF        ibt   r3,#FFFF
000B:C1F9 E4           dec   r4
000B:C1FA 0B 03        bmi   C1FF
000B:C1FC D4           inc   r4
000B:C1FD 23 14        move  r4,r3
000B:C1FF 3D A0 C1     lms   r0,(0182)
000B:C202 18 3E 54     add   #04
000B:C205 3D A5 89     lms   r5,(0112)
000B:C208 3D A0 C4     lms   r0,(0188)
000B:C20B 3E 68        sub   #08
000B:C20D 55           add   r5
000B:C20E 17 50        add   r0
000B:C210 94           link  #04
000B:C211 FF 47 C2     iwt   r15,#C247
000B:C214 3E B2 16 3E+ and   #01
000B:C219 B2 52        add   r2
000B:C21B C6           or    r6
000B:C21C 50           add   r0
000B:C21D C6           or    r6
000B:C21E 50           add   r0
000B:C21F 12 C6        or    r6
000B:C221 20 B1        moves r0,r1
000B:C223 09 10        beq   C235
000B:C225 01           nop
000B:C226 60           sub   r0
000B:C227 3E A0 54     sms   (00A8),r0
000B:C22A 3E A0 5A     sms   (00B4),r0
000B:C22D B1 3E 73     and   #03
000B:C230 09 03        beq   C235
000B:C232 D9           inc   r9
000B:C233 E9           dec   r9
000B:C234 E9           dec   r9
000B:C235 22 4D        swap
000B:C237 3D A0 7E     lms   r0,(00FC)
000B:C23A C2           or    r2
000B:C23B 90           sbk
000B:C23C 3E A9 46     sms   (008C),r9
000B:C23F 3D AB 36     lms   r11,(006C)
000B:C242 9B           jmp   r11
000B:C243 01           nop

000B:C244 A1 00        ibt   r1,#0000
000B:C246 3E AB 31     sms   (0062),r11
000B:C249 22 52        add   r2
000B:C24B 21 51        add   r1
000B:C24D 21 51        add   r1
000B:C24F B7 03        lsr
000B:C251 94           link  #04
000B:C252 FF 20 D3     iwt   r15,#D320
000B:C255 3D FF 95 D2  lm    r15,(D295)
000B:C259 01           nop
000B:C25A 3E AB 36     sms   (006C),r11
000B:C25D 3D A2 CB     lms   r2,(0196)
000B:C260 B2 3F 61     cmp   r1
000B:C263 09 3C        beq   C2A1
000B:C265 9E           lob
000B:C266 09 36        beq   C29E
000B:C268 4F           not
000B:C269 D0           inc   r0
000B:C26A 14 3E 7F     and   #0F
000B:C26D A5 08        ibt   r5,#0008
000B:C26F B4 65        sub   r5
000B:C271 0A 2B        bpl   C29E
000B:C273 01           nop
000B:C274 B1 95        sex
000B:C276 3D 96        div2
000B:C278 3D 96        div2
000B:C27A 3D 96        div2
000B:C27C 24 1C        move  r12,r4
000B:C27E A2 00        ibt   r2,#0000
000B:C280 02           cache
000B:C281 2F 1D        move  r13,r15
000B:C283 22 50        add   r0
000B:C285 3C           loop
000B:C286 E5           dec   r5
000B:C287 3D A0 CB     lms   r0,(0196)
000B:C28A 95           sex
000B:C28B 3D 96        div2
000B:C28D 3D 96        div2
000B:C28F 13 3D 96     div2
000B:C292 25 1C        move  r12,r5
000B:C294 60           sub   r0
000B:C295 2F 1D        move  r13,r15
000B:C297 53           add   r3
000B:C298 3C           loop
000B:C299 01           nop
000B:C29A 11           to    r1
000B:C29B 05 04        bra   C2A1

000B:C29D 52           add   r2

000B:C29E 3E A1 CB     sms   (0196),r1
000B:C2A1 3D AB 36     lms   r11,(006C)
000B:C2A4 9B           jmp   r11
000B:C2A5 01           nop

000B:C2A6 3E AB 36     sms   (006C),r11
000B:C2A9 3D A2 CB     lms   r2,(0196)
000B:C2AC B2 3F 61     cmp   r1
000B:C2AF 09 38        beq   C2E9
000B:C2B1 14 3E 7F     and   #0F
000B:C2B4 A5 07        ibt   r5,#0007
000B:C2B6 B4 65        sub   r5
000B:C2B8 0A 2C        bpl   C2E6
000B:C2BA D4           inc   r4
000B:C2BB D5           inc   r5
000B:C2BC B1 95        sex
000B:C2BE 3D 96        div2
000B:C2C0 3D 96        div2
000B:C2C2 3D 96        div2
000B:C2C4 24 1C        move  r12,r4
000B:C2C6 A2 00        ibt   r2,#0000
000B:C2C8 02           cache
000B:C2C9 2F 1D        move  r13,r15
000B:C2CB 22 50        add   r0
000B:C2CD 3C           loop
000B:C2CE E5           dec   r5
000B:C2CF 3D A0 CB     lms   r0,(0196)
000B:C2D2 95           sex
000B:C2D3 3D 96        div2
000B:C2D5 3D 96        div2
000B:C2D7 13 3D 96     div2
000B:C2DA 25 1C        move  r12,r5
000B:C2DC 60           sub   r0
000B:C2DD 2F 1D        move  r13,r15
000B:C2DF 53           add   r3
000B:C2E0 3C           loop
000B:C2E1 01           nop
000B:C2E2 11           to    r1
000B:C2E3 05 04        bra   C2E9

000B:C2E5 52           add   r2

000B:C2E6 3E A1 CB     sms   (0196),r1
000B:C2E9 3D AB 36     lms   r11,(006C)
000B:C2EC 9B           jmp   r11
000B:C2ED 01           nop

000B:C2EE 3E AB 35     sms   (006A),r11
000B:C2F1 3D A5 0D     lms   r5,(001A)
000B:C2F4 15 65        sub   r5
000B:C2F6 0B 18        bmi   C310
000B:C2F8 01           nop
000B:C2F9 08 06        bne   C301
000B:C2FB 01           nop
000B:C2FC 94           link  #04
000B:C2FD FF 1D DB     iwt   r15,#DB1D
000B:C300 01           nop
000B:C301 3D A0 0A     lms   r0,(0014)
000B:C304 3E A0 00     sms   (0000),r0
000B:C307 3D A0 0B     lms   r0,(0016)
000B:C30A 3E A0 01     sms   (0002),r0
000B:C30D 3D A0 0D     lms   r0,(001A)
000B:C310 1A 5A        add   r10
000B:C312 94           link  #04
000B:C313 FF 1D DB     iwt   r15,#DB1D
000B:C316 01           nop
000B:C317 A0 FF        ibt   r0,#FFFF
000B:C319 3E A0 47     sms   (008E),r0
000B:C31C 3D A0 17     lms   r0,(002E)
000B:C31F 95           sex
000B:C320 3D A1 0C     lms   r1,(0018)
000B:C323 21 95        sex
000B:C325 51           add   r1
000B:C326 11 3D 96     div2
000B:C329 3D A0 5B     lms   r0,(00B6)
000B:C32C 95           sex
000B:C32D 51           add   r1
000B:C32E 11 3D 96     div2
000B:C331 B1 14 9E     lob
000B:C334 3E A4 5B     sms   (00B6),r4
000B:C337 3E A4 CB     sms   (0196),r4
000B:C33A 3D A0 62     lms   r0,(00C4)
000B:C33D 9E           lob
000B:C33E 08 05        bne   C345
000B:C340 B1 4F        not
000B:C342 D0           inc   r0
000B:C343 14 9E        lob
000B:C345 3E A4 C7     sms   (018E),r4
000B:C348 3D AB 35     lms   r11,(006A)
000B:C34B 9B           jmp   r11
000B:C34C 01           nop

000B:C34D A1 00        ibt   r1,#0000
000B:C34F 3E AB 31     sms   (0062),r11
000B:C352 22 52        add   r2
000B:C354 21 51        add   r1
000B:C356 21 51        add   r1
000B:C358 18 3F EF     getbs
000B:C35B DE           inc   r14
000B:C35C 17 3F EF     getbs
000B:C35F DE           inc   r14
000B:C360 3D A5 62     lms   r5,(00C4)
000B:C363 E5           dec   r5
000B:C364 16 3D C5     xor   r5
000B:C367 3D A0 C5     lms   r0,(018A)
000B:C36A 9E           lob
000B:C36B 08 11        bne   C37E
000B:C36D 01           nop
000B:C36E 3D A0 5B     lms   r0,(00B6)
000B:C371 95           sex
000B:C372 25 B5        moves r5,r5
000B:C374 0A 03        bpl   C379
000B:C376 01           nop
000B:C377 4F           not
000B:C378 D0           inc   r0
000B:C379 3D C6        xor   r6
000B:C37B 0A 0A        bpl   C387
000B:C37D B8 3D A5 5B  lms   r5,(00B6)
000B:C381 94           link  #04
000B:C382 FF 12 BC     iwt   r15,#BC12
000B:C385 01           nop
000B:C386 B8 3E 58     add   #08
000B:C389 18 59        add   r9
000B:C38B A5 18        ibt   r5,#0018
000B:C38D B7 55        add   r5
000B:C38F 5A           add   r10
000B:C390 94           link  #04
000B:C391 FF 20 D3     iwt   r15,#D320
000B:C394 3D FF 95 D2  lm    r15,(D295)
000B:C398 01           nop
000B:C399 3E AB 31     sms   (0062),r11
000B:C39C 22 52        add   r2
000B:C39E 60           sub   r0
000B:C39F 3E A0 08     sms   (0010),r0
000B:C3A2 18 3F EF     getbs
000B:C3A5 DE           inc   r14
000B:C3A6 17 3F EF     getbs
000B:C3A9 DE           inc   r14
000B:C3AA B8 3E 58     add   #08
000B:C3AD 18 59        add   r9
000B:C3AF A0 18        ibt   r0,#0018
000B:C3B1 5A           add   r10
000B:C3B2 57           add   r7
000B:C3B3 23 B3        moves r3,r3
000B:C3B5 0A 05        bpl   C3BC
000B:C3B7 01           nop
000B:C3B8 3D A7 C5     lms   r7,(018A)
000B:C3BB 57           add   r7
000B:C3BC 94           link  #04
000B:C3BD FF 20 D3     iwt   r15,#D320
000B:C3C0 3D FF FC D3  lm    r15,(D3FC)
000B:C3C4 01           nop
000B:C3C5 3D F1 72 00  lm    r1,(0072)
000B:C3C9 3D A0 F2     lms   r0,(01E4)
000B:C3CC 3E 60        sub   #00
000B:C3CE 09 04        beq   C3D4
000B:C3D0 60           sub   r0
000B:C3D1 05 2E        bra   C401

000B:C3D3 01           nop
000B:C3D4 3D A0 C6     lms   r0,(018C)
000B:C3D7 C0           hib
000B:C3D8 09 69        beq   C443
000B:C3DA 3D A0 89     lms   r0,(0112)
000B:C3DD 3E 60        sub   #00
000B:C3DF 08 61        bne   C442
000B:C3E1 01           nop
000B:C3E2 3D F0 84 00  lm    r0,(0084)
000B:C3E6 3D F5 88 00  lm    r5,(0088)
000B:C3EA C5           or    r5
000B:C3EB 3D F5 86 00  lm    r5,(0086)
000B:C3EF C5           or    r5
000B:C3F0 71           and   r1
000B:C3F1 09 4F        beq   C442
000B:C3F3 D0           inc   r0
000B:C3F4 3E A0 CA     sms   (0194),r0
000B:C3F7 A0 40        ibt   r0,#0040
000B:C3F9 3E A0 F2     sms   (01E4),r0
000B:C3FC A0 34        ibt   r0,#0034
000B:C3FE 3E A0 3D     sms   (007A),r0
000B:C401 A5 F0        ibt   r5,#FFF0
000B:C403 3D A0 7E     lms   r0,(00FC)
000B:C406 75           and   r5
000B:C407 09 1A        beq   C423
000B:C409 01           nop
000B:C40A F5 00 FF     iwt   r5,#FF00
000B:C40D 75           and   r5
000B:C40E 09 0D        beq   C41D
000B:C410 01           nop
000B:C411 F0 00 FC     iwt   r0,#FC00
000B:C414 3E A0 55     sms   (00AA),r0
000B:C417 A0 08        ibt   r0,#0008
000B:C419 3E A0 60     sms   (00C0),r0
000B:C41C 60           sub   r0
000B:C41D 3E A0 F2     sms   (01E4),r0
000B:C420 05 43        bra   C465

000B:C422 01           nop

000B:C423 3D A0 89     lms   r0,(0112)
000B:C426 3E 61        sub   #01
000B:C428 0B 06        bmi   C430
000B:C42A D0           inc   r0
000B:C42B A5 01        ibt   r5,#0001
000B:C42D 3E A5 D1     sms   (01A2),r5
000B:C430 D0           inc   r0
000B:C431 D0           inc   r0
000B:C432 A5 20        ibt   r5,#0020
000B:C434 3F 65        cmp   r5
000B:C436 0A 2D        bpl   C465
000B:C438 01           nop
000B:C439 3E A0 89     sms   (0112),r0
000B:C43C 3E A0 C5     sms   (018A),r0
000B:C43F 05 24        bra   C465

000B:C441 01           nop

000B:C442 3D A0 C5     lms   r0,(018A)
000B:C445 3E 60        sub   #00
000B:C447 09 07        beq   C450
000B:C449 60           sub   r0
000B:C44A A0 56        ibt   r0,#0056
000B:C44C 3E A0 3D     sms   (007A),r0
000B:C44F 60           sub   r0
000B:C450 3E A0 C5     sms   (018A),r0
000B:C453 3D A0 89     lms   r0,(0112)
000B:C456 3E 68        sub   #08
000B:C458 0A 0B        bpl   C465
000B:C45A 90           sbk
000B:C45B 60           sub   r0
000B:C45C 90           sbk
000B:C45D 3D A0 D1     lms   r0,(01A2)
000B:C460 9E           lob
000B:C461 09 02        beq   C465
000B:C463 60           sub   r0
000B:C464 90           sbk
000B:C465 3D F1 71 00  lm    r1,(0071)
000B:C469 3D A0 6C     lms   r0,(00D8)
000B:C46C 3E 60        sub   #00
000B:C46E 08 0A        bne   C47A
000B:C470 B1 3E 73     and   #03
000B:C473 08 05        bne   C47A
000B:C475 01           nop
000B:C476 FF FA C4     iwt   r15,#C4FA
000B:C479 01           nop
000B:C47A 3E A0 66     sms   (00CC),r0
000B:C47D A7 FF        ibt   r7,#FFFF
000B:C47F 3E 72        and   #02
000B:C481 08 03        bne   C486
000B:C483 01           nop
000B:C484 A7 01        ibt   r7,#0001
000B:C486 3D A4 62     lms   r4,(00C4)
000B:C489 64           sub   r4
000B:C48A 09 06        beq   C492
000B:C48C 54           add   r4
000B:C48D 3E A0 62     sms   (00C4),r0
000B:C490 20 14        move  r4,r0
000B:C492 3D A0 5A     lms   r0,(00B4)
000B:C495 3E 60        sub   #00
000B:C497 09 13        beq   C4AC
000B:C499 01           nop
000B:C49A 3D C7        xor   r7
000B:C49C 0A 0E        bpl   C4AC
000B:C49E 01           nop
000B:C49F 3D A0 60     lms   r0,(00C0)
000B:C4A2 3E 60        sub   #00
000B:C4A4 08 06        bne   C4AC
000B:C4A6 01           nop
000B:C4A7 A0 08        ibt   r0,#0008
000B:C4A9 3E A0 E8     sms   (01D0),r0
000B:C4AC 3D A0 7D     lms   r0,(00FA)
000B:C4AF 4D           swap
000B:C4B0 03           lsr
000B:C4B1 03           lsr
000B:C4B2 17 C4        or    r4
000B:C4B4 3D A0 5B     lms   r0,(00B6)
000B:C4B7 3F 7F        bic   #0F
000B:C4B9 03           lsr
000B:C4BA 03           lsr
000B:C4BB 17 C7        or    r7
000B:C4BD 3D A0 6C     lms   r0,(00D8)
000B:C4C0 E0           dec   r0
000B:C4C1 0B 09        bmi   C4CC
000B:C4C3 F0 AF ED     iwt   r0,#EDAF
000B:C4C6 1E 54        add   r4
000B:C4C8 05 07        bra   C4D1

000B:C4CA EF           getb

000B:C4CB F0 2B EC     iwt   r0,#EC2B
000B:C4CE 1E 57        add   r7
000B:C4D0 EF           getb
000B:C4D1 DE           inc   r14
000B:C4D2 18 3D EF     getbh
000B:C4D5 3D A0 5A     lms   r0,(00B4)
000B:C4D8 68           sub   r8
000B:C4D9 09 45        beq   C520
000B:C4DB 01           nop
000B:C4DC 3D C8        xor   r8
000B:C4DE 0A 40        bpl   C520
000B:C4E0 01           nop
000B:C4E1 3D A0 E8     lms   r0,(01D0)
000B:C4E4 9E           lob
000B:C4E5 09 02        beq   C4E9
000B:C4E7 01           nop
000B:C4E8 D7           inc   r7
000B:C4E9 F0 B3 ED     iwt   r0,#EDB3
000B:C4EC 57           add   r7
000B:C4ED 1E 57        add   r7
000B:C4EF EF           getb
000B:C4F0 DE           inc   r14
000B:C4F1 3D EF        getbh
000B:C4F3 3D A7 5A     lms   r7,(00B4)
000B:C4F6 57           add   r7
000B:C4F7 90           sbk
000B:C4F8 9B           jmp   r11
000B:C4F9 01           nop

000B:C4FA 3D A0 60     lms   r0,(00C0)
000B:C4FD 3E 60        sub   #00
000B:C4FF 09 1F        beq   C520
000B:C501 01           nop
000B:C502 FE 2B EC     iwt   r14,#EC2B
000B:C505 3D A0 5A     lms   r0,(00B4)
000B:C508 3E 60        sub   #00
000B:C50A 0A 03        bpl   C50F
000B:C50C 01           nop
000B:C50D DE           inc   r14
000B:C50E DE           inc   r14
000B:C50F 18 EF        getb
000B:C511 DE           inc   r14
000B:C512 28 3D EF     getbh
000B:C515 68           sub   r8
000B:C516 09 08        beq   C520
000B:C518 01           nop
000B:C519 3D C8        xor   r8
000B:C51B 0A 03        bpl   C520
000B:C51D 01           nop
000B:C51E 9B           jmp   r11
000B:C51F 01           nop
000B:C520 3D A0 7D     lms   r0,(00FA)
000B:C523 4D           swap
000B:C524 03           lsr
000B:C525 03           lsr
000B:C526 17 03        lsr
000B:C528 3D A0 5B     lms   r0,(00B6)
000B:C52B 3F 7F        bic   #0F
000B:C52D 03           lsr
000B:C52E 03           lsr
000B:C52F 03           lsr
000B:C530 14 C7        or    r7
000B:C532 F0 B3 F0     iwt   r0,#F0B3
000B:C535 1E 54        add   r4
000B:C537 EF           getb
000B:C538 DE           inc   r14
000B:C539 17 3D EF     getbh
000B:C53C 3D A8 5A     lms   r8,(00B4)
000B:C53F B8 67        sub   r7
000B:C541 0A 02        bpl   C545
000B:C543 01           nop
000B:C544 D4           inc   r4
000B:C545 F0 93 F1     iwt   r0,#F193
000B:C548 54           add   r4
000B:C549 1E 54        add   r4
000B:C54B EF           getb
000B:C54C DE           inc   r14
000B:C54D 3D EF        getbh
000B:C54F 20 14        move  r4,r0
000B:C551 58           add   r8
000B:C552 20 18        move  r8,r0
000B:C554 67           sub   r7
000B:C555 3D C4        xor   r4
000B:C557 0B 06        bmi   C55F
000B:C559 60           sub   r0
000B:C55A 3E A0 66     sms   (00CC),r0
000B:C55D 27 18        move  r8,r7
000B:C55F 3E A8 5A     sms   (00B4),r8
000B:C562 9B           jmp   r11
000B:C563 01           nop

000B:C564 3D A0 60     lms   r0,(00C0)
000B:C567 9E           lob
000B:C568 08 34        bne   C59E
000B:C56A 01           nop
000B:C56B 3D A0 66     lms   r0,(00CC)
000B:C56E 9E           lob
000B:C56F 09 08        beq   C579
000B:C571 01           nop
000B:C572 3D A0 6E     lms   r0,(00DC)
000B:C575 9E           lob
000B:C576 09 07        beq   C57F
000B:C578 01           nop
000B:C579 F0 80 00     iwt   r0,#0080
000B:C57C 05 0E        bra   C58C

000B:C57E 01           nop

000B:C57F 3D A0 5A     lms   r0,(00B4)
000B:C582 3E 60        sub   #00
000B:C584 09 F3        beq   C579
000B:C586 01           nop
000B:C587 0A 03        bpl   C58C
000B:C589 01           nop
000B:C58A 4F           not
000B:C58B D0           inc   r0
000B:C58C 3D A3 7C     lms   r3,(00F8)
000B:C58F F2 00 08     iwt   r2,#0800
000B:C592 3D A1 C8     lms   r1,(0190)
000B:C595 51           add   r1
000B:C596 62           sub   r2
000B:C597 0B 04        bmi   C59D
000B:C599 52           add   r2
000B:C59A 62           sub   r2
000B:C59B D3           inc   r3
000B:C59C D3           inc   r3
000B:C59D 90           sbk
000B:C59E F2 6B 01     iwt   r2,#016B
000B:C5A1 3D A0 89     lms   r0,(0112)
000B:C5A4 9E           lob
000B:C5A5 09 15        beq   C5BC
000B:C5A7 01           nop
000B:C5A8 F2 6C 01     iwt   r2,#016C
000B:C5AB B3 3E 72     and   #02
000B:C5AE 09 04        beq   C5B4
000B:C5B0 01           nop
000B:C5B1 F2 6D 01     iwt   r2,#016D
000B:C5B4 3E A2 5F     sms   (00BE),r2
000B:C5B7 3E A0 7C     sms   (00F8),r0
000B:C5BA 9B           jmp   r11
000B:C5BB 01           nop

000B:C5BC 3E A2 5F     sms   (00BE),r2
000B:C5BF B3 3E 72     and   #02
000B:C5C2 3E A0 7C     sms   (00F8),r0
000B:C5C5 9B           jmp   r11
000B:C5C6 01           nop

000B:C5C7 3E AB 31     sms   (0062),r11
000B:C5CA A1 10        ibt   r1,#0010
000B:C5CC F2 00 0F     iwt   r2,#0F00
000B:C5CF F3 60 13     iwt   r3,#1360
000B:C5D2 F4 D6 1C     iwt   r4,#1CD6
000B:C5D5 F5 B6 1B     iwt   r5,#1BB6
000B:C5D8 3D A6 8E     lms   r6,(011C)
000B:C5DB 3D A7 8F     lms   r7,(011E)
000B:C5DE 3D A8 89     lms   r8,(0112)
000B:C5E1 AC 18        ibt   r12,#0018
000B:C5E3 02           cache
000B:C5E4 2F 1D        move  r13,r15
000B:C5E6 42           ldw   (r2)
000B:C5E7 61           sub   r1
000B:C5E8 08 4E        bne   C638
000B:C5EA D2           inc   r2
000B:C5EB 19 45        ldw   (r5)
000B:C5ED B9 1A 59     add   r9
000B:C5F0 44           ldw   (r4)
000B:C5F1 66           sub   r6
000B:C5F2 59           add   r9
000B:C5F3 3F 6A        cmp   r10
000B:C5F5 0D 41        bcs   C638
000B:C5F7 01           nop
000B:C5F8 D5           inc   r5
000B:C5F9 D5           inc   r5
000B:C5FA D4           inc   r4
000B:C5FB D4           inc   r4
000B:C5FC 45           ldw   (r5)
000B:C5FD 19 58        add   r8
000B:C5FF 44           ldw   (r4)
000B:C600 E5           dec   r5
000B:C601 E5           dec   r5
000B:C602 E4           dec   r4
000B:C603 67           sub   r7
000B:C604 3F 69        cmp   r9
000B:C606 0D 30        bcs   C638
000B:C608 E4           dec   r4
000B:C609 19 43        ldw   (r3)
000B:C60B F0 15 01     iwt   r0,#0115
000B:C60E 3F 69        cmp   r9
000B:C610 09 19        beq   C62B
000B:C612 01           nop
000B:C613 F0 65 00     iwt   r0,#0065
000B:C616 3F 69        cmp   r9
000B:C618 09 11        beq   C62B
000B:C61A 01           nop
000B:C61B F0 FA 00     iwt   r0,#00FA
000B:C61E 3F 69        cmp   r9
000B:C620 09 09        beq   C62B
000B:C622 01           nop
000B:C623 F0 10 01     iwt   r0,#0110
000B:C626 3F 69        cmp   r9
000B:C628 08 0E        bne   C638
000B:C62A 01           nop
000B:C62B F0 18 00     iwt   r0,#0018
000B:C62E 6C           sub   r12
000B:C62F 50           add   r0
000B:C630 50           add   r0
000B:C631 3E A0 00     sms   (0000),r0
000B:C634 A0 1C        ibt   r0,#001C
000B:C636 00           stop
000B:C637 01           nop

000B:C638 A0 04        ibt   r0,#0004
000B:C63A 23 50        add   r0
000B:C63C 24 50        add   r0
000B:C63E 25 50        add   r0
000B:C640 D2           inc   r2
000B:C641 D2           inc   r2
000B:C642 3C           loop
000B:C643 D2           inc   r2
000B:C644 3D AB 31     lms   r11,(0062)
000B:C647 9B           jmp   r11
000B:C648 01           nop

000B:C649 3E AB 30     sms   (0060),r11
000B:C64C A1 FF        ibt   r1,#FFFF
000B:C64E A9 48        ibt   r9,#0048
000B:C650 3D AA 8E     lms   r10,(011C)
000B:C653 3D A3 8F     lms   r3,(011E)
000B:C656 F4 D6 1C     iwt   r4,#1CD6
000B:C659 F5 00 0F     iwt   r5,#0F00
000B:C65C A6 10        ibt   r6,#0010
000B:C65E FB 41 10     iwt   r11,#1041
000B:C661 AE FF        ibt   r14,#FFFF
000B:C663 02           cache
000B:C664 AC 18        ibt   r12,#0018
000B:C666 2F 1D        move  r13,r15
000B:C668 3D 45        ldb   (r5)
000B:C66A 66           sub   r6
000B:C66B 08 30        bne   C69D
000B:C66D 01           nop
000B:C66E 3D 4B        ldb   (r11)
000B:C670 3E 71        and   #01
000B:C672 09 29        beq   C69D
000B:C674 01           nop
000B:C675 44           ldw   (r4)
000B:C676 6A           sub   r10
000B:C677 3D A8 62     lms   r8,(00C4)
000B:C67A E8           dec   r8
000B:C67B 0B 03        bmi   C680
000B:C67D 01           nop
000B:C67E 4F           not
000B:C67F D0           inc   r0
000B:C680 69           sub   r9
000B:C681 0D 1A        bcs   C69D
000B:C683 59           add   r9
000B:C684 20 18        move  r8,r0
000B:C686 B4 3E 52     add   #02
000B:C689 40           ldw   (r0)
000B:C68A 63           sub   r3
000B:C68B 0A 03        bpl   C690
000B:C68D 01           nop
000B:C68E 4F           not
000B:C68F D0           inc   r0
000B:C690 69           sub   r9
000B:C691 0D 0A        bcs   C69D
000B:C693 59           add   r9
000B:C694 58           add   r8
000B:C695 6E           sub   r14
000B:C696 0D 05        bcs   C69D
000B:C698 5E           add   r14
000B:C699 20 1E        move  r14,r0
000B:C69B 2C 11        move  r1,r12
000B:C69D A0 04        ibt   r0,#0004
000B:C69F 14 54        add   r4
000B:C6A1 15 55        add   r5
000B:C6A3 1B 5B        add   r11
000B:C6A5 3C           loop
000B:C6A6 01           nop
000B:C6A7 21 B1        moves r1,r1
000B:C6A9 0B 07        bmi   C6B2
000B:C6AB 01           nop
000B:C6AC A0 18        ibt   r0,#0018
000B:C6AE 61           sub   r1
000B:C6AF 50           add   r0
000B:C6B0 11 50        add   r0
000B:C6B2 3D AB 30     lms   r11,(0060)
000B:C6B5 9B           jmp   r11
000B:C6B6 01           nop

000B:C6B7 3D A0 C0     lms   r0,(0180)
000B:C6BA E0           dec   r0
000B:C6BB 0B 06        bmi   C6C3
000B:C6BD 01           nop
000B:C6BE 94           link  #04
000B:C6BF FF E8 A2     iwt   r15,#A2E8
000B:C6C2 01           nop
000B:C6C3 00           stop
000B:C6C4 01           nop

000B:C6C5 3D A0 EC     lms   r0,(01D8)
000B:C6C8 E0           dec   r0
000B:C6C9 0A 02        bpl   C6CD
000B:C6CB 01           nop
000B:C6CC 60           sub   r0
000B:C6CD 90           sbk
000B:C6CE A0 0A        ibt   r0,#000A
000B:C6D0 3F DF        romb
000B:C6D2 94           link  #04
000B:C6D3 FF F5 ED     iwt   r15,#EDF5
000B:C6D6 01           nop
000B:C6D7 60           sub   r0
000B:C6D8 00           stop
000B:C6D9 01           nop

000B:C6DA 94           link  #04
000B:C6DB FF 5A CE     iwt   r15,#CE5A
000B:C6DE 01           nop
000B:C6DF 94           link  #04
000B:C6E0 FF C8 EB     iwt   r15,#EBC8
000B:C6E3 01           nop
000B:C6E4 60           sub   r0
000B:C6E5 00           stop
000B:C6E6 01           nop

000B:C6E7 A0 0A        ibt   r0,#000A
000B:C6E9 3F DF        romb
000B:C6EB FF 95 C9     iwt   r15,#C995
000B:C6EE 01           nop
000B:C6EF A0 0A        ibt   r0,#000A
000B:C6F1 3F DF        romb
000B:C6F3 FF 9F C9     iwt   r15,#C99F
000B:C6F6 01           nop
000B:C6F7 A0 0A        ibt   r0,#000A
000B:C6F9 3F DF        romb
000B:C6FB 94           link  #04
000B:C6FC FF 64 CF     iwt   r15,#CF64
000B:C6FF 01           nop
000B:C700 60           sub   r0
000B:C701 00           stop
000B:C702 01           nop

000B:C703 94           link  #04
000B:C704 FF BF CC     iwt   r15,#CCBF
000B:C707 01           nop
000B:C708 00           stop
000B:C709 01           nop

000B:C70A 94           link  #04
000B:C70B FF 5A CE     iwt   r15,#CE5A
000B:C70E 01           nop
000B:C70F 00           stop
000B:C710 01           nop

000B:C711 3D A2 55     lms   r2,(00AA)
000B:C714 94           link  #04
000B:C715 FF BB CE     iwt   r15,#CEBB
000B:C718 01           nop
000B:C719 00           stop
000B:C71A 01           nop

000B:C71B A0 0A        ibt   r0,#000A
000B:C71D 3F DF        romb
000B:C71F 3D F0 04 1E  lm    r0,(1E04)
000B:C723 E0           dec   r0
000B:C724 0B 4F        bmi   C775
000B:C726 01           nop
000B:C727 90           sbk
000B:C728 3D F0 74 19  lm    r0,(1974)
000B:C72C 3E 77        and   #07
000B:C72E 08 45        bne   C775
000B:C730 01           nop
000B:C731 A0 10        ibt   r0,#0010
000B:C733 3D F2 70 19  lm    r2,(1970)
000B:C737 3D 82        umult r2
000B:C739 C0           hib
000B:C73A 3E 68        sub   #08
000B:C73C 3D A2 46     lms   r2,(008C)
000B:C73F 12 52        add   r2
000B:C741 A0 20        ibt   r0,#0020
000B:C743 3D F3 71 19  lm    r3,(1971)
000B:C747 3D 83        umult r3
000B:C749 C0           hib
000B:C74A 3E 64        sub   #04
000B:C74C 3D A3 48     lms   r3,(0090)
000B:C74F 13 53        add   r3
000B:C751 F5 DD 01     iwt   r5,#01DD
000B:C754 94           link  #04
000B:C755 FF C4 F0     iwt   r15,#F0C4
000B:C758 01           nop
000B:C759 F0 A2 10     iwt   r0,#10A2
000B:C75C 51           add   r1
000B:C75D B2 30        stw   (r0)
000B:C75F F0 42 11     iwt   r0,#1142
000B:C762 51           add   r1
000B:C763 B3 30        stw   (r0)
000B:C765 A5 04        ibt   r5,#0004
000B:C767 F0 4C 1E     iwt   r0,#1E4C
000B:C76A 51           add   r1
000B:C76B B5 30        stw   (r0)
000B:C76D A5 06        ibt   r5,#0006
000B:C76F F0 82 17     iwt   r0,#1782
000B:C772 51           add   r1
000B:C773 B5 30        stw   (r0)
000B:C775 60           sub   r0
000B:C776 3E A0 67     sms   (00CE),r0
000B:C779 3D A1 57     lms   r1,(00AE)
000B:C77C 3D A0 5A     lms   r0,(00B4)
000B:C77F 3E 60        sub   #00
000B:C781 09 0C        beq   C78F
000B:C783 B1 03        lsr
000B:C785 FE 74 EA     iwt   r14,#EA74
000B:C788 1E 5E        add   r14
000B:C78A EF           getb
000B:C78B 3E A0 3B     sms   (0076),r0
000B:C78E B1 51        add   r1
000B:C790 D0           inc   r0
000B:C791 1F 5F        add   r15
000B:C793 FF BC C7     iwt   r15,#C7BC
000B:C796 01           nop

DATA_0BC797:         db $01, $06, $BD, $01, $01, $9E, $AE, $01
DATA_0BC79F:         db $01, $00, $98, $01, $01, $50, $A9, $01
DATA_0BC7A7:         db $01, $0D, $EF, $01, $01, $D6, $99, $01
DATA_0BC7AF:         db $01, $85, $B4, $01, $01, $92, $9C, $01
DATA_0BC7B7:         db $01, $5D, $B6, $01, $01

000B:C7BC 3D A0 A5     lms   r0,(014A)
000B:C7BF 3E 60        sub   #00
000B:C7C1 09 22        beq   C7E5
000B:C7C3 01           nop
000B:C7C4 3D A1 A6     lms   r1,(014C)
000B:C7C7 E1           dec   r1
000B:C7C8 0A 11        bpl   C7DB
000B:C7CA 01           nop
000B:C7CB F1 00 02     iwt   r1,#0200
000B:C7CE 51           add   r1
000B:C7CF F1 01 04     iwt   r1,#0401
000B:C7D2 61           sub   r1
000B:C7D3 0C 03        bcc   C7D8
000B:C7D5 60           sub   r0
000B:C7D6 A0 06        ibt   r0,#0006
000B:C7D8 3E A0 A6     sms   (014C),r0
000B:C7DB 60           sub   r0
000B:C7DC 3E A0 38     sms   (0070),r0
000B:C7DF 3E A0 39     sms   (0072),r0
000B:C7E2 05 23        bra   C807

000B:C7E4 01           nop

000B:C7E5 3D A0 EB     lms   r0,(01D6)
000B:C7E8 A1 40        ibt   r1,#0040
000B:C7EA 61           sub   r1
000B:C7EB 0C 1A        bcc   C807
000B:C7ED 01           nop
000B:C7EE 3D A0 60     lms   r0,(00C0)
000B:C7F1 E0           dec   r0
000B:C7F2 0A 13        bpl   C807
000B:C7F4 01           nop
000B:C7F5 A1 00        ibt   r1,#0000
000B:C7F7 A2 00        ibt   r2,#0000
000B:C7F9 94           link  #04
000B:C7FA FF 64 CE     iwt   r15,#CE64
000B:C7FD 01           nop
000B:C7FE 94           link  #04
000B:C7FF FF 64 CF     iwt   r15,#CF64
000B:C802 01           nop
000B:C803 FF A4 C9     iwt   r15,#C9A4
000B:C806 01           nop
000B:C807 3D A0 63     lms   r0,(00C6)
000B:C80A E0           dec   r0
000B:C80B 0B 05        bmi   C812
000B:C80D 01           nop
000B:C80E FF AC C9     iwt   r15,#C9AC
000B:C811 01           nop
000B:C812 3D A0 6D     lms   r0,(00DA)
000B:C815 3E 60        sub   #00
000B:C817 08 05        bne   C81E
000B:C819 60           sub   r0
000B:C81A FF A6 C8     iwt   r15,#C8A6
000B:C81D 01           nop
000B:C81E 3E A0 6A     sms   (00D4),r0
000B:C821 94           link  #04
000B:C822 FF E5 DF     iwt   r15,#DFE5
000B:C825 01           nop
000B:C826 3D A0 60     lms   r0,(00C0)
000B:C829 E0           dec   r0
000B:C82A 0B 08        bmi   C834
000B:C82C 60           sub   r0
000B:C82D 3E A0 6D     sms   (00DA),r0
000B:C830 FF A4 C9     iwt   r15,#C9A4
000B:C833 01           nop
000B:C834 F1 00 01     iwt   r1,#0100
000B:C837 3D A0 6D     lms   r0,(00DA)
000B:C83A E0           dec   r0
000B:C83B 0A 04        bpl   C841
000B:C83D D0           inc   r0
000B:C83E F1 00 FF     iwt   r1,#FF00
000B:C841 61           sub   r1
000B:C842 12 3D C1     xor   r1
000B:C845 0A 02        bpl   C849
000B:C847 01           nop
000B:C848 60           sub   r0
000B:C849 90           sbk
000B:C84A F2 00 01     iwt   r2,#0100
000B:C84D 3D A0 62     lms   r0,(00C4)
000B:C850 E0           dec   r0
000B:C851 0B 06        bmi   C859
000B:C853 21 4F        not
000B:C855 D1           inc   r1
000B:C856 22 4F        not
000B:C858 D2           inc   r2
000B:C859 3E A2 5A     sms   (00B4),r2
000B:C85C 3E A2 54     sms   (00A8),r2
000B:C85F 3E A1 55     sms   (00AA),r1
000B:C862 3D A0 45     lms   r0,(008A)
000B:C865 9E           lob
000B:C866 52           add   r2
000B:C867 90           sbk
000B:C868 C0           hib
000B:C869 12 95        sex
000B:C86B 3D A0 46     lms   r0,(008C)
000B:C86E 52           add   r2
000B:C86F 90           sbk
000B:C870 B1 3D C2     xor   r2
000B:C873 0A 03        bpl   C878
000B:C875 22 4F        not
000B:C877 D2           inc   r2
000B:C878 3D A0 48     lms   r0,(0090)
000B:C87B 52           add   r2
000B:C87C 90           sbk
000B:C87D 3D A0 48     lms   r0,(0090)
000B:C880 3E 7F        and   #0F
000B:C882 21 B1        moves r1,r1
000B:C884 0B 02        bmi   C888
000B:C886 50           add   r0
000B:C887 D0           inc   r0
000B:C888 50           add   r0
000B:C889 FE E2 EB     iwt   r14,#EBE2
000B:C88C 1E 5E        add   r14
000B:C88E EF           getb
000B:C88F DE           inc   r14
000B:C890 3D EF        getbh
000B:C892 3E A0 5F     sms   (00BE),r0
000B:C895 3D A0 6D     lms   r0,(00DA)
000B:C898 3E 60        sub   #00
000B:C89A 08 06        bne   C8A2
000B:C89C 01           nop
000B:C89D 94           link  #04
000B:C89E FF 64 CF     iwt   r15,#CF64
000B:C8A1 01           nop
000B:C8A2 FF 8D C9     iwt   r15,#C98D
000B:C8A5 01           nop
000B:C8A6 3D A7 6A     lms   r7,(00D4)
000B:C8A9 E7           dec   r7
000B:C8AA 0A 05        bpl   C8B1
000B:C8AC D7           inc   r7
000B:C8AD FF 90 C9     iwt   r15,#C990
000B:C8B0 01           nop
000B:C8B1 3E A7 05     sms   (000A),r7
000B:C8B4 3D F1 71 00  lm    r1,(0071)
000B:C8B8 3D F2 73 00  lm    r2,(0073)
000B:C8BC F0 7C EA     iwt   r0,#EA7C
000B:C8BF 57           add   r7
000B:C8C0 1E 57        add   r7
000B:C8C2 EF           getb
000B:C8C3 DE           inc   r14
000B:C8C4 3D EF        getbh
000B:C8C6 3E A0 5F     sms   (00BE),r0
000B:C8C9 3D A0 EF     lms   r0,(01DE)
000B:C8CC 9E           lob
000B:C8CD 08 39        bne   C908
000B:C8CF 01           nop
000B:C8D0 A0 06        ibt   r0,#0006
000B:C8D2 67           sub   r7
000B:C8D3 0D 26        bcs   C8FB
000B:C8D5 D7           inc   r7
000B:C8D6 3D A0 60     lms   r0,(00C0)
000B:C8D9 E0           dec   r0
000B:C8DA 0A 2C        bpl   C908
000B:C8DC 01           nop
000B:C8DD A0 0C        ibt   r0,#000C
000B:C8DF 67           sub   r7
000B:C8E0 0D 19        bcs   C8FB
000B:C8E2 01           nop
000B:C8E3 3D F0 87 00  lm    r0,(0087)
000B:C8E7 3D FE 89 00  lm    r14,(0089)
000B:C8EB CE           or    r14
000B:C8EC 3E C4        or    #04
000B:C8EE 71           and   r1
000B:C8EF 3E 64        sub   #04
000B:C8F1 09 27        beq   C91A
000B:C8F3 60           sub   r0
000B:C8F4 3E A0 6A     sms   (00D4),r0
000B:C8F7 FF 90 C9     iwt   r15,#C990
000B:C8FA 01           nop
000B:C8FB 3E A7 6A     sms   (00D4),r7
000B:C8FE F0 94 EA     iwt   r0,#EA94
000B:C901 57           add   r7
000B:C902 1E 57        add   r7
000B:C904 EF           getb
000B:C905 3E A0 EF     sms   (01DE),r0
000B:C908 A0 07        ibt   r0,#0007
000B:C90A 67           sub   r7
000B:C90B 0C 0E        bcc   C91B
000B:C90D 60           sub   r0
000B:C90E 3E A0 55     sms   (00AA),r0
000B:C911 3E A0 5A     sms   (00B4),r0
000B:C914 3E A0 54     sms   (00A8),r0
000B:C917 05 6A        bra   C983

000B:C919 01           nop

000B:C91A 60           sub   r0
000B:C91B 3E A0 5A     sms   (00B4),r0
000B:C91E 3E A0 54     sms   (00A8),r0
000B:C921 3D A0 60     lms   r0,(00C0)
000B:C924 E0           dec   r0
000B:C925 0A 09        bpl   C930
000B:C927 01           nop
000B:C928 94           link  #04
000B:C929 FF BF CC     iwt   r15,#CCBF
000B:C92C 01           nop
000B:C92D 05 54        bra   C983

000B:C92F 01           nop

000B:C930 F0 00 08     iwt   r0,#0800
000B:C933 3E A0 55     sms   (00AA),r0
000B:C936 3D F0 74 19  lm    r0,(1974)
000B:C93A 03           lsr
000B:C93B 0C 41        bcc   C97E
000B:C93D 01           nop
000B:C93E F5 DD 01     iwt   r5,#01DD
000B:C941 94           link  #04
000B:C942 FF C4 F0     iwt   r15,#F0C4
000B:C945 01           nop
000B:C946 3D F0 70 19  lm    r0,(1970)
000B:C94A 3E 77        and   #07
000B:C94C 50           add   r0
000B:C94D FE B2 EA     iwt   r14,#EAB2
000B:C950 1E 5E        add   r14
000B:C952 3F EF        getbs
000B:C954 DE           inc   r14
000B:C955 3D F5 8C 00  lm    r5,(008C)
000B:C959 15 55        add   r5
000B:C95B F0 A2 10     iwt   r0,#10A2
000B:C95E 51           add   r1
000B:C95F B5 30        stw   (r0)
000B:C961 3F EF        getbs
000B:C963 3D F5 90 00  lm    r5,(0090)
000B:C967 15 55        add   r5
000B:C969 F0 42 11     iwt   r0,#1142
000B:C96C 51           add   r1
000B:C96D B5 30        stw   (r0)
000B:C96F A5 04        ibt   r5,#0004
000B:C971 F0 4C 1E     iwt   r0,#1E4C
000B:C974 51           add   r1
000B:C975 B5 30        stw   (r0)
000B:C977 E5           dec   r5
000B:C978 F0 82 17     iwt   r0,#1782
000B:C97B 51           add   r1
000B:C97C B5 30        stw   (r0)
000B:C97E 94           link  #04
000B:C97F FF 5A CE     iwt   r15,#CE5A
000B:C982 01           nop

000B:C983 94           link  #04
000B:C984 FF 64 CF     iwt   r15,#CF64
000B:C987 01           nop
000B:C988 94           link  #04
000B:C989 FF 33 CB     iwt   r15,#CB33
000B:C98C 01           nop
000B:C98D 60           sub   r0
000B:C98E 00           stop
000B:C98F 01           nop

000B:C990 94           link  #04
000B:C991 FF BF CC     iwt   r15,#CCBF
000B:C994 01           nop
000B:C995 94           link  #04
000B:C996 FF 64 CF     iwt   r15,#CF64
000B:C999 01           nop
000B:C99A 94           link  #04
000B:C99B FF 33 CB     iwt   r15,#CB33
000B:C99E 01           nop
000B:C99F 94           link  #04
000B:C9A0 FF E5 DF     iwt   r15,#DFE5
000B:C9A3 01           nop
000B:C9A4 94           link  #04
000B:C9A5 FF C8 EB     iwt   r15,#EBC8
000B:C9A8 01           nop
000B:C9A9 60           sub   r0
000B:C9AA 00           stop
000B:C9AB 01           nop

000B:C9AC 3D A0 5A     lms   r0,(00B4)
000B:C9AF 3E A0 54     sms   (00A8),r0
000B:C9B2 A0 01        ibt   r0,#0001
000B:C9B4 3E A0 69     sms   (00D2),r0
000B:C9B7 94           link  #04
000B:C9B8 FF 5A CE     iwt   r15,#CE5A
000B:C9BB 01           nop
000B:C9BC 60           sub   r0
000B:C9BD 3E A0 61     sms   (00C2),r0
000B:C9C0 94           link  #04
000B:C9C1 FF 64 CF     iwt   r15,#CF64
000B:C9C4 01           nop
000B:C9C5 94           link  #04
000B:C9C6 FF 1C E3     iwt   r15,#E31C
000B:C9C9 01           nop
000B:C9CA 3D A1 63     lms   r1,(00C6)
000B:C9CD B1 3E 63     sub   #03
000B:C9D0 0D 37        bcs   CA09
000B:C9D2 01           nop
000B:C9D3 B1 51        add   r1
000B:C9D5 50           add   r0
000B:C9D6 FE BE EA     iwt   r14,#EABE
000B:C9D9 1E 5E        add   r14
000B:C9DB 3F EF        getbs
000B:C9DD DE           inc   r14
000B:C9DE 3D A2 55     lms   r2,(00AA)
000B:C9E1 52           add   r2
000B:C9E2 0A 07        bpl   C9EB
000B:C9E4 90           sbk
000B:C9E5 EF           getb
000B:C9E6 90           sbk
000B:C9E7 D1           inc   r1
000B:C9E8 3E A1 63     sms   (00C6),r1
000B:C9EB DE           inc   r14
000B:C9EC A1 40        ibt   r1,#0040
000B:C9EE 3D A0 5A     lms   r0,(00B4)
000B:C9F1 3E 60        sub   #00
000B:C9F3 0B 04        bmi   C9F9
000B:C9F5 01           nop
000B:C9F6 21 4F        not
000B:C9F8 D1           inc   r1
000B:C9F9 51           add   r1
000B:C9FA 11 3D C1     xor   r1
000B:C9FD 0B 02        bmi   CA01
000B:C9FF 01           nop
000B:CA00 60           sub   r0
000B:CA01 90           sbk
000B:CA02 3E A0 54     sms   (00A8),r0
000B:CA05 FF 06 CB     iwt   r15,#CB06
000B:CA08 01           nop
000B:CA09 A0 01        ibt   r0,#0001
000B:CA0B 3E A0 7D     sms   (00FA),r0
000B:CA0E 3D F1 71 00  lm    r1,(0071)
000B:CA12 94           link  #04
000B:CA13 FF D3 E1     iwt   r15,#E1D3
000B:CA16 01           nop
000B:CA17 A9 FF        ibt   r9,#FFFF
000B:CA19 3D A8 68     lms   r8,(00D0)
000B:CA1C B1 3E 74     and   #04
000B:CA1F 09 05        beq   CA26
000B:CA21 60           sub   r0
000B:CA22 A9 01        ibt   r9,#0001
000B:CA24 A0 09        ibt   r0,#0009
000B:CA26 68           sub   r8
000B:CA27 09 04        beq   CA2D
000B:CA29 58           add   r8
000B:CA2A B8 59        add   r9
000B:CA2C 90           sbk
000B:CA2D 3D A2 55     lms   r2,(00AA)
000B:CA30 A3 F0        ibt   r3,#FFF0
000B:CA32 3D A0 7E     lms   r0,(00FC)
000B:CA35 A4 18        ibt   r4,#0018
000B:CA37 74           and   r4
000B:CA38 08 5D        bne   CA97
000B:CA3A 01           nop
000B:CA3B 3D A7 7F     lms   r7,(00FE)
000B:CA3E B7 74        and   r4
000B:CA40 08 57        bne   CA99
000B:CA42 01           nop
000B:CA43 B9 96        asr
000B:CA45 58           add   r8
000B:CA46 3E 62        sub   #02
000B:CA48 08 06        bne   CA50
000B:CA4A 01           nop
000B:CA4B 94           link  #04
000B:CA4C FF C0 CB     iwt   r15,#CBC0
000B:CA4F 01           nop
000B:CA50 94           link  #04
000B:CA51 FF 07 CC     iwt   r15,#CC07
000B:CA54 01           nop
000B:CA55 3D A1 42     lms   r1,(0084)
000B:CA58 3D A0 38     lms   r0,(0070)
000B:CA5B 71           and   r1
000B:CA5C 09 18        beq   CA76
000B:CA5E 01           nop
000B:CA5F 3D A0 68     lms   r0,(00D0)
000B:CA62 3E 60        sub   #00
000B:CA64 08 10        bne   CA76
000B:CA66 01           nop
000B:CA67 F0 06 00     iwt   r0,#0006
000B:CA6A 3E A0 60     sms   (00C0),r0
000B:CA6D F0 80 FB     iwt   r0,#FB80
000B:CA70 3E A0 55     sms   (00AA),r0
000B:CA73 05 0F        bra   CA84

000B:CA75 60           sub   r0

000B:CA76 F0 40 01     iwt   r0,#0140
000B:CA79 77           and   r7
000B:CA7A 08 1D        bne   CA99
000B:CA7C 60           sub   r0
000B:CA7D 3D A4 60     lms   r4,(00C0)
000B:CA80 64           sub   r4
000B:CA81 08 0D        bne   CA90
000B:CA83 60           sub   r0
000B:CA84 3E A0 63     sms   (00C6),r0
000B:CA87 94           link  #04
000B:CA88 FF C0 CB     iwt   r15,#CBC0
000B:CA8B 01           nop
000B:CA8C FF 30 CB     iwt   r15,#CB30
000B:CA8F 01           nop
000B:CA90 A0 D0        ibt   r0,#FFD0
000B:CA92 62           sub   r2
000B:CA93 0B 02        bmi   CA97
000B:CA95 12 52        add   r2
000B:CA97 A3 02        ibt   r3,#0002
000B:CA99 94           link  #04
000B:CA9A FF 6F CC     iwt   r15,#CC6F
000B:CA9D 01           nop
000B:CA9E B2 53        add   r3
000B:CAA0 F3 00 FF     iwt   r3,#FF00
000B:CAA3 63           sub   r3
000B:CAA4 0B 02        bmi   CAA8
000B:CAA6 13 53        add   r3
000B:CAA8 3E A3 55     sms   (00AA),r3
000B:CAAB 3D A1 7C     lms   r1,(00F8)
000B:CAAE 3D A0 E9     lms   r0,(01D2)
000B:CAB1 9E           lob
000B:CAB2 08 36        bne   CAEA
000B:CAB4 01           nop
000B:CAB5 A0 04        ibt   r0,#0004
000B:CAB7 90           sbk
000B:CAB8 3D F0 71 00  lm    r0,(0071)
000B:CABC 3E 73        and   #03
000B:CABE A0 10        ibt   r0,#0010
000B:CAC0 08 10        bne   CAD2
000B:CAC2 01           nop
000B:CAC3 3D A0 54     lms   r0,(00A8)
000B:CAC6 A2 40        ibt   r2,#0040
000B:CAC8 52           add   r2
000B:CAC9 F2 81 00     iwt   r2,#0081
000B:CACC 62           sub   r2
000B:CACD 0C 03        bcc   CAD2
000B:CACF 60           sub   r0
000B:CAD0 A0 06        ibt   r0,#0006
000B:CAD2 61           sub   r1
000B:CAD3 09 15        beq   CAEA
000B:CAD5 01           nop
000B:CAD6 A0 FE        ibt   r0,#FFFE
000B:CAD8 0B 03        bmi   CADD
000B:CADA 01           nop
000B:CADB A0 02        ibt   r0,#0002
000B:CADD 11 51        add   r1
000B:CADF A0 0E        ibt   r0,#000E
000B:CAE1 61           sub   r1
000B:CAE2 0D 03        bcs   CAE7
000B:CAE4 01           nop
000B:CAE5 A1 08        ibt   r1,#0008
000B:CAE7 3E A1 7C     sms   (00F8),r1
000B:CAEA 3D A0 68     lms   r0,(00D0)
000B:CAED E0           dec   r0
000B:CAEE 0B 10        bmi   CB00
000B:CAF0 D0           inc   r0
000B:CAF1 3E 69        sub   #09
000B:CAF3 0D 0B        bcs   CB00
000B:CAF5 D1           inc   r1
000B:CAF6 3E 59        add   #09
000B:CAF8 50           add   r0
000B:CAF9 FE EA EA     iwt   r14,#EAEA
000B:CAFC 1E           to    r14
000B:CAFD 05 07        bra   CB06

000B:CAFF 5E           add   r14

000B:CB00 F0 CA EA     iwt   r0,#EACA
000B:CB03 51           add   r1
000B:CB04 1E 51        add   r1
000B:CB06 3D A0 A5     lms   r0,(014A)
000B:CB09 22 B0        moves r2,r0
000B:CB0B 09 09        beq   CB16
000B:CB0D 01           nop
000B:CB0E 94           link  #04
000B:CB0F FF D0 EB     iwt   r15,#EBD0
000B:CB12 01           nop
000B:CB13 05 1B        bra   CB30

000B:CB15 01           nop

000B:CB16 3D A0 A8     lms   r0,(0150)
000B:CB19 E0           dec   r0
000B:CB1A 0A 14        bpl   CB30
000B:CB1C 01           nop
000B:CB1D 3D A0 6F     lms   r0,(00DE)
000B:CB20 9E           lob
000B:CB21 09 06        beq   CB29
000B:CB23 50           add   r0
000B:CB24 FE 47 F6     iwt   r14,#F647
000B:CB27 1E 5E        add   r14
000B:CB29 EF           getb
000B:CB2A DE           inc   r14
000B:CB2B 3D EF        getbh
000B:CB2D 3E A0 5F     sms   (00BE),r0
000B:CB30 60           sub   r0
000B:CB31 00           stop
000B:CB32 01           nop

000B:CB33 3E AB 32     sms   (0064),r11
000B:CB36 F1 94 01     iwt   r1,#0194
000B:CB39 3D A0 46     lms   r0,(008C)
000B:CB3C 3E 78        and   #08
000B:CB3E 09 03        beq   CB43
000B:CB40 01           nop
000B:CB41 A1 69        ibt   r1,#0069
000B:CB43 3D A0 7F     lms   r0,(00FE)
000B:CB46 71           and   r1
000B:CB47 61           sub   r1
000B:CB48 09 44        beq   CB8E
000B:CB4A 51           add   r1
000B:CB4B A4 0C        ibt   r4,#000C
000B:CB4D F1 A0 00     iwt   r1,#00A0
000B:CB50 71           and   r1
000B:CB51 09 08        beq   CB5B
000B:CB53 01           nop
000B:CB54 3D A0 60     lms   r0,(00C0)
000B:CB57 E0           dec   r0
000B:CB58 0B 0B        bmi   CB65
000B:CB5A 01           nop
000B:CB5B 3D A0 64     lms   r0,(00C8)
000B:CB5E E0           dec   r0
000B:CB5F 0A 51        bpl   CBB2
000B:CB61 01           nop
000B:CB62 05 57        bra   CBBB

000B:CB64 01           nop

000B:CB65 3D A0 64     lms   r0,(00C8)
000B:CB68 3E A0 7D     sms   (00FA),r0
000B:CB6B E0           dec   r0
000B:CB6C 0B 11        bmi   CB7F
000B:CB6E 01           nop
000B:CB6F 3D A0 61     lms   r0,(00C2)
000B:CB72 3E 62        sub   #02
000B:CB74 09 40        beq   CBB6
000B:CB76 01           nop
000B:CB77 94           link  #04
000B:CB78 FF 07 CC     iwt   r15,#CC07
000B:CB7B 01           nop
000B:CB7C 05 3D        bra   CBBB

000B:CB7E 01           nop

000B:CB7F A0 01        ibt   r0,#0001
000B:CB81 3E A0 64     sms   (00C8),r0
000B:CB84 60           sub   r0
000B:CB85 3E A0 5A     sms   (00B4),r0
000B:CB88 3E A0 54     sms   (00A8),r0
000B:CB8B 05 29        bra   CBB6

000B:CB8D 01           nop

000B:CB8E A4 00        ibt   r4,#0000
000B:CB90 3D A1 55     lms   r1,(00AA)
000B:CB93 21 B1        moves r1,r1
000B:CB95 0B 1F        bmi   CBB6
000B:CB97 60           sub   r0
000B:CB98 3E A0 6A     sms   (00D4),r0
000B:CB9B 3E A0 7C     sms   (00F8),r0
000B:CB9E 3E A0 E9     sms   (01D2),r0
000B:CBA1 3E A0 68     sms   (00D0),r0
000B:CBA4 D0           inc   r0
000B:CBA5 3E A0 63     sms   (00C6),r0
000B:CBA8 F0 80 02     iwt   r0,#0280
000B:CBAB 61           sub   r1
000B:CBAC 0A 04        bpl   CBB2
000B:CBAE 51           add   r1
000B:CBAF 3E A0 55     sms   (00AA),r0
000B:CBB2 60           sub   r0
000B:CBB3 3E A0 64     sms   (00C8),r0
000B:CBB6 94           link  #04
000B:CBB7 FF C2 CB     iwt   r15,#CBC2
000B:CBBA 01           nop
000B:CBBB 3D AB 32     lms   r11,(0064)
000B:CBBE 9B           jmp   r11
000B:CBBF 01           nop

000B:CBC0 A4 04        ibt   r4,#0004
000B:CBC2 3D A0 F4     lms   r0,(01E8)
000B:CBC5 E0           dec   r0
000B:CBC6 0A 3D        bpl   CC05
000B:CBC8 01           nop
000B:CBC9 A0 10        ibt   r0,#0010
000B:CBCB 90           sbk
000B:CBCC A0 5F        ibt   r0,#005F
000B:CBCE 3E A0 3D     sms   (007A),r0
000B:CBD1 3E AB 30     sms   (0060),r11
000B:CBD4 F5 BA 01     iwt   r5,#01BA
000B:CBD7 94           link  #04
000B:CBD8 FF C4 F0     iwt   r15,#F0C4
000B:CBDB 01           nop
000B:CBDC 3D A5 46     lms   r5,(008C)
000B:CBDF F0 A2 10     iwt   r0,#10A2
000B:CBE2 51           add   r1
000B:CBE3 B5 30        stw   (r0)
000B:CBE5 3D A0 48     lms   r0,(0090)
000B:CBE8 54           add   r4
000B:CBE9 15 3F 7F     bic   #0F
000B:CBEC F0 42 11     iwt   r0,#1142
000B:CBEF 51           add   r1
000B:CBF0 B5 30        stw   (r0)
000B:CBF2 A5 1A        ibt   r5,#001A
000B:CBF4 F0 4C 1E     iwt   r0,#1E4C
000B:CBF7 51           add   r1
000B:CBF8 B5 30        stw   (r0)
000B:CBFA A5 03        ibt   r5,#0003
000B:CBFC F0 82 17     iwt   r0,#1782
000B:CBFF 51           add   r1
000B:CC00 B5 30        stw   (r0)
000B:CC02 3D AB 30     lms   r11,(0060)
000B:CC05 9B           jmp   r11
000B:CC06 01           nop

000B:CC07 A4 0A        ibt   r4,#000A
000B:CC09 3D A0 54     lms   r0,(00A8)
000B:CC0C 3E 60        sub   #00
000B:CC0E 09 5D        beq   CC6D
000B:CC10 01           nop
000B:CC11 A6 00        ibt   r6,#0000
000B:CC13 0A 05        bpl   CC1A
000B:CC15 01           nop
000B:CC16 A6 02        ibt   r6,#0002
000B:CC18 4F           not
000B:CC19 D0           inc   r0
000B:CC1A C0           hib
000B:CC1B 50           add   r0
000B:CC1C FE FC EA     iwt   r14,#EAFC
000B:CC1F 1E 5E        add   r14
000B:CC21 EF           getb
000B:CC22 3D F5 74 19  lm    r5,(1974)
000B:CC26 75           and   r5
000B:CC27 08 44        bne   CC6D
000B:CC29 DE           inc   r14
000B:CC2A 3E AB 30     sms   (0060),r11
000B:CC2D F5 BB 01     iwt   r5,#01BB
000B:CC30 94           link  #04
000B:CC31 FF C4 F0     iwt   r15,#F0C4
000B:CC34 01           nop
000B:CC35 3D A0 60     lms   r0,(00C0)
000B:CC38 E0           dec   r0
000B:CC39 A0 03        ibt   r0,#0003
000B:CC3B 0A 03        bpl   CC40
000B:CC3D 01           nop
000B:CC3E A0 60        ibt   r0,#0060
000B:CC40 3E A0 3D     sms   (007A),r0
000B:CC43 F0 C0 13     iwt   r0,#13C0
000B:CC46 51           add   r1
000B:CC47 B6 30        stw   (r0)
000B:CC49 3D A5 46     lms   r5,(008C)
000B:CC4C F0 A2 10     iwt   r0,#10A2
000B:CC4F 51           add   r1
000B:CC50 B5 30        stw   (r0)
000B:CC52 3D A0 48     lms   r0,(0090)
000B:CC55 54           add   r4
000B:CC56 3F 7F        bic   #0F
000B:CC58 15 EF        getb
000B:CC5A 15 55        add   r5
000B:CC5C F0 42 11     iwt   r0,#1142
000B:CC5F 51           add   r1
000B:CC60 B5 30        stw   (r0)
000B:CC62 A5 13        ibt   r5,#0013
000B:CC64 F0 82 17     iwt   r0,#1782
000B:CC67 51           add   r1
000B:CC68 B5 30        stw   (r0)
000B:CC6A 3D AB 30     lms   r11,(0060)
000B:CC6D 9B           jmp   r11
000B:CC6E 01           nop

000B:CC6F A4 10        ibt   r4,#0010
000B:CC71 A6 F8        ibt   r6,#FFF8
000B:CC73 3D F0 74 19  lm    r0,(1974)
000B:CC77 A5 7F        ibt   r5,#007F
000B:CC79 75           and   r5
000B:CC7A 08 41        bne   CCBD
000B:CC7C 01           nop
000B:CC7D 3E AB 30     sms   (0060),r11
000B:CC80 F5 BC 01     iwt   r5,#01BC
000B:CC83 94           link  #04
000B:CC84 FF C4 F0     iwt   r15,#F0C4
000B:CC87 01           nop
000B:CC88 3D F5 70 19  lm    r5,(1970)
000B:CC8C F0 4C 1E     iwt   r0,#1E4C
000B:CC8F 51           add   r1
000B:CC90 B5 30        stw   (r0)
000B:CC92 3D A5 46     lms   r5,(008C)
000B:CC95 3D A0 62     lms   r0,(00C4)
000B:CC98 E0           dec   r0
000B:CC99 0B 04        bmi   CC9F
000B:CC9B B4 4F        not
000B:CC9D 3E 54        add   #04
000B:CC9F 15 55        add   r5
000B:CCA1 F0 A2 10     iwt   r0,#10A2
000B:CCA4 51           add   r1
000B:CCA5 B5 30        stw   (r0)
000B:CCA7 3D A0 48     lms   r0,(0090)
000B:CCAA 15 56        add   r6
000B:CCAC F0 42 11     iwt   r0,#1142
000B:CCAF 51           add   r1
000B:CCB0 B5 30        stw   (r0)
000B:CCB2 A5 FF        ibt   r5,#FFFF
000B:CCB4 F0 82 17     iwt   r0,#1782
000B:CCB7 51           add   r1
000B:CCB8 B5 30        stw   (r0)
000B:CCBA 3D AB 30     lms   r11,(0060)
000B:CCBD 9B           jmp   r11
000B:CCBE 01           nop

000B:CCBF 3D A0 D7     lms   r0,(01AE)
000B:CCC2 50           add   r0
000B:CCC3 0C 03        bcc   CCC8
000B:CCC5 01           nop
000B:CCC6 9B           jmp   r11
000B:CCC7 01           nop

000B:CCC8 3D A1 38     lms   r1,(0070)
000B:CCCB 3D A2 55     lms   r2,(00AA)
000B:CCCE 3D A0 69     lms   r0,(00D2)
000B:CCD1 13 9E        lob
000B:CCD3 C0           hib
000B:CCD4 18 4D        swap
000B:CCD6 3D F4 3A 1E  lm    r4,(1E3A)
000B:CCDA 60           sub   r0
000B:CCDB 90           sbk
000B:CCDC 3D A0 5A     lms   r0,(00B4)
000B:CCDF 16 54        add   r4
000B:CCE1 3D A5 60     lms   r5,(00C0)
000B:CCE4 E5           dec   r5
000B:CCE5 0A 6B        bpl   CD52
000B:CCE7 D5           inc   r5
000B:CCE8 24 B4        moves r4,r4
000B:CCEA 08 02        bne   CCEE
000B:CCEC 60           sub   r0
000B:CCED D0           inc   r0
000B:CCEE 3E A0 69     sms   (00D2),r0
000B:CCF1 A0 08        ibt   r0,#0008
000B:CCF3 3F DF        romb
000B:CCF5 3D A7 5B     lms   r7,(00B6)
000B:CCF8 F0 18 AE     iwt   r0,#AE18
000B:CCFB 1E 57        add   r7
000B:CCFD 3F EF        getbs
000B:CCFF 50           add   r0
000B:CD00 50           add   r0
000B:CD01 3D 9F        lmult
000B:CD03 24 C0        hib
000B:CD05 9E           lob
000B:CD06 4D           swap
000B:CD07 19 C4        or    r4
000B:CD09 3E A9 54     sms   (00A8),r9
000B:CD0C 0A 03        bpl   CD11
000B:CD0E 29 4F        not
000B:CD10 D9           inc   r9
000B:CD11 3D F0 B4 01  lm    r0,(01B4)
000B:CD15 3E 60        sub   #00
000B:CD17 09 05        beq   CD1E
000B:CD19 01           nop
000B:CD1A FF 0A CE     iwt   r15,#CE0A
000B:CD1D 01           nop
000B:CD1E 3D A0 57     lms   r0,(00AE)
000B:CD21 3E 62        sub   #02
000B:CD23 09 29        beq   CD4E
000B:CD25 01           nop
000B:CD26 F0 58 AE     iwt   r0,#AE58
000B:CD29 1E 57        add   r7
000B:CD2B 3F EF        getbs
000B:CD2D 50           add   r0
000B:CD2E 50           add   r0
000B:CD2F 3D 9F        lmult
000B:CD31 24 C0        hib
000B:CD33 9E           lob
000B:CD34 4D           swap
000B:CD35 C4           or    r4
000B:CD36 3E F0 3C 1E  sm    (1E3C),r0
000B:CD3A 0B 02        bmi   CD3E
000B:CD3C 01           nop
000B:CD3D 59           add   r9
000B:CD3E F4 00 03     iwt   r4,#0300
000B:CD41 54           add   r4
000B:CD42 F4 00 07     iwt   r4,#0700
000B:CD45 64           sub   r4
000B:CD46 0B 03        bmi   CD4B
000B:CD48 54           add   r4
000B:CD49 24 10        move  r0,r4
000B:CD4B 3E A0 55     sms   (00AA),r0
000B:CD4E FF 5A CE     iwt   r15,#CE5A
000B:CD51 01           nop
000B:CD52 3E A6 54     sms   (00A8),r6
000B:CD55 E3           dec   r3
000B:CD56 0A 1C        bpl   CD74
000B:CD58 D3           inc   r3
000B:CD59 3D A0 39     lms   r0,(0072)
000B:CD5C 3D A7 42     lms   r7,(0084)
000B:CD5F 77           and   r7
000B:CD60 09 09        beq   CD6B
000B:CD62 01           nop
000B:CD63 3D A0 F3     lms   r0,(01E6)
000B:CD66 3E 68        sub   #08
000B:CD68 0C 05        bcc   CD6F
000B:CD6A 01           nop
000B:CD6B FF 0A CE     iwt   r15,#CE0A
000B:CD6E 01           nop
000B:CD6F A3 01        ibt   r3,#0001
000B:CD71 3E A3 69     sms   (00D2),r3
000B:CD74 3D A0 F3     lms   r0,(01E6)
000B:CD77 E0           dec   r0
000B:CD78 0A F1        bpl   CD6B
000B:CD7A 01           nop
000B:CD7B 3D A0 57     lms   r0,(00AE)
000B:CD7E E0           dec   r0
000B:CD7F 0B 07        bmi   CD88
000B:CD81 D0           inc   r0
000B:CD82 A7 10        ibt   r7,#0010
000B:CD84 67           sub   r7
000B:CD85 08 73        bne   CDFA
000B:CD87 01           nop
000B:CD88 3D A0 61     lms   r0,(00C2)
000B:CD8B E0           dec   r0
000B:CD8C 0A 6C        bpl   CDFA
000B:CD8E E3           dec   r3
000B:CD8F 08 19        bne   CDAA
000B:CD91 D3           inc   r3
000B:CD92 F0 60 01     iwt   r0,#0160
000B:CD95 62           sub   r2
000B:CD96 0A 72        bpl   CE0A
000B:CD98 01           nop
000B:CD99 3D A0 42     lms   r0,(0084)
000B:CD9C 71           and   r1
000B:CD9D 08 05        bne   CDA4
000B:CD9F 01           nop
000B:CDA0 FF 24 CE     iwt   r15,#CE24
000B:CDA3 01           nop
000B:CDA4 D3           inc   r3
000B:CDA5 B3 C8        or    r8
000B:CDA7 3E A0 69     sms   (00D2),r0
000B:CDAA 3D A0 42     lms   r0,(0084)
000B:CDAD 71           and   r1
000B:CDAE 09 4A        beq   CDFA
000B:CDB0 01           nop
000B:CDB1 3D A0 57     lms   r0,(00AE)
000B:CDB4 A7 10        ibt   r7,#0010
000B:CDB6 67           sub   r7
000B:CDB7 08 05        bne   CDBE
000B:CDB9 01           nop
000B:CDBA FF CA CE     iwt   r15,#CECA
000B:CDBD 01           nop
000B:CDBE F0 80 FE     iwt   r0,#FE80
000B:CDC1 28 B8        moves r8,r8
000B:CDC3 0A 04        bpl   CDC9
000B:CDC5 01           nop
000B:CDC6 F0 40 FD     iwt   r0,#FD40
000B:CDC9 62           sub   r2
000B:CDCA 0A 2E        bpl   CDFA
000B:CDCC 01           nop
000B:CDCD 3D A0 EA     lms   r0,(01D4)
000B:CDD0 9E           lob
000B:CDD1 08 16        bne   CDE9
000B:CDD3 D0           inc   r0
000B:CDD4 D0           inc   r0
000B:CDD5 90           sbk
000B:CDD6 D3           inc   r3
000B:CDD7 B3 3E 68     sub   #08
000B:CDDA 0C 08        bcc   CDE4
000B:CDDC D3           inc   r3
000B:CDDD A3 04        ibt   r3,#0004
000B:CDDF A0 37        ibt   r0,#0037
000B:CDE1 3E A0 3D     sms   (007A),r0
000B:CDE4 B3 C8        or    r8
000B:CDE6 3E A0 69     sms   (00D2),r0
000B:CDE9 F0 F0 FE     iwt   r0,#FEF0
000B:CDEC 52           add   r2
000B:CDED 0A 02        bpl   CDF1
000B:CDEF 01           nop
000B:CDF0 60           sub   r0
000B:CDF1 03           lsr
000B:CDF2 03           lsr
000B:CDF3 03           lsr
000B:CDF4 4F           not
000B:CDF5 A7 F1        ibt   r7,#FFF1
000B:CDF7 05 2E        bra   CE27

000B:CDF9 57           add   r7

000B:CDFA A3 00        ibt   r3,#0000
000B:CDFC 3E A3 69     sms   (00D2),r3
000B:CDFF A0 12        ibt   r0,#0012
000B:CE01 3E A0 F3     sms   (01E6),r0
000B:CE04 F0 06 00     iwt   r0,#0006
000B:CE07 3E A0 60     sms   (00C0),r0
000B:CE0A 3D A0 EE     lms   r0,(01DC)
000B:CE0D E0           dec   r0
000B:CE0E 0A 17        bpl   CE27
000B:CE10 60           sub   r0
000B:CE11 A7 40        ibt   r7,#0040
000B:CE13 3D A0 57     lms   r0,(00AE)
000B:CE16 3E 62        sub   #02
000B:CE18 09 0D        beq   CE27
000B:CE1A B7 A7 28     ibt   r7,#0028
000B:CE1D 3D A0 42     lms   r0,(0084)
000B:CE20 71           and   r1
000B:CE21 08 04        bne   CE27
000B:CE23 B7 F0 A0 00  iwt   r0,#00A0
000B:CE27 12 52        add   r2
000B:CE29 0B 2C        bmi   CE57
000B:CE2B 01           nop
000B:CE2C F0 00 04     iwt   r0,#0400
000B:CE2F 62           sub   r2
000B:CE30 0D 03        bcs   CE35
000B:CE32 52           add   r2
000B:CE33 20 12        move  r2,r0
000B:CE35 25 B5        moves r5,r5
000B:CE37 09 1E        beq   CE57
000B:CE39 B3 3E 62     sub   #02
000B:CE3C 0D 19        bcs   CE57
000B:CE3E 01           nop
000B:CE3F F7 08 00     iwt   r7,#0008
000B:CE42 B5 67        sub   r7
000B:CE44 0D 0E        bcs   CE54
000B:CE46 01           nop
000B:CE47 3D A0 EA     lms   r0,(01D4)
000B:CE4A 9E           lob
000B:CE4B 08 07        bne   CE54
000B:CE4D 01           nop
000B:CE4E D5           inc   r5
000B:CE4F A0 08        ibt   r0,#0008
000B:CE51 3E A0 EA     sms   (01D4),r0
000B:CE54 3E A5 60     sms   (00C0),r5
000B:CE57 3E A2 55     sms   (00AA),r2
000B:CE5A A0 0A        ibt   r0,#000A
000B:CE5C 3F DF        romb
000B:CE5E 3D A1 54     lms   r1,(00A8)
000B:CE61 3D A2 55     lms   r2,(00AA)
000B:CE64 3D F0 3E 1E  lm    r0,(1E3E)
000B:CE68 3E 60        sub   #00
000B:CE6A 09 42        beq   CEAE
000B:CE6C 01           nop
000B:CE6D A0 08        ibt   r0,#0008
000B:CE6F 3F DF        romb
000B:CE71 3D F3 40 1E  lm    r3,(1E40)
000B:CE75 F0 98 AB     iwt   r0,#AB98
000B:CE78 53           add   r3
000B:CE79 1E 53        add   r3
000B:CE7B EF           getb
000B:CE7C DE           inc   r14
000B:CE7D 16 3D EF     getbh
000B:CE80 A0 C0        ibt   r0,#FFC0
000B:CE82 53           add   r3
000B:CE83 4D           swap
000B:CE84 0B 03        bmi   CE89
000B:CE86 21 4F        not
000B:CE88 D1           inc   r1
000B:CE89 3D F0 44 1E  lm    r0,(1E44)
000B:CE8D 9E           lob
000B:CE8E 51           add   r1
000B:CE8F 90           sbk
000B:CE90 C0           hib
000B:CE91 95           sex
000B:CE92 3D F1 46 1E  lm    r1,(1E46)
000B:CE96 51           add   r1
000B:CE97 90           sbk
000B:CE98 3D 9F        lmult
000B:CE9A 24 C0        hib
000B:CE9C 9E           lob
000B:CE9D 4D           swap
000B:CE9E C4           or    r4
000B:CE9F 3D F3 42 1E  lm    r3,(1E42)
000B:CEA3 53           add   r3
000B:CEA4 3E A0 46     sms   (008C),r0
000B:CEA7 A0 0A        ibt   r0,#000A
000B:CEA9 3F DF        romb
000B:CEAB 05 0E        bra   CEBB

000B:CEAD 01           nop

000B:CEAE 3D A0 45     lms   r0,(008A)
000B:CEB1 9E           lob
000B:CEB2 51           add   r1
000B:CEB3 90           sbk
000B:CEB4 C0           hib
000B:CEB5 95           sex
000B:CEB6 3D A1 46     lms   r1,(008C)
000B:CEB9 51           add   r1
000B:CEBA 90           sbk
000B:CEBB 3D A0 47     lms   r0,(008E)
000B:CEBE 9E           lob
000B:CEBF 52           add   r2
000B:CEC0 90           sbk
000B:CEC1 C0           hib
000B:CEC2 95           sex
000B:CEC3 3D A2 48     lms   r2,(0090)
000B:CEC6 52           add   r2
000B:CEC7 90           sbk
000B:CEC8 9B           jmp   r11
000B:CEC9 01           nop

000B:CECA F6 00 01     iwt   r6,#0100
000B:CECD B3 3E 65     sub   #05
000B:CED0 0C 67        bcc   CF39
000B:CED2 01           nop
000B:CED3 A0 08        ibt   r0,#0008
000B:CED5 3F DF        romb
000B:CED7 3D A7 BF     lms   r7,(017E)
000B:CEDA 3D A5 CF     lms   r5,(019E)
000B:CEDD 25 B5        moves r5,r5
000B:CEDF 0B 0C        bmi   CEED
000B:CEE1 60           sub   r0
000B:CEE2 F0 00 03     iwt   r0,#0300
000B:CEE5 71           and   r1
000B:CEE6 A0 FF        ibt   r0,#FFFF
000B:CEE8 09 03        beq   CEED
000B:CEEA 01           nop
000B:CEEB A0 FC        ibt   r0,#FFFC
000B:CEED 57           add   r7
000B:CEEE 95           sex
000B:CEEF FE 00 02     iwt   r14,#0200
000B:CEF2 A0 10        ibt   r0,#0010
000B:CEF4 0B 0E        bmi   CF04
000B:CEF6 01           nop
000B:CEF7 FE 00 FE     iwt   r14,#FE00
000B:CEFA F0 00 03     iwt   r0,#0300
000B:CEFD 71           and   r1
000B:CEFE A0 F2        ibt   r0,#FFF2
000B:CF00 09 02        beq   CF04
000B:CF02 01           nop
000B:CF03 50           add   r0
000B:CF04 55           add   r5
000B:CF05 20 15        move  r5,r0
000B:CF07 6E           sub   r14
000B:CF08 3D CE        xor   r14
000B:CF0A 0B 03        bmi   CF0F
000B:CF0C 01           nop
000B:CF0D 2E 15        move  r5,r14
000B:CF0F 3E A5 CF     sms   (019E),r5
000B:CF12 3D A0 D0     lms   r0,(01A0)
000B:CF15 9E           lob
000B:CF16 55           add   r5
000B:CF17 90           sbk
000B:CF18 C0           hib
000B:CF19 57           add   r7
000B:CF1A 17 9E        lob
000B:CF1C 3E A7 BF     sms   (017E),r7
000B:CF1F A0 18        ibt   r0,#0018
000B:CF21 57           add   r7
000B:CF22 9E           lob
000B:CF23 50           add   r0
000B:CF24 FE 18 AC     iwt   r14,#AC18
000B:CF27 1E 5E        add   r14
000B:CF29 EF           getb
000B:CF2A DE           inc   r14
000B:CF2B 3D EF        getbh
000B:CF2D 4F           not
000B:CF2E D0           inc   r0
000B:CF2F F6 80 00     iwt   r6,#0080
000B:CF32 66           sub   r6
000B:CF33 0A 20        bpl   CF55
000B:CF35 16           to    r6
000B:CF36 05 1D        bra   CF55

000B:CF38 56           add   r6

000B:CF39 3D A0 EA     lms   r0,(01D4)
000B:CF3C 9E           lob
000B:CF3D 08 16        bne   CF55
000B:CF3F 01           nop
000B:CF40 A0 04        ibt   r0,#0004
000B:CF42 90           sbk
000B:CF43 B3 3E 64     sub   #04
000B:CF46 08 0A        bne   CF52
000B:CF48 D3           inc   r3
000B:CF49 F0 30 FF     iwt   r0,#FF30
000B:CF4C 3E A0 CF     sms   (019E),r0
000B:CF4F F2 40 FE     iwt   r2,#FE40
000B:CF52 3E A3 69     sms   (00D2),r3
000B:CF55 A0 10        ibt   r0,#0010
000B:CF57 52           add   r2
000B:CF58 66           sub   r6
000B:CF59 0A 02        bpl   CF5D
000B:CF5B 16 56        add   r6
000B:CF5D 3E A6 55     sms   (00AA),r6
000B:CF60 FF 5A CE     iwt   r15,#CE5A
000B:CF63 01           nop

000B:CF64 FE 32 EB     iwt   r14,#EB32
000B:CF67 3D A0 63     lms   r0,(00C6)
000B:CF6A E0           dec   r0
000B:CF6B 0A 0F        bpl   CF7C
000B:CF6D 01           nop
000B:CF6E FE 0E EB     iwt   r14,#EB0E
000B:CF71 3D A0 61     lms   r0,(00C2)
000B:CF74 3E 62        sub   #02
000B:CF76 0C 04        bcc   CF7C
000B:CF78 01           nop
000B:CF79 FE 20 EB     iwt   r14,#EB20
000B:CF7C 3E AB 32     sms   (0064),r11
000B:CF7F 3D A9 46     lms   r9,(008C)
000B:CF82 3D AA 48     lms   r10,(0090)
000B:CF85 A2 00        ibt   r2,#0000
000B:CF87 3E A2 7F     sms   (00FE),r2
000B:CF8A 3E A2 80     sms   (0100),r2
000B:CF8D 3E A2 81     sms   (0102),r2
000B:CF90 3E A2 7D     sms   (00FA),r2
000B:CF93 3E A2 5B     sms   (00B6),r2
000B:CF96 A3 01        ibt   r3,#0001
000B:CF98 A4 00        ibt   r4,#0000
000B:CF9A 94           link  #04
000B:CF9B FF 82 D2     iwt   r15,#D282
000B:CF9E 02           cache
000B:CF9F 94           link  #04
000B:CFA0 FF 88 D2     iwt   r15,#D288
000B:CFA3 3E F0 00 01  sm    (0100),r0
000B:CFA7 77           and   r7
000B:CFA8 3E A0 82     sms   (0104),r0
000B:CFAB A3 FF        ibt   r3,#FFFF
000B:CFAD 94           link  #04
000B:CFAE FF 88 D2     iwt   r15,#D288
000B:CFB1 3E 94        jmp r4
000B:CFB3 FF 88 D2     iwt   r15,#D288
000B:CFB6 3E 29 54     add   #04
000B:CFB9 3D A3 6E     lms   r3,(00DC)
000B:CFBC 60           sub   r0
000B:CFBD 90           sbk
000B:CFBE 21 B1        moves r1,r1
000B:CFC0 09 3F        beq   D001
000B:CFC2 60           sub   r0
000B:CFC3 3E A0 54     sms   (00A8),r0
000B:CFC6 3E A0 5A     sms   (00B4),r0
000B:CFC9 3D A0 60     lms   r0,(00C0)
000B:CFCC E0           dec   r0
000B:CFCD 0A 32        bpl   D001
000B:CFCF B1 3E 7F     and   #0F
000B:CFD2 09 02        beq   CFD6
000B:CFD4 D0           inc   r0
000B:CFD5 60           sub   r0
000B:CFD6 D0           inc   r0
000B:CFD7 3D F1 71 00  lm    r1,(0071)
000B:CFDB 71           and   r1
000B:CFDC 09 3E        beq   D01C
000B:CFDE D3           inc   r3
000B:CFDF 20 11        move  r1,r0
000B:CFE1 3D A0 D9     lms   r0,(01B2)
000B:CFE4 50           add   r0
000B:CFE5 0C 2A        bcc   D011
000B:CFE7 01           nop
000B:CFE8 3D A5 83     lms   r5,(0106)
000B:CFEB B5 3E 73     and   #03
000B:CFEE 61           sub   r1
000B:CFEF 08 20        bne   D011
000B:CFF1 01           nop
000B:CFF2 3D A0 A8     lms   r0,(0150)
000B:CFF5 E0           dec   r0
000B:CFF6 0A 19        bpl   D011
000B:CFF8 01           nop
000B:CFF9 94           link  #04
000B:CFFA FF 36 DC     iwt   r15,#DC36
000B:CFFD 01           nop
000B:CFFE 05 1C        bra   D01C

000B:D000 01           nop

000B:D001 3D A0 E1     lms   r0,(01C2)
000B:D004 3E 60        sub   #00
000B:D006 09 14        beq   D01C
000B:D008 01           nop
000B:D009 A0 0F        ibt   r0,#000F
000B:D00B 63           sub   r3
000B:D00C 0C 03        bcc   D011
000B:D00E 13 3D 53     adc   r3
000B:D011 A0 23        ibt   r0,#0023
000B:D013 63           sub   r3
000B:D014 0D 03        bcs   D019
000B:D016 01           nop
000B:D017 A3 10        ibt   r3,#0010
000B:D019 3E A3 6E     sms   (00DC),r3
000B:D01C A3 10        ibt   r3,#0010
000B:D01E 94           link  #04
000B:D01F FF EF D3     iwt   r15,#D3EF
000B:D022 3E 94        jmp r4
000B:D024 FF EF D3     iwt   r15,#D3EF
000B:D027 3E B2 3E 73  and   #03
000B:D02B 08 05        bne   D032
000B:D02D 01           nop
000B:D02E FF AB D0     iwt   r15,#D0AB
000B:D031 01           nop
000B:D032 3D A0 55     lms   r0,(00AA)
000B:D035 50           add   r0
000B:D036 0C 72        bcc   D0AA
000B:D038 60           sub   r0
000B:D039 90           sbk
000B:D03A D0           inc   r0
000B:D03B 3E A0 69     sms   (00D2),r0
000B:D03E A0 14        ibt   r0,#0014
000B:D040 3E A0 F3     sms   (01E6),r0
000B:D043 3D A0 D9     lms   r0,(01B2)
000B:D046 50           add   r0
000B:D047 0C 57        bcc   D0A0
000B:D049 01           nop
000B:D04A F0 00 F8     iwt   r0,#F800
000B:D04D 77           and   r7
000B:D04E F1 00 A0     iwt   r1,#A000
000B:D051 61           sub   r1
000B:D052 08 4C        bne   D0A0
000B:D054 01           nop
000B:D055 2E 15        move  r5,r14
000B:D057 B6 9E        lob
000B:D059 FE BC EB     iwt   r14,#EBBC
000B:D05C 1E 5E        add   r14
000B:D05E EF           getb
000B:D05F 25 1E        move  r14,r5
000B:D061 20 15        move  r5,r0
000B:D063 11 3E 78     and   #08
000B:D066 09 38        beq   D0A0
000B:D068 4D           swap
000B:D069 50           add   r0
000B:D06A 3D A0 00     lms   r0,(0000)
000B:D06D 3E 7F        and   #0F
000B:D06F 0C 03        bcc   D074
000B:D071 01           nop
000B:D072 3F 5F        adc   #0F
000B:D074 3E A0 87     sms   (010E),r0
000B:D077 A1 40        ibt   r1,#0040
000B:D079 21 75        and   r5
000B:D07B 08 12        bne   D08F
000B:D07D 01           nop
000B:D07E 3E 6A        sub   #0A
000B:D080 A1 10        ibt   r1,#0010
000B:D082 61           sub   r1
000B:D083 0D 1B        bcs   D0A0
000B:D085 01           nop
000B:D086 3D F0 71 00  lm    r0,(0071)
000B:D08A 3E 78        and   #08
000B:D08C 09 12        beq   D0A0
000B:D08E 01           nop
000B:D08F 3D A0 A8     lms   r0,(0150)
000B:D092 E0           dec   r0
000B:D093 0A 0B        bpl   D0A0
000B:D095 01           nop
000B:D096 A5 08        ibt   r5,#0008
000B:D098 94           link  #04
000B:D099 FF 20 DC     iwt   r15,#DC20
000B:D09C 01           nop
000B:D09D 05 0C        bra   D0AB

000B:D09F 01           nop

000B:D0A0 A0 1F        ibt   r0,#001F
000B:D0A2 3E A0 3D     sms   (007A),r0
000B:D0A5 A0 08        ibt   r0,#0008
000B:D0A7 3E A0 EE     sms   (01DC),r0
000B:D0AA DA           inc   r10
000B:D0AB A3 F0        ibt   r3,#FFF0
000B:D0AD 3D A4 5C     lms   r4,(00B8)
000B:D0B0 94           link  #04
000B:D0B1 FF EF D3     iwt   r15,#D3EF
000B:D0B4 3E 3E A1 0A  sms   (0014),r1
000B:D0B8 3D A0 08     lms   r0,(0010)
000B:D0BB 3E A0 5C     sms   (00B8),r0
000B:D0BE 3D A0 00     lms   r0,(0000)
000B:D0C1 3E A0 10     sms   (0020),r0
000B:D0C4 3D A0 01     lms   r0,(0002)
000B:D0C7 3E A0 11     sms   (0022),r0
000B:D0CA 3E A6 12     sms   (0024),r6
000B:D0CD 3E A7 13     sms   (0026),r7
000B:D0D0 3D A4 5D     lms   r4,(00BA)
000B:D0D3 94           link  #04
000B:D0D4 FF EF D3     iwt   r15,#D3EF
000B:D0D7 3E 3E A1 0B  sms   (0016),r1
000B:D0DB 3D A0 08     lms   r0,(0010)
000B:D0DE 3E A0 5D     sms   (00BA),r0
000B:D0E1 3D A0 00     lms   r0,(0000)
000B:D0E4 3E A0 14     sms   (0028),r0
000B:D0E7 3D A0 01     lms   r0,(0002)
000B:D0EA 3E A0 15     sms   (002A),r0
000B:D0ED 3E A6 16     sms   (002C),r6
000B:D0F0 3E A7 17     sms   (002E),r7
000B:D0F3 3D A4 5E     lms   r4,(00BC)
000B:D0F6 94           link  #04
000B:D0F7 FF EF D3     iwt   r15,#D3EF
000B:D0FA 3E 3E A1 0C  sms   (0018),r1
000B:D0FE 3D A4 08     lms   r4,(0010)
000B:D101 3E A4 5E     sms   (00BC),r4
000B:D104 B2 3E 77     and   #07
000B:D107 08 23        bne   D12C
000B:D109 01           nop
000B:D10A 3D A0 DA     lms   r0,(01B4)
000B:D10D 3E 60        sub   #00
000B:D10F 09 0A        beq   D11B
000B:D111 01           nop
000B:D112 A4 00        ibt   r4,#0000
000B:D114 3D A6 55     lms   r6,(00AA)
000B:D117 FF A2 D1     iwt   r15,#D1A2
000B:D11A 01           nop
000B:D11B 3D A0 60     lms   r0,(00C0)
000B:D11E E0           dec   r0
000B:D11F 0A 07        bpl   D128
000B:D121 01           nop
000B:D122 F0 08 00     iwt   r0,#0008
000B:D125 3E A0 60     sms   (00C0),r0
000B:D128 FF 14 D2     iwt   r15,#D214
000B:D12B 01           nop
000B:D12C 3D A0 0A     lms   r0,(0014)
000B:D12F 3D A5 0B     lms   r5,(0016)
000B:D132 65           sub   r5
000B:D133 0B 03        bmi   D138
000B:D135 55           add   r5
000B:D136 25 10        move  r0,r5
000B:D138 3D A5 0C     lms   r5,(0018)
000B:D13B 25 13        move  r3,r5
000B:D13D 63           sub   r3
000B:D13E 0A 03        bpl   D143
000B:D140 53           add   r3
000B:D141 20 13        move  r3,r0
000B:D143 2A 53        add   r3
000B:D145 B5 63        sub   r3
000B:D147 08 06        bne   D14F
000B:D149 01           nop
000B:D14A 94           link  #04
000B:D14B FF 1D DB     iwt   r15,#DB1D
000B:D14E 01           nop
000B:D14F 3D A0 0B     lms   r0,(0016)
000B:D152 63           sub   r3
000B:D153 08 1B        bne   D170
000B:D155 01           nop
000B:D156 3D A0 14     lms   r0,(0028)
000B:D159 3E A0 00     sms   (0000),r0
000B:D15C 3D A0 15     lms   r0,(002A)
000B:D15F 3E A0 01     sms   (0002),r0
000B:D162 3D A6 16     lms   r6,(002C)
000B:D165 3D A7 17     lms   r7,(002E)
000B:D168 3D A4 5D     lms   r4,(00BA)
000B:D16B 94           link  #04
000B:D16C FF 99 DA     iwt   r15,#DA99
000B:D16F 01           nop
000B:D170 3D A0 0A     lms   r0,(0014)
000B:D173 63           sub   r3
000B:D174 08 1B        bne   D191
000B:D176 01           nop
000B:D177 3D A0 10     lms   r0,(0020)
000B:D17A 3E A0 00     sms   (0000),r0
000B:D17D 3D A0 11     lms   r0,(0022)
000B:D180 3E A0 01     sms   (0002),r0
000B:D183 3D A6 12     lms   r6,(0024)
000B:D186 3D A7 13     lms   r7,(0026)
000B:D189 3D A4 5C     lms   r4,(00B8)
000B:D18C 94           link  #04
000B:D18D FF 1D DB     iwt   r15,#DB1D
000B:D190 01           nop
000B:D191 3D A0 63     lms   r0,(00C6)
000B:D194 E0           dec   r0
000B:D195 0A 0B        bpl   D1A2
000B:D197 01           nop
000B:D198 3D A6 55     lms   r6,(00AA)
000B:D19B 60           sub   r0
000B:D19C 90           sbk
000B:D19D A0 FF        ibt   r0,#FFFF
000B:D19F 3E A0 47     sms   (008E),r0
000B:D1A2 3E A4 5B     sms   (00B6),r4
000B:D1A5 60           sub   r0
000B:D1A6 3E A0 5C     sms   (00B8),r0
000B:D1A9 3E A0 5D     sms   (00BA),r0
000B:D1AC 3E A0 5E     sms   (00BC),r0
000B:D1AF 3D A0 60     lms   r0,(00C0)
000B:D1B2 E0           dec   r0
000B:D1B3 0B 17        bmi   D1CC
000B:D1B5 60           sub   r0
000B:D1B6 3E A0 60     sms   (00C0),r0
000B:D1B9 3E A0 6B     sms   (00D6),r0
000B:D1BC 3D A0 54     lms   r0,(00A8)
000B:D1BF 3E A0 5A     sms   (00B4),r0
000B:D1C2 A0 05        ibt   r0,#0005
000B:D1C4 3E A0 EA     sms   (01D4),r0
000B:D1C7 94           link  #04
000B:D1C8 FF 2D DF     iwt   r15,#DF2D
000B:D1CB 01           nop
000B:D1CC 3D A0 E5     lms   r0,(01CA)
000B:D1CF E0           dec   r0
000B:D1D0 0B 06        bmi   D1D8
000B:D1D2 01           nop
000B:D1D3 94           link  #04
000B:D1D4 FF 4F D2     iwt   r15,#D24F
000B:D1D7 01           nop
000B:D1D8 3D A5 82     lms   r5,(0104)
000B:D1DB 25 B5        moves r5,r5
000B:D1DD 09 35        beq   D214
000B:D1DF 01           nop
000B:D1E0 B9 3E 7F     and   #0F
000B:D1E3 3E 64        sub   #04
000B:D1E5 3E 69        sub   #09
000B:D1E7 0D 2B        bcs   D214
000B:D1E9 01           nop
000B:D1EA 3D F0 71 00  lm    r0,(0071)
000B:D1EE 3E 78        and   #08
000B:D1F0 09 22        beq   D214
000B:D1F2 01           nop
000B:D1F3 3D A0 A8     lms   r0,(0150)
000B:D1F6 E0           dec   r0
000B:D1F7 0A 1B        bpl   D214
000B:D1F9 01           nop
000B:D1FA 3D A0 D9     lms   r0,(01B2)
000B:D1FD 50           add   r0
000B:D1FE 0C 14        bcc   D214
000B:D200 01           nop
000B:D201 A0 0A        ibt   r0,#000A
000B:D203 3E A0 56     sms   (00AC),r0
000B:D206 60           sub   r0
000B:D207 3E A0 7C     sms   (00F8),r0
000B:D20A A0 06        ibt   r0,#0006
000B:D20C 3E A0 E9     sms   (01D2),r0
000B:D20F A0 08        ibt   r0,#0008
000B:D211 3E A0 8B     sms   (0116),r0
000B:D214 3E A9 46     sms   (008C),r9
000B:D217 3E AA 48     sms   (0090),r10
000B:D21A 3E A2 7E     sms   (00FC),r2
000B:D21D 3D A0 81     lms   r0,(0102)
000B:D220 E0           dec   r0
000B:D221 0B 08        bmi   D22B
000B:D223 01           nop
000B:D224 A0 14        ibt   r0,#0014
000B:D226 00           stop
000B:D227 01           nop
000B:D228 05 20        bra   D24A

000B:D22A 01           nop

000B:D22B 3D A0 80     lms   r0,(0100)
000B:D22E C2           or    r2
000B:D22F F6 F8 01     iwt   r6,#01F8
000B:D232 3D F5 EC 1F  lm    r5,(1FEC)
000B:D236 E5           dec   r5
000B:D237 0A 09        bpl   D242
000B:D239 D5           inc   r5
000B:D23A 76           and   r6
000B:D23B 66           sub   r6
000B:D23C 09 08        beq   D246
000B:D23E 01           nop
000B:D23F 05 09        bra   D24A

000B:D241 01           nop

000B:D242 76           and   r6
000B:D243 08 05        bne   D24A
000B:D245 01           nop
000B:D246 A0 10        ibt   r0,#0010
000B:D248 00           stop
000B:D249 01           nop
000B:D24A 3D AB 32     lms   r11,(0064)
000B:D24D 9B           jmp   r11
000B:D24E 01           nop

000B:D24F 3D F0 94 00  lm    r0,(0094)
000B:D253 15 3F 77     bic   #07
000B:D256 3D A0 46     lms   r0,(008C)
000B:D259 65           sub   r5
000B:D25A 03           lsr
000B:D25B 03           lsr
000B:D25C A5 42        ibt   r5,#0042
000B:D25E 65           sub   r5
000B:D25F 0D 1F        bcs   D280
000B:D261 55           add   r5
000B:D262 03           lsr
000B:D263 08 08        bne   D26D
000B:D265 50           add   r0
000B:D266 3D F0 F0 1E  lm    r0,(1EF0)
000B:D26A 05 07        bra   D273

000B:D26C F5 F5 30     iwt   r5,#30F5
000B:D26F 1F 55        add   r5
000B:D271 40           ldw   (r0)
000B:D272 F5 FF 1F     iwt   r5,#1FFF
000B:D275 75           and   r5
000B:D276 3D F5 9C 00  lm    r5,(009C)
000B:D27A 65           sub   r5
000B:D27B 3D A5 DA     lms   r5,(01B4)
000B:D27E C5           or    r5
000B:D27F 90           sbk
000B:D280 9B           jmp   r11
000B:D281 01           nop

000B:D282 A1 00        ibt   r1,#0000
000B:D284 3E A1 83     sms   (0106),r1
000B:D287 3E AB 31     sms   (0062),r11
000B:D28A 22 52        add   r2
000B:D28C 21 51        add   r1
000B:D28E 21 51        add   r1
000B:D290 94           link  #04
000B:D291 FF 17 D3     iwt   r15,#D317
000B:D294 3F 3E 72     and   #02
000B:D297 09 79        beq   D312
000B:D299 01           nop
000B:D29A 3D A0 57     lms   r0,(00AE)
000B:D29D 3E 6E        sub   #0E
000B:D29F 08 4F        bne   D2F0
000B:D2A1 01           nop
000B:D2A2 3D A0 60     lms   r0,(00C0)
000B:D2A5 E0           dec   r0
000B:D2A6 0A 41        bpl   D2E9
000B:D2A8 01           nop
000B:D2A9 3E A6 02     sms   (0004),r6
000B:D2AC 3E A7 03     sms   (0006),r7
000B:D2AF 3E A8 04     sms   (0008),r8
000B:D2B2 3D A8 00     lms   r8,(0000)
000B:D2B5 B3 53        add   r3
000B:D2B7 3E 88        mult  #08
000B:D2B9 18 58        add   r8
000B:D2BB 3E A8 05     sms   (000A),r8
000B:D2BE 3D A0 01     lms   r0,(0002)
000B:D2C1 3E A0 06     sms   (000C),r0
000B:D2C4 3E A5 07     sms   (000E),r5
000B:D2C7 94           link  #04
000B:D2C8 FF 20 D3     iwt   r15,#D320
000B:D2CB 3D 3E 74     and   #04
000B:D2CE 3D A6 02     lms   r6,(0004)
000B:D2D1 3D A7 03     lms   r7,(0006)
000B:D2D4 3D A8 04     lms   r8,(0008)
000B:D2D7 3D A0 05     lms   r0,(000A)
000B:D2DA 3E A0 00     sms   (0000),r0
000B:D2DD 3D A0 06     lms   r0,(000C)
000B:D2E0 3E A0 01     sms   (0002),r0
000B:D2E3 08 2D        bne   D312
000B:D2E5 01           nop
000B:D2E6 05 08        bra   D2F0

000B:D2E8 01           nop

000B:D2E9 3D A0 55     lms   r0,(00AA)
000B:D2EC 50           add   r0
000B:D2ED 0D 23        bcs   D312
000B:D2EF 01           nop
000B:D2F0 3D A0 54     lms   r0,(00A8)
000B:D2F3 3E 60        sub   #00
000B:D2F5 09 06        beq   D2FD
000B:D2F7 D2           inc   r2
000B:D2F8 3D C3        xor   r3
000B:D2FA 0A 16        bpl   D312
000B:D2FC 01           nop
000B:D2FD D1           inc   r1
000B:D2FE 24 B3        moves r4,r3
000B:D300 3D A0 00     lms   r0,(0000)
000B:D303 3E 7F        and   #0F
000B:D305 D3           inc   r3
000B:D306 09 03        beq   D30B
000B:D308 E3           dec   r3
000B:D309 3F CF        xor   #0F
000B:D30B E0           dec   r0
000B:D30C 0A 04        bpl   D312
000B:D30E 01           nop
000B:D30F 3E A3 45     sms   (008A),r3
000B:D312 FF 14 D5     iwt   r15,#D514
000B:D315 01           nop
000B:D316 3F EF        getbs
000B:D318 DE           inc   r14
000B:D319 18 59        add   r9
000B:D31B 3F EF        getbs
000B:D31D DE           inc   r14
000B:D31E 5A           add   r10
000B:D31F 3D A6 E5     lms   r6,(01CA)
000B:D322 E6           dec   r6
000B:D323 17           to    r7
000B:D324 0B 05        bmi   D32B
000B:D326 50           add   r0
000B:D327 FF BE D3     iwt   r15,#D3BE
000B:D32A 01           nop
000B:D32B 3D A5 53     lms   r5,(00A6)
000B:D32E 65           sub   r5
000B:D32F F5 E0 00     iwt   r5,#00E0
000B:D332 65           sub   r5
000B:D333 3D A5 52     lms   r5,(00A4)
000B:D336 0D 1A        bcs   D352
000B:D338 B8 65        sub   r5
000B:D33A C0           hib
000B:D33B 08 15        bne   D352
000B:D33D B8 03        lsr
000B:D33F 03           lsr
000B:D340 03           lsr
000B:D341 A5 3E        ibt   r5,#003E
000B:D343 15 75        and   r5
000B:D345 F0 E0 01     iwt   r0,#01E0
000B:D348 77           and   r7
000B:D349 50           add   r0
000B:D34A C5           or    r5
000B:D34B F5 9E 40     iwt   r5,#409E
000B:D34E 55           add   r5
000B:D34F 05 2B        bra   D37C

000B:D351 40           ldw   (r0)
000B:D352 70           merge
000B:D353 09 64        beq   D3B9
000B:D355 16 9E        lob
000B:D357 C0           hib
000B:D358 3E 7E        and   #0E
000B:D35A 3F 88        umult #08
000B:D35C C6           or    r6
000B:D35D F6 AA 0C     iwt   r6,#0CAA
000B:D360 56           add   r6
000B:D361 3D 40        ldb   (r0)
000B:D363 A6 3F        ibt   r6,#003F
000B:D365 76           and   r6
000B:D366 16 4D        swap
000B:D368 F0 E0 01     iwt   r0,#01E0
000B:D36B 15 77        and   r7
000B:D36D B8 9E        lob
000B:D36F 03           lsr
000B:D370 03           lsr
000B:D371 03           lsr
000B:D372 C5           or    r5
000B:D373 03           lsr
000B:D374 C6           or    r6
000B:D375 50           add   r0
000B:D376 F6 00 80     iwt   r6,#8000
000B:D379 56           add   r6
000B:D37A 00           stop
000B:D37B 01           nop

000B:D37C 20 16        move  r6,r0
000B:D37E C0           hib
000B:D37F 3F 83        umult #03
000B:D381 2E 15        move  r5,r14
000B:D383 FE 12 BB     iwt   r14,#BB12
000B:D386 1E 5E        add   r14
000B:D388 3E A8 00     sms   (0000),r8
000B:D38B EF           getb
000B:D38C DE           inc   r14
000B:D38D 27 96        asr
000B:D38F 3E A7 01     sms   (0002),r7
000B:D392 A8 F8        ibt   r8,#FFF8
000B:D394 3D EF        getbh
000B:D396 DE           inc   r14
000B:D397 20 17        move  r7,r0
000B:D399 C0           hib
000B:D39A 78           and   r8
000B:D39B A8 72        ibt   r8,#0072
000B:D39D 68           sub   r8
000B:D39E 3E 6F        sub   #0F
000B:D3A0 0D 10        bcs   D3B2
000B:D3A2 18 A8 11     ibt   r8,#0011
000B:D3A5 58           add   r8
000B:D3A6 3D F8 08 1E  lm    r8,(1E08)
000B:D3AA 78           and   r8
000B:D3AB 09 05        beq   D3B2
000B:D3AD 18 27 3E C2  or    #02
000B:D3B1 18 EF        getb
000B:D3B3 27 10        move  r0,r7
000B:D3B5 25 1E        move  r14,r5
000B:D3B7 9B           jmp   r11
000B:D3B8 01           nop

000B:D3B9 A6 01        ibt   r6,#0001
000B:D3BB 05 C4        bra   D381

000B:D3BD 60           sub   r0

000B:D3BE 3D F0 94 00  lm    r0,(0094)
000B:D3C2 3F 77        bic   #07
000B:D3C4 B8 60        sub   r0
000B:D3C6 03           lsr
000B:D3C7 03           lsr
000B:D3C8 A5 42        ibt   r5,#0042
000B:D3CA 65           sub   r5
000B:D3CB 0D 1D        bcs   D3EA
000B:D3CD 55           add   r5
000B:D3CE 03           lsr
000B:D3CF 08 08        bne   D3D9
000B:D3D1 50           add   r0
000B:D3D2 3D F0 F0 1E  lm    r0,(1EF0)
000B:D3D6 05 07        bra   D3DF

000B:D3D8 F5 F5 30     iwt   r5,#30F5
000B:D3DB 1F 55        add   r5
000B:D3DD 40           ldw   (r0)
000B:D3DE F5 FF 1F     iwt   r5,#1FFF
000B:D3E1 75           and   r5
000B:D3E2 3D F5 9C 00  lm    r5,(009C)
000B:D3E6 65           sub   r5
000B:D3E7 50           add   r0
000B:D3E8 17 57        add   r7
000B:D3EA FF 2C D3     iwt   r15,#D32C
000B:D3ED 3D 3E AB 31  sms   (0062),r11
000B:D3F1 22 52        add   r2
000B:D3F3 60           sub   r0
000B:D3F4 3E A0 08     sms   (0010),r0
000B:D3F7 94           link  #04
000B:D3F8 FF 17 D3     iwt   r15,#D317
000B:D3FB 3F 3D A0 01  lms   r0,(0002)
000B:D3FF 11 3E 7F     and   #0F
000B:D402 21 1C        move  r12,r1
000B:D404 A5 05        ibt   r5,#0005
000B:D406 E3           dec   r3
000B:D407 0A 03        bpl   D40C
000B:D409 D3           inc   r3
000B:D40A A5 04        ibt   r5,#0004
000B:D40C B7 75        and   r5
000B:D40E 1D 65        sub   r5
000B:D410 09 29        beq   D43B
000B:D412 01           nop
000B:D413 3E A6 02     sms   (0004),r6
000B:D416 3E A7 03     sms   (0006),r7
000B:D419 3E A8 04     sms   (0008),r8
000B:D41C 3D A8 00     lms   r8,(0000)
000B:D41F 3E A8 05     sms   (000A),r8
000B:D422 3D A7 01     lms   r7,(0002)
000B:D425 3E A7 06     sms   (000C),r7
000B:D428 3E A5 07     sms   (000E),r5
000B:D42B B3 57        add   r7
000B:D42D 94           link  #04
000B:D42E FF 20 D3     iwt   r15,#D320
000B:D431 3D 3D A5 07  lms   r5,(000E)
000B:D435 75           and   r5
000B:D436 65           sub   r5
000B:D437 08 6D        bne   D4A6
000B:D439 21 63        sub   r3
000B:D43B 3E AE 2E     sms   (005C),r14
000B:D43E B8 4D        swap
000B:D440 23 B3        moves r3,r3
000B:D442 0A 03        bpl   D447
000B:D444 03           lsr
000B:D445 D0           inc   r0
000B:D446 D0           inc   r0
000B:D447 FE 0E BD     iwt   r14,#BD0E
000B:D44A 1E 5E        add   r14
000B:D44C 3D A0 00     lms   r0,(0000)
000B:D44F 3E 7F        and   #0F
000B:D451 3E 88        mult  #08
000B:D453 1E 5E        add   r14
000B:D455 15 EF        getb
000B:D457 DE           inc   r14
000B:D458 3F EF        getbs
000B:D45A 3D AE 2E     lms   r14,(005C)
000B:D45D 61           sub   r1
000B:D45E 3D C3        xor   r3
000B:D460 0B 3F        bmi   D4A1
000B:D462 11 3D C3     xor   r3
000B:D465 D1           inc   r1
000B:D466 3E A5 08     sms   (0010),r5
000B:D469 23 B3        moves r3,r3
000B:D46B 0A 77        bpl   D4E4
000B:D46D D2           inc   r2
000B:D46E B5 95        sex
000B:D470 0A 03        bpl   D475
000B:D472 01           nop
000B:D473 4F           not
000B:D474 D0           inc   r0
000B:D475 03           lsr
000B:D476 03           lsr
000B:D477 03           lsr
000B:D478 03           lsr
000B:D479 3E 59        add   #09
000B:D47B 51           add   r1
000B:D47C 0B 22        bmi   D4A0
000B:D47E 01           nop
000B:D47F 3D A0 55     lms   r0,(00AA)
000B:D482 50           add   r0
000B:D483 0C 63        bcc   D4E8
000B:D485 01           nop
000B:D486 3D A0 60     lms   r0,(00C0)
000B:D489 E0           dec   r0
000B:D48A 0B 5C        bmi   D4E8
000B:D48C 01           nop
000B:D48D E4           dec   r4
000B:D48E 0A 10        bpl   D4A0
000B:D490 D4           inc   r4
000B:D491 3D F0 A9 00  lm    r0,(00A9)
000B:D495 3D C5        xor   r5
000B:D497 95           sex
000B:D498 0B 06        bmi   D4A0
000B:D49A 60           sub   r0
000B:D49B 3E A0 08     sms   (0010),r0
000B:D49E 2A 51        add   r1
000B:D4A0 E2           dec   r2
000B:D4A1 2D BD        moves r13,r13
000B:D4A3 09 39        beq   D4DE
000B:D4A5 01           nop
000B:D4A6 2C 11        move  r1,r12
000B:D4A8 3D A6 02     lms   r6,(0004)
000B:D4AB 3D A7 03     lms   r7,(0006)
000B:D4AE 3D A8 04     lms   r8,(0008)
000B:D4B1 3D A0 05     lms   r0,(000A)
000B:D4B4 3E A0 00     sms   (0000),r0
000B:D4B7 3D A0 06     lms   r0,(000C)
000B:D4BA 3E A0 01     sms   (0002),r0
000B:D4BD A0 02        ibt   r0,#0002
000B:D4BF E3           dec   r3
000B:D4C0 0A 03        bpl   D4C5
000B:D4C2 D3           inc   r3
000B:D4C3 A0 03        ibt   r0,#0003
000B:D4C5 77           and   r7
000B:D4C6 09 16        beq   D4DE
000B:D4C8 01           nop
000B:D4C9 D2           inc   r2
000B:D4CA 21 4F        not
000B:D4CC 23 B3        moves r3,r3
000B:D4CE 0A 14        bpl   D4E4
000B:D4D0 D1           inc   r1
000B:D4D1 3D A0 55     lms   r0,(00AA)
000B:D4D4 50           add   r0
000B:D4D5 0D 06        bcs   D4DD
000B:D4D7 B1 3E 58     add   #08
000B:D4DA 0A 0C        bpl   D4E8
000B:D4DC 01           nop
000B:D4DD E2           dec   r2
000B:D4DE A1 20        ibt   r1,#0020
000B:D4E0 E3           dec   r3
000B:D4E1 0B 05        bmi   D4E8
000B:D4E3 D3           inc   r3
000B:D4E4 FF 31 D6     iwt   r15,#D631
000B:D4E7 01           nop
000B:D4E8 FF FD D7     iwt   r15,#D7FD
000B:D4EB 01           nop
000B:D4EC A0 18        ibt   r0,#0018
000B:D4EE 77           and   r7
000B:D4EF 3E 68        sub   #08
000B:D4F1 09 0C        beq   D4FF
000B:D4F3 D0           inc   r0
000B:D4F4 3D A0 01     lms   r0,(0002)
000B:D4F7 3D A5 DE     lms   r5,(01BC)
000B:D4FA 65           sub   r5
000B:D4FB 0B 02        bmi   D4FF
000B:D4FD 60           sub   r0
000B:D4FE D0           inc   r0
000B:D4FF 03           lsr
000B:D500 3D A0 7F     lms   r0,(00FE)
000B:D503 04           rol
000B:D504 90           sbk
000B:D505 3D A0 80     lms   r0,(0100)
000B:D508 50           add   r0
000B:D509 A5 20        ibt   r5,#0020
000B:D50B 25 77        and   r7
000B:D50D 09 02        beq   D511
000B:D50F 01           nop
000B:D510 D0           inc   r0
000B:D511 90           sbk
000B:D512 9B           jmp   r11
000B:D513 01           nop

000B:D514 94           link  #04
000B:D515 FF EC D4     iwt   r15,#D4EC
000B:D518 01           nop
000B:D519 F0 00 F8     iwt   r0,#F800
000B:D51C 77           and   r7
000B:D51D 09 76        beq   D595
000B:D51F C0           hib
000B:D520 03           lsr
000B:D521 D0           inc   r0
000B:D522 1F 5F        add   r15
000B:D524 FF 95 D5     iwt   r15,#D595
000B:D527 01           nop

DATA_0BD528:         db $01, $95, $D5, $01, $01, $95, $D5, $01
DATA_0BD530:         db $01, $95, $D5, $01, $01, $95, $D5, $01
DATA_0BD538:         db $01, $8D, $D8, $01, $01, $28, $D6, $01
DATA_0BD540:         db $01, $95, $D5, $01, $01, $95, $D5, $01
DATA_0BD548:         db $01, $95, $D5, $01, $01, $83, $D8, $01
DATA_0BD550:         db $01, $95, $D5, $01, $01, $95, $D5, $01
DATA_0BD558:         db $01, $95, $D5, $01, $01, $95, $D5, $01
DATA_0BD560:         db $01, $95, $D5, $01, $01, $95, $D5, $01
DATA_0BD568:         db $01, $95, $D5, $01, $01, $95, $D5, $01
DATA_0BD570:         db $01, $95, $D5, $01, $01, $F1, $D5, $01
DATA_0BD578:         db $01, $9A, $D5, $01, $01, $1F, $D6, $01
DATA_0BD580:         db $01, $95, $D5, $01, $01, $95, $D5, $01
DATA_0BD588:         db $01, $95, $D5, $01, $01, $95, $D5, $01
DATA_0BD590:         db $01, $AC, $D8, $01, $01

000B:D595 3D AB 31     lms   r11,(0062)
000B:D598 9B           jmp   r11
000B:D599 01           nop
000B:D59A 3D A0 F5     lms   r0,(01EA)
000B:D59D 3E 60        sub   #00
000B:D59F 08 4B        bne   D5EC
000B:D5A1 01           nop
000B:D5A2 3D A0 60     lms   r0,(00C0)
000B:D5A5 3D A5 5A     lms   r5,(00B4)
000B:D5A8 C5           or    r5
000B:D5A9 09 41        beq   D5EC
000B:D5AB 01           nop
000B:D5AC A0 08        ibt   r0,#0008
000B:D5AE 3E A0 F5     sms   (01EA),r0
000B:D5B1 A0 04        ibt   r0,#0004
000B:D5B3 3E A0 3D     sms   (007A),r0
000B:D5B6 3E A1 21     sms   (0042),r1
000B:D5B9 F5 14 02     iwt   r5,#0214
000B:D5BC 94           link  #04
000B:D5BD FF C4 F0     iwt   r15,#F0C4
000B:D5C0 01           nop
000B:D5C1 3D A0 00     lms   r0,(0000)
000B:D5C4 15 3F 7F     bic   #0F
000B:D5C7 F0 A2 10     iwt   r0,#10A2
000B:D5CA 51           add   r1
000B:D5CB B5 30        stw   (r0)
000B:D5CD 3D A0 01     lms   r0,(0002)
000B:D5D0 15 3F 7F     bic   #0F
000B:D5D3 F0 42 11     iwt   r0,#1142
000B:D5D6 51           add   r1
000B:D5D7 B5 30        stw   (r0)
000B:D5D9 A5 0E        ibt   r5,#000E
000B:D5DB F0 C2 13     iwt   r0,#13C2
000B:D5DE 51           add   r1
000B:D5DF B5 30        stw   (r0)
000B:D5E1 A5 04        ibt   r5,#0004
000B:D5E3 F0 82 17     iwt   r0,#1782
000B:D5E6 51           add   r1
000B:D5E7 B5 30        stw   (r0)
000B:D5E9 3D A1 21     lms   r1,(0042)
000B:D5EC 3D AB 31     lms   r11,(0062)
000B:D5EF 9B           jmp   r11
000B:D5F0 01           nop

000B:D5F1 2E 15        move  r5,r14
000B:D5F3 B6 9E        lob
000B:D5F5 FE BC EB     iwt   r14,#EBBC
000B:D5F8 1E 5E        add   r14
000B:D5FA EF           getb
000B:D5FB 25 1E        move  r14,r5
000B:D5FD A5 01        ibt   r5,#0001
000B:D5FF 23 B3        moves r3,r3
000B:D601 0B 03        bmi   D606
000B:D603 01           nop
000B:D604 A5 02        ibt   r5,#0002
000B:D606 15 75        and   r5
000B:D608 09 10        beq   D61A
000B:D60A 01           nop
000B:D60B F0 0B 7D     iwt   r0,#7D0B
000B:D60E 66           sub   r6
000B:D60F 0D 06        bcs   D617
000B:D611 01           nop
000B:D612 F0 00 80     iwt   r0,#8000
000B:D615 15 C5        or    r5
000B:D617 3E A5 83     sms   (0106),r5
000B:D61A 3D AB 31     lms   r11,(0062)
000B:D61D 9B           jmp   r11
000B:D61E 01           nop

000B:D61F 3D F0 08 1E  lm    r0,(1E08)
000B:D623 3E 78        and   #08
000B:D625 09 05        beq   D62C
000B:D627 01           nop
000B:D628 A0 02        ibt   r0,#0002
000B:D62A 00           stop
000B:D62B 01           nop

000B:D62C 3D AB 31     lms   r11,(0062)
000B:D62F 9B           jmp   r11
000B:D630 01           nop

000B:D631 94           link  #04
000B:D632 FF EC D4     iwt   r15,#D4EC
000B:D635 01           nop
000B:D636 F0 00 F8     iwt   r0,#F800
000B:D639 77           and   r7
000B:D63A 09 76        beq   D6B2
000B:D63C C0           hib
000B:D63D 03           lsr
000B:D63E D0           inc   r0
000B:D63F 1F 5F        add   r15
000B:D641 FF B2 D6     iwt   r15,#D6B2
000B:D644 01           nop

DATA_0BD645:         db $01, $B2, $D6, $01, $01, $B2, $D6, $01
DATA_0BD64D:         db $01, $49, $D7, $01, $01, $B2, $D6, $01
DATA_0BD655:         db $01, $8D, $D8, $01, $01, $28, $D6, $01
DATA_0BD65D:         db $01, $9A, $D7, $01, $01, $DE, $D7, $01
DATA_0BD665:         db $01, $B2, $D6, $01, $01, $83, $D8, $01
DATA_0BD66D:         db $01, $B2, $D6, $01, $01, $B2, $D6, $01
DATA_0BD675:         db $01, $B2, $D6, $01, $01, $B2, $D6, $01
DATA_0BD67D:         db $01, $B2, $D6, $01, $01, $B7, $D6, $01
DATA_0BD685:         db $01, $B2, $D6, $01, $01, $B2, $D6, $01
DATA_0BD68D:         db $01, $02, $D7, $01, $01, $B2, $D6, $01
DATA_0BD695:         db $01, $9A, $D5, $01, $01, $1F, $D6, $01
DATA_0BD69D:         db $01, $B2, $D6, $01, $01, $B2, $D6, $01
DATA_0BD6A5:         db $01, $B2, $D6, $01, $01, $83, $D8, $01
DATA_0BD6AD:         db $01, $AC, $D8, $01, $01

000B:D6B2 3D AB 31     lms   r11,(0062)
000B:D6B5 9B           jmp   r11
000B:D6B6 01           nop

000B:D6B7 3D F0 08 1E  lm    r0,(1E08)
000B:D6BB A5 10        ibt   r5,#0010
000B:D6BD 75           and   r5
000B:D6BE 09 3D        beq   D6FD
000B:D6C0 01           nop
000B:D6C1 3D A0 55     lms   r0,(00AA)
000B:D6C4 50           add   r0
000B:D6C5 0C 36        bcc   D6FD
000B:D6C7 01           nop
000B:D6C8 F5 04 00     iwt   r5,#0004
000B:D6CB 3E A1 21     sms   (0042),r1
000B:D6CE 94           link  #04
000B:D6CF FF 10 EF     iwt   r15,#EF10
000B:D6D2 01           nop
000B:D6D3 0B 25        bmi   D6FA
000B:D6D5 01           nop
000B:D6D6 A5 02        ibt   r5,#0002
000B:D6D8 F0 00 0F     iwt   r0,#0F00
000B:D6DB 51           add   r1
000B:D6DC B5 30        stw   (r0)
000B:D6DE 3D A0 00     lms   r0,(0000)
000B:D6E1 15 3F 7F     bic   #0F
000B:D6E4 F0 E2 10     iwt   r0,#10E2
000B:D6E7 51           add   r1
000B:D6E8 B5 30        stw   (r0)
000B:D6EA 3D A0 01     lms   r0,(0002)
000B:D6ED 15 3F 7F     bic   #0F
000B:D6F0 F0 82 11     iwt   r0,#1182
000B:D6F3 51           add   r1
000B:D6F4 B5 30        stw   (r0)
000B:D6F6 A0 0A        ibt   r0,#000A
000B:D6F8 00           stop
000B:D6F9 01           nop

000B:D6FA 3D A1 21     lms   r1,(0042)
000B:D6FD 3D AB 31     lms   r11,(0062)
000B:D700 9B           jmp   r11
000B:D701 01           nop

000B:D702 3D F0 74 19  lm    r0,(1974)
000B:D706 3E 77        and   #07
000B:D708 08 34        bne   D73E
000B:D70A 01           nop
000B:D70B 3E A1 21     sms   (0042),r1
000B:D70E A0 04        ibt   r0,#0004
000B:D710 3E A0 3D     sms   (007A),r0
000B:D713 F5 01 02     iwt   r5,#0201
000B:D716 94           link  #04
000B:D717 FF C4 F0     iwt   r15,#F0C4
000B:D71A 01           nop
000B:D71B F0 A2 10     iwt   r0,#10A2
000B:D71E 51           add   r1
000B:D71F B9 30        stw   (r0)
000B:D721 A0 06        ibt   r0,#0006
000B:D723 15 5A        add   r10
000B:D725 F0 42 11     iwt   r0,#1142
000B:D728 51           add   r1
000B:D729 B5 30        stw   (r0)
000B:D72B A5 05        ibt   r5,#0005
000B:D72D F0 C2 13     iwt   r0,#13C2
000B:D730 51           add   r1
000B:D731 B5 30        stw   (r0)
000B:D733 A5 02        ibt   r5,#0002
000B:D735 F0 82 17     iwt   r0,#1782
000B:D738 51           add   r1
000B:D739 B5 30        stw   (r0)
000B:D73B 3D A1 21     lms   r1,(0042)
000B:D73E 3D A0 55     lms   r0,(00AA)
000B:D741 3E 54        add   #04
000B:D743 90           sbk
000B:D744 3D AB 31     lms   r11,(0062)
000B:D747 9B           jmp   r11
000B:D748 01           nop

000B:D749 3D A0 DF     lms   r0,(01BE)
000B:D74C 3E 60        sub   #00
000B:D74E 08 44        bne   D794
000B:D750 01           nop
000B:D751 3E A1 21     sms   (0042),r1
000B:D754 F5 7E 00     iwt   r5,#007E
000B:D757 94           link  #04
000B:D758 FF 10 EF     iwt   r15,#EF10
000B:D75B 01           nop
000B:D75C 0B 33        bmi   D791
000B:D75E 01           nop
000B:D75F A5 02        ibt   r5,#0002
000B:D761 F0 00 0F     iwt   r0,#0F00
000B:D764 51           add   r1
000B:D765 B5 30        stw   (r0)
000B:D767 B9 15 3E 68  sub   #08
000B:D76B F0 E2 10     iwt   r0,#10E2
000B:D76E 51           add   r1
000B:D76F B5 30        stw   (r0)
000B:D771 3D A0 01     lms   r0,(0002)
000B:D774 15 3F 7F     bic   #0F
000B:D777 F0 82 11     iwt   r0,#1182
000B:D77A 51           add   r1
000B:D77B B5 30        stw   (r0)
000B:D77D A0 F0        ibt   r0,#FFF0
000B:D77F 15 C5        or    r5
000B:D781 F0 D6 19     iwt   r0,#19D6
000B:D784 51           add   r1
000B:D785 B5 30        stw   (r0)
000B:D787 A0 01        ibt   r0,#0001
000B:D789 3E A0 DF     sms   (01BE),r0
000B:D78C A0 1C        ibt   r0,#001C
000B:D78E 3E A0 F8     sms   (01F0),r0
000B:D791 3D A1 21     lms   r1,(0042)
000B:D794 E2           dec   r2
000B:D795 3D AB 31     lms   r11,(0062)
000B:D798 9B           jmp   r11
000B:D799 01           nop

000B:D79A 3D A0 55     lms   r0,(00AA)
000B:D79D 50           add   r0
000B:D79E 0C 39        bcc   D7D9
000B:D7A0 B6 9E        lob
000B:D7A2 F5 67 00     iwt   r5,#0067
000B:D7A5 15 55        add   r5
000B:D7A7 3E A1 21     sms   (0042),r1
000B:D7AA 94           link  #04
000B:D7AB FF 10 EF     iwt   r15,#EF10
000B:D7AE 01           nop
000B:D7AF 0B 28        bmi   D7D9
000B:D7B1 01           nop
000B:D7B2 A5 02        ibt   r5,#0002
000B:D7B4 F0 00 0F     iwt   r0,#0F00
000B:D7B7 51           add   r1
000B:D7B8 B5 30        stw   (r0)
000B:D7BA 3D A0 00     lms   r0,(0000)
000B:D7BD 15 3F 7F     bic   #0F
000B:D7C0 F0 E2 10     iwt   r0,#10E2
000B:D7C3 51           add   r1
000B:D7C4 B5 30        stw   (r0)
000B:D7C6 3D A0 01     lms   r0,(0002)
000B:D7C9 15 3F 7F     bic   #0F
000B:D7CC F0 82 11     iwt   r0,#1182
000B:D7CF 51           add   r1
000B:D7D0 B5 30        stw   (r0)
000B:D7D2 A0 0A        ibt   r0,#000A
000B:D7D4 00           stop
000B:D7D5 01           nop

000B:D7D6 3D A1 21     lms   r1,(0042)
000B:D7D9 3D AB 31     lms   r11,(0062)
000B:D7DC 9B           jmp   r11
000B:D7DD 01           nop

000B:D7DE 3D A0 55     lms   r0,(00AA)
000B:D7E1 50           add   r0
000B:D7E2 0C 14        bcc   D7F8
000B:D7E4 60           sub   r0
000B:D7E5 3E A0 0E     sms   (001C),r0
000B:D7E8 A0 80        ibt   r0,#FF80
000B:D7EA 3E A0 0F     sms   (001E),r0
000B:D7ED 3E A1 21     sms   (0042),r1
000B:D7F0 94           link  #04
000B:D7F1 FF 81 DF     iwt   r15,#DF81
000B:D7F4 01           nop
000B:D7F5 3D A1 21     lms   r1,(0042)
000B:D7F8 3D AB 31     lms   r11,(0062)
000B:D7FB 9B           jmp   r11
000B:D7FC 01           nop
000B:D7FD 94           link  #04
000B:D7FE FF EC D4     iwt   r15,#D4EC
000B:D801 01           nop
000B:D802 F0 00 F8     iwt   r0,#F800
000B:D805 77           and   r7
000B:D806 09 76        beq   D87E
000B:D808 C0           hib
000B:D809 03           lsr
000B:D80A D0           inc   r0
000B:D80B 1F 5F        add   r15
000B:D80D FF 7E D8     iwt   r15,#D87E
000B:D810 01           nop

DATA_0BD811:         db $01, $7E, $D8, $01, $01, $7E, $D8, $01
DATA_0BD819:         db $01, $7E, $D8, $01, $01, $7E, $D8, $01
DATA_0BD821:         db $01, $8D, $D8, $01, $01, $28, $D6, $01
DATA_0BD829:         db $01, $7E, $D8, $01, $01, $7E, $D8, $01
DATA_0BD831:         db $01, $7E, $D8, $01, $01, $83, $D8, $01
DATA_0BD839:         db $01, $CB, $D8, $01, $01, $7E, $D8, $01
DATA_0BD841:         db $01, $7E, $D8, $01, $01, $7E, $D8, $01
DATA_0BD849:         db $01, $7E, $D8, $01, $01, $7E, $D8, $01
DATA_0BD851:         db $01, $E9, $D8, $01, $01, $79, $D9, $01
DATA_0BD859:         db $01, $7E, $D8, $01, $01, $7E, $D8, $01
DATA_0BD861:         db $01, $9A, $D5, $01, $01, $1F, $D6, $01
DATA_0BD869:         db $01, $7E, $D8, $01, $01, $19, $DA, $01
DATA_0BD871:         db $01, $83, $D8, $01, $01, $7E, $D8, $01
DATA_0BD879:         db $01, $AC, $D8, $01, $01

000B:D87E 3D AB 31     lms   r11,(0062)
000B:D881 9B           jmp   r11
000B:D882 01           nop

000B:D883 A0 01        ibt   r0,#0001
000B:D885 3E A0 81     sms   (0102),r0
000B:D888 3D AB 31     lms   r11,(0062)
000B:D88B 9B           jmp   r11
000B:D88C 01           nop

000B:D88D 3D A0 56     lms   r0,(00AC)
000B:D890 3D FB 04 1E  lm    r11,(1E04)
000B:D894 CB           or    r11
000B:D895 08 10        bne   D8A7
000B:D897 01           nop
000B:D898 A0 1A        ibt   r0,#001A
000B:D89A 00           stop
000B:D89B 01           nop

000B:D89C 3D A0 56     lms   r0,(00AC)
000B:D89F AB 28        ibt   r11,#0028
000B:D8A1 6B           sub   r11
000B:D8A2 08 03        bne   D8A7
000B:D8A4 60           sub   r0
000B:D8A5 00           stop
000B:D8A6 01           nop

000B:D8A7 3D AB 31     lms   r11,(0062)
000B:D8AA 9B           jmp   r11
000B:D8AB 01           nop

000B:D8AC 3D A0 56     lms   r0,(00AC)
000B:D8AF 3D FB 04 1E  lm    r11,(1E04)
000B:D8B3 CB           or    r11
000B:D8B4 08 10        bne   D8C6
000B:D8B6 01           nop
000B:D8B7 A0 12        ibt   r0,#0012
000B:D8B9 00           stop
000B:D8BA 01           nop

000B:D8BB 3D A0 56     lms   r0,(00AC)
000B:D8BE AB 0E        ibt   r11,#000E
000B:D8C0 6B           sub   r11
000B:D8C1 08 03        bne   D8C6
000B:D8C3 60           sub   r0
000B:D8C4 00           stop
000B:D8C5 01           nop

000B:D8C6 3D AB 31     lms   r11,(0062)
000B:D8C9 9B           jmp   r11
000B:D8CA 01           nop

000B:D8CB 3D A0 6A     lms   r0,(00D4)
000B:D8CE E0           dec   r0
000B:D8CF 0B 13        bmi   D8E4
000B:D8D1 01           nop
000B:D8D2 3D A0 60     lms   r0,(00C0)
000B:D8D5 E0           dec   r0
000B:D8D6 0B 0C        bmi   D8E4
000B:D8D8 B6 3E 51     add   #01
000B:D8DB 3E 72        and   #02
000B:D8DD 08 05        bne   D8E4
000B:D8DF 01           nop
000B:D8E0 A0 10        ibt   r0,#0010
000B:D8E2 11 51        add   r1
000B:D8E4 3D AB 31     lms   r11,(0062)
000B:D8E7 9B           jmp   r11
000B:D8E8 01           nop

000B:D8E9 B2 03        lsr
000B:D8EB 0C F7        bcc   D8E4
000B:D8ED 01           nop
000B:D8EE AC 00        ibt   r12,#0000
000B:D8F0 AD 00        ibt   r13,#0000
000B:D8F2 F5 17 01     iwt   r5,#0117
000B:D8F5 F0 02 75     iwt   r0,#7502
000B:D8F8 66           sub   r6
000B:D8F9 09 11        beq   D90C
000B:D8FB 01           nop
000B:D8FC AC 08        ibt   r12,#0008
000B:D8FE AD 08        ibt   r13,#0008
000B:D900 F0 00 75     iwt   r0,#7500
000B:D903 66           sub   r6
000B:D904 09 03        beq   D909
000B:D906 01           nop
000B:D907 AC F8        ibt   r12,#FFF8
000B:D909 F5 18 01     iwt   r5,#0118
000B:D90C 3D A0 00     lms   r0,(0000)
000B:D90F 3F 7F        bic   #0F
000B:D911 5C           add   r12
000B:D912 90           sbk
000B:D913 3D A0 01     lms   r0,(0002)
000B:D916 3F 7F        bic   #0F
000B:D918 5D           add   r13
000B:D919 90           sbk
000B:D91A 3E A1 21     sms   (0042),r1
000B:D91D 94           link  #04
000B:D91E FF 10 EF     iwt   r15,#EF10
000B:D921 01           nop
000B:D922 0B 4D        bmi   D971
000B:D924 01           nop
000B:D925 3D A5 00     lms   r5,(0000)
000B:D928 F0 E2 10     iwt   r0,#10E2
000B:D92B 51           add   r1
000B:D92C B5 30        stw   (r0)
000B:D92E 3D A5 01     lms   r5,(0002)
000B:D931 F0 82 11     iwt   r0,#1182
000B:D934 51           add   r1
000B:D935 B5 30        stw   (r0)
000B:D937 A5 70        ibt   r5,#0070
000B:D939 F0 96 1A     iwt   r0,#1A96
000B:D93C 51           add   r1
000B:D93D B5 30        stw   (r0)
000B:D93F F0 60 13     iwt   r0,#1360
000B:D942 51           add   r1
000B:D943 40           ldw   (r0)
000B:D944 F5 17 01     iwt   r5,#0117
000B:D947 65           sub   r5
000B:D948 AC 0A        ibt   r12,#000A
000B:D94A AD 02        ibt   r13,#0002
000B:D94C 09 05        beq   D953
000B:D94E 01           nop
000B:D94F AC 0C        ibt   r12,#000C
000B:D951 AD 04        ibt   r13,#0004
000B:D953 F0 B8 1B     iwt   r0,#1BB8
000B:D956 51           add   r1
000B:D957 40           ldw   (r0)
000B:D958 15 5D        add   r13
000B:D95A F0 B8 1B     iwt   r0,#1BB8
000B:D95D 51           add   r1
000B:D95E B5 30        stw   (r0)
000B:D960 F0 B6 1B     iwt   r0,#1BB6
000B:D963 51           add   r1
000B:D964 B5 30        stw   (r0)
000B:D966 2C 10        move  r0,r12
000B:D968 00           stop
000B:D969 01           nop

000B:D96A 3D A1 21     lms   r1,(0042)
000B:D96D D1           inc   r1
000B:D96E 05 04        bra   D974

000B:D970 D1           inc   r1

000B:D971 3D A1 21     lms   r1,(0042)
000B:D974 3D AB 31     lms   r11,(0062)
000B:D977 9B           jmp   r11
000B:D978 01           nop
000B:D979 B2 03        lsr
000B:D97B 0C F7        bcc   D974
000B:D97D 01           nop
000B:D97E 3E A1 21     sms   (0042),r1
000B:D981 3E A2 22     sms   (0044),r2
000B:D984 B6 9E        lob
000B:D986 12 03        lsr
000B:D988 0C 08        bcc   D992
000B:D98A 01           nop
000B:D98B 3D A0 00     lms   r0,(0000)
000B:D98E A5 10        ibt   r5,#0010
000B:D990 65           sub   r5
000B:D991 90           sbk
000B:D992 F5 21 01     iwt   r5,#0121
000B:D995 94           link  #04
000B:D996 FF 10 EF     iwt   r15,#EF10
000B:D999 01           nop
000B:D99A 0B 72        bmi   DA0E
000B:D99C 01           nop
000B:D99D A0 33        ibt   r0,#0033
000B:D99F 3E A0 3D     sms   (007A),r0
000B:D9A2 3D A0 00     lms   r0,(0000)
000B:D9A5 3F 7F        bic   #0F
000B:D9A7 15 3E 58     add   #08
000B:D9AA F0 E2 10     iwt   r0,#10E2
000B:D9AD 51           add   r1
000B:D9AE B5 30        stw   (r0)
000B:D9B0 3D A0 01     lms   r0,(0002)
000B:D9B3 3F 7F        bic   #0F
000B:D9B5 15 3E 58     add   #08
000B:D9B8 F0 82 11     iwt   r0,#1182
000B:D9BB 51           add   r1
000B:D9BC B5 30        stw   (r0)
000B:D9BE F0 78 19     iwt   r0,#1978
000B:D9C1 51           add   r1
000B:D9C2 B2 30        stw   (r0)
000B:D9C4 F0 B6 1B     iwt   r0,#1BB6
000B:D9C7 51           add   r1
000B:D9C8 40           ldw   (r0)
000B:D9C9 15 3E 54     add   #04
000B:D9CC F0 B6 1B     iwt   r0,#1BB6
000B:D9CF 51           add   r1
000B:D9D0 B5 30        stw   (r0)
000B:D9D2 F0 B8 1B     iwt   r0,#1BB8
000B:D9D5 51           add   r1
000B:D9D6 40           ldw   (r0)
000B:D9D7 15 3E 53     add   #03
000B:D9DA F0 B8 1B     iwt   r0,#1BB8
000B:D9DD 51           add   r1
000B:D9DE B5 30        stw   (r0)
000B:D9E0 F0 58 1B     iwt   r0,#1B58
000B:D9E3 51           add   r1
000B:D9E4 40           ldw   (r0)
000B:D9E5 15 3E 52     add   #02
000B:D9E8 F0 58 1B     iwt   r0,#1B58
000B:D9EB 51           add   r1
000B:D9EC B5 30        stw   (r0)
000B:D9EE B2 52        add   r2
000B:D9F0 F5 6D 77     iwt   r5,#776D
000B:D9F3 15 55        add   r5
000B:D9F5 A0 0E        ibt   r0,#000E
000B:D9F7 00           stop
000B:D9F8 01           nop

000B:D9F9 3D A0 00     lms   r0,(0000)
000B:D9FC A1 10        ibt   r1,#0010
000B:D9FE 51           add   r1
000B:D9FF 90           sbk
000B:DA00 D5           inc   r5
000B:DA01 A0 0E        ibt   r0,#000E
000B:DA03 00           stop
000B:DA04 01           nop

000B:DA05 3D A0 21     lms   r0,(0042)
000B:DA08 11 3E 54     add   #04
000B:DA0B 05 04        bra   DA11

000B:DA0D 01           nop

000B:DA0E 3D A1 21     lms   r1,(0042)
000B:DA11 3D A2 22     lms   r2,(0044)
000B:DA14 3D AB 31     lms   r11,(0062)
000B:DA17 9B           jmp   r11
000B:DA18 01           nop

000B:DA19 3D A0 E0     lms   r0,(01C0)
000B:DA1C 3E 60        sub   #00
000B:DA1E 08 F4        bne   DA14
000B:DA20 01           nop
000B:DA21 B2 03        lsr
000B:DA23 0C EF        bcc   DA14
000B:DA25 01           nop
000B:DA26 AC 00        ibt   r12,#0000
000B:DA28 AD 00        ibt   r13,#0000
000B:DA2A B6 9E        lob
000B:DA2C A5 04        ibt   r5,#0004
000B:DA2E 65           sub   r5
000B:DA2F 0D 12        bcs   DA43
000B:DA31 01           nop
000B:DA32 3E 52        add   #02
000B:DA34 4F           not
000B:DA35 D0           inc   r0
000B:DA36 50           add   r0
000B:DA37 50           add   r0
000B:DA38 50           add   r0
000B:DA39 1C 50        add   r0
000B:DA3B AD 10        ibt   r13,#0010
000B:DA3D F5 96 01     iwt   r5,#0196
000B:DA40 05 0D        bra   DA4F

000B:DA42 01           nop

000B:DA43 3F C1        xor   #01
000B:DA45 50           add   r0
000B:DA46 50           add   r0
000B:DA47 50           add   r0
000B:DA48 1C 50        add   r0
000B:DA4A AD 00        ibt   r13,#0000
000B:DA4C F5 95 01     iwt   r5,#0195
000B:DA4F 3E AD 02     sms   (0004),r13
000B:DA52 3D A0 00     lms   r0,(0000)
000B:DA55 3F 7F        bic   #0F
000B:DA57 5C           add   r12
000B:DA58 90           sbk
000B:DA59 3D A0 01     lms   r0,(0002)
000B:DA5C 3F 7F        bic   #0F
000B:DA5E 5D           add   r13
000B:DA5F 90           sbk
000B:DA60 3E A1 21     sms   (0042),r1
000B:DA63 94           link  #04
000B:DA64 FF 10 EF     iwt   r15,#EF10
000B:DA67 01           nop
000B:DA68 0B 27        bmi   DA91
000B:DA6A 01           nop
000B:DA6B A5 02        ibt   r5,#0002
000B:DA6D F0 00 0F     iwt   r0,#0F00
000B:DA70 51           add   r1
000B:DA71 B5 30        stw   (r0)
000B:DA73 3D A5 00     lms   r5,(0000)
000B:DA76 F0 E2 10     iwt   r0,#10E2
000B:DA79 51           add   r1
000B:DA7A B5 30        stw   (r0)
000B:DA7C 3D A5 01     lms   r5,(0002)
000B:DA7F F0 82 11     iwt   r0,#1182
000B:DA82 51           add   r1
000B:DA83 B5 30        stw   (r0)
000B:DA85 3D A0 02     lms   r0,(0004)
000B:DA88 E0           dec   r0
000B:DA89 0A 03        bpl   DA8E
000B:DA8B D0           inc   r0
000B:DA8C A0 04        ibt   r0,#0004
000B:DA8E 3E A0 E0     sms   (01C0),r0
000B:DA91 3D A1 21     lms   r1,(0042)
000B:DA94 3D AB 31     lms   r11,(0062)
000B:DA97 9B           jmp   r11
000B:DA98 01           nop

000B:DA99 3E AB 31     sms   (0062),r11
000B:DA9C F0 00 F8     iwt   r0,#F800
000B:DA9F 77           and   r7
000B:DAA0 09 76        beq   DB18
000B:DAA2 C0           hib
000B:DAA3 03           lsr
000B:DAA4 D0           inc   r0
000B:DAA5 1F 5F        add   r15
000B:DAA7 FF 18 DB     iwt   r15,#DB18
000B:DAAA 01           nop

DATA_0BDAAB:         db $01, $76, $DD, $01, $01, $02, $DE, $01
DATA_0BDAB3:         db $01, $18, $DB, $01, $01, $E2, $DC, $01
DATA_0BDABB:         db $01, $18, $DB, $01, $01, $18, $DB, $01
DATA_0BDAC3:         db $01, $18, $DB, $01, $01, $D6, $DE, $01
DATA_0BDACB:         db $01, $9C, $DB, $01, $01, $18, $DB, $01
DATA_0BDAD3:         db $01, $18, $DB, $01, $01, $18, $DB, $01
DATA_0BDADB:         db $01, $18, $DB, $01, $01, $18, $DB, $01
DATA_0BDAE3:         db $01, $18, $DB, $01, $01, $18, $DB, $01
DATA_0BDAEB:         db $01, $18, $DB, $01, $01, $18, $DB, $01
DATA_0BDAF3:         db $01, $7A, $DC, $01, $01, $D1, $DB, $01
DATA_0BDAFB:         db $01, $18, $DB, $01, $01, $18, $DB, $01
DATA_0BDB03:         db $01, $67, $DD, $01, $01, $18, $DB, $01
DATA_0BDB0B:         db $01, $18, $DB, $01, $01, $18, $DB, $01
DATA_0BDB13:         db $01, $18, $DB, $01, $01

000B:DB18 3D AB 31     lms   r11,(0062)
000B:DB1B 9B           jmp   r11
000B:DB1C 01           nop

000B:DB1D 3E AB 31     sms   (0062),r11
000B:DB20 F0 00 F8     iwt   r0,#F800
000B:DB23 77           and   r7
000B:DB24 09 F2        beq   DB18
000B:DB26 C0           hib
000B:DB27 03           lsr
000B:DB28 D0           inc   r0
000B:DB29 1F 5F        add   r15
000B:DB2B FF 18 DB     iwt   r15,#DB18
000B:DB2E 01           nop

DATA_0BDB2F:         db $01, $71, $DD, $01, $01, $02, $DE, $01
DATA_0BDB37:         db $01, $0C, $DE, $01, $01, $DD, $DC, $01
DATA_0BDB3F:         db $01, $18, $DB, $01, $01, $18, $DB, $01
DATA_0BDB47:         db $01, $18, $DB, $01, $01, $D6, $DE, $01
DATA_0BDB4F:         db $01, $18, $DB, $01, $01, $18, $DB, $01
DATA_0BDB57:         db $01, $B8, $DE, $01, $01, $47, $DE, $01
DATA_0BDB5F:         db $01, $4D, $DE, $01, $01, $F0, $DE, $01
DATA_0BDB67:         db $01, $18, $DB, $01, $01, $18, $DB, $01
DATA_0BDB6F:         db $01, $18, $DB, $01, $01, $18, $DB, $01
DATA_0BDB77:         db $01, $75, $DC, $01, $01, $18, $DB, $01
DATA_0BDB7F:         db $01, $18, $DB, $01, $01, $18, $DB, $01
DATA_0BDB87:         db $01, $67, $DD, $01, $01, $18, $DB, $01
DATA_0BDB8F:         db $01, $18, $DB, $01, $01, $18, $DB, $01
DATA_0BDB97:         db $01, $18, $DB, $01, $01

000B:DB9C 3D A0 57     lms   r0,(00AE)
000B:DB9F 3E 68        sub   #08
000B:DBA1 08 29        bne   DBCC
000B:DBA3 01           nop
000B:DBA4 3D F0 71 00  lm    r0,(0071)
000B:DBA8 3E 74        and   #04
000B:DBAA 09 20        beq   DBCC
000B:DBAC 01           nop
000B:DBAD A0 5D        ibt   r0,#005D
000B:DBAF 3E A0 3D     sms   (007A),r0
000B:DBB2 A0 40        ibt   r0,#0040
000B:DBB4 3E A0 5B     sms   (00B6),r0
000B:DBB7 4D           swap
000B:DBB8 3E A0 C5     sms   (018A),r0
000B:DBBB 60           sub   r0
000B:DBBC 3E A0 C4     sms   (0188),r0
000B:DBBF 3E A0 C6     sms   (018C),r0
000B:DBC2 F1 00 01     iwt   r1,#0100
000B:DBC5 3E A1 C0     sms   (0180),r1
000B:DBC8 60           sub   r0
000B:DBC9 3E A0 5A     sms   (00B4),r0
000B:DBCC 3D AB 31     lms   r11,(0062)
000B:DBCF 9B           jmp   r11
000B:DBD0 01           nop

000B:DBD1 3D A0 D9     lms   r0,(01B2)
000B:DBD4 50           add   r0
000B:DBD5 0C 44        bcc   DC1B
000B:DBD7 B6 9E        lob
000B:DBD9 FE BC EB     iwt   r14,#EBBC
000B:DBDC 1E 5E        add   r14
000B:DBDE EF           getb
000B:DBDF 20 15        move  r5,r0
000B:DBE1 1E 3E 74     and   #04
000B:DBE4 09 35        beq   DC1B
000B:DBE6 4D           swap
000B:DBE7 50           add   r0
000B:DBE8 3D A0 00     lms   r0,(0000)
000B:DBEB 3E 7F        and   #0F
000B:DBED 0C 03        bcc   DBF2
000B:DBEF 01           nop
000B:DBF0 3F 5F        adc   #0F
000B:DBF2 3E A0 87     sms   (010E),r0
000B:DBF5 AE 40        ibt   r14,#0040
000B:DBF7 2E 75        and   r5
000B:DBF9 08 12        bne   DC0D
000B:DBFB 01           nop
000B:DBFC 3E 68        sub   #08
000B:DBFE AE 10        ibt   r14,#0010
000B:DC00 6E           sub   r14
000B:DC01 0D 18        bcs   DC1B
000B:DC03 01           nop
000B:DC04 3D F0 71 00  lm    r0,(0071)
000B:DC08 3E 74        and   #04
000B:DC0A 09 0F        beq   DC1B
000B:DC0C 01           nop
000B:DC0D 3D A0 A8     lms   r0,(0150)
000B:DC10 E0           dec   r0
000B:DC11 0A 08        bpl   DC1B
000B:DC13 01           nop
000B:DC14 A5 04        ibt   r5,#0004
000B:DC16 94           link  #04
000B:DC17 FF 20 DC     iwt   r15,#DC20
000B:DC1A 01           nop
000B:DC1B 3D AB 31     lms   r11,(0062)
000B:DC1E 9B           jmp   r11
000B:DC1F 01           nop

000B:DC20 F0 0B 7D     iwt   r0,#7D0B
000B:DC23 66           sub   r6
000B:DC24 0D 10        bcs   DC36
000B:DC26 56           add   r6
000B:DC27 F0 1B 7D     iwt   r0,#7D1B
000B:DC2A 66           sub   r6
000B:DC2B F0 00 80     iwt   r0,#8000
000B:DC2E 0D 04        bcs   DC34
000B:DC30 01           nop
000B:DC31 F0 00 A0     iwt   r0,#A000
000B:DC34 15 C5        or    r5
000B:DC36 B5 03        lsr
000B:DC38 25 3F 7F     bic   #0F
000B:DC3B D5           inc   r5
000B:DC3C D5           inc   r5
000B:DC3D 0C FC        bcc   DC3B
000B:DC3F 03           lsr
000B:DC40 3E A5 83     sms   (0106),r5
000B:DC43 A0 06        ibt   r0,#0006
000B:DC45 3E A0 56     sms   (00AC),r0
000B:DC48 3E A0 D8     sms   (01B0),r0
000B:DC4B 60           sub   r0
000B:DC4C 3E A0 84     sms   (0108),r0
000B:DC4F 3E A0 85     sms   (010A),r0
000B:DC52 3E A0 FB     sms   (01F6),r0
000B:DC55 3E A0 5A     sms   (00B4),r0
000B:DC58 3E A0 54     sms   (00A8),r0
000B:DC5B 3E A0 55     sms   (00AA),r0
000B:DC5E 3E A0 6F     sms   (00DE),r0
000B:DC61 D0           inc   r0
000B:DC62 3E A0 86     sms   (010C),r0
000B:DC65 A0 31        ibt   r0,#0031
000B:DC67 3E A0 3D     sms   (007A),r0
000B:DC6A 3D A0 00     lms   r0,(0000)
000B:DC6D 3D A5 87     lms   r5,(010E)
000B:DC70 65           sub   r5
000B:DC71 3E 58        add   #08
000B:DC73 9B           jmp   r11
000B:DC74 90           sbk

000B:DC75 24 B4        moves r4,r4
000B:DC77 09 3B        beq   DCB4
000B:DC79 01           nop
000B:DC7A 3D A0 F5     lms   r0,(01EA)
000B:DC7D 3E 60        sub   #00
000B:DC7F 08 33        bne   DCB4
000B:DC81 01           nop
000B:DC82 A0 08        ibt   r0,#0008
000B:DC84 3E A0 F5     sms   (01EA),r0
000B:DC87 A0 60        ibt   r0,#0060
000B:DC89 3E A0 3D     sms   (007A),r0
000B:DC8C F5 01 02     iwt   r5,#0201
000B:DC8F 94           link  #04
000B:DC90 FF C4 F0     iwt   r15,#F0C4
000B:DC93 01           nop
000B:DC94 F0 A2 10     iwt   r0,#10A2
000B:DC97 51           add   r1
000B:DC98 B9 30        stw   (r0)
000B:DC9A A0 20        ibt   r0,#0020
000B:DC9C 15 5A        add   r10
000B:DC9E F0 42 11     iwt   r0,#1142
000B:DCA1 51           add   r1
000B:DCA2 B5 30        stw   (r0)
000B:DCA4 A5 05        ibt   r5,#0005
000B:DCA6 F0 C2 13     iwt   r0,#13C2
000B:DCA9 51           add   r1
000B:DCAA B5 30        stw   (r0)
000B:DCAC A5 02        ibt   r5,#0002
000B:DCAE F0 82 17     iwt   r0,#1782
000B:DCB1 51           add   r1
000B:DCB2 B5 30        stw   (r0)
000B:DCB4 B4 4D        swap
000B:DCB6 09 0B        beq   DCC3
000B:DCB8 01           nop
000B:DCB9 F0 00 FD     iwt   r0,#FD00
000B:DCBC 0A 16        bpl   DCD4
000B:DCBE 01           nop
000B:DCBF 4F           not
000B:DCC0 05 12        bra   DCD4

000B:DCC2 D0           inc   r0
000B:DCC3 B6 C0        hib
000B:DCC5 F5 82 00     iwt   r5,#0082
000B:DCC8 65           sub   r5
000B:DCC9 0B 0D        bmi   DCD8
000B:DCCB 01           nop
000B:DCCC F0 00 FF     iwt   r0,#FF00
000B:DCCF 09 03        beq   DCD4
000B:DCD1 01           nop
000B:DCD2 4F           not
000B:DCD3 D0           inc   r0
000B:DCD4 3E F0 3A 1E  sm    (1E3A),r0
000B:DCD8 3D AB 31     lms   r11,(0062)
000B:DCDB 9B           jmp   r11
000B:DCDC 01           nop

000B:DCDD 24 B4        moves r4,r4
000B:DCDF 09 F7        beq   DCD8
000B:DCE1 01           nop
000B:DCE2 A0 05        ibt   r0,#0005
000B:DCE4 3E A0 7D     sms   (00FA),r0
000B:DCE7 3D A0 60     lms   r0,(00C0)
000B:DCEA E0           dec   r0
000B:DCEB 0B 0B        bmi   DCF8
000B:DCED 01           nop
000B:DCEE F5 1C 02     iwt   r5,#021C
000B:DCF1 A6 02        ibt   r6,#0002
000B:DCF3 A0 08        ibt   r0,#0008
000B:DCF5 05 37        bra   DD2E

000B:DCF7 01           nop

000B:DCF8 3D A0 66     lms   r0,(00CC)
000B:DCFB E0           dec   r0
000B:DCFC 0B 12        bmi   DD10
000B:DCFE 01           nop
000B:DCFF 3D A0 7C     lms   r0,(00F8)
000B:DD02 3D A5 88     lms   r5,(0110)
000B:DD05 90           sbk
000B:DD06 65           sub   r5
000B:DD07 09 59        beq   DD62
000B:DD09 55           add   r5
000B:DD0A 08 56        bne   DD62
000B:DD0C 01           nop
000B:DD0D 05 18        bra   DD27

000B:DD0F 01           nop
000B:DD10 3D A0 5A     lms   r0,(00B4)
000B:DD13 E0           dec   r0
000B:DD14 0A 03        bpl   DD19
000B:DD16 D0           inc   r0
000B:DD17 4F           not
000B:DD18 D0           inc   r0
000B:DD19 3D A5 88     lms   r5,(0110)
000B:DD1C 55           add   r5
000B:DD1D F5 00 18     iwt   r5,#1800
000B:DD20 3F 65        cmp   r5
000B:DD22 0C 3E        bcc   DD62
000B:DD24 90           sbk
000B:DD25 65           sub   r5
000B:DD26 90           sbk
000B:DD27 F5 1D 02     iwt   r5,#021D
000B:DD2A A6 03        ibt   r6,#0003
000B:DD2C A0 08        ibt   r0,#0008
000B:DD2E 3E A0 F5     sms   (01EA),r0
000B:DD31 A0 60        ibt   r0,#0060
000B:DD33 3E A0 3D     sms   (007A),r0
000B:DD36 94           link  #04
000B:DD37 FF C4 F0     iwt   r15,#F0C4
000B:DD3A 01           nop
000B:DD3B F0 A2 10     iwt   r0,#10A2
000B:DD3E 51           add   r1
000B:DD3F B9 30        stw   (r0)
000B:DD41 A0 10        ibt   r0,#0010
000B:DD43 15 5A        add   r10
000B:DD45 F0 42 11     iwt   r0,#1142
000B:DD48 51           add   r1
000B:DD49 B5 30        stw   (r0)
000B:DD4B A5 09        ibt   r5,#0009
000B:DD4D F0 C2 13     iwt   r0,#13C2
000B:DD50 51           add   r1
000B:DD51 B5 30        stw   (r0)
000B:DD53 F0 82 17     iwt   r0,#1782
000B:DD56 51           add   r1
000B:DD57 B6 30        stw   (r0)
000B:DD59 3D A5 62     lms   r5,(00C4)
000B:DD5C F0 C0 13     iwt   r0,#13C0
000B:DD5F 51           add   r1
000B:DD60 B5 30        stw   (r0)
000B:DD62 3D AB 31     lms   r11,(0062)
000B:DD65 9B           jmp   r11
000B:DD66 01           nop

000B:DD67 A0 03        ibt   r0,#0003
000B:DD69 3E A0 7D     sms   (00FA),r0
000B:DD6C 3D AB 31     lms   r11,(0062)
000B:DD6F 9B           jmp   r11
000B:DD70 01           nop

000B:DD71 24 B4        moves r4,r4
000B:DD73 09 F7        beq   DD6C
000B:DD75 01           nop
000B:DD76 3D A0 3E     lms   r0,(007C)
000B:DD79 3E 77        and   #07
000B:DD7B 3E 64        sub   #04
000B:DD7D 08 7E        bne   DDFD
000B:DD7F 01           nop
000B:DD80 3D A0 7D     lms   r0,(00FA)
000B:DD83 3E 64        sub   #04
000B:DD85 09 31        beq   DDB8
000B:DD87 01           nop
000B:DD88 3D A8 00     lms   r8,(0000)
000B:DD8B 3D A0 01     lms   r0,(0002)
000B:DD8E A7 10        ibt   r7,#0010
000B:DD90 67           sub   r7
000B:DD91 94           link  #04
000B:DD92 FF 20 D3     iwt   r15,#D320
000B:DD95 3D B6 C0     hib
000B:DD98 A5 2A        ibt   r5,#002A
000B:DD9A 65           sub   r5
000B:DD9B 09 07        beq   DDA4
000B:DD9D 55           add   r5
000B:DD9E A5 6A        ibt   r5,#006A
000B:DDA0 65           sub   r5
000B:DDA1 08 5A        bne   DDFD
000B:DDA3 01           nop
000B:DDA4 A0 04        ibt   r0,#0004
000B:DDA6 3E A0 7D     sms   (00FA),r0
000B:DDA9 3D A0 57     lms   r0,(00AE)
000B:DDAC 3E 66        sub   #06
000B:DDAE 09 08        beq   DDB8
000B:DDB0 01           nop
000B:DDB1 3D A0 60     lms   r0,(00C0)
000B:DDB4 E0           dec   r0
000B:DDB5 0A 0F        bpl   DDC6
000B:DDB7 01           nop
000B:DDB8 3D A0 7C     lms   r0,(00F8)
000B:DDBB 3D A5 88     lms   r5,(0110)
000B:DDBE 90           sbk
000B:DDBF 65           sub   r5
000B:DDC0 09 3B        beq   DDFD
000B:DDC2 55           add   r5
000B:DDC3 08 38        bne   DDFD
000B:DDC5 01           nop
000B:DDC6 F0 98 00     iwt   r0,#0098
000B:DDC9 3E A0 3D     sms   (007A),r0
000B:DDCC F5 CA 01     iwt   r5,#01CA
000B:DDCF 94           link  #04
000B:DDD0 FF C4 F0     iwt   r15,#F0C4
000B:DDD3 01           nop
000B:DDD4 F0 A2 10     iwt   r0,#10A2
000B:DDD7 51           add   r1
000B:DDD8 B9 30        stw   (r0)
000B:DDDA A0 18        ibt   r0,#0018
000B:DDDC 15 5A        add   r10
000B:DDDE F0 42 11     iwt   r0,#1142
000B:DDE1 51           add   r1
000B:DDE2 B5 30        stw   (r0)
000B:DDE4 A5 06        ibt   r5,#0006
000B:DDE6 F0 4C 1E     iwt   r0,#1E4C
000B:DDE9 51           add   r1
000B:DDEA B5 30        stw   (r0)
000B:DDEC A5 03        ibt   r5,#0003
000B:DDEE F0 82 17     iwt   r0,#1782
000B:DDF1 51           add   r1
000B:DDF2 B5 30        stw   (r0)
000B:DDF4 F5 C0 FE     iwt   r5,#FEC0
000B:DDF7 F0 E2 11     iwt   r0,#11E2
000B:DDFA 51           add   r1
000B:DDFB B5 30        stw   (r0)
000B:DDFD 3D AB 31     lms   r11,(0062)
000B:DE00 9B           jmp   r11
000B:DE01 01           nop

000B:DE02 A0 02        ibt   r0,#0002
000B:DE04 3E A0 7D     sms   (00FA),r0
000B:DE07 3D AB 31     lms   r11,(0062)
000B:DE0A 9B           jmp   r11
000B:DE0B 01           nop

000B:DE0C 3D A0 DF     lms   r0,(01BE)
000B:DE0F 3E 60        sub   #00
000B:DE11 08 2F        bne   DE42
000B:DE13 01           nop
000B:DE14 F5 7E 00     iwt   r5,#007E
000B:DE17 94           link  #04
000B:DE18 FF 10 EF     iwt   r15,#EF10
000B:DE1B 01           nop
000B:DE1C 0B 24        bmi   DE42
000B:DE1E 01           nop
000B:DE1F A5 02        ibt   r5,#0002
000B:DE21 F0 00 0F     iwt   r0,#0F00
000B:DE24 51           add   r1
000B:DE25 B5 30        stw   (r0)
000B:DE27 B9 15 3E 68  sub   #08
000B:DE2B F0 E2 10     iwt   r0,#10E2
000B:DE2E 51           add   r1
000B:DE2F B5 30        stw   (r0)
000B:DE31 3D A0 01     lms   r0,(0002)
000B:DE34 15 3F 7F     bic   #0F
000B:DE37 F0 82 11     iwt   r0,#1182
000B:DE3A 51           add   r1
000B:DE3B B5 30        stw   (r0)
000B:DE3D A0 01        ibt   r0,#0001
000B:DE3F 3E A0 DF     sms   (01BE),r0
000B:DE42 3D AB 31     lms   r11,(0062)
000B:DE45 9B           jmp   r11
000B:DE46 01           nop

000B:DE47 F1 00 F8     iwt   r1,#F800
000B:DE4A 05 04        bra   DE50

000B:DE4C 01           nop

000B:DE4D F1 00 08     iwt   r1,#0800
000B:DE50 3D A0 6D     lms   r0,(00DA)
000B:DE53 3D A5 A8     lms   r5,(0150)
000B:DE56 C5           or    r5
000B:DE57 3D A5 6F     lms   r5,(00DE)
000B:DE5A 08 4D        bne   DEA9
000B:DE5C 01           nop
000B:DE5D 3D F0 71 00  lm    r0,(0071)
000B:DE61 3E 73        and   #03
000B:DE63 09 44        beq   DEA9
000B:DE65 01           nop
000B:DE66 A8 10        ibt   r8,#0010
000B:DE68 3E 72        and   #02
000B:DE6A 09 03        beq   DE6F
000B:DE6C 01           nop
000B:DE6D A8 F0        ibt   r8,#FFF0
000B:DE6F 3E A0 62     sms   (00C4),r0
000B:DE72 28 15        move  r5,r8
000B:DE74 21 B1        moves r1,r1
000B:DE76 0A 03        bpl   DE7B
000B:DE78 25 4F        not
000B:DE7A D5           inc   r5
000B:DE7B 2A 10        move  r0,r10
000B:DE7D 25 B5        moves r5,r5
000B:DE7F 0A 03        bpl   DE84
000B:DE81 01           nop
000B:DE82 3F C8        xor   #08
000B:DE84 3E 78        and   #08
000B:DE86 09 16        beq   DE9E
000B:DE88 01           nop
000B:DE89 27 1E        move  r14,r7
000B:DE8B 3D A0 00     lms   r0,(0000)
000B:DE8E 18 58        add   r8
000B:DE90 3D A0 01     lms   r0,(0002)
000B:DE93 55           add   r5
000B:DE94 94           link  #04
000B:DE95 FF 20 D3     iwt   r15,#D320
000B:DE98 3D B7 6E     sbc   r14
000B:DE9B 08 16        bne   DEB3
000B:DE9D 01           nop
000B:DE9E 3E A1 6D     sms   (00DA),r1
000B:DEA1 A0 80        ibt   r0,#FF80
000B:DEA3 3E A0 45     sms   (008A),r0
000B:DEA6 3E A0 47     sms   (008E),r0
000B:DEA9 60           sub   r0
000B:DEAA 3E A0 5A     sms   (00B4),r0
000B:DEAD 3E A0 54     sms   (00A8),r0
000B:DEB0 3E A0 55     sms   (00AA),r0
000B:DEB3 3D AB 31     lms   r11,(0062)
000B:DEB6 9B           jmp   r11
000B:DEB7 01           nop

000B:DEB8 3D A0 6A     lms   r0,(00D4)
000B:DEBB E0           dec   r0
000B:DEBC 0B 13        bmi   DED1
000B:DEBE 01           nop
000B:DEBF 3D A0 60     lms   r0,(00C0)
000B:DEC2 E0           dec   r0
000B:DEC3 0B 0C        bmi   DED1
000B:DEC5 B6 3E 51     add   #01
000B:DEC8 3E 72        and   #02
000B:DECA 08 05        bne   DED1
000B:DECC 01           nop
000B:DECD A0 06        ibt   r0,#0006
000B:DECF 00           stop
000B:DED0 01           nop

000B:DED1 3D AB 31     lms   r11,(0062)
000B:DED4 9B           jmp   r11
000B:DED5 01           nop

000B:DED6 3D A0 6A     lms   r0,(00D4)
000B:DED9 E0           dec   r0
000B:DEDA 0B 0F        bmi   DEEB
000B:DEDC 60           sub   r0
000B:DEDD 3E A0 0E     sms   (001C),r0
000B:DEE0 F0 80 00     iwt   r0,#0080
000B:DEE3 3E A0 0F     sms   (001E),r0
000B:DEE6 94           link  #04
000B:DEE7 FF 81 DF     iwt   r15,#DF81
000B:DEEA 01           nop
000B:DEEB 3D AB 31     lms   r11,(0062)
000B:DEEE 9B           jmp   r11
000B:DEEF 01           nop

000B:DEF0 3D A0 E0     lms   r0,(01C0)
000B:DEF3 3E 60        sub   #00
000B:DEF5 08 31        bne   DF28
000B:DEF7 01           nop
000B:DEF8 F5 DE 00     iwt   r5,#00DE
000B:DEFB 94           link  #04
000B:DEFC FF 10 EF     iwt   r15,#EF10
000B:DEFF 01           nop
000B:DF00 0B 26        bmi   DF28
000B:DF02 01           nop
000B:DF03 A5 02        ibt   r5,#0002
000B:DF05 F0 00 0F     iwt   r0,#0F00
000B:DF08 51           add   r1
000B:DF09 B5 30        stw   (r0)
000B:DF0B 3D A0 00     lms   r0,(0000)
000B:DF0E 15 3F 7F     bic   #0F
000B:DF11 F0 E2 10     iwt   r0,#10E2
000B:DF14 51           add   r1
000B:DF15 B5 30        stw   (r0)
000B:DF17 3D A0 01     lms   r0,(0002)
000B:DF1A 15 3F 7F     bic   #0F
000B:DF1D F0 82 11     iwt   r0,#1182
000B:DF20 51           add   r1
000B:DF21 B5 30        stw   (r0)
000B:DF23 A0 01        ibt   r0,#0001
000B:DF25 3E A0 E0     sms   (01C0),r0
000B:DF28 3D AB 31     lms   r11,(0062)
000B:DF2B 9B           jmp   r11
000B:DF2C 01           nop

000B:DF2D 3D A0 6A     lms   r0,(00D4)
000B:DF30 E0           dec   r0
000B:DF31 0B 4C        bmi   DF7F
000B:DF33 01           nop
000B:DF34 A0 23        ibt   r0,#0023
000B:DF36 3E A0 3D     sms   (007A),r0
000B:DF39 A0 40        ibt   r0,#0040
000B:DF3B 3E A0 F9     sms   (01F2),r0
000B:DF3E 3D A0 46     lms   r0,(008C)
000B:DF41 3E F0 B2 0E  sm    (0EB2),r0
000B:DF45 3D A0 48     lms   r0,(0090)
000B:DF48 3E F0 B4 0E  sm    (0EB4),r0
000B:DF4C A0 20        ibt   r0,#0020
000B:DF4E 3E A0 E3     sms   (01C6),r0
000B:DF51 3E AB 30     sms   (0060),r11
000B:DF54 F5 DC 01     iwt   r5,#01DC
000B:DF57 94           link  #04
000B:DF58 FF C4 F0     iwt   r15,#F0C4
000B:DF5B 01           nop
000B:DF5C F0 A2 10     iwt   r0,#10A2
000B:DF5F 51           add   r1
000B:DF60 B9 30        stw   (r0)
000B:DF62 A0 10        ibt   r0,#0010
000B:DF64 15 5A        add   r10
000B:DF66 F0 42 11     iwt   r0,#1142
000B:DF69 51           add   r1
000B:DF6A B5 30        stw   (r0)
000B:DF6C A5 0B        ibt   r5,#000B
000B:DF6E F0 4C 1E     iwt   r0,#1E4C
000B:DF71 51           add   r1
000B:DF72 B5 30        stw   (r0)
000B:DF74 A5 02        ibt   r5,#0002
000B:DF76 F0 82 17     iwt   r0,#1782
000B:DF79 51           add   r1
000B:DF7A B5 30        stw   (r0)
000B:DF7C 3D AB 30     lms   r11,(0060)
000B:DF7F 9B           jmp   r11
000B:DF80 01           nop

000B:DF81 3E AB 30     sms   (0060),r11
000B:DF84 A0 0A        ibt   r0,#000A
000B:DF86 3E A0 3D     sms   (007A),r0
000B:DF89 F5 C3 01     iwt   r5,#01C3
000B:DF8C 94           link  #04
000B:DF8D FF C4 F0     iwt   r15,#F0C4
000B:DF90 01           nop
000B:DF91 3D A0 00     lms   r0,(0000)
000B:DF94 15 3F 7F     bic   #0F
000B:DF97 F0 A2 10     iwt   r0,#10A2
000B:DF9A 51           add   r1
000B:DF9B B5 30        stw   (r0)
000B:DF9D 3D A0 01     lms   r0,(0002)
000B:DFA0 15 3F 7F     bic   #0F
000B:DFA3 F0 42 11     iwt   r0,#1142
000B:DFA6 51           add   r1
000B:DFA7 B5 30        stw   (r0)
000B:DFA9 3D A5 0E     lms   r5,(001C)
000B:DFAC F0 E0 11     iwt   r0,#11E0
000B:DFAF 51           add   r1
000B:DFB0 B5 30        stw   (r0)
000B:DFB2 3D A5 0F     lms   r5,(001E)
000B:DFB5 F0 E2 11     iwt   r0,#11E2
000B:DFB8 51           add   r1
000B:DFB9 B5 30        stw   (r0)
000B:DFBB A5 0A        ibt   r5,#000A
000B:DFBD F0 C2 13     iwt   r0,#13C2
000B:DFC0 51           add   r1
000B:DFC1 B5 30        stw   (r0)
000B:DFC3 A5 02        ibt   r5,#0002
000B:DFC5 F0 82 17     iwt   r0,#1782
000B:DFC8 51           add   r1
000B:DFC9 B5 30        stw   (r0)
000B:DFCB A5 08        ibt   r5,#0008
000B:DFCD F0 02 15     iwt   r0,#1502
000B:DFD0 51           add   r1
000B:DFD1 B5 30        stw   (r0)
000B:DFD3 F5 00 04     iwt   r5,#0400
000B:DFD6 F0 A2 15     iwt   r0,#15A2
000B:DFD9 51           add   r1
000B:DFDA B5 30        stw   (r0)
000B:DFDC A0 04        ibt   r0,#0004
000B:DFDE 00           stop
000B:DFDF 01           nop

000B:DFE0 3D AB 30     lms   r11,(0060)
000B:DFE3 9B           jmp   r11
000B:DFE4 01           nop

000B:DFE5 3E AB 32     sms   (0064),r11
000B:DFE8 94           link  #04
000B:DFE9 FF 1C E3     iwt   r15,#E31C
000B:DFEC 01           nop
000B:DFED 3D AB 32     lms   r11,(0064)
000B:DFF0 3D F1 71 00  lm    r1,(0071)
000B:DFF4 3D F2 73 00  lm    r2,(0073)
000B:DFF8 3D A0 6D     lms   r0,(00DA)
000B:DFFB 3E 60        sub   #00
000B:DFFD 09 05        beq   E004
000B:DFFF 01           nop
000B:E000 FF 88 E0     iwt   r15,#E088
000B:E003 01           nop
000B:E004 3D A0 60     lms   r0,(00C0)
000B:E007 E0           dec   r0
000B:E008 0B 4E        bmi   E058
000B:E00A 01           nop
000B:E00B 3D A0 61     lms   r0,(00C2)
000B:E00E 3D A7 A8     lms   r7,(0150)
000B:E011 C7           or    r7
000B:E012 3D A7 6F     lms   r7,(00DE)
000B:E015 C7           or    r7
000B:E016 08 39        bne   E051
000B:E018 60           sub   r0
000B:E019 B1 3E 73     and   #03
000B:E01C 08 33        bne   E051
000B:E01E 60           sub   r0
000B:E01F B1 3E 74     and   #04
000B:E022 09 2D        beq   E051
000B:E024 D7           inc   r7
000B:E025 3D A0 6B     lms   r0,(00D6)
000B:E028 D0           inc   r0
000B:E029 09 29        beq   E054
000B:E02B 18 3E 68     sub   #08
000B:E02E 0C 21        bcc   E051
000B:E030 01           nop
000B:E031 A0 73        ibt   r0,#0073
000B:E033 3E A0 3D     sms   (007A),r0
000B:E036 3E A7 6A     sms   (00D4),r7
000B:E039 60           sub   r0
000B:E03A 3E A0 55     sms   (00AA),r0
000B:E03D A0 03        ibt   r0,#0003
000B:E03F 3E A0 EF     sms   (01DE),r0
000B:E042 3E AB 32     sms   (0064),r11
000B:E045 94           link  #04
000B:E046 FF 5B EB     iwt   r15,#EB5B
000B:E049 01           nop
000B:E04A 3D AB 32     lms   r11,(0064)
000B:E04D FF 05 E1     iwt   r15,#E105
000B:E050 01           nop
000B:E051 3E A0 6B     sms   (00D6),r0
000B:E054 FF 05 E1     iwt   r15,#E105
000B:E057 01           nop
000B:E058 3D A0 6F     lms   r0,(00DE)
000B:E05B 9E           lob
000B:E05C A8 FF        ibt   r8,#FFFF
000B:E05E 3D A7 61     lms   r7,(00C2)
000B:E061 08 0B        bne   E06E
000B:E063 60           sub   r0
000B:E064 B1 3E 74     and   #04
000B:E067 09 05        beq   E06E
000B:E069 01           nop
000B:E06A A8 01        ibt   r8,#0001
000B:E06C A0 05        ibt   r0,#0005
000B:E06E 67           sub   r7
000B:E06F 09 04        beq   E075
000B:E071 57           add   r7
000B:E072 B7 58        add   r8
000B:E074 90           sbk
000B:E075 09 11        beq   E088
000B:E077 60           sub   r0
000B:E078 E0           dec   r0
000B:E079 3E A0 6B     sms   (00D6),r0
000B:E07C 3D F0 85 00  lm    r0,(0085)
000B:E080 72           and   r2
000B:E081 08 0D        bne   E090
000B:E083 01           nop
000B:E084 FF 8F E2     iwt   r15,#E28F
000B:E087 01           nop
000B:E088 3D F0 85 00  lm    r0,(0085)
000B:E08C 72           and   r2
000B:E08D 09 64        beq   E0F3
000B:E08F 01           nop
000B:E090 A0 49        ibt   r0,#0049
000B:E092 3E A0 3D     sms   (007A),r0
000B:E095 A0 40        ibt   r0,#0040
000B:E097 3E A0 F9     sms   (01F2),r0
000B:E09A 3D A0 46     lms   r0,(008C)
000B:E09D 3E F0 B2 0E  sm    (0EB2),r0
000B:E0A1 3D A0 48     lms   r0,(0090)
000B:E0A4 3E F0 B4 0E  sm    (0EB4),r0
000B:E0A8 3D A0 7E     lms   r0,(00FC)
000B:E0AB A4 18        ibt   r4,#0018
000B:E0AD 74           and   r4
000B:E0AE 08 04        bne   E0B4
000B:E0B0 60           sub   r0
000B:E0B1 F0 60 FB     iwt   r0,#FB60
000B:E0B4 3E A0 55     sms   (00AA),r0
000B:E0B7 3D F6 3A 1E  lm    r6,(1E3A)
000B:E0BB F0 70 01     iwt   r0,#0170
000B:E0BE 3D 9F        lmult
000B:E0C0 24 C0        hib
000B:E0C2 9E           lob
000B:E0C3 4D           swap
000B:E0C4 C4           or    r4
000B:E0C5 3D A6 54     lms   r6,(00A8)
000B:E0C8 56           add   r6
000B:E0C9 20 16        move  r6,r0
000B:E0CB 0A 03        bpl   E0D0
000B:E0CD 01           nop
000B:E0CE 4F           not
000B:E0CF D0           inc   r0
000B:E0D0 F4 00 03     iwt   r4,#0300
000B:E0D3 64           sub   r4
000B:E0D4 0C 0A        bcc   E0E0
000B:E0D6 01           nop
000B:E0D7 26 B6        moves r6,r6
000B:E0D9 24 16        move  r6,r4
000B:E0DB 0A 03        bpl   E0E0
000B:E0DD 26 4F        not
000B:E0DF D6           inc   r6
000B:E0E0 3E A6 5A     sms   (00B4),r6
000B:E0E3 F0 06 00     iwt   r0,#0006
000B:E0E6 3E A0 60     sms   (00C0),r0
000B:E0E9 60           sub   r0
000B:E0EA 3E A0 6D     sms   (00DA),r0
000B:E0ED 3E A0 61     sms   (00C2),r0
000B:E0F0 05 13        bra   E105

000B:E0F2 01           nop

000B:E0F3 3D A0 A8     lms   r0,(0150)
000B:E0F6 E0           dec   r0
000B:E0F7 0A 0C        bpl   E105
000B:E0F9 B1 3E 78     and   #08
000B:E0FC 09 07        beq   E105
000B:E0FE 01           nop
000B:E0FF F0 4C 00     iwt   r0,#004C
000B:E102 3E A0 67     sms   (00CE),r0
000B:E105 3D A0 6D     lms   r0,(00DA)
000B:E108 3E 60        sub   #00
000B:E10A 09 05        beq   E111
000B:E10C 01           nop
000B:E10D FF 8D E2     iwt   r15,#E28D
000B:E110 01           nop
000B:E111 3D F0 E8 1F  lm    r0,(1FE8)
000B:E115 3E 60        sub   #00
000B:E117 09 0B        beq   E124
000B:E119 01           nop
000B:E11A 3D A0 60     lms   r0,(00C0)
000B:E11D 3D A5 A8     lms   r5,(0150)
000B:E120 C5           or    r5
000B:E121 09 05        beq   E128
000B:E123 01           nop
000B:E124 FF D3 E1     iwt   r15,#E1D3
000B:E127 01           nop
000B:E128 3D A5 79     lms   r5,(00F2)
000B:E12B 2C B5        moves r12,r5
000B:E12D 0A 03        bpl   E132
000B:E12F 2C 4F        not
000B:E131 DC           inc   r12
000B:E132 3D A4 62     lms   r4,(00C4)
000B:E135 21 3E 73     and   #03
000B:E138 09 28        beq   E162
000B:E13A 01           nop
000B:E13B B1 3E 72     and   #02
000B:E13E 64           sub   r4
000B:E13F 09 13        beq   E154
000B:E141 01           nop
000B:E142 3D A0 6F     lms   r0,(00DE)
000B:E145 9E           lob
000B:E146 08 0C        bne   E154
000B:E148 25 4F        not
000B:E14A D5           inc   r5
000B:E14B 3E A5 79     sms   (00F2),r5
000B:E14E 24 3F C2     xor   #02
000B:E151 3E A4 62     sms   (00C4),r4
000B:E154 A7 02        ibt   r7,#0002
000B:E156 3E A7 7A     sms   (00F4),r7
000B:E159 A0 0E        ibt   r0,#000E
000B:E15B 65           sub   r5
000B:E15C 0B 07        bmi   E165
000B:E15E 01           nop
000B:E15F 05 0C        bra   E16D

000B:E161 B7 3D A7 7A  lms   r7,(00F4)
000B:E165 3D A0 EC     lms   r0,(01D8)
000B:E168 E0           dec   r0
000B:E169 0A 53        bpl   E1BE
000B:E16B 01           nop
000B:E16C B7 3D C5     xor   r5
000B:E16F 0B 0D        bmi   E17E
000B:E171 01           nop
000B:E172 A0 17        ibt   r0,#0017
000B:E174 6C           sub   r12
000B:E175 0C 0B        bcc   E182
000B:E177 01           nop
000B:E178 A0 10        ibt   r0,#0010
000B:E17A 6C           sub   r12
000B:E17B 09 05        beq   E182
000B:E17D 01           nop
000B:E17E 25           with  r5
000B:E17F 05 2D        bra   E1AE

000B:E181 57           add   r7

000B:E182 20 B1        moves r0,r1
000B:E184 08 1D        bne   E1A3
000B:E186 60           sub   r0
000B:E187 AC 0E        ibt   r12,#000E
000B:E189 3D F0 70 19  lm    r0,(1970)
000B:E18D 17 3E 74     and   #04
000B:E190 27 3E 62     sub   #02
000B:E193 3E A7 7A     sms   (00F4),r7
000B:E196 B7 3D C5     xor   r5
000B:E199 0B 0A        bmi   E1A5
000B:E19B 01           nop
000B:E19C AC 12        ibt   r12,#0012
000B:E19E 3E 79        and   #09
000B:E1A0 08 03        bne   E1A5
000B:E1A2 01           nop
000B:E1A3 AC 1A        ibt   r12,#001A
000B:E1A5 25 B5        moves r5,r5
000B:E1A7 2C 15        move  r5,r12
000B:E1A9 0A 03        bpl   E1AE
000B:E1AB 25 4F        not
000B:E1AD D5           inc   r5
000B:E1AE 3E A5 79     sms   (00F2),r5
000B:E1B1 A0 1A        ibt   r0,#001A
000B:E1B3 55           add   r5
000B:E1B4 03           lsr
000B:E1B5 FE 57 FB     iwt   r14,#FB57
000B:E1B8 1E 5E        add   r14
000B:E1BA EF           getb
000B:E1BB 3E A0 EC     sms   (01D8),r0
000B:E1BE A0 19        ibt   r0,#0019
000B:E1C0 6C           sub   r12
000B:E1C1 0D 16        bcs   E1D9
000B:E1C3 B7 3D C5     xor   r5
000B:E1C6 0B 11        bmi   E1D9
000B:E1C8 01           nop
000B:E1C9 25 B5        moves r5,r5
000B:E1CB 0A 03        bpl   E1D0
000B:E1CD 24 3F C2     xor   #02
000B:E1D0 24 11        move  r1,r4
000B:E1D2 D1           inc   r1
000B:E1D3 B1 3E 73     and   #03
000B:E1D6 08 10        bne   E1E8
000B:E1D8 01           nop
000B:E1D9 3D A0 7D     lms   r0,(00FA)
000B:E1DC 3E 62        sub   #02
000B:E1DE 0C 04        bcc   E1E4
000B:E1E0 60           sub   r0
000B:E1E1 3E A0 66     sms   (00CC),r0
000B:E1E4 FF 8F E2     iwt   r15,#E28F
000B:E1E7 01           nop
000B:E1E8 3D A7 F6     lms   r7,(01EC)
000B:E1EB 27 B7        moves r7,r7
000B:E1ED 09 03        beq   E1F2
000B:E1EF 01           nop
000B:E1F0 3F C3        xor   #03
000B:E1F2 3E A0 66     sms   (00CC),r0
000B:E1F5 A7 FF        ibt   r7,#FFFF
000B:E1F7 14 3E 72     and   #02
000B:E1FA 08 03        bne   E1FF
000B:E1FC 01           nop
000B:E1FD A7 01        ibt   r7,#0001
000B:E1FF 3D F0 E8 1F  lm    r0,(1FE8)
000B:E203 3E 60        sub   #00
000B:E205 08 2F        bne   E236
000B:E207 01           nop
000B:E208 3D A0 62     lms   r0,(00C4)
000B:E20B 64           sub   r4
000B:E20C 09 0E        beq   E21C
000B:E20E 01           nop
000B:E20F 3D A0 A8     lms   r0,(0150)
000B:E212 3D AE 6F     lms   r14,(00DE)
000B:E215 CE           or    r14
000B:E216 08 04        bne   E21C
000B:E218 01           nop
000B:E219 3E A4 62     sms   (00C4),r4
000B:E21C 3D A0 5A     lms   r0,(00B4)
000B:E21F 3E 60        sub   #00
000B:E221 09 13        beq   E236
000B:E223 01           nop
000B:E224 3D C7        xor   r7
000B:E226 0A 0E        bpl   E236
000B:E228 01           nop
000B:E229 3D A0 7D     lms   r0,(00FA)
000B:E22C 3E 62        sub   #02
000B:E22E 0D 06        bcs   E236
000B:E230 01           nop
000B:E231 A0 04        ibt   r0,#0004
000B:E233 3E A0 E8     sms   (01D0),r0
000B:E236 3D F0 FB 00  lm    r0,(00FB)
000B:E23A 03           lsr
000B:E23B 03           lsr
000B:E23C 17 C4        or    r4
000B:E23E 3D A0 5B     lms   r0,(00B6)
000B:E241 3F 7F        bic   #0F
000B:E243 03           lsr
000B:E244 03           lsr
000B:E245 17 C7        or    r7
000B:E247 F0 2B EC     iwt   r0,#EC2B
000B:E24A 1E 57        add   r7
000B:E24C EF           getb
000B:E24D DE           inc   r14
000B:E24E 18 3D EF     getbh
000B:E251 3D A0 5A     lms   r0,(00B4)
000B:E254 3D AE A8     lms   r14,(0150)
000B:E257 EE           dec   r14
000B:E258 0A 12        bpl   E26C
000B:E25A 01           nop
000B:E25B 3D AE 60     lms   r14,(00C0)
000B:E25E EE           dec   r14
000B:E25F 0B 0C        bmi   E26D
000B:E261 DE           inc   r14
000B:E262 3D AE 69     lms   r14,(00D2)
000B:E265 2E 9E        lob
000B:E267 EE           dec   r14
000B:E268 EE           dec   r14
000B:E269 0B 02        bmi   E26D
000B:E26B 01           nop
000B:E26C 50           add   r0
000B:E26D 68           sub   r8
000B:E26E 09 54        beq   E2C4
000B:E270 01           nop
000B:E271 3D C8        xor   r8
000B:E273 0A 4F        bpl   E2C4
000B:E275 01           nop
000B:E276 3D A0 E8     lms   r0,(01D0)
000B:E279 9E           lob
000B:E27A 09 02        beq   E27E
000B:E27C 01           nop
000B:E27D D7           inc   r7
000B:E27E F0 B3 ED     iwt   r0,#EDB3
000B:E281 57           add   r7
000B:E282 1E 57        add   r7
000B:E284 EF           getb
000B:E285 DE           inc   r14
000B:E286 3D EF        getbh
000B:E288 3D A7 5A     lms   r7,(00B4)
000B:E28B 57           add   r7
000B:E28C 90           sbk
000B:E28D 9B           jmp   r11
000B:E28E 01           nop

000B:E28F 3D A0 60     lms   r0,(00C0)
000B:E292 E0           dec   r0
000B:E293 0B 2F        bmi   E2C4
000B:E295 01           nop
000B:E296 3D A0 63     lms   r0,(00C6)
000B:E299 E0           dec   r0
000B:E29A 0A 28        bpl   E2C4
000B:E29C 01           nop
000B:E29D FE 2B EC     iwt   r14,#EC2B
000B:E2A0 3D A0 69     lms   r0,(00D2)
000B:E2A3 18 9E        lob
000B:E2A5 3D A0 5A     lms   r0,(00B4)
000B:E2A8 E8           dec   r8
000B:E2A9 E8           dec   r8
000B:E2AA 0A 02        bpl   E2AE
000B:E2AC 50           add   r0
000B:E2AD 96           asr
000B:E2AE 0A 03        bpl   E2B3
000B:E2B0 01           nop
000B:E2B1 DE           inc   r14
000B:E2B2 DE           inc   r14
000B:E2B3 18 EF        getb
000B:E2B5 DE           inc   r14
000B:E2B6 28 3D EF     getbh
000B:E2B9 68           sub   r8
000B:E2BA 09 08        beq   E2C4
000B:E2BC 01           nop
000B:E2BD 3D C8        xor   r8
000B:E2BF 0A 03        bpl   E2C4
000B:E2C1 01           nop
000B:E2C2 9B           jmp   r11
000B:E2C3 01           nop

000B:E2C4 3D F0 FB 00  lm    r0,(00FB)
000B:E2C8 03           lsr
000B:E2C9 03           lsr
000B:E2CA 17 03        lsr
000B:E2CC 3D A0 5B     lms   r0,(00B6)
000B:E2CF 3F 7F        bic   #0F
000B:E2D1 03           lsr
000B:E2D2 03           lsr
000B:E2D3 03           lsr
000B:E2D4 14 C7        or    r7
000B:E2D6 F0 B3 F0     iwt   r0,#F0B3
000B:E2D9 1E 54        add   r4
000B:E2DB EF           getb
000B:E2DC DE           inc   r14
000B:E2DD 17 3D EF     getbh
000B:E2E0 3D A8 5A     lms   r8,(00B4)
000B:E2E3 B8 67        sub   r7
000B:E2E5 0A 02        bpl   E2E9
000B:E2E7 01           nop
000B:E2E8 D4           inc   r4
000B:E2E9 F0 93 F1     iwt   r0,#F193
000B:E2EC 54           add   r4
000B:E2ED 1E 54        add   r4
000B:E2EF EF           getb
000B:E2F0 DE           inc   r14
000B:E2F1 3D EF        getbh
000B:E2F3 3D F4 E8 1F  lm    r4,(1FE8)
000B:E2F7 24 B4        moves r4,r4
000B:E2F9 09 03        beq   E2FE
000B:E2FB 01           nop
000B:E2FC 3D 96        div2
000B:E2FE 3D A4 61     lms   r4,(00C2)
000B:E301 E4           dec   r4
000B:E302 0B 03        bmi   E307
000B:E304 01           nop
000B:E305 50           add   r0
000B:E306 50           add   r0
000B:E307 20 14        move  r4,r0
000B:E309 58           add   r8
000B:E30A 20 18        move  r8,r0
000B:E30C 67           sub   r7
000B:E30D 3D C4        xor   r4
000B:E30F 0B 06        bmi   E317
000B:E311 60           sub   r0
000B:E312 3E A0 66     sms   (00CC),r0
000B:E315 27 18        move  r8,r7
000B:E317 3E A8 5A     sms   (00B4),r8
000B:E31A 9B           jmp   r11
000B:E31B 01           nop
000B:E31C 3D A0 EB     lms   r0,(01D6)
000B:E31F A8 40        ibt   r8,#0040
000B:E321 68           sub   r8
000B:E322 0C 03        bcc   E327
000B:E324 01           nop
000B:E325 9B           jmp   r11
000B:E326 01           nop

000B:E327 3E AB 31     sms   (0062),r11
000B:E32A 3D A8 AD     lms   r8,(015A)
000B:E32D 3D A0 AE     lms   r0,(015C)
000B:E330 94           link  #04
000B:E331 FF 20 D3     iwt   r15,#D320
000B:E334 3D 3D A3 B4  lms   r3,(0168)
000B:E338 3D A4 B5     lms   r4,(016A)
000B:E33B 3D A8 B1     lms   r8,(0162)
000B:E33E 3D A2 A8     lms   r2,(0150)
000B:E341 E2           dec   r2
000B:E342 0B 05        bmi   E349
000B:E344 D2           inc   r2
000B:E345 FF 02 E7     iwt   r15,#E702
000B:E348 01           nop
000B:E349 3D A0 6F     lms   r0,(00DE)
000B:E34C E0           dec   r0
000B:E34D 0A 05        bpl   E354
000B:E34F 01           nop
000B:E350 FF 5E E5     iwt   r15,#E55E
000B:E353 01           nop
000B:E354 3D A1 63     lms   r1,(00C6)
000B:E357 E1           dec   r1
000B:E358 0A 42        bpl   E39C
000B:E35A 01           nop
000B:E35B 3D A1 F1     lms   r1,(01E2)
000B:E35E E1           dec   r1
000B:E35F 0B 05        bmi   E366
000B:E361 01           nop
000B:E362 FF 9A E8     iwt   r15,#E89A
000B:E365 01           nop
000B:E366 3D A1 76     lms   r1,(00EC)
000B:E369 21 B1        moves r1,r1
000B:E36B 09 06        beq   E373
000B:E36D 01           nop
000B:E36E 3E 65        sub   #05
000B:E370 09 05        beq   E377
000B:E372 01           nop
000B:E373 FF 42 E5     iwt   r15,#E542
000B:E376 01           nop
000B:E377 3D A3 39     lms   r3,(0072)
000B:E37A 3D A0 44     lms   r0,(0088)
000B:E37D 73           and   r3
000B:E37E 08 1D        bne   E39D
000B:E380 60           sub   r0
000B:E381 3D A3 38     lms   r3,(0070)
000B:E384 F0 00 03     iwt   r0,#0300
000B:E387 73           and   r3
000B:E388 08 1D        bne   E3A7
000B:E38A 60           sub   r0
000B:E38B F0 00 04     iwt   r0,#0400
000B:E38E 73           and   r3
000B:E38F 09 16        beq   E3A7
000B:E391 60           sub   r0
000B:E392 3D A0 74     lms   r0,(00E8)
000B:E395 D0           inc   r0
000B:E396 12 3E 68     sub   #08
000B:E399 0C 0C        bcc   E3A7
000B:E39B 01           nop
000B:E39C 60           sub   r0
000B:E39D 3E A0 6F     sms   (00DE),r0
000B:E3A0 3E A0 70     sms   (00E0),r0
000B:E3A3 FF 9A E8     iwt   r15,#E89A
000B:E3A6 01           nop
000B:E3A7 3E A0 74     sms   (00E8),r0
000B:E3AA A2 01        ibt   r2,#0001
000B:E3AC 3D A0 41     lms   r0,(0082)
000B:E3AF E0           dec   r0
000B:E3B0 3D A0 43     lms   r0,(0086)
000B:E3B3 0B 08        bmi   E3BD
000B:E3B5 01           nop
000B:E3B6 73           and   r3
000B:E3B7 09 0E        beq   E3C7
000B:E3B9 01           nop
000B:E3BA 05 0D        bra   E3C9

000B:E3BC 01           nop

000B:E3BD 3D A3 39     lms   r3,(0072)
000B:E3C0 3D A0 43     lms   r0,(0086)
000B:E3C3 73           and   r3
000B:E3C4 09 03        beq   E3C9
000B:E3C6 01           nop
000B:E3C7 A2 10        ibt   r2,#0010
000B:E3C9 3D A0 71     lms   r0,(00E2)
000B:E3CC 3E 54        add   #04
000B:E3CE A3 20        ibt   r3,#0020
000B:E3D0 63           sub   r3
000B:E3D1 0D 03        bcs   E3D6
000B:E3D3 53           add   r3
000B:E3D4 20 13        move  r3,r0
000B:E3D6 3D A0 75     lms   r0,(00EA)
000B:E3D9 3E 60        sub   #00
000B:E3DB 08 70        bne   E44D
000B:E3DD 01           nop
000B:E3DE 3D A0 70     lms   r0,(00E0)
000B:E3E1 F7 00 01     iwt   r7,#0100
000B:E3E4 67           sub   r7
000B:E3E5 0D 10        bcs   E3F7
000B:E3E7 01           nop
000B:E3E8 3D F0 71 00  lm    r0,(0071)
000B:E3EC 3E 78        and   #08
000B:E3EE 08 10        bne   E400
000B:E3F0 01           nop
000B:E3F1 F7 00 26     iwt   r7,#2600
000B:E3F4 05 0D        bra   E403

000B:E3F6 01           nop

000B:E3F7 3D F0 71 00  lm    r0,(0071)
000B:E3FB 3E 78        and   #08
000B:E3FD 09 28        beq   E427
000B:E3FF 01           nop
000B:E400 F7 00 2E     iwt   r7,#2E00
000B:E403 3D A0 77     lms   r0,(00EE)
000B:E406 1E 67        sub   r7
000B:E408 09 07        beq   E411
000B:E40A 01           nop
000B:E40B F6 C0 00     iwt   r6,#00C0
000B:E40E 0B 04        bmi   E414
000B:E410 01           nop
000B:E411 F6 40 FF     iwt   r6,#FF40
000B:E414 3E A6 78     sms   (00F0),r6
000B:E417 56           add   r6
000B:E418 20 1E        move  r14,r0
000B:E41A 67           sub   r7
000B:E41B 3D C6        xor   r6
000B:E41D 2E 10        move  r0,r14
000B:E41F 0B 03        bmi   E424
000B:E421 01           nop
000B:E422 27 10        move  r0,r7
000B:E424 05 1F        bra   E445

000B:E426 01           nop

000B:E427 3D A0 77     lms   r0,(00EE)
000B:E42A 3D A6 78     lms   r6,(00F0)
000B:E42D 17 56        add   r6
000B:E42F 0B 0F        bmi   E440
000B:E431 60           sub   r0
000B:E432 27 10        move  r0,r7
000B:E434 F7 00 2E     iwt   r7,#2E00
000B:E437 67           sub   r7
000B:E438 0C 0B        bcc   E445
000B:E43A 57           add   r7
000B:E43B 26 B6        moves r6,r6
000B:E43D 0B 06        bmi   E445
000B:E43F 01           nop
000B:E440 26 4F        not
000B:E442 D6           inc   r6
000B:E443 B6 90        sbk
000B:E445 3E A0 77     sms   (00EE),r0
000B:E448 05 03        bra   E44D

000B:E44A 01           nop

000B:E44B 20 13        move  r3,r0
000B:E44D 3D A0 39     lms   r0,(0072)
000B:E450 A7 30        ibt   r7,#0030
000B:E452 77           and   r7
000B:E453 09 0E        beq   E463
000B:E455 01           nop
000B:E456 3D A0 75     lms   r0,(00EA)
000B:E459 3E 60        sub   #00
000B:E45B 08 03        bne   E460
000B:E45D 60           sub   r0
000B:E45E 21 10        move  r0,r1
000B:E460 3E A0 75     sms   (00EA),r0
000B:E463 A7 00        ibt   r7,#0000
000B:E465 A0 08        ibt   r0,#0008
000B:E467 3F DF        romb
000B:E469 A6 30        ibt   r6,#0030
000B:E46B 3D A0 70     lms   r0,(00E0)
000B:E46E 03           lsr
000B:E46F 03           lsr
000B:E470 03           lsr
000B:E471 56           add   r6
000B:E472 A6 48        ibt   r6,#0048
000B:E474 66           sub   r6
000B:E475 0D 03        bcs   E47A
000B:E477 56           add   r6
000B:E478 20 16        move  r6,r0
000B:E47A 3D A0 77     lms   r0,(00EE)
000B:E47D 50           add   r0
000B:E47E FE 00 20     iwt   r14,#2000
000B:E481 6E           sub   r14
000B:E482 03           lsr
000B:E483 03           lsr
000B:E484 03           lsr
000B:E485 03           lsr
000B:E486 03           lsr
000B:E487 03           lsr
000B:E488 03           lsr
000B:E489 FE 58 AF     iwt   r14,#AF58
000B:E48C 1E 5E        add   r14
000B:E48E EF           getb
000B:E48F 86           mult  r6
000B:E490 50           add   r0
000B:E491 50           add   r0
000B:E492 C0           hib
000B:E493 95           sex
000B:E494 3D A4 62     lms   r4,(00C4)
000B:E497 E4           dec   r4
000B:E498 0B 0A        bmi   E4A4
000B:E49A 01           nop
000B:E49B 3D A4 E7     lms   r4,(01CE)
000B:E49E E4           dec   r4
000B:E49F 0A 03        bpl   E4A4
000B:E4A1 01           nop
000B:E4A2 4F           not
000B:E4A3 D0           inc   r0
000B:E4A4 3D A4 46     lms   r4,(008C)
000B:E4A7 14 54        add   r4
000B:E4A9 F0 80 00     iwt   r0,#0080
000B:E4AC 1E 5E        add   r14
000B:E4AE EF           getb
000B:E4AF 86           mult  r6
000B:E4B0 50           add   r0
000B:E4B1 50           add   r0
000B:E4B2 C0           hib
000B:E4B3 95           sex
000B:E4B4 3E 54        add   #04
000B:E4B6 3D A6 48     lms   r6,(0090)
000B:E4B9 16 56        add   r6
000B:E4BB A0 0A        ibt   r0,#000A
000B:E4BD 3F DF        romb
000B:E4BF 3E A3 71     sms   (00E2),r3
000B:E4C2 3E A4 72     sms   (00E4),r4
000B:E4C5 3E A6 73     sms   (00E6),r6
000B:E4C8 F5 E2 01     iwt   r5,#01E2
000B:E4CB 94           link  #04
000B:E4CC FF C4 F0     iwt   r15,#F0C4
000B:E4CF 01           nop
000B:E4D0 F0 A2 10     iwt   r0,#10A2
000B:E4D3 51           add   r1
000B:E4D4 B4 30        stw   (r0)
000B:E4D6 F0 42 11     iwt   r0,#1142
000B:E4D9 51           add   r1
000B:E4DA B6 30        stw   (r0)
000B:E4DC 3D A5 46     lms   r5,(008C)
000B:E4DF F0 8C 1E     iwt   r0,#1E8C
000B:E4E2 51           add   r1
000B:E4E3 B5 30        stw   (r0)
000B:E4E5 F0 82 17     iwt   r0,#1782
000B:E4E8 51           add   r1
000B:E4E9 B2 30        stw   (r0)
000B:E4EB A0 20        ibt   r0,#0020
000B:E4ED 63           sub   r3
000B:E4EE 0D 03        bcs   E4F3
000B:E4F0 53           add   r3
000B:E4F1 20 13        move  r3,r0
000B:E4F3 F0 4C 1E     iwt   r0,#1E4C
000B:E4F6 51           add   r1
000B:E4F7 B3 30        stw   (r0)
000B:E4F9 F0 02 10     iwt   r0,#1002
000B:E4FC 51           add   r1
000B:E4FD 15 40        ldw   (r0)
000B:E4FF A4 01        ibt   r4,#0001
000B:E501 F0 4E 1E     iwt   r0,#1E4E
000B:E504 51           add   r1
000B:E505 B4 30        stw   (r0)
000B:E507 3D F0 74 19  lm    r0,(1974)
000B:E50B 3E 74        and   #04
000B:E50D 03           lsr
000B:E50E 3E 52        add   #02
000B:E510 15 C5        or    r5
000B:E512 F0 02 10     iwt   r0,#1002
000B:E515 51           add   r1
000B:E516 B5 30        stw   (r0)
000B:E518 23 10        move  r0,r3
000B:E51A E2           dec   r2
000B:E51B 08 25        bne   E542
000B:E51D 60           sub   r0
000B:E51E 3D A0 70     lms   r0,(00E0)
000B:E521 F1 80 02     iwt   r1,#0280
000B:E524 61           sub   r1
000B:E525 0C 04        bcc   E52B
000B:E527 51           add   r1
000B:E528 F0 00 01     iwt   r0,#0100
000B:E52B A5 30        ibt   r5,#0030
000B:E52D 55           add   r5
000B:E52E 3E A0 70     sms   (00E0),r0
000B:E531 E0           dec   r0
000B:E532 11 C0        hib
000B:E534 9E           lob
000B:E535 65           sub   r5
000B:E536 0D 06        bcs   E53E
000B:E538 01           nop
000B:E539 A0 09        ibt   r0,#0009
000B:E53B 3E A0 3D     sms   (007A),r0
000B:E53E FF 9A E8     iwt   r15,#E89A
000B:E541 01           nop
000B:E542 3D A0 6F     lms   r0,(00DE)
000B:E545 E0           dec   r0
000B:E546 1E 3E 62     sub   #02
000B:E549 08 06        bne   E551
000B:E54B 90           sbk
000B:E54C AE 4A        ibt   r14,#004A
000B:E54E 3E AE 3D     sms   (007A),r14
000B:E551 FE 5D F6     iwt   r14,#F65D
000B:E554 1E 5E        add   r14
000B:E556 EF           getb
000B:E557 3E A0 F1     sms   (01E2),r0
000B:E55A FF 9A E8     iwt   r15,#E89A
000B:E55D 01           nop
000B:E55E 23 B3        moves r3,r3
000B:E560 09 39        beq   E59B
000B:E562 01           nop
000B:E563 0B 36        bmi   E59B
000B:E565 01           nop
000B:E566 E4           dec   r4
000B:E567 0A 16        bpl   E57F
000B:E569 D4           inc   r4
000B:E56A 3D A0 39     lms   r0,(0072)
000B:E56D 3D A1 44     lms   r1,(0088)
000B:E570 71           and   r1
000B:E571 09 05        beq   E578
000B:E573 01           nop
000B:E574 FF 14 E6     iwt   r15,#E614
000B:E577 01           nop
000B:E578 3D A0 F7     lms   r0,(01EE)
000B:E57B E0           dec   r0
000B:E57C 0B 0B        bmi   E589
000B:E57E 01           nop
000B:E57F 3D A1 38     lms   r1,(0070)
000B:E582 F0 00 04     iwt   r0,#0400
000B:E585 71           and   r1
000B:E586 09 13        beq   E59B
000B:E588 01           nop
000B:E589 E4           dec   r4
000B:E58A 0A 0F        bpl   E59B
000B:E58C D4           inc   r4
000B:E58D A3 00        ibt   r3,#0000
000B:E58F 3E A3 B4     sms   (0168),r3
000B:E592 A2 2B        ibt   r2,#002B
000B:E594 3E A2 A8     sms   (0150),r2
000B:E597 FF 02 E7     iwt   r15,#E702
000B:E59A 01           nop
000B:E59B 3D A1 39     lms   r1,(0072)
000B:E59E 3D A0 43     lms   r0,(0086)
000B:E5A1 71           and   r1
000B:E5A2 09 68        beq   E60C
000B:E5A4 01           nop
000B:E5A5 3D A0 63     lms   r0,(00C6)
000B:E5A8 E0           dec   r0
000B:E5A9 0A 2A        bpl   E5D5
000B:E5AB 01           nop
000B:E5AC 3D F0 F6 1D  lm    r0,(1DF6)
000B:E5B0 9E           lob
000B:E5B1 09 22        beq   E5D5
000B:E5B3 01           nop
000B:E5B4 3D F1 F8 1D  lm    r1,(1DF8)
000B:E5B8 F0 60 13     iwt   r0,#1360
000B:E5BB 51           add   r1
000B:E5BC 40           ldw   (r0)
000B:E5BD F7 27 00     iwt   r7,#0027
000B:E5C0 67           sub   r7
000B:E5C1 09 12        beq   E5D5
000B:E5C3 01           nop
000B:E5C4 A0 08        ibt   r0,#0008
000B:E5C6 00           stop
000B:E5C7 01           nop

000B:E5C8 A0 1A        ibt   r0,#001A
000B:E5CA 3E A0 3D     sms   (007A),r0
000B:E5CD F0 D8 19     iwt   r0,#19D8
000B:E5D0 11 51        add   r1
000B:E5D2 A0 FF        ibt   r0,#FFFF
000B:E5D4 31           stw   (r1)
000B:E5D5 3E A0 76     sms   (00EC),r0
000B:E5D8 A0 0A        ibt   r0,#000A
000B:E5DA 3E A0 6F     sms   (00DE),r0
000B:E5DD A0 01        ibt   r0,#0001
000B:E5DF 3E A0 F1     sms   (01E2),r0
000B:E5E2 60           sub   r0
000B:E5E3 3E A0 74     sms   (00E8),r0
000B:E5E6 3E A0 75     sms   (00EA),r0
000B:E5E9 3E A0 6D     sms   (00DA),r0
000B:E5EC F7 00 04     iwt   r7,#0400
000B:E5EF 3D F0 71 00  lm    r0,(0071)
000B:E5F3 3E 78        and   #08
000B:E5F5 09 04        beq   E5FB
000B:E5F7 01           nop
000B:E5F8 F7 00 2E     iwt   r7,#2E00
000B:E5FB 60           sub   r0
000B:E5FC 3E A0 70     sms   (00E0),r0
000B:E5FF 3E A7 77     sms   (00EE),r7
000B:E602 F0 40 FF     iwt   r0,#FF40
000B:E605 3E A0 78     sms   (00F0),r0
000B:E608 FF 9A E8     iwt   r15,#E89A
000B:E60B 01           nop
000B:E60C 3D A0 44     lms   r0,(0088)
000B:E60F 12 71        and   r1
000B:E611 09 05        beq   E618
000B:E613 01           nop
000B:E614 FF 28 E6     iwt   r15,#E628
000B:E617 01           nop
000B:E618 3D A0 A5     lms   r0,(014A)
000B:E61B 3E 60        sub   #00
000B:E61D 09 05        beq   E624
000B:E61F 01           nop
000B:E620 FF 9A E8     iwt   r15,#E89A
000B:E623 01           nop
000B:E624 FF 9A E8     iwt   r15,#E89A
000B:E627 01           nop
000B:E628 3D F0 71 00  lm    r0,(0071)
000B:E62C 12 3E 78     and   #08
000B:E62F 09 03        beq   E634
000B:E631 D2           inc   r2
000B:E632 A2 03        ibt   r2,#0003
000B:E634 3E A2 A8     sms   (0150),r2
000B:E637 60           sub   r0
000B:E638 3E A0 B0     sms   (0160),r0
000B:E63B 3E A0 61     sms   (00C2),r0
000B:E63E 3E A0 6D     sms   (00DA),r0
000B:E641 23 B3        moves r3,r3
000B:E643 08 19        bne   E65E
000B:E645 01           nop
000B:E646 A0 3E        ibt   r0,#003E
000B:E648 3E A0 3D     sms   (007A),r0
000B:E64B B7 3E 72     and   #02
000B:E64E 08 05        bne   E655
000B:E650 01           nop
000B:E651 FF FC E6     iwt   r15,#E6FC
000B:E654 01           nop
000B:E655 A0 0A        ibt   r0,#000A
000B:E657 3E A0 F0     sms   (01E0),r0
000B:E65A FF F2 E7     iwt   r15,#E7F2
000B:E65D 01           nop
000B:E65E E4           dec   r4
000B:E65F 0B 3B        bmi   E69C
000B:E661 D4           inc   r4
000B:E662 3D A0 63     lms   r0,(00C6)
000B:E665 E0           dec   r0
000B:E666 0B 08        bmi   E670
000B:E668 60           sub   r0
000B:E669 3E A0 A8     sms   (0150),r0
000B:E66C FF 9A E8     iwt   r15,#E89A
000B:E66F 01           nop
000B:E670 F0 00 BE     iwt   r0,#BE00
000B:E673 E4           dec   r4
000B:E674 09 0A        beq   E680
000B:E676 D4           inc   r4
000B:E677 B4 3E 64     sub   #04
000B:E67A 08 13        bne   E68F
000B:E67C 01           nop
000B:E67D F0 00 BA     iwt   r0,#BA00
000B:E680 3E A0 8A     sms   (0114),r0
000B:E683 3D A0 AD     lms   r0,(015A)
000B:E686 3E A0 B9     sms   (0172),r0
000B:E689 3D A0 AE     lms   r0,(015C)
000B:E68C 3E A0 BA     sms   (0174),r0
000B:E68F B4 3E 63     sub   #03
000B:E692 08 04        bne   E698
000B:E694 60           sub   r0
000B:E695 3E A0 B9     sms   (0172),r0
000B:E698 FF 9A E8     iwt   r15,#E89A
000B:E69B 01           nop
000B:E69C B7 3E 72     and   #02
000B:E69F 09 05        beq   E6A6
000B:E6A1 01           nop
000B:E6A2 FF EA E6     iwt   r15,#E6EA
000B:E6A5 01           nop
000B:E6A6 A8 00        ibt   r8,#0000
000B:E6A8 3E A8 B1     sms   (0162),r8
000B:E6AB FC 80 01     iwt   r12,#0180
000B:E6AE FD 80 FC     iwt   r13,#FC80
000B:E6B1 E2           dec   r2
000B:E6B2 08 0F        bne   E6C3
000B:E6B4 D2           inc   r2
000B:E6B5 FC 80 02     iwt   r12,#0280
000B:E6B8 FD 80 00     iwt   r13,#0080
000B:E6BB 3D A0 62     lms   r0,(00C4)
000B:E6BE E0           dec   r0
000B:E6BF 0A 02        bpl   E6C3
000B:E6C1 D0           inc   r0
000B:E6C2 D0           inc   r0
000B:E6C3 3D A0 62     lms   r0,(00C4)
000B:E6C6 E0           dec   r0
000B:E6C7 0B 03        bmi   E6CC
000B:E6C9 2C 4F        not
000B:E6CB DC           inc   r12
000B:E6CC 3E AC 72     sms   (00E4),r12
000B:E6CF 3E AD 73     sms   (00E6),r13
000B:E6D2 22 10        move  r0,r2
000B:E6D4 E0           dec   r0
000B:E6D5 50           add   r0
000B:E6D6 3D AE 62     lms   r14,(00C4)
000B:E6D9 CE           or    r14
000B:E6DA FE 53 F3     iwt   r14,#F353
000B:E6DD 1E 5E        add   r14
000B:E6DF 3F EF        getbs
000B:E6E1 DE           inc   r14
000B:E6E2 3E A0 B2     sms   (0164),r0
000B:E6E5 3F EF        getbs
000B:E6E7 3E A0 B3     sms   (0166),r0
000B:E6EA F1 56 00     iwt   r1,#0056
000B:E6ED 3D A0 63     lms   r0,(00C6)
000B:E6F0 E0           dec   r0
000B:E6F1 0B 04        bmi   E6F7
000B:E6F3 01           nop
000B:E6F4 F1 64 00     iwt   r1,#0064
000B:E6F7 3E A1 5F     sms   (00BE),r1
000B:E6FA A0 0A        ibt   r0,#000A
000B:E6FC 3E A0 F0     sms   (01E0),r0
000B:E6FF 05 04        bra   E705

000B:E701 01           nop

000B:E702 3D A0 F0     lms   r0,(01E0)
000B:E705 21 B0        moves r1,r0
000B:E707 08 45        bne   E74E
000B:E709 01           nop
000B:E70A E8           dec   r8
000B:E70B 0B 1C        bmi   E729
000B:E70D D8           inc   r8
000B:E70E 24 B4        moves r4,r4
000B:E710 09 08        beq   E71A
000B:E712 01           nop
000B:E713 3D AB 31     lms   r11,(0062)
000B:E716 FF 9F E8     iwt   r15,#E89F
000B:E719 01           nop
000B:E71A B7 3E 72     and   #02
000B:E71D 09 42        beq   E761
000B:E71F 01           nop
000B:E720 23 B3        moves r3,r3
000B:E722 08 1C        bne   E740
000B:E724 01           nop
000B:E725 FF 61 E7     iwt   r15,#E761
000B:E728 01           nop
000B:E729 B7 3E 72     and   #02
000B:E72C 09 33        beq   E761
000B:E72E 01           nop
000B:E72F B2 03        lsr
000B:E731 0C 2E        bcc   E761
000B:E733 60           sub   r0
000B:E734 3E A0 5A     sms   (00B4),r0
000B:E737 D2           inc   r2
000B:E738 3E A2 A8     sms   (0150),r2
000B:E73B A0 01        ibt   r0,#0001
000B:E73D 3E A0 AF     sms   (015E),r0
000B:E740 3D A0 A9     lms   r0,(0152)
000B:E743 3D A1 AA     lms   r1,(0154)
000B:E746 C1           or    r1
000B:E747 08 18        bne   E761
000B:E749 01           nop
000B:E74A FF 78 E8     iwt   r15,#E878
000B:E74D 60           sub   r0
000B:E74E 23 B3        moves r3,r3
000B:E750 09 0B        beq   E75D
000B:E752 01           nop
000B:E753 B1 3E 67     sub   #07
000B:E756 08 05        bne   E75D
000B:E758 01           nop
000B:E759 FF F2 E7     iwt   r15,#E7F2
000B:E75C 01           nop
000B:E75D FF 9A E8     iwt   r15,#E89A
000B:E760 01           nop
000B:E761 B2 3E 67     sub   #07
000B:E764 0C 05        bcc   E76B
000B:E766 01           nop
000B:E767 FF 55 E8     iwt   r15,#E855
000B:E76A B2 3D A0 AF  lms   r0,(015E)
000B:E76E 9E           lob
000B:E76F 09 32        beq   E7A3
000B:E771 B2 A1 0F     ibt   r1,#000F
000B:E774 61           sub   r1
000B:E775 0C 04        bcc   E77B
000B:E777 51           add   r1
000B:E778 05 23        bra   E79D

000B:E77A 60           sub   r0

000B:E77B 3D A1 B0     lms   r1,(0160)
000B:E77E 21 3E 63     sub   #03
000B:E781 0D 12        bcs   E795
000B:E783 D0           inc   r0
000B:E784 A1 0A        ibt   r1,#000A
000B:E786 61           sub   r1
000B:E787 0D 14        bcs   E79D
000B:E789 51           add   r1
000B:E78A A1 04        ibt   r1,#0004
000B:E78C 61           sub   r1
000B:E78D 0C 0E        bcc   E79D
000B:E78F 51           add   r1
000B:E790 A0 0A        ibt   r0,#000A
000B:E792 05 09        bra   E79D

000B:E794 01           nop

000B:E795 A1 0A        ibt   r1,#000A
000B:E797 61           sub   r1
000B:E798 0C 03        bcc   E79D
000B:E79A 51           add   r1
000B:E79B A0 04        ibt   r0,#0004
000B:E79D 3E A0 AF     sms   (015E),r0
000B:E7A0 05 50        bra   E7F2

000B:E7A2 01           nop

000B:E7A3 52           add   r2
000B:E7A4 50           add   r0
000B:E7A5 3D A1 62     lms   r1,(00C4)
000B:E7A8 C1           or    r1
000B:E7A9 50           add   r0
000B:E7AA FE 53 F3     iwt   r14,#F353
000B:E7AD 1E 5E        add   r14
000B:E7AF EF           getb
000B:E7B0 95           sex
000B:E7B1 09 08        beq   E7BB
000B:E7B3 DE           inc   r14
000B:E7B4 3D A1 A9     lms   r1,(0152)
000B:E7B7 51           add   r1
000B:E7B8 05 08        bra   E7C2

000B:E7BA 90           sbk

000B:E7BB 3F EF        getbs
000B:E7BD 3D A1 AA     lms   r1,(0154)
000B:E7C0 51           add   r1
000B:E7C1 90           sbk
000B:E7C2 DE           inc   r14
000B:E7C3 11 3F EF     getbs
000B:E7C6 61           sub   r1
000B:E7C7 09 71        beq   E83A
000B:E7C9 51           add   r1
000B:E7CA DE           inc   r14
000B:E7CB 11 3F EF     getbs
000B:E7CE 61           sub   r1
000B:E7CF 3D C1        xor   r1
000B:E7D1 50           add   r0
000B:E7D2 E8           dec   r8
000B:E7D3 0A 0E        bpl   E7E3
000B:E7D5 D8           inc   r8
000B:E7D6 0D 1A        bcs   E7F2
000B:E7D8 01           nop
000B:E7D9 3D A5 38     lms   r5,(0070)
000B:E7DC 3D A0 44     lms   r0,(0088)
000B:E7DF 75           and   r5
000B:E7E0 08 10        bne   E7F2
000B:E7E2 01           nop
000B:E7E3 B2 03        lsr
000B:E7E5 0C 0B        bcc   E7F2
000B:E7E7 01           nop
000B:E7E8 D2           inc   r2
000B:E7E9 3E A2 A8     sms   (0150),r2
000B:E7EC E2           dec   r2
000B:E7ED A0 03        ibt   r0,#0003
000B:E7EF 3E A0 F0     sms   (01E0),r0
000B:E7F2 22 10        move  r0,r2
000B:E7F4 E0           dec   r0
000B:E7F5 1E 3F 71     bic   #01
000B:E7F8 3D A1 B0     lms   r1,(0160)
000B:E7FB E1           dec   r1
000B:E7FC 0B 26        bmi   E824
000B:E7FE B1 3E 62     sub   #02
000B:E801 0D 13        bcs   E816
000B:E803 01           nop
000B:E804 3D A0 A9     lms   r0,(0152)
000B:E807 3D A2 AA     lms   r2,(0154)
000B:E80A 52           add   r2
000B:E80B 0A 03        bpl   E810
000B:E80D 01           nop
000B:E80E 4F           not
000B:E80F D0           inc   r0
000B:E810 A2 20        ibt   r2,#0020
000B:E812 62           sub   r2
000B:E813 0D 04        bcs   E819
000B:E815 01           nop
000B:E816 3E A1 B0     sms   (0160),r1
000B:E819 B1 3F 71     bic   #01
000B:E81C 50           add   r0
000B:E81D CE           or    r14
000B:E81E FE 83 F3     iwt   r14,#F383
000B:E821 05 0F        bra   E832

000B:E823 1E 3D A0 63  lms   r0,(00C6)
000B:E827 E0           dec   r0
000B:E828 0B 02        bmi   E82C
000B:E82A 01           nop
000B:E82B DE           inc   r14
000B:E82C BE 5E        add   r14
000B:E82E FE 7B F3     iwt   r14,#F37B
000B:E831 1E 5E        add   r14
000B:E833 EF           getb
000B:E834 DE           inc   r14
000B:E835 3D EF        getbh
000B:E837 05 5E        bra   E897

000B:E839 01           nop

000B:E83A B2 03        lsr
000B:E83C 0D AA        bcs   E7E8
000B:E83E 01           nop
000B:E83F E8           dec   r8
000B:E840 0B 36        bmi   E878
000B:E842 60           sub   r0
000B:E843 F0 00 0F     iwt   r0,#0F00
000B:E846 58           add   r8
000B:E847 40           ldw   (r0)
000B:E848 A1 08        ibt   r1,#0008
000B:E84A 61           sub   r1
000B:E84B 08 27        bne   E874
000B:E84D 60           sub   r0
000B:E84E 23 B3        moves r3,r3
000B:E850 08 26        bne   E878
000B:E852 01           nop
000B:E853 D2           inc   r2
000B:E854 B2 3E 54     add   #04
000B:E857 3E A0 A8     sms   (0150),r0
000B:E85A A1 2F        ibt   r1,#002F
000B:E85C 61           sub   r1
000B:E85D 0C 0A        bcc   E869
000B:E85F 51           add   r1
000B:E860 A1 4F        ibt   r1,#004F
000B:E862 61           sub   r1
000B:E863 0C 19        bcc   E87E
000B:E865 51           add   r1
000B:E866 05 07        bra   E86F

000B:E868 01           nop

000B:E869 A1 2B        ibt   r1,#002B
000B:E86B 61           sub   r1
000B:E86C 0C 10        bcc   E87E
000B:E86E 51           add   r1
000B:E86F A0 14        ibt   r0,#0014
000B:E871 3E A0 3D     sms   (007A),r0
000B:E874 60           sub   r0
000B:E875 3E A0 B1     sms   (0162),r0
000B:E878 3E A0 A8     sms   (0150),r0
000B:E87B 05 1D        bra   E89A

000B:E87D 01           nop

000B:E87E 3D A1 63     lms   r1,(00C6)
000B:E881 E1           dec   r1
000B:E882 0B 02        bmi   E886
000B:E884 01           nop
000B:E885 D0           inc   r0
000B:E886 11 50        add   r0
000B:E888 51           add   r1
000B:E889 FE 96 F3     iwt   r14,#F396
000B:E88C 1E 5E        add   r14
000B:E88E EF           getb
000B:E88F DE           inc   r14
000B:E890 3E A0 F0     sms   (01E0),r0
000B:E893 EF           getb
000B:E894 DE           inc   r14
000B:E895 3D EF        getbh
000B:E897 3E A0 5F     sms   (00BE),r0
000B:E89A 3D AB 31     lms   r11,(0062)
000B:E89D 9B           jmp   r11
000B:E89E 01           nop

000B:E89F B4 54        add   r4
000B:E8A1 15 54        add   r4
000B:E8A3 D5           inc   r5
000B:E8A4 3D A0 B6     lms   r0,(016C)
000B:E8A7 D0           inc   r0
000B:E8A8 90           sbk
000B:E8A9 2F 55        add   r5
000B:E8AB FF 00 00     iwt   r15,#0000
000B:E8AE 00           stop
000B:E8AF BB E8        dec   r8
000B:E8B1 01           nop

000B:E8B2 6A           sub   r10
000B:E8B3 E9           dec   r9
000B:E8B4 01           nop
000B:E8B5 09 EA        beq   E8A1
000B:E8B7 01           nop
000B:E8B8 B8 EA        dec   r10
000B:E8BA 01           nop
000B:E8BB A1 2A        ibt   r1,#002A
000B:E8BD 61           sub   r1
000B:E8BE 0C 21        bcc   E8E1
000B:E8C0 51           add   r1
000B:E8C1 F0 00 BC     iwt   r0,#BC00
000B:E8C4 3E A0 8A     sms   (0114),r0
000B:E8C7 3D A0 B8     lms   r0,(0170)
000B:E8CA 3E 6A        sub   #0A
000B:E8CC 90           sbk
000B:E8CD 08 0A        bne   E8D9
000B:E8CF 60           sub   r0
000B:E8D0 3E A0 B5     sms   (016A),r0
000B:E8D3 3E A0 B1     sms   (0162),r0
000B:E8D6 3E A0 B4     sms   (0168),r0
000B:E8D9 3E A0 A8     sms   (0150),r0
000B:E8DC 3E A0 B6     sms   (016C),r0
000B:E8DF 9B           jmp   r11
000B:E8E0 01           nop

000B:E8E1 A1 0E        ibt   r1,#000E
000B:E8E3 61           sub   r1
000B:E8E4 0D F9        bcs   E8DF
000B:E8E6 51           add   r1
000B:E8E7 20 1E        move  r14,r0
000B:E8E9 3E 71        and   #01
000B:E8EB 08 7B        bne   E968
000B:E8ED 01           nop
000B:E8EE 3E AB 30     sms   (0060),r11
000B:E8F1 F5 18 00     iwt   r5,#0018
000B:E8F4 94           link  #04
000B:E8F5 FF 10 EF     iwt   r15,#EF10
000B:E8F8 01           nop
000B:E8F9 0B 6A        bmi   E965
000B:E8FB 01           nop
000B:E8FC A0 04        ibt   r0,#0004
000B:E8FE 3E A0 3D     sms   (007A),r0
000B:E901 2E 3F 71     bic   #01
000B:E904 3D A5 62     lms   r5,(00C4)
000B:E907 A0 06        ibt   r0,#0006
000B:E909 1C 85        mult  r5
000B:E90B A0 30        ibt   r0,#0030
000B:E90D 3D AB A8     lms   r11,(0150)
000B:E910 EB           dec   r11
000B:E911 08 09        bne   E91C
000B:E913 01           nop
000B:E914 3D AB 60     lms   r11,(00C0)
000B:E917 EB           dec   r11
000B:E918 0A 02        bpl   E91C
000B:E91A 03           lsr
000B:E91B 60           sub   r0
000B:E91C 5E           add   r14
000B:E91D 5C           add   r12
000B:E91E FE 89 F4     iwt   r14,#F489
000B:E921 1E 5E        add   r14
000B:E923 3F EF        getbs
000B:E925 DE           inc   r14
000B:E926 3D A8 B9     lms   r8,(0172)
000B:E929 18 58        add   r8
000B:E92B F0 E2 10     iwt   r0,#10E2
000B:E92E 51           add   r1
000B:E92F B8 30        stw   (r0)
000B:E931 3F EF        getbs
000B:E933 DE           inc   r14
000B:E934 3D A7 BA     lms   r7,(0174)
000B:E937 17 57        add   r7
000B:E939 F0 82 11     iwt   r0,#1182
000B:E93C 51           add   r1
000B:E93D B7 30        stw   (r0)
000B:E93F 25 3F C2     xor   #02
000B:E942 F0 00 14     iwt   r0,#1400
000B:E945 51           add   r1
000B:E946 B5 30        stw   (r0)
000B:E948 A5 10        ibt   r5,#0010
000B:E94A F0 96 1A     iwt   r0,#1A96
000B:E94D 51           add   r1
000B:E94E B5 30        stw   (r0)
000B:E950 28 3E 58     add   #08
000B:E953 B7 3E 58     add   #08
000B:E956 94           link  #04
000B:E957 FF 20 D3     iwt   r15,#D320
000B:E95A 3D 3E 72     and   #02
000B:E95D 09 06        beq   E965
000B:E95F 01           nop
000B:E960 A0 0E        ibt   r0,#000E
000B:E962 3E A0 B6     sms   (016C),r0
000B:E965 3D AB 30     lms   r11,(0060)
000B:E968 9B           jmp   r11
000B:E969 01           nop

000B:E96A A1 18        ibt   r1,#0018
000B:E96C 61           sub   r1
000B:E96D 0C 05        bcc   E974
000B:E96F 51           add   r1
000B:E970 FF C7 E8     iwt   r15,#E8C7
000B:E973 01           nop
000B:E974 FE D3 F4     iwt   r14,#F4D3
000B:E977 AC 04        ibt   r12,#0004
000B:E979 2F 1D        move  r13,r15
000B:E97B 11 EF        getb
000B:E97D 61           sub   r1
000B:E97E 09 05        beq   E985
000B:E980 51           add   r1
000B:E981 3C           loop
000B:E982 DE           inc   r14
000B:E983 9B           jmp   r11
000B:E984 01           nop

000B:E985 3E AB 30     sms   (0060),r11
000B:E988 2C 1E        move  r14,r12
000B:E98A F5 19 00     iwt   r5,#0019
000B:E98D 94           link  #04
000B:E98E FF 10 EF     iwt   r15,#EF10
000B:E991 01           nop
000B:E992 3D AB 30     lms   r11,(0060)
000B:E995 2E 1C        move  r12,r14
000B:E997 0B 6E        bmi   EA07
000B:E999 01           nop
000B:E99A A0 04        ibt   r0,#0004
000B:E99C 3E A0 3D     sms   (007A),r0
000B:E99F 3D A0 62     lms   r0,(00C4)
000B:E9A2 AE 09        ibt   r14,#0009
000B:E9A4 1E 8E        mult  r14
000B:E9A6 A0 48        ibt   r0,#0048
000B:E9A8 3D A5 A8     lms   r5,(0150)
000B:E9AB E5           dec   r5
000B:E9AC 08 0A        bne   E9B8
000B:E9AE 01           nop
000B:E9AF 3D A5 60     lms   r5,(00C0)
000B:E9B2 25 B5        moves r5,r5
000B:E9B4 08 02        bne   E9B8
000B:E9B6 03           lsr
000B:E9B7 60           sub   r0
000B:E9B8 5E           add   r14
000B:E9B9 FE D7 F4     iwt   r14,#F4D7
000B:E9BC 1E 5E        add   r14
000B:E9BE 3F EF        getbs
000B:E9C0 DE           inc   r14
000B:E9C1 3D A5 AD     lms   r5,(015A)
000B:E9C4 15 55        add   r5
000B:E9C6 F0 E2 10     iwt   r0,#10E2
000B:E9C9 51           add   r1
000B:E9CA B5 30        stw   (r0)
000B:E9CC 3F EF        getbs
000B:E9CE DE           inc   r14
000B:E9CF 3D A5 AE     lms   r5,(015C)
000B:E9D2 15 55        add   r5
000B:E9D4 F0 82 11     iwt   r0,#1182
000B:E9D7 51           add   r1
000B:E9D8 B5 30        stw   (r0)
000B:E9DA EC           dec   r12
000B:E9DB BC 5C        add   r12
000B:E9DD 50           add   r0
000B:E9DE 1E 5E        add   r14
000B:E9E0 EF           getb
000B:E9E1 DE           inc   r14
000B:E9E2 15 3D EF     getbh
000B:E9E5 DE           inc   r14
000B:E9E6 F0 20 12     iwt   r0,#1220
000B:E9E9 51           add   r1
000B:E9EA B5 30        stw   (r0)
000B:E9EC EF           getb
000B:E9ED DE           inc   r14
000B:E9EE 15 3D EF     getbh
000B:E9F1 F0 22 12     iwt   r0,#1222
000B:E9F4 51           add   r1
000B:E9F5 B5 30        stw   (r0)
000B:E9F7 A5 04        ibt   r5,#0004
000B:E9F9 F0 02 14     iwt   r0,#1402
000B:E9FC 51           add   r1
000B:E9FD B5 30        stw   (r0)
000B:E9FF A5 0A        ibt   r5,#000A
000B:EA01 F0 98 1A     iwt   r0,#1A98
000B:EA04 51           add   r1
000B:EA05 B5 30        stw   (r0)
000B:EA07 9B           jmp   r11
000B:EA08 01           nop

000B:EA09 3E 68        sub   #08
000B:EA0B 0C FA        bcc   EA07
000B:EA0D 60           sub   r0
000B:EA0E 3E A0 B6     sms   (016C),r0
000B:EA11 3E AB 30     sms   (0060),r11
000B:EA14 F5 07 01     iwt   r5,#0107
000B:EA17 94           link  #04
000B:EA18 FF 10 EF     iwt   r15,#EF10
000B:EA1B 01           nop
000B:EA1C 3D AB 30     lms   r11,(0060)
000B:EA1F 0A 05        bpl   EA26
000B:EA21 01           nop
000B:EA22 FF A8 EA     iwt   r15,#EAA8
000B:EA25 01           nop
000B:EA26 A0 45        ibt   r0,#0045
000B:EA28 3E A0 3D     sms   (007A),r0
000B:EA2B 3D A0 62     lms   r0,(00C4)
000B:EA2E AE 0F        ibt   r14,#000F
000B:EA30 1E 8E        mult  r14
000B:EA32 A0 78        ibt   r0,#0078
000B:EA34 3D A5 A8     lms   r5,(0150)
000B:EA37 E5           dec   r5
000B:EA38 08 0A        bne   EA44
000B:EA3A 01           nop
000B:EA3B 3D A5 60     lms   r5,(00C0)
000B:EA3E 25 B5        moves r5,r5
000B:EA40 08 02        bne   EA44
000B:EA42 03           lsr
000B:EA43 60           sub   r0
000B:EA44 5E           add   r14
000B:EA45 FE 43 F5     iwt   r14,#F543
000B:EA48 1E 5E        add   r14
000B:EA4A 3F EF        getbs
000B:EA4C DE           inc   r14
000B:EA4D 3D A5 AD     lms   r5,(015A)
000B:EA50 15 55        add   r5
000B:EA52 F0 E2 10     iwt   r0,#10E2
000B:EA55 51           add   r1
000B:EA56 B5 30        stw   (r0)
000B:EA58 3F EF        getbs
000B:EA5A DE           inc   r14
000B:EA5B 3D A5 AE     lms   r5,(015C)
000B:EA5E 15 55        add   r5
000B:EA60 F0 82 11     iwt   r0,#1182
000B:EA63 51           add   r1
000B:EA64 B5 30        stw   (r0)
000B:EA66 3D A0 B9     lms   r0,(0172)
000B:EA69 15 3E 66     sub   #06
000B:EA6C 0C 02        bcc   EA70
000B:EA6E D0           inc   r0
000B:EA6F 60           sub   r0
000B:EA70 90           sbk
000B:EA71 50           add   r0
000B:EA72 50           add   r0
000B:EA73 1E 5E        add   r14
000B:EA75 EF           getb
000B:EA76 DE           inc   r14
000B:EA77 15 3D EF     getbh
000B:EA7A DE           inc   r14
000B:EA7B F0 20 12     iwt   r0,#1220
000B:EA7E 51           add   r1
000B:EA7F B5 30        stw   (r0)
000B:EA81 EF           getb
000B:EA82 DE           inc   r14
000B:EA83 15 3D EF     getbh
000B:EA86 F0 22 12     iwt   r0,#1222
000B:EA89 51           add   r1
000B:EA8A B5 30        stw   (r0)
000B:EA8C A5 01        ibt   r5,#0001
000B:EA8E F0 38 1D     iwt   r0,#1D38
000B:EA91 51           add   r1
000B:EA92 B5 30        stw   (r0)
000B:EA94 A5 FF        ibt   r5,#FFFF
000B:EA96 F0 63 18     iwt   r0,#1863
000B:EA99 51           add   r1
000B:EA9A B5 3D 30     stb   (r0)
000B:EA9D 3D A0 B8     lms   r0,(0170)
000B:EAA0 E0           dec   r0
000B:EAA1 08 05        bne   EAA8
000B:EAA3 90           sbk
000B:EAA4 FF D0 E8     iwt   r15,#E8D0
000B:EAA7 60           sub   r0
000B:EAA8 3D A0 44     lms   r0,(0088)
000B:EAAB 3D A1 38     lms   r1,(0070)
000B:EAAE 71           and   r1
000B:EAAF 08 05        bne   EAB6
000B:EAB1 01           nop
000B:EAB2 FF D9 E8     iwt   r15,#E8D9
000B:EAB5 60           sub   r0
000B:EAB6 9B           jmp   r11
000B:EAB7 01           nop

000B:EAB8 A1 38        ibt   r1,#0038
000B:EABA 61           sub   r1
000B:EABB 0C 0B        bcc   EAC8
000B:EABD 51           add   r1
000B:EABE F0 00 BC     iwt   r0,#BC00
000B:EAC1 3E A0 8A     sms   (0114),r0
000B:EAC4 FF C7 E8     iwt   r15,#E8C7
000B:EAC7 01           nop
000B:EAC8 A1 1C        ibt   r1,#001C
000B:EACA 61           sub   r1
000B:EACB 0D E9        bcs   EAB6
000B:EACD 51           add   r1
000B:EACE 20 1E        move  r14,r0
000B:EAD0 3E 73        and   #03
000B:EAD2 08 E2        bne   EAB6
000B:EAD4 01           nop
000B:EAD5 3E AB 30     sms   (0060),r11
000B:EAD8 F5 06 00     iwt   r5,#0006
000B:EADB 94           link  #04
000B:EADC FF 10 EF     iwt   r15,#EF10
000B:EADF 01           nop
000B:EAE0 0B 74        bmi   EB56
000B:EAE2 01           nop
000B:EAE3 A0 04        ibt   r0,#0004
000B:EAE5 3E A0 3D     sms   (007A),r0
000B:EAE8 BE 3F 73     bic   #03
000B:EAEB 1E 03        lsr
000B:EAED 3D A5 62     lms   r5,(00C4)
000B:EAF0 A0 06        ibt   r0,#0006
000B:EAF2 1C 85        mult  r5
000B:EAF4 A0 30        ibt   r0,#0030
000B:EAF6 3D AB A8     lms   r11,(0150)
000B:EAF9 EB           dec   r11
000B:EAFA 08 09        bne   EB05
000B:EAFC 01           nop
000B:EAFD 3D AB 60     lms   r11,(00C0)
000B:EB00 EB           dec   r11
000B:EB01 0A 02        bpl   EB05
000B:EB03 03           lsr
000B:EB04 60           sub   r0
000B:EB05 5E           add   r14
000B:EB06 5C           add   r12
000B:EB07 FE 89 F4     iwt   r14,#F489
000B:EB0A 1E 5E        add   r14
000B:EB0C 3F EF        getbs
000B:EB0E DE           inc   r14
000B:EB0F 3D A8 B9     lms   r8,(0172)
000B:EB12 18 58        add   r8
000B:EB14 F0 E2 10     iwt   r0,#10E2
000B:EB17 51           add   r1
000B:EB18 B8 30        stw   (r0)
000B:EB1A 3F EF        getbs
000B:EB1C DE           inc   r14
000B:EB1D 3D A7 BA     lms   r7,(0174)
000B:EB20 17 57        add   r7
000B:EB22 F0 82 11     iwt   r0,#1182
000B:EB25 51           add   r1
000B:EB26 B7 30        stw   (r0)
000B:EB28 25 3F C2     xor   #02
000B:EB2B F0 00 14     iwt   r0,#1400
000B:EB2E 51           add   r1
000B:EB2F B5 30        stw   (r0)
000B:EB31 A5 03        ibt   r5,#0003
000B:EB33 F0 02 14     iwt   r0,#1402
000B:EB36 51           add   r1
000B:EB37 B5 30        stw   (r0)
000B:EB39 A5 06        ibt   r5,#0006
000B:EB3B F0 96 1A     iwt   r0,#1A96
000B:EB3E 51           add   r1
000B:EB3F B5 30        stw   (r0)
000B:EB41 28 3E 58     add   #08
000B:EB44 B7 3E 58     add   #08
000B:EB47 94           link  #04
000B:EB48 FF 20 D3     iwt   r15,#D320
000B:EB4B 3D 3E 72     and   #02
000B:EB4E 09 06        beq   EB56
000B:EB50 01           nop
000B:EB51 A0 1C        ibt   r0,#001C
000B:EB53 3E A0 B6     sms   (016C),r0
000B:EB56 3D AB 30     lms   r11,(0060)
000B:EB59 9B           jmp   r11
000B:EB5A 01           nop

000B:EB5B 3D A3 B1     lms   r3,(0162)
000B:EB5E E3           dec   r3
000B:EB5F 0A 0C        bpl   EB6D
000B:EB61 01           nop
000B:EB62 3D A3 B4     lms   r3,(0168)
000B:EB65 23 B3        moves r3,r3
000B:EB67 09 54        beq   EBBD
000B:EB69 60           sub   r0
000B:EB6A 05 54        bra   EBC0

000B:EB6C 60           sub   r0

000B:EB6D 3D A0 A9     lms   r0,(0152)
000B:EB70 3D A4 AA     lms   r4,(0154)
000B:EB73 C4           or    r4
000B:EB74 09 50        beq   EBC6
000B:EB76 01           nop
000B:EB77 A4 10        ibt   r4,#0010
000B:EB79 F0 00 0F     iwt   r0,#0F00
000B:EB7C 53           add   r3
000B:EB7D B4 30        stw   (r0)
000B:EB7F A4 FF        ibt   r4,#FFFF
000B:EB81 F0 62 18     iwt   r0,#1862
000B:EB84 53           add   r3
000B:EB85 B4 3D 30     stb   (r0)
000B:EB88 F0 60 13     iwt   r0,#1360
000B:EB8B 53           add   r3
000B:EB8C 40           ldw   (r0)
000B:EB8D 15 50        add   r0
000B:EB8F F0 1A 9F     iwt   r0,#9F1A
000B:EB92 1E 55        add   r5
000B:EB94 14 EF        getb
000B:EB96 F0 A2 14     iwt   r0,#14A2
000B:EB99 53           add   r3
000B:EB9A B4 30        stw   (r0)
000B:EB9C F0 1C 9B     iwt   r0,#9B1C
000B:EB9F 1E 55        add   r5
000B:EBA1 EF           getb
000B:EBA2 A4 0C        ibt   r4,#000C
000B:EBA4 14 74        and   r4
000B:EBA6 F0 40 10     iwt   r0,#1040
000B:EBA9 53           add   r3
000B:EBAA 40           ldw   (r0)
000B:EBAB 14 C4        or    r4
000B:EBAD F0 40 10     iwt   r0,#1040
000B:EBB0 53           add   r3
000B:EBB1 B4 30        stw   (r0)
000B:EBB3 60           sub   r0
000B:EBB4 3E A0 B1     sms   (0162),r0
000B:EBB7 3E A0 B4     sms   (0168),r0
000B:EBBA 3E A0 B5     sms   (016A),r0
000B:EBBD 3E A0 A8     sms   (0150),r0
000B:EBC0 3E A0 A9     sms   (0152),r0
000B:EBC3 3E A0 AA     sms   (0154),r0
000B:EBC6 9B           jmp   r11
000B:EBC7 01           nop

000B:EBC8 3D A0 A5     lms   r0,(014A)
000B:EBCB 22 B0        moves r2,r0
000B:EBCD 09 6A        beq   EC39
000B:EBCF 01           nop
000B:EBD0 A1 FA        ibt   r1,#FFFA
000B:EBD2 0A 05        bpl   EBD9
000B:EBD4 01           nop
000B:EBD5 4F           not
000B:EBD6 D0           inc   r0
000B:EBD7 A1 06        ibt   r1,#0006
000B:EBD9 A3 40        ibt   r3,#0040
000B:EBDB 63           sub   r3
000B:EBDC 0D 35        bcs   EC13
000B:EBDE 01           nop
000B:EBDF 3D A3 A6     lms   r3,(014C)
000B:EBE2 E3           dec   r3
000B:EBE3 0B 2E        bmi   EC13
000B:EBE5 D3           inc   r3
000B:EBE6 3D A0 A4     lms   r0,(0148)
000B:EBE9 F4 00 05     iwt   r4,#0500
000B:EBEC 64           sub   r4
000B:EBED 0C 30        bcc   EC1F
000B:EBEF 01           nop
000B:EBF0 3D A0 FB     lms   r0,(01F6)
000B:EBF3 E0           dec   r0
000B:EBF4 0A 14        bpl   EC0A
000B:EBF6 01           nop
000B:EBF7 E3           dec   r3
000B:EBF8 3E A3 A6     sms   (014C),r3
000B:EBFB 08 04        bne   EC01
000B:EBFD 01           nop
000B:EBFE 3E A3 A5     sms   (014A),r3
000B:EC01 F0 1F F6     iwt   r0,#F61F
000B:EC04 1E 53        add   r3
000B:EC06 EF           getb
000B:EC07 3E A0 FB     sms   (01F6),r0
000B:EC0A B3 53        add   r3
000B:EC0C FE 13 F6     iwt   r14,#F613
000B:EC0F FF A9 ED     iwt   r15,#EDA9
000B:EC12 1E 22 51     add   r1
000B:EC15 B2 3D C1     xor   r1
000B:EC18 0B 02        bmi   EC1C
000B:EC1A 12 60        sub   r0
000B:EC1C 3E A2 A5     sms   (014A),r2
000B:EC1F F1 00 06     iwt   r1,#0600
000B:EC22 3D A0 A4     lms   r0,(0148)
000B:EC25 52           add   r2
000B:EC26 0A 02        bpl   EC2A
000B:EC28 01           nop
000B:EC29 51           add   r1
000B:EC2A 61           sub   r1
000B:EC2B 0D 02        bcs   EC2F
000B:EC2D 01           nop
000B:EC2E 51           add   r1
000B:EC2F 90           sbk
000B:EC30 C0           hib
000B:EC31 50           add   r0
000B:EC32 FE 07 F6     iwt   r14,#F607
000B:EC35 FF A9 ED     iwt   r15,#EDA9
000B:EC38 1E 3D A1 EB  lms   r1,(01D6)
000B:EC3C A2 40        ibt   r2,#0040
000B:EC3E B1 62        sub   r2
000B:EC40 0C 3B        bcc   EC7D
000B:EC42 01           nop
000B:EC43 A2 50        ibt   r2,#0050
000B:EC45 62           sub   r2
000B:EC46 0C 09        bcc   EC51
000B:EC48 52           add   r2
000B:EC49 F0 6B 00     iwt   r0,#006B
000B:EC4C 3E A0 5F     sms   (00BE),r0
000B:EC4F 9B           jmp   r11
000B:EC50 01           nop

000B:EC51 3D A2 60     lms   r2,(00C0)
000B:EC54 E2           dec   r2
000B:EC55 0B 0F        bmi   EC66
000B:EC57 01           nop
000B:EC58 A2 30        ibt   r2,#0030
000B:EC5A 62           sub   r2
000B:EC5B 0D 20        bcs   EC7D
000B:EC5D 01           nop
000B:EC5E A0 40        ibt   r0,#0040
000B:EC60 3E A0 EB     sms   (01D6),r0
000B:EC63 05 18        bra   EC7D

000B:EC65 01           nop

000B:EC66 A2 30        ibt   r2,#0030
000B:EC68 62           sub   r2
000B:EC69 0C 08        bcc   EC73
000B:EC6B 52           add   r2
000B:EC6C A0 6F        ibt   r0,#006F
000B:EC6E 3E A0 EB     sms   (01D6),r0
000B:EC71 A0 2F        ibt   r0,#002F
000B:EC73 3E 77        and   #07
000B:EC75 50           add   r0
000B:EC76 FE F7 F5     iwt   r14,#F5F7
000B:EC79 FF A9 ED     iwt   r15,#EDA9
000B:EC7C 1E 3D A1 B6  lms   r1,(016C)
000B:EC80 E1           dec   r1
000B:EC81 0B 4B        bmi   ECCE
000B:EC83 01           nop
000B:EC84 3D A0 B5     lms   r0,(016A)
000B:EC87 3E 63        sub   #03
000B:EC89 08 27        bne   ECB2
000B:EC8B 01           nop
000B:EC8C 21 10        move  r0,r1
000B:EC8E A1 06        ibt   r1,#0006
000B:EC90 61           sub   r1
000B:EC91 0D FE        bcs   EC91
000B:EC93 61           sub   r1
000B:EC94 51           add   r1
000B:EC95 51           add   r1
000B:EC96 11 50        add   r0
000B:EC98 A0 18        ibt   r0,#0018
000B:EC9A 3D A2 A8     lms   r2,(0150)
000B:EC9D E2           dec   r2
000B:EC9E 08 0A        bne   ECAA
000B:ECA0 01           nop
000B:ECA1 3D A2 60     lms   r2,(00C0)
000B:ECA4 22 B2        moves r2,r2
000B:ECA6 08 02        bne   ECAA
000B:ECA8 03           lsr
000B:ECA9 60           sub   r0
000B:ECAA 51           add   r1
000B:ECAB FE 25 F6     iwt   r14,#F625
000B:ECAE FF A9 ED     iwt   r15,#EDA9
000B:ECB1 1E F1 8F 00  iwt   r1,#008F
000B:ECB5 3D A2 A8     lms   r2,(0150)
000B:ECB8 E2           dec   r2
000B:ECB9 08 0E        bne   ECC9
000B:ECBB 01           nop
000B:ECBC F1 93 00     iwt   r1,#0093
000B:ECBF 3D A0 60     lms   r0,(00C0)
000B:ECC2 E0           dec   r0
000B:ECC3 0B 04        bmi   ECC9
000B:ECC5 01           nop
000B:ECC6 F1 88 00     iwt   r1,#0088
000B:ECC9 3E A1 5F     sms   (00BE),r1
000B:ECCC 9B           jmp   r11
000B:ECCD 01           nop

000B:ECCE 3D A0 A8     lms   r0,(0150)
000B:ECD1 E0           dec   r0
000B:ECD2 0A F8        bpl   ECCC
000B:ECD4 01           nop
000B:ECD5 3D AE 6F     lms   r14,(00DE)
000B:ECD8 EE           dec   r14
000B:ECD9 0B 56        bmi   ED31
000B:ECDB DE           inc   r14
000B:ECDC BE 3E 66     sub   #06
000B:ECDF 08 39        bne   ED1A
000B:ECE1 01           nop
000B:ECE2 3D A0 70     lms   r0,(00E0)
000B:ECE5 E0           dec   r0
000B:ECE6 0B 32        bmi   ED1A
000B:ECE8 01           nop
000B:ECE9 3D A0 60     lms   r0,(00C0)
000B:ECEC E0           dec   r0
000B:ECED 0B 11        bmi   ED00
000B:ECEF 01           nop
000B:ECF0 3D A0 69     lms   r0,(00D2)
000B:ECF3 9E           lob
000B:ECF4 3E 62        sub   #02
000B:ECF6 0C 22        bcc   ED1A
000B:ECF8 01           nop
000B:ECF9 FE A1 F6     iwt   r14,#F6A1
000B:ECFC FF A9 ED     iwt   r15,#EDA9
000B:ECFF 1E 3D A0 E8  lms   r0,(01D0)
000B:ED03 9E           lob
000B:ED04 09 08        beq   ED0E
000B:ED06 01           nop
000B:ED07 FE BF F6     iwt   r14,#F6BF
000B:ED0A FF A1 ED     iwt   r15,#EDA1
000B:ED0D 01           nop
000B:ED0E 3D A0 5A     lms   r0,(00B4)
000B:ED11 3E 60        sub   #00
000B:ED13 09 05        beq   ED1A
000B:ED15 01           nop
000B:ED16 FF 2D EE     iwt   r15,#EE2D
000B:ED19 01           nop
000B:ED1A 3D F0 E8 1F  lm    r0,(1FE8)
000B:ED1E 3E 60        sub   #00
000B:ED20 09 08        beq   ED2A
000B:ED22 01           nop
000B:ED23 FE 21 FB     iwt   r14,#FB21
000B:ED26 FF EC ED     iwt   r15,#EDEC
000B:ED29 01           nop
000B:ED2A F0 47 F6     iwt   r0,#F647
000B:ED2D 5E           add   r14
000B:ED2E 05 79        bra   EDA9

000B:ED30 1E 3D A0 61  lms   r0,(00C2)
000B:ED34 9E           lob
000B:ED35 09 07        beq   ED3E
000B:ED37 50           add   r0
000B:ED38 FE 65 F6     iwt   r14,#F665
000B:ED3B 05 6C        bra   EDA9

000B:ED3D 1E 3D A1 60  lms   r1,(00C0)
000B:ED41 E1           dec   r1
000B:ED42 0B 44        bmi   ED88
000B:ED44 D1           inc   r1
000B:ED45 3D A0 ED     lms   r0,(01DA)
000B:ED48 9E           lob
000B:ED49 09 0A        beq   ED55
000B:ED4B E0           dec   r0
000B:ED4C 03           lsr
000B:ED4D 3F 71        bic   #01
000B:ED4F FE 71 F6     iwt   r14,#F671
000B:ED52 05 55        bra   EDA9

000B:ED54 1E 3D A0 EE  lms   r0,(01DC)
000B:ED58 9E           lob
000B:ED59 09 19        beq   ED74
000B:ED5B E0           dec   r0
000B:ED5C 3D AE F8     lms   r14,(01F0)
000B:ED5F EE           dec   r14
000B:ED60 0A 09        bpl   ED6B
000B:ED62 01           nop
000B:ED63 3F 71        bic   #01
000B:ED65 FE 75 F6     iwt   r14,#F675
000B:ED68 05 3F        bra   EDA9

000B:ED6A 1E BE 3F 71  bic   #01
000B:ED6E FE 7D F6     iwt   r14,#F67D
000B:ED71 05 36        bra   EDA9

000B:ED73 1E 3D A0 69  lms   r0,(00D2)
000B:ED77 9E           lob
000B:ED78 3E 62        sub   #02
000B:ED7A 0C 07        bcc   ED83
000B:ED7C 01           nop
000B:ED7D FE 99 F6     iwt   r14,#F699
000B:ED80 05 27        bra   EDA9

000B:ED82 1E 3E A1 5F  sms   (00BE),r1
000B:ED86 9B           jmp   r11
000B:ED87 01           nop

000B:ED88 3D A0 EA     lms   r0,(01D4)
000B:ED8B 9E           lob
000B:ED8C 09 09        beq   ED97
000B:ED8E 01           nop
000B:ED8F 3F 71        bic   #01
000B:ED91 FE A9 F6     iwt   r14,#F6A9
000B:ED94 05 13        bra   EDA9

000B:ED96 1E 3D A0 E8  lms   r0,(01D0)
000B:ED9A 9E           lob
000B:ED9B 09 16        beq   EDB3
000B:ED9D 01           nop
000B:ED9E FE AF F6     iwt   r14,#F6AF
000B:EDA1 3D F0 74 19  lm    r0,(1974)
000B:EDA5 50           add   r0
000B:EDA6 3E 7E        and   #0E
000B:EDA8 1E 5E        add   r14
000B:EDAA EF           getb
000B:EDAB DE           inc   r14
000B:EDAC 3D EF        getbh
000B:EDAE 3E A0 5F     sms   (00BE),r0
000B:EDB1 9B           jmp   r11
000B:EDB2 01           nop

000B:EDB3 3D A0 66     lms   r0,(00CC)
000B:EDB6 9E           lob
000B:EDB7 09 1F        beq   EDD8
000B:EDB9 01           nop
000B:EDBA 3D A0 6E     lms   r0,(00DC)
000B:EDBD 9E           lob
000B:EDBE 09 10        beq   EDD0
000B:EDC0 01           nop
000B:EDC1 A1 10        ibt   r1,#0010
000B:EDC3 61           sub   r1
000B:EDC4 0C 12        bcc   EDD8
000B:EDC6 01           nop
000B:EDC7 03           lsr
000B:EDC8 3F 71        bic   #01
000B:EDCA FE CF F6     iwt   r14,#F6CF
000B:EDCD 05 DA        bra   EDA9

000B:EDCF 1E 3D A0 5A  lms   r0,(00B4)
000B:EDD3 3E 60        sub   #00
000B:EDD5 08 56        bne   EE2D
000B:EDD7 01           nop
000B:EDD8 3D A0 67     lms   r0,(00CE)
000B:EDDB 3E 60        sub   #00
000B:EDDD 08 CF        bne   EDAE
000B:EDDF 01           nop
000B:EDE0 3D F0 E8 1F  lm    r0,(1FE8)
000B:EDE4 3E 60        sub   #00
000B:EDE6 09 0D        beq   EDF5
000B:EDE8 01           nop
000B:EDE9 FE EB FA     iwt   r14,#FAEB
000B:EDEC 3D A0 79     lms   r0,(00F2)
000B:EDEF A1 1A        ibt   r1,#001A
000B:EDF1 51           add   r1
000B:EDF2 05 B5        bra   EDA9

000B:EDF4 1E 3D A0 EC  lms   r0,(01D8)
000B:EDF8 9E           lob
000B:EDF9 08 1C        bne   EE17
000B:EDFB 01           nop
000B:EDFC A1 00        ibt   r1,#0000
000B:EDFE 3D F0 70 19  lm    r0,(1970)
000B:EE02 03           lsr
000B:EE03 0D 04        bcs   EE09
000B:EE05 01           nop
000B:EE06 11 3E 76     and   #06
000B:EE09 3E A1 7B     sms   (00F6),r1
000B:EE0C B1 03        lsr
000B:EE0E FE D5 F7     iwt   r14,#F7D5
000B:EE11 1E 5E        add   r14
000B:EE13 EF           getb
000B:EE14 3E A0 EC     sms   (01D8),r0
000B:EE17 11 50        add   r0
000B:EE19 3D A0 7B     lms   r0,(00F6)
000B:EE1C FE D9 F7     iwt   r14,#F7D9
000B:EE1F 1E 5E        add   r14
000B:EE21 EF           getb
000B:EE22 DE           inc   r14
000B:EE23 3D EF        getbh
000B:EE25 51           add   r1
000B:EE26 FE D9 F6     iwt   r14,#F6D9
000B:EE29 FF A9 ED     iwt   r15,#EDA9
000B:EE2C 1E           to    r14
000B:EE2D 0A 03        bpl   EE32
000B:EE2F 01           nop
000B:EE30 4F           not
000B:EE31 D0           inc   r0
000B:EE32 3D F4 E8 1F  lm    r4,(1FE8)
000B:EE36 24 B4        moves r4,r4
000B:EE38 08 39        bne   EE73
000B:EE3A 01           nop
000B:EE3B F1 60 02     iwt   r1,#0260
000B:EE3E 61           sub   r1
000B:EE3F 0C 32        bcc   EE73
000B:EE41 51           add   r1
000B:EE42 F1 18 00     iwt   r1,#0018
000B:EE45 3D A0 6F     lms   r0,(00DE)
000B:EE48 E0           dec   r0
000B:EE49 0B 04        bmi   EE4F
000B:EE4B 01           nop
000B:EE4C F1 53 00     iwt   r1,#0053
000B:EE4F 3D F0 74 19  lm    r0,(1974)
000B:EE53 3E 72        and   #02
000B:EE55 08 12        bne   EE69
000B:EE57 01           nop
000B:EE58 3D A0 7D     lms   r0,(00FA)
000B:EE5B FE E1 F7     iwt   r14,#F7E1
000B:EE5E 1E 5E        add   r14
000B:EE60 EF           getb
000B:EE61 E0           dec   r0
000B:EE62 0B 04        bmi   EE68
000B:EE64 D0           inc   r0
000B:EE65 3E A0 3D     sms   (007A),r0
000B:EE68 60           sub   r0
000B:EE69 3E A0 7C     sms   (00F8),r0
000B:EE6C 03           lsr
000B:EE6D 51           add   r1
000B:EE6E 3E A0 5F     sms   (00BE),r0
000B:EE71 9B           jmp   r11
000B:EE72 01           nop

000B:EE73 50           add   r0
000B:EE74 50           add   r0
000B:EE75 11 C0        hib
000B:EE77 3D A0 E9     lms   r0,(01D2)
000B:EE7A 9E           lob
000B:EE7B 3D A0 7C     lms   r0,(00F8)
000B:EE7E F2 73 FA     iwt   r2,#FA73
000B:EE81 08 5B        bne   EEDE
000B:EE83 01           nop
000B:EE84 3D A3 5A     lms   r3,(00B4)
000B:EE87 3D AE 62     lms   r14,(00C4)
000B:EE8A EE           dec   r14
000B:EE8B 23 3D CE     xor   r14
000B:EE8E 0B 0B        bmi   EE9B
000B:EE90 D0           inc   r0
000B:EE91 3E 63        sub   #03
000B:EE93 0A 0E        bpl   EEA3
000B:EE95 01           nop
000B:EE96 A0 12        ibt   r0,#0012
000B:EE98 05 09        bra   EEA3

000B:EE9A 01           nop

000B:EE9B A3 12        ibt   r3,#0012
000B:EE9D 13 63        sub   r3
000B:EE9F 0C 02        bcc   EEA3
000B:EEA1 D0           inc   r0
000B:EEA2 60           sub   r0
000B:EEA3 3E A0 7C     sms   (00F8),r0
000B:EEA6 20 13        move  r3,r0
000B:EEA8 50           add   r0
000B:EEA9 50           add   r0
000B:EEAA 50           add   r0
000B:EEAB 11 C1        or    r1
000B:EEAD 3D A0 7D     lms   r0,(00FA)
000B:EEB0 E3           dec   r3
000B:EEB1 0B 08        bmi   EEBB
000B:EEB3 D3           inc   r3
000B:EEB4 AE 0A        ibt   r14,#000A
000B:EEB6 2E 63        sub   r3
000B:EEB8 08 0F        bne   EEC9
000B:EEBA 01           nop
000B:EEBB FE E1 F7     iwt   r14,#F7E1
000B:EEBE 1E 5E        add   r14
000B:EEC0 1E EF        getb
000B:EEC2 EE           dec   r14
000B:EEC3 0B 04        bmi   EEC9
000B:EEC5 DE           inc   r14
000B:EEC6 3E AE 3D     sms   (007A),r14
000B:EEC9 50           add   r0
000B:EECA FE 67 FA     iwt   r14,#FA67
000B:EECD 1E 5E        add   r14
000B:EECF EF           getb
000B:EED0 DE           inc   r14
000B:EED1 3D EF        getbh
000B:EED3 51           add   r1
000B:EED4 FE E7 F7     iwt   r14,#F7E7
000B:EED7 1E 5E        add   r14
000B:EED9 EF           getb
000B:EEDA 3E A0 E9     sms   (01D2),r0
000B:EEDD B3 1E 52     add   r2
000B:EEE0 3D A0 6F     lms   r0,(00DE)
000B:EEE3 E0           dec   r0
000B:EEE4 0B 05        bmi   EEEB
000B:EEE6 01           nop
000B:EEE7 A0 14        ibt   r0,#0014
000B:EEE9 1E 5E        add   r14
000B:EEEB 24 B4        moves r4,r4
000B:EEED 09 15        beq   EF04
000B:EEEF 01           nop
000B:EEF0 A0 28        ibt   r0,#0028
000B:EEF2 3D A4 79     lms   r4,(00F2)
000B:EEF5 24 B4        moves r4,r4
000B:EEF7 A4 1A        ibt   r4,#001A
000B:EEF9 0A 04        bpl   EEFF
000B:EEFB 24 4F        not
000B:EEFD D4           inc   r4
000B:EEFE 50           add   r0
000B:EEFF 3E A4 79     sms   (00F2),r4
000B:EF02 1E 5E        add   r14
000B:EF04 EF           getb
000B:EF05 DE           inc   r14
000B:EF06 3D EF        getbh
000B:EF08 3E A0 5F     sms   (00BE),r0
000B:EF0B 9B           jmp   r11
000B:EF0C 01           nop

000B:EF0D 60           sub   r0
000B:EF0E 00           stop
000B:EF0F 01           nop

000B:EF10 F1 5C 0F     iwt   r1,#0F5C
000B:EF13 AC 12        ibt   r12,#0012
000B:EF15 2F 1D        move  r13,r15
000B:EF17 3D 41        ldb   (r1)
000B:EF19 3E 60        sub   #00
000B:EF1B 09 07        beq   EF24
000B:EF1D E1           dec   r1
000B:EF1E E1           dec   r1
000B:EF1F E1           dec   r1
000B:EF20 3C           loop
000B:EF21 E1           dec   r1
000B:EF22 9B           jmp   r11
000B:EF23 EC           dec   r12

000B:EF24 BC 3E 55     add   #05
000B:EF27 50           add   r0
000B:EF28 11 50        add   r0
000B:EF2A AC 10        ibt   r12,#0010
000B:EF2C F0 00 0F     iwt   r0,#0F00
000B:EF2F 51           add   r1
000B:EF30 BC 30        stw   (r0)
000B:EF32 FC FF 00     iwt   r12,#00FF
000B:EF35 F0 A0 14     iwt   r0,#14A0
000B:EF38 51           add   r1
000B:EF39 BC 30        stw   (r0)
000B:EF3B AC 00        ibt   r12,#0000
000B:EF3D F0 96 1D     iwt   r0,#1D96
000B:EF40 51           add   r1
000B:EF41 BC 30        stw   (r0)
000B:EF43 F0 20 12     iwt   r0,#1220
000B:EF46 51           add   r1
000B:EF47 BC 30        stw   (r0)
000B:EF49 F0 22 12     iwt   r0,#1222
000B:EF4C 51           add   r1
000B:EF4D BC 30        stw   (r0)
000B:EF4F F0 76 19     iwt   r0,#1976
000B:EF52 51           add   r1
000B:EF53 BC 30        stw   (r0)
000B:EF55 F0 00 14     iwt   r0,#1400
000B:EF58 51           add   r1
000B:EF59 BC 30        stw   (r0)
000B:EF5B F0 E0 10     iwt   r0,#10E0
000B:EF5E 51           add   r1
000B:EF5F BC 30        stw   (r0)
000B:EF61 F0 36 1D     iwt   r0,#1D36
000B:EF64 51           add   r1
000B:EF65 BC 30        stw   (r0)
000B:EF67 F0 78 19     iwt   r0,#1978
000B:EF6A 51           add   r1
000B:EF6B BC 30        stw   (r0)
000B:EF6D F0 D6 19     iwt   r0,#19D6
000B:EF70 51           add   r1
000B:EF71 BC 30        stw   (r0)
000B:EF73 F0 D8 19     iwt   r0,#19D8
000B:EF76 51           add   r1
000B:EF77 BC 30        stw   (r0)
000B:EF79 F0 36 1A     iwt   r0,#1A36
000B:EF7C 51           add   r1
000B:EF7D BC 30        stw   (r0)
000B:EF7F F0 38 1A     iwt   r0,#1A38
000B:EF82 51           add   r1
000B:EF83 BC 30        stw   (r0)
000B:EF85 F0 96 1A     iwt   r0,#1A96
000B:EF88 51           add   r1
000B:EF89 BC 30        stw   (r0)
000B:EF8B F0 98 1A     iwt   r0,#1A98
000B:EF8E 51           add   r1
000B:EF8F BC 30        stw   (r0)
000B:EF91 F0 F6 1A     iwt   r0,#1AF6
000B:EF94 51           add   r1
000B:EF95 BC 30        stw   (r0)
000B:EF97 F0 F8 1A     iwt   r0,#1AF8
000B:EF9A 51           add   r1
000B:EF9B BC 30        stw   (r0)
000B:EF9D F0 02 14     iwt   r0,#1402
000B:EFA0 51           add   r1
000B:EFA1 BC 30        stw   (r0)
000B:EFA3 F0 60 18     iwt   r0,#1860
000B:EFA6 51           add   r1
000B:EFA7 BC 30        stw   (r0)
000B:EFA9 F0 02 0F     iwt   r0,#0F02
000B:EFAC 51           add   r1
000B:EFAD BC 30        stw   (r0)
000B:EFAF F0 38 1D     iwt   r0,#1D38
000B:EFB2 51           add   r1
000B:EFB3 BC 30        stw   (r0)
000B:EFB5 F0 20 17     iwt   r0,#1720
000B:EFB8 51           add   r1
000B:EFB9 BC 30        stw   (r0)
000B:EFBB F0 80 16     iwt   r0,#1680
000B:EFBE 51           add   r1
000B:EFBF BC 30        stw   (r0)
000B:EFC1 F0 82 16     iwt   r0,#1682
000B:EFC4 51           add   r1
000B:EFC5 BC 30        stw   (r0)
000B:EFC7 F0 40 15     iwt   r0,#1540
000B:EFCA 51           add   r1
000B:EFCB BC 30        stw   (r0)
000B:EFCD F0 E0 15     iwt   r0,#15E0
000B:EFD0 51           add   r1
000B:EFD1 BC 30        stw   (r0)
000B:EFD3 F0 C0 17     iwt   r0,#17C0
000B:EFD6 51           add   r1
000B:EFD7 BC 30        stw   (r0)
000B:EFD9 EC           dec   r12
000B:EFDA F0 62 13     iwt   r0,#1362
000B:EFDD 51           add   r1
000B:EFDE BC 30        stw   (r0)
000B:EFE0 F0 22 17     iwt   r0,#1722
000B:EFE3 51           add   r1
000B:EFE4 BC 30        stw   (r0)
000B:EFE6 FC FF 1F     iwt   r12,#1FFF
000B:EFE9 F0 62 18     iwt   r0,#1862
000B:EFEC 51           add   r1
000B:EFED BC 30        stw   (r0)
000B:EFEF F0 60 13     iwt   r0,#1360
000B:EFF2 51           add   r1
000B:EFF3 B5 30        stw   (r0)
000B:EFF5 B5 1C 55     add   r5
000B:EFF8 3E AE 2E     sms   (005C),r14
000B:EFFB F0 16 A7     iwt   r0,#A716
000B:EFFE 1E 5C        add   r12
000B:F000 1D EF        getb
000B:F002 F5 BB 0E     iwt   r5,#0EBB
000B:F005 AE 06        ibt   r14,#0006
000B:F007 3D 45        ldb   (r5)
000B:F009 6D           sub   r13
000B:F00A 09 08        beq   F014
000B:F00C EE           dec   r14
000B:F00D 08 F8        bne   F007
000B:F00F E5           dec   r5
000B:F010 15           to    r5
000B:F011 05 07        bra   F01A

000B:F013 60           sub   r0

000B:F014 BE 3E 58     add   #08
000B:F017 50           add   r0
000B:F018 15 50        add   r0
000B:F01A F0 80 11     iwt   r0,#1180
000B:F01D 51           add   r1
000B:F01E B5 30        stw   (r0)
000B:F020 F0 1A 9F     iwt   r0,#9F1A
000B:F023 1E 5C        add   r12
000B:F025 15 EF        getb
000B:F027 DE           inc   r14
000B:F028 F0 A2 14     iwt   r0,#14A2
000B:F02B 51           add   r1
000B:F02C B5 30        stw   (r0)
000B:F02E EF           getb
000B:F02F A5 20        ibt   r5,#0020
000B:F031 15 3D C5     xor   r5
000B:F034 F0 42 10     iwt   r0,#1042
000B:F037 51           add   r1
000B:F038 B5 30        stw   (r0)
000B:F03A F0 18 A3     iwt   r0,#A318
000B:F03D 1E 5C        add   r12
000B:F03F 15 3F EF     getbs
000B:F042 DE           inc   r14
000B:F043 F0 42 15     iwt   r0,#1542
000B:F046 51           add   r1
000B:F047 B5 30        stw   (r0)
000B:F049 3F EF        getbs
000B:F04B 3E 88        mult  #08
000B:F04D 15 50        add   r0
000B:F04F F0 E2 15     iwt   r0,#15E2
000B:F052 51           add   r1
000B:F053 B5 30        stw   (r0)
000B:F055 F0 1E 97     iwt   r0,#971E
000B:F058 1E 5C        add   r12
000B:F05A EF           getb
000B:F05B DE           inc   r14
000B:F05C 15 3D EF     getbh
000B:F05F F0 A2 0F     iwt   r0,#0FA2
000B:F062 51           add   r1
000B:F063 B5 30        stw   (r0)
000B:F065 F0 1C 9B     iwt   r0,#9B1C
000B:F068 1E 5C        add   r12
000B:F06A EF           getb
000B:F06B DE           inc   r14
000B:F06C 15 3D EF     getbh
000B:F06F F0 40 10     iwt   r0,#1040
000B:F072 51           add   r1
000B:F073 B5 30        stw   (r0)
000B:F075 F0 20 93     iwt   r0,#9320
000B:F078 1E 5C        add   r12
000B:F07A EF           getb
000B:F07B DE           inc   r14
000B:F07C 15 3D EF     getbh
000B:F07F F0 A0 0F     iwt   r0,#0FA0
000B:F082 51           add   r1
000B:F083 B5 30        stw   (r0)
000B:F085 A0 1F        ibt   r0,#001F
000B:F087 75           and   r5
000B:F088 50           add   r0
000B:F089 50           add   r0
000B:F08A 50           add   r0
000B:F08B FE 20 92     iwt   r14,#9220
000B:F08E 1E 5E        add   r14
000B:F090 EF           getb
000B:F091 DE           inc   r14
000B:F092 15 3D EF     getbh
000B:F095 DE           inc   r14
000B:F096 F0 56 1B     iwt   r0,#1B56
000B:F099 51           add   r1
000B:F09A B5 30        stw   (r0)
000B:F09C EF           getb
000B:F09D DE           inc   r14
000B:F09E 15 3D EF     getbh
000B:F0A1 DE           inc   r14
000B:F0A2 F0 58 1B     iwt   r0,#1B58
000B:F0A5 51           add   r1
000B:F0A6 B5 30        stw   (r0)
000B:F0A8 EF           getb
000B:F0A9 DE           inc   r14
000B:F0AA 15 3D EF     getbh
000B:F0AD DE           inc   r14
000B:F0AE F0 B6 1B     iwt   r0,#1BB6
000B:F0B1 51           add   r1
000B:F0B2 B5 30        stw   (r0)
000B:F0B4 EF           getb
000B:F0B5 DE           inc   r14
000B:F0B6 15 3D EF     getbh
000B:F0B9 F0 B8 1B     iwt   r0,#1BB8
000B:F0BC 51           add   r1
000B:F0BD B5 30        stw   (r0)
000B:F0BF 3D AE 2E     lms   r14,(005C)
000B:F0C2 9B           jmp   r11
000B:F0C3 60           sub   r0

000B:F0C4 F1 FC 0E     iwt   r1,#0EFC
000B:F0C7 AC 10        ibt   r12,#0010
000B:F0C9 2F 1D        move  r13,r15
000B:F0CB 3D 41        ldb   (r1)
000B:F0CD 3E 60        sub   #00
000B:F0CF 09 17        beq   F0E8
000B:F0D1 E1           dec   r1
000B:F0D2 E1           dec   r1
000B:F0D3 E1           dec   r1
000B:F0D4 3C           loop
000B:F0D5 E1           dec   r1
000B:F0D6 3D F0 4A 1E  lm    r0,(1E4A)
000B:F0DA E0           dec   r0
000B:F0DB E0           dec   r0
000B:F0DC E0           dec   r0
000B:F0DD E0           dec   r0
000B:F0DE 0A 03        bpl   F0E3
000B:F0E0 01           nop
000B:F0E1 A0 3C        ibt   r0,#003C
000B:F0E3 90           sbk
000B:F0E4 03           lsr
000B:F0E5 1C 03        lsr
000B:F0E7 DC           inc   r12
000B:F0E8 EC           dec   r12
000B:F0E9 BC 5C        add   r12
000B:F0EB 11 50        add   r0
000B:F0ED AC 0E        ibt   r12,#000E
000B:F0EF F0 C0 0E     iwt   r0,#0EC0
000B:F0F2 51           add   r1
000B:F0F3 BC 30        stw   (r0)
000B:F0F5 FC FF 00     iwt   r12,#00FF
000B:F0F8 F0 60 14     iwt   r0,#1460
000B:F0FB 51           add   r1
000B:F0FC BC 30        stw   (r0)
000B:F0FE AC 00        ibt   r12,#0000
000B:F100 F0 E0 11     iwt   r0,#11E0
000B:F103 51           add   r1
000B:F104 BC 30        stw   (r0)
000B:F106 F0 E2 11     iwt   r0,#11E2
000B:F109 51           add   r1
000B:F10A BC 30        stw   (r0)
000B:F10C F0 C0 13     iwt   r0,#13C0
000B:F10F 51           add   r1
000B:F110 BC 30        stw   (r0)
000B:F112 F0 A0 10     iwt   r0,#10A0
000B:F115 51           add   r1
000B:F116 BC 30        stw   (r0)
000B:F118 F0 4C 1E     iwt   r0,#1E4C
000B:F11B 51           add   r1
000B:F11C BC 30        stw   (r0)
000B:F11E F0 4E 1E     iwt   r0,#1E4E
000B:F121 51           add   r1
000B:F122 BC 30        stw   (r0)
000B:F124 F0 8C 1E     iwt   r0,#1E8C
000B:F127 51           add   r1
000B:F128 BC 30        stw   (r0)
000B:F12A F0 82 17     iwt   r0,#1782
000B:F12D 51           add   r1
000B:F12E BC 30        stw   (r0)
000B:F130 F0 8E 1E     iwt   r0,#1E8E
000B:F133 51           add   r1
000B:F134 BC 30        stw   (r0)
000B:F136 F0 C2 13     iwt   r0,#13C2
000B:F139 51           add   r1
000B:F13A BC 30        stw   (r0)
000B:F13C F0 20 18     iwt   r0,#1820
000B:F13F 51           add   r1
000B:F140 BC 30        stw   (r0)
000B:F142 F0 C2 0E     iwt   r0,#0EC2
000B:F145 51           add   r1
000B:F146 BC 30        stw   (r0)
000B:F148 F0 E0 16     iwt   r0,#16E0
000B:F14B 51           add   r1
000B:F14C BC 30        stw   (r0)
000B:F14E F0 40 16     iwt   r0,#1640
000B:F151 51           add   r1
000B:F152 BC 30        stw   (r0)
000B:F154 F0 42 16     iwt   r0,#1642
000B:F157 51           add   r1
000B:F158 BC 30        stw   (r0)
000B:F15A F0 00 15     iwt   r0,#1500
000B:F15D 51           add   r1
000B:F15E BC 30        stw   (r0)
000B:F160 F0 A0 15     iwt   r0,#15A0
000B:F163 51           add   r1
000B:F164 BC 30        stw   (r0)
000B:F166 F0 80 17     iwt   r0,#1780
000B:F169 51           add   r1
000B:F16A BC 30        stw   (r0)
000B:F16C EC           dec   r12
000B:F16D F0 22 13     iwt   r0,#1322
000B:F170 51           add   r1
000B:F171 BC 30        stw   (r0)
000B:F173 F0 E2 16     iwt   r0,#16E2
000B:F176 51           add   r1
000B:F177 BC 30        stw   (r0)
000B:F179 FC FF 1F     iwt   r12,#1FFF
000B:F17C F0 22 18     iwt   r0,#1822
000B:F17F 51           add   r1
000B:F180 BC 30        stw   (r0)
000B:F182 F0 20 13     iwt   r0,#1320
000B:F185 51           add   r1
000B:F186 B5 30        stw   (r0)
000B:F188 B5 1C 55     add   r5
000B:F18B 3E AE 2E     sms   (005C),r14
000B:F18E F0 9E B5     iwt   r0,#B59E
000B:F191 1E 5C        add   r12
000B:F193 1D EF        getb
000B:F195 F5 BB 0E     iwt   r5,#0EBB
000B:F198 AE 06        ibt   r14,#0006
000B:F19A 3D 45        ldb   (r5)
000B:F19C 6D           sub   r13
000B:F19D 09 08        beq   F1A7
000B:F19F EE           dec   r14
000B:F1A0 08 F8        bne   F19A
000B:F1A2 E5           dec   r5
000B:F1A3 15           to    r5
000B:F1A4 05 07        bra   F1AD

000B:F1A6 60           sub   r0

000B:F1A7 BE 3E 58     add   #08
000B:F1AA 50           add   r0
000B:F1AB 15 50        add   r0
000B:F1AD F0 40 11     iwt   r0,#1140
000B:F1B0 51           add   r1
000B:F1B1 B5 30        stw   (r0)
000B:F1B3 F0 9E B1     iwt   r0,#B19E
000B:F1B6 1E 5C        add   r12
000B:F1B8 15 EF        getb
000B:F1BA DE           inc   r14
000B:F1BB F0 62 14     iwt   r0,#1462
000B:F1BE 51           add   r1
000B:F1BF B5 30        stw   (r0)
000B:F1C1 EF           getb
000B:F1C2 A5 30        ibt   r5,#0030
000B:F1C4 15 3D C5     xor   r5
000B:F1C7 F0 02 10     iwt   r0,#1002
000B:F1CA 51           add   r1
000B:F1CB B5 30        stw   (r0)
000B:F1CD F0 9E B3     iwt   r0,#B39E
000B:F1D0 1E 5C        add   r12
000B:F1D2 15 3F EF     getbs
000B:F1D5 DE           inc   r14
000B:F1D6 F0 02 15     iwt   r0,#1502
000B:F1D9 51           add   r1
000B:F1DA B5 30        stw   (r0)
000B:F1DC 3F EF        getbs
000B:F1DE 3E 88        mult  #08
000B:F1E0 15 50        add   r0
000B:F1E2 F0 A2 15     iwt   r0,#15A2
000B:F1E5 51           add   r1
000B:F1E6 B5 30        stw   (r0)
000B:F1E8 F0 9E AB     iwt   r0,#AB9E
000B:F1EB 1E 5C        add   r12
000B:F1ED EF           getb
000B:F1EE DE           inc   r14
000B:F1EF 15 3D EF     getbh
000B:F1F2 F0 60 0F     iwt   r0,#0F60
000B:F1F5 51           add   r1
000B:F1F6 B5 30        stw   (r0)
000B:F1F8 F0 9E AD     iwt   r0,#AD9E
000B:F1FB 1E 5C        add   r12
000B:F1FD EF           getb
000B:F1FE DE           inc   r14
000B:F1FF 15 3D EF     getbh
000B:F202 F0 62 0F     iwt   r0,#0F62
000B:F205 51           add   r1
000B:F206 B5 30        stw   (r0)
000B:F208 F0 9E AF     iwt   r0,#AF9E
000B:F20B 1E 5C        add   r12
000B:F20D EF           getb
000B:F20E DE           inc   r14
000B:F20F 15 3D EF     getbh
000B:F212 F0 00 10     iwt   r0,#1000
000B:F215 51           add   r1
000B:F216 B5 30        stw   (r0)
000B:F218 3D AE 2E     lms   r14,(005C)
000B:F21B 9B           jmp   r11
000B:F21C 01           nop

000B:F21D 26 14        move  r4,r6
000B:F21F 3E AB 33     sms   (0066),r11
000B:F222 A1 01        ibt   r1,#0001
000B:F224 FB 00 22     iwt   r11,#2200
000B:F227 BB 56        add   r6
000B:F229 56           add   r6
000B:F22A 16 40        ldw   (r0)
000B:F22C BB 54        add   r4
000B:F22E 54           add   r4
000B:F22F 1B 40        ldw   (r0)
000B:F231 28 10        move  r0,r8
000B:F233 1A 4D        swap
000B:F235 50           add   r0
000B:F236 4F           not
000B:F237 D0           inc   r0
000B:F238 3D 9F        lmult
000B:F23A 2A 54        add   r4
000B:F23C 26 15        move  r5,r6
000B:F23E 2B 16        move  r6,r11
000B:F240 29 10        move  r0,r9
000B:F242 17 4D        swap
000B:F244 50           add   r0
000B:F245 4F           not
000B:F246 D0           inc   r0
000B:F247 3D 9F        lmult
000B:F249 27 54        add   r4
000B:F24B 2C 10        move  r0,r12
000B:F24D 03           lsr
000B:F24E 0C 04        bcc   F254
000B:F250 50           add   r0
000B:F251 21 3E C4     or    #04
000B:F254 B1 3D 4E     cmode
000B:F257 20 16        move  r6,r0
000B:F259 BD 3F DF     romb
000B:F25C A4 20        ibt   r4,#0020
000B:F25E 24 19        move  r9,r4
000B:F260 FD 6A F2     iwt   r13,#F26A
000B:F263 02           cache
000B:F264 23 11        move  r1,r3
000B:F266 2A 18        move  r8,r10
000B:F268 29 1C        move  r12,r9
000B:F26A 70           merge
000B:F26B 09 0A        beq   F277
000B:F26D 1E 56        add   r6
000B:F26F 28 55        add   r5
000B:F271 DF           getc
000B:F272 3C           loop
000B:F273 4C           plot
000B:F274 05 08        bra   F27E

000B:F276 27 28 55     add   r5
000B:F279 60           sub   r0
000B:F27A 4E           color
000B:F27B 3C           loop
000B:F27C 4C           plot
000B:F27D 27 5B        add   r11
000B:F27F E4           dec   r4
000B:F280 08 E2        bne   F264
000B:F282 D2           inc   r2
000B:F283 3D 4C        rpix
000B:F285 3D AB 33     lms   r11,(0066)
000B:F288 9B           jmp   r11
000B:F289 01           nop

000B:F28A 26 14        move  r4,r6
000B:F28C A1 01        ibt   r1,#0001
000B:F28E F8 00 22     iwt   r8,#2200
000B:F291 B8 56        add   r6
000B:F293 56           add   r6
000B:F294 16 40        ldw   (r0)
000B:F296 B8 54        add   r4
000B:F298 54           add   r4
000B:F299 18 40        ldw   (r0)
000B:F29B 3E AB 33     sms   (0066),r11
000B:F29E 25 55        add   r5
000B:F2A0 A0 08        ibt   r0,#0008
000B:F2A2 3F DF        romb
000B:F2A4 F0 98 AB     iwt   r0,#AB98
000B:F2A7 1E 55        add   r5
000B:F2A9 EF           getb
000B:F2AA DE           inc   r14
000B:F2AB 3D EF        getbh
000B:F2AD 20 1E        move  r14,r0
000B:F2AF 3D 9F        lmult
000B:F2B1 24 C0        hib
000B:F2B3 9E           lob
000B:F2B4 4D           swap
000B:F2B5 19 C4        or    r4
000B:F2B7 26 17        move  r7,r6
000B:F2B9 28 16        move  r6,r8
000B:F2BB BE 3D 9F     lmult
000B:F2BE 24 C0        hib
000B:F2C0 9E           lob
000B:F2C1 4D           swap
000B:F2C2 18 C4        or    r4
000B:F2C4 3E A8 00     sms   (0000),r8
000B:F2C7 F0 18 AC     iwt   r0,#AC18
000B:F2CA 1E 55        add   r5
000B:F2CC EF           getb
000B:F2CD DE           inc   r14
000B:F2CE 3D EF        getbh
000B:F2D0 20 1E        move  r14,r0
000B:F2D2 3D 9F        lmult
000B:F2D4 24 C0        hib
000B:F2D6 9E           lob
000B:F2D7 4D           swap
000B:F2D8 C4           or    r4
000B:F2D9 4F           not
000B:F2DA D0           inc   r0
000B:F2DB 20 15        move  r5,r0
000B:F2DD 58           add   r8
000B:F2DE 4F           not
000B:F2DF D0           inc   r0
000B:F2E0 50           add   r0
000B:F2E1 50           add   r0
000B:F2E2 50           add   r0
000B:F2E3 50           add   r0
000B:F2E4 FA 00 10     iwt   r10,#1000
000B:F2E7 1B 5A        add   r10
000B:F2E9 27 16        move  r6,r7
000B:F2EB BE 3D 9F     lmult
000B:F2EE 24 C0        hib
000B:F2F0 9E           lob
000B:F2F1 4D           swap
000B:F2F2 C4           or    r4
000B:F2F3 3E A0 01     sms   (0002),r0
000B:F2F6 59           add   r9
000B:F2F7 4F           not
000B:F2F8 D0           inc   r0
000B:F2F9 50           add   r0
000B:F2FA 50           add   r0
000B:F2FB 50           add   r0
000B:F2FC 50           add   r0
000B:F2FD 1A 5A        add   r10
000B:F2FF 2C 10        move  r0,r12
000B:F301 03           lsr
000B:F302 0C 04        bcc   F308
000B:F304 50           add   r0
000B:F305 21 3E C4     or    #04
000B:F308 B1 3D 4E     cmode
000B:F30B 20 16        move  r6,r0
000B:F30D BD 3F DF     romb
000B:F310 A4 20        ibt   r4,#0020
000B:F312 FD 1E F3     iwt   r13,#F31E
000B:F315 02           cache
000B:F316 23 11        move  r1,r3
000B:F318 2A 18        move  r8,r10
000B:F31A 2B 17        move  r7,r11
000B:F31C AC 20        ibt   r12,#0020
000B:F31E 70           merge
000B:F31F 0D 0E        bcs   F32F
000B:F321 1E 56        add   r6
000B:F323 28 59        add   r9
000B:F325 27 55        add   r5
000B:F327 DF           getc
000B:F328 3C           loop
000B:F329 4C           plot
000B:F32A 05 0C        bra   F338

000B:F32C 3D A0 01     lms   r0,(0002)
000B:F32F 28 59        add   r9
000B:F331 27 55        add   r5
000B:F333 60           sub   r0
000B:F334 4E           color
000B:F335 3C           loop
000B:F336 4C           plot
000B:F337 3D A0 01     lms   r0,(0002)
000B:F33A 1A 5A        add   r10
000B:F33C 3D A0 00     lms   r0,(0000)
000B:F33F 1B 5B        add   r11
000B:F341 E4           dec   r4
000B:F342 08 D2        bne   F316
000B:F344 D2           inc   r2
000B:F345 3D 4C        rpix
000B:F347 3D AB 33     lms   r11,(0066)
000B:F34A 9B           jmp   r11
000B:F34B 01           nop

000B:F34C 26 14        move  r4,r6
000B:F34E A1 01        ibt   r1,#0001
000B:F350 3E AB 33     sms   (0066),r11
000B:F353 FB 00 22     iwt   r11,#2200
000B:F356 BB 56        add   r6
000B:F358 56           add   r6
000B:F359 16 40        ldw   (r0)
000B:F35B BB 54        add   r4
000B:F35D 54           add   r4
000B:F35E 1B 40        ldw   (r0)
000B:F360 28 10        move  r0,r8
000B:F362 1A 4D        swap
000B:F364 4F           not
000B:F365 D0           inc   r0
000B:F366 3D 9F        lmult
000B:F368 2A 54        add   r4
000B:F36A 26 15        move  r5,r6
000B:F36C 2B 16        move  r6,r11
000B:F36E 29 10        move  r0,r9
000B:F370 17 4D        swap
000B:F372 4F           not
000B:F373 D0           inc   r0
000B:F374 3D 9F        lmult
000B:F376 27 54        add   r4
000B:F378 2C 10        move  r0,r12
000B:F37A 03           lsr
000B:F37B 0C 04        bcc   F381
000B:F37D 50           add   r0
000B:F37E 21 3E C4     or    #04
000B:F381 B1 3D 4E     cmode
000B:F384 20 16        move  r6,r0
000B:F386 BD 3F DF     romb
000B:F389 FD 97 F3     iwt   r13,#F397
000B:F38C A4 20        ibt   r4,#0020
000B:F38E 24 19        move  r9,r4
000B:F390 02           cache
000B:F391 23 11        move  r1,r3
000B:F393 2A 18        move  r8,r10
000B:F395 29 1C        move  r12,r9
000B:F397 70           merge
000B:F398 0D 0A        bcs   F3A4
000B:F39A 1E 56        add   r6
000B:F39C 28 55        add   r5
000B:F39E DF           getc
000B:F39F 3C           loop
000B:F3A0 4C           plot
000B:F3A1 05 08        bra   F3AB

000B:F3A3 27 28 55     add   r5
000B:F3A6 60           sub   r0
000B:F3A7 4E           color
000B:F3A8 3C           loop
000B:F3A9 4C           plot
000B:F3AA 27 5B        add   r11
000B:F3AC E4           dec   r4
000B:F3AD 08 E2        bne   F391
000B:F3AF D2           inc   r2
000B:F3B0 3D 4C        rpix
000B:F3B2 3D AB 33     lms   r11,(0066)
000B:F3B5 9B           jmp   r11
000B:F3B6 01           nop

; freespace
DATA_0BF3B7:         db $FF, $FF, $FF, $FF, $FF, $FF, $FF, $FF
DATA_0BF3BF:         db $FF, $FF, $FF, $FF, $FF, $FF, $FF, $FF
DATA_0BF3C7:         db $FF, $FF, $FF, $FF, $FF, $FF, $FF, $FF
DATA_0BF3CF:         db $FF, $FF, $FF, $FF, $FF, $FF, $FF, $FF
DATA_0BF3D7:         db $FF, $FF, $FF, $FF, $FF, $FF, $FF, $FF
DATA_0BF3DF:         db $FF, $FF, $FF, $FF, $FF, $FF, $FF, $FF
DATA_0BF3E7:         db $FF, $FF, $FF, $FF, $FF, $FF, $FF, $FF
DATA_0BF3EF:         db $FF, $FF, $FF, $FF, $FF, $FF, $FF, $FF
DATA_0BF3F7:         db $FF, $FF, $FF, $FF, $FF, $FF, $FF, $FF
DATA_0BF3FF:         db $FF, $FF, $FF, $FF, $FF, $FF, $FF, $FF
DATA_0BF407:         db $FF, $FF, $FF, $FF, $FF, $FF, $FF, $FF
DATA_0BF40F:         db $FF, $FF, $FF, $FF, $FF, $FF, $FF, $FF
DATA_0BF417:         db $FF, $FF, $FF, $FF, $FF, $FF, $FF, $FF
DATA_0BF41F:         db $FF, $FF, $FF, $FF, $FF, $FF, $FF, $FF
DATA_0BF427:         db $FF, $FF, $FF, $FF, $FF, $FF, $FF, $FF
DATA_0BF42F:         db $FF, $FF, $FF, $FF, $FF, $FF, $FF, $FF
DATA_0BF437:         db $FF, $FF, $FF, $FF, $FF, $FF, $FF, $FF
DATA_0BF43F:         db $FF, $FF, $FF, $FF, $FF, $FF, $FF, $FF
DATA_0BF447:         db $FF, $FF, $FF, $FF, $FF, $FF, $FF, $FF
DATA_0BF44F:         db $FF, $FF, $FF, $FF, $FF, $FF, $FF, $FF
DATA_0BF457:         db $FF, $FF, $FF, $FF, $FF, $FF, $FF, $FF
DATA_0BF45F:         db $FF, $FF, $FF, $FF, $FF, $FF, $FF, $FF
DATA_0BF467:         db $FF, $FF, $FF, $FF, $FF, $FF, $FF, $FF
DATA_0BF46F:         db $FF, $FF, $FF, $FF, $FF, $FF, $FF, $FF
DATA_0BF477:         db $FF, $FF, $FF, $FF, $FF, $FF, $FF, $FF
DATA_0BF47F:         db $FF, $FF, $FF, $FF, $FF, $FF, $FF, $FF
DATA_0BF487:         db $FF, $FF, $FF, $FF, $FF, $FF, $FF, $FF
DATA_0BF48F:         db $FF, $FF, $FF, $FF, $FF, $FF, $FF, $FF
DATA_0BF497:         db $FF, $FF, $FF, $FF, $FF, $FF, $FF, $FF
DATA_0BF49F:         db $FF, $FF, $FF, $FF, $FF, $FF, $FF, $FF
DATA_0BF4A7:         db $FF, $FF, $FF, $FF, $FF, $FF, $FF, $FF
DATA_0BF4AF:         db $FF, $FF, $FF, $FF, $FF, $FF, $FF, $FF
DATA_0BF4B7:         db $FF, $FF, $FF, $FF, $FF, $FF, $FF, $FF
DATA_0BF4BF:         db $FF, $FF, $FF, $FF, $FF, $FF, $FF, $FF
DATA_0BF4C7:         db $FF, $FF, $FF, $FF, $FF, $FF, $FF, $FF
DATA_0BF4CF:         db $FF, $FF, $FF, $FF, $FF, $FF, $FF, $FF
DATA_0BF4D7:         db $FF, $FF, $FF, $FF, $FF, $FF, $FF, $FF
DATA_0BF4DF:         db $FF, $FF, $FF, $FF, $FF, $FF, $FF, $FF
DATA_0BF4E7:         db $FF, $FF, $FF, $FF, $FF, $FF, $FF, $FF
DATA_0BF4EF:         db $FF, $FF, $FF, $FF, $FF, $FF, $FF, $FF
DATA_0BF4F7:         db $FF, $FF, $FF, $FF, $FF, $FF, $FF, $FF
DATA_0BF4FF:         db $FF, $FF, $FF, $FF, $FF, $FF, $FF, $FF
DATA_0BF507:         db $FF, $FF, $FF, $FF, $FF, $FF, $FF, $FF
DATA_0BF50F:         db $FF, $FF, $FF, $FF, $FF, $FF, $FF, $FF
DATA_0BF517:         db $FF, $FF, $FF, $FF, $FF, $FF, $FF, $FF
DATA_0BF51F:         db $FF, $FF, $FF, $FF, $FF, $FF, $FF, $FF
DATA_0BF527:         db $FF, $FF, $FF, $FF, $FF, $FF, $FF, $FF
DATA_0BF52F:         db $FF, $FF, $FF, $FF, $FF, $FF, $FF, $FF
DATA_0BF537:         db $FF, $FF, $FF, $FF, $FF, $FF, $FF, $FF
DATA_0BF53F:         db $FF, $FF, $FF, $FF, $FF, $FF, $FF, $FF
DATA_0BF547:         db $FF, $FF, $FF, $FF, $FF, $FF, $FF, $FF
DATA_0BF54F:         db $FF, $FF, $FF, $FF, $FF, $FF, $FF, $FF
DATA_0BF557:         db $FF, $FF, $FF, $FF, $FF, $FF, $FF, $FF
DATA_0BF55F:         db $FF, $FF, $FF, $FF, $FF, $FF, $FF, $FF
DATA_0BF567:         db $FF, $FF, $FF, $FF, $FF, $FF, $FF, $FF
DATA_0BF56F:         db $FF, $FF, $FF, $FF, $FF, $FF, $FF, $FF
DATA_0BF577:         db $FF, $FF, $FF, $FF, $FF, $FF, $FF, $FF
DATA_0BF57F:         db $FF, $FF, $FF, $FF, $FF, $FF, $FF, $FF
DATA_0BF587:         db $FF, $FF, $FF, $FF, $FF, $FF, $FF, $FF
DATA_0BF58F:         db $FF, $FF, $FF, $FF, $FF, $FF, $FF, $FF
DATA_0BF597:         db $FF, $FF, $FF, $FF, $FF, $FF, $FF, $FF
DATA_0BF59F:         db $FF, $FF, $FF, $FF, $FF, $FF, $FF, $FF
DATA_0BF5A7:         db $FF, $FF, $FF, $FF, $FF, $FF, $FF, $FF
DATA_0BF5AF:         db $FF, $FF, $FF, $FF, $FF, $FF, $FF, $FF
DATA_0BF5B7:         db $FF, $FF, $FF, $FF, $FF, $FF, $FF, $FF
DATA_0BF5BF:         db $FF, $FF, $FF, $FF, $FF, $FF, $FF, $FF
DATA_0BF5C7:         db $FF, $FF, $FF, $FF, $FF, $FF, $FF, $FF
DATA_0BF5CF:         db $FF, $FF, $FF, $FF, $FF, $FF, $FF, $FF
DATA_0BF5D7:         db $FF, $FF, $FF, $FF, $FF, $FF, $FF, $FF
DATA_0BF5DF:         db $FF, $FF, $FF, $FF, $FF, $FF, $FF, $FF
DATA_0BF5E7:         db $FF, $FF, $FF, $FF, $FF, $FF, $FF, $FF
DATA_0BF5EF:         db $FF, $FF, $FF, $FF, $FF, $FF, $FF, $FF
DATA_0BF5F7:         db $FF, $FF, $FF, $FF, $FF, $FF, $FF, $FF
DATA_0BF5FF:         db $FF, $FF, $FF, $FF, $FF, $FF, $FF, $FF
DATA_0BF607:         db $FF, $FF, $FF, $FF, $FF, $FF, $FF, $FF
DATA_0BF60F:         db $FF, $FF, $FF, $FF, $FF, $FF, $FF, $FF
DATA_0BF617:         db $FF, $FF, $FF, $FF, $FF, $FF, $FF, $FF
DATA_0BF61F:         db $FF, $FF, $FF, $FF, $FF, $FF, $FF, $FF
DATA_0BF627:         db $FF, $FF, $FF, $FF, $FF, $FF, $FF, $FF
DATA_0BF62F:         db $FF, $FF, $FF, $FF, $FF, $FF, $FF, $FF
DATA_0BF637:         db $FF, $FF, $FF, $FF, $FF, $FF, $FF, $FF
DATA_0BF63F:         db $FF, $FF, $FF, $FF, $FF, $FF, $FF, $FF
DATA_0BF647:         db $FF, $FF, $FF, $FF, $FF, $FF, $FF, $FF
DATA_0BF64F:         db $FF, $FF, $FF, $FF, $FF, $FF, $FF, $FF
DATA_0BF657:         db $FF, $FF, $FF, $FF, $FF, $FF, $FF, $FF
DATA_0BF65F:         db $FF, $FF, $FF, $FF, $FF, $FF, $FF, $FF
DATA_0BF667:         db $FF, $FF, $FF, $FF, $FF, $FF, $FF, $FF
DATA_0BF66F:         db $FF, $FF, $FF, $FF, $FF, $FF, $FF, $FF
DATA_0BF677:         db $FF, $FF, $FF, $FF, $FF, $FF, $FF, $FF
DATA_0BF67F:         db $FF, $FF, $FF, $FF, $FF, $FF, $FF, $FF
DATA_0BF687:         db $FF, $FF, $FF, $FF, $FF, $FF, $FF, $FF
DATA_0BF68F:         db $FF, $FF, $FF, $FF, $FF, $FF, $FF, $FF
DATA_0BF697:         db $FF, $FF, $FF, $FF, $FF, $FF, $FF, $FF
DATA_0BF69F:         db $FF, $FF, $FF, $FF, $FF, $FF, $FF, $FF
DATA_0BF6A7:         db $FF, $FF, $FF, $FF, $FF, $FF, $FF, $FF
DATA_0BF6AF:         db $FF, $FF, $FF, $FF, $FF, $FF, $FF, $FF
DATA_0BF6B7:         db $FF, $FF, $FF, $FF, $FF, $FF, $FF, $FF
DATA_0BF6BF:         db $FF, $FF, $FF, $FF, $FF, $FF, $FF, $FF
DATA_0BF6C7:         db $FF, $FF, $FF, $FF, $FF, $FF, $FF, $FF
DATA_0BF6CF:         db $FF, $FF, $FF, $FF, $FF, $FF, $FF, $FF
DATA_0BF6D7:         db $FF, $FF, $FF, $FF, $FF, $FF, $FF, $FF
DATA_0BF6DF:         db $FF, $FF, $FF, $FF, $FF, $FF, $FF, $FF
DATA_0BF6E7:         db $FF, $FF, $FF, $FF, $FF, $FF, $FF, $FF
DATA_0BF6EF:         db $FF, $FF, $FF, $FF, $FF, $FF, $FF, $FF
DATA_0BF6F7:         db $FF, $FF, $FF, $FF, $FF, $FF, $FF, $FF
DATA_0BF6FF:         db $FF, $FF, $FF, $FF, $FF, $FF, $FF, $FF
DATA_0BF707:         db $FF, $FF, $FF, $FF, $FF, $FF, $FF, $FF
DATA_0BF70F:         db $FF, $FF, $FF, $FF, $FF, $FF, $FF, $FF
DATA_0BF717:         db $FF, $FF, $FF, $FF, $FF, $FF, $FF, $FF
DATA_0BF71F:         db $FF, $FF, $FF, $FF, $FF, $FF, $FF, $FF
DATA_0BF727:         db $FF, $FF, $FF, $FF, $FF, $FF, $FF, $FF
DATA_0BF72F:         db $FF, $FF, $FF, $FF, $FF, $FF, $FF, $FF
DATA_0BF737:         db $FF, $FF, $FF, $FF, $FF, $FF, $FF, $FF
DATA_0BF73F:         db $FF, $FF, $FF, $FF, $FF, $FF, $FF, $FF
DATA_0BF747:         db $FF, $FF, $FF, $FF, $FF, $FF, $FF, $FF
DATA_0BF74F:         db $FF, $FF, $FF, $FF, $FF, $FF, $FF, $FF
DATA_0BF757:         db $FF, $FF, $FF, $FF, $FF, $FF, $FF, $FF
DATA_0BF75F:         db $FF, $FF, $FF, $FF, $FF, $FF, $FF, $FF
DATA_0BF767:         db $FF, $FF, $FF, $FF, $FF, $FF, $FF, $FF
DATA_0BF76F:         db $FF, $FF, $FF, $FF, $FF, $FF, $FF, $FF
DATA_0BF777:         db $FF, $FF, $FF, $FF, $FF, $FF, $FF, $FF
DATA_0BF77F:         db $FF, $FF, $FF, $FF, $FF, $FF, $FF, $FF
DATA_0BF787:         db $FF, $FF, $FF, $FF, $FF, $FF, $FF, $FF
DATA_0BF78F:         db $FF, $FF, $FF, $FF, $FF, $FF, $FF, $FF
DATA_0BF797:         db $FF, $FF, $FF, $FF, $FF, $FF, $FF, $FF
DATA_0BF79F:         db $FF, $FF, $FF, $FF, $FF, $FF, $FF, $FF
DATA_0BF7A7:         db $FF, $FF, $FF, $FF, $FF, $FF, $FF, $FF
DATA_0BF7AF:         db $FF, $FF, $FF, $FF, $FF, $FF, $FF, $FF
DATA_0BF7B7:         db $FF, $FF, $FF, $FF, $FF, $FF, $FF, $FF
DATA_0BF7BF:         db $FF, $FF, $FF, $FF, $FF, $FF, $FF, $FF
DATA_0BF7C7:         db $FF, $FF, $FF, $FF, $FF, $FF, $FF, $FF
DATA_0BF7CF:         db $FF, $FF, $FF, $FF, $FF, $FF, $FF, $FF
DATA_0BF7D7:         db $FF, $FF, $FF, $FF, $FF, $FF, $FF, $FF
DATA_0BF7DF:         db $FF, $FF, $FF, $FF, $FF, $FF, $FF, $FF
DATA_0BF7E7:         db $FF, $FF, $FF, $FF, $FF, $FF, $FF, $FF
DATA_0BF7EF:         db $FF, $FF, $FF, $FF, $FF, $FF, $FF, $FF
DATA_0BF7F7:         db $FF, $FF, $FF, $FF, $FF, $FF, $FF, $FF
DATA_0BF7FF:         db $FF, $FF, $FF, $FF, $FF, $FF, $FF, $FF
DATA_0BF807:         db $FF, $FF, $FF, $FF, $FF, $FF, $FF, $FF
DATA_0BF80F:         db $FF, $FF, $FF, $FF, $FF, $FF, $FF, $FF
DATA_0BF817:         db $FF, $FF, $FF, $FF, $FF, $FF, $FF, $FF
DATA_0BF81F:         db $FF, $FF, $FF, $FF, $FF, $FF, $FF, $FF
DATA_0BF827:         db $FF, $FF, $FF, $FF, $FF, $FF, $FF, $FF
DATA_0BF82F:         db $FF, $FF, $FF, $FF, $FF, $FF, $FF, $FF
DATA_0BF837:         db $FF, $FF, $FF, $FF, $FF, $FF, $FF, $FF
DATA_0BF83F:         db $FF, $FF, $FF, $FF, $FF, $FF, $FF, $FF
DATA_0BF847:         db $FF, $FF, $FF, $FF, $FF, $FF, $FF, $FF
DATA_0BF84F:         db $FF, $FF, $FF, $FF, $FF, $FF, $FF, $FF
DATA_0BF857:         db $FF, $FF, $FF, $FF, $FF, $FF, $FF, $FF
DATA_0BF85F:         db $FF, $FF, $FF, $FF, $FF, $FF, $FF, $FF
DATA_0BF867:         db $FF, $FF, $FF, $FF, $FF, $FF, $FF, $FF
DATA_0BF86F:         db $FF, $FF, $FF, $FF, $FF, $FF, $FF, $FF
DATA_0BF877:         db $FF, $FF, $FF, $FF, $FF, $FF, $FF, $FF
DATA_0BF87F:         db $FF, $FF, $FF, $FF, $FF, $FF, $FF, $FF
DATA_0BF887:         db $FF, $FF, $FF, $FF, $FF, $FF, $FF, $FF
DATA_0BF88F:         db $FF, $FF, $FF, $FF, $FF, $FF, $FF, $FF
DATA_0BF897:         db $FF, $FF, $FF, $FF, $FF, $FF, $FF, $FF
DATA_0BF89F:         db $FF, $FF, $FF, $FF, $FF, $FF, $FF, $FF
DATA_0BF8A7:         db $FF, $FF, $FF, $FF, $FF, $FF, $FF, $FF
DATA_0BF8AF:         db $FF, $FF, $FF, $FF, $FF, $FF, $FF, $FF
DATA_0BF8B7:         db $FF, $FF, $FF, $FF, $FF, $FF, $FF, $FF
DATA_0BF8BF:         db $FF, $FF, $FF, $FF, $FF, $FF, $FF, $FF
DATA_0BF8C7:         db $FF, $FF, $FF, $FF, $FF, $FF, $FF, $FF
DATA_0BF8CF:         db $FF, $FF, $FF, $FF, $FF, $FF, $FF, $FF
DATA_0BF8D7:         db $FF, $FF, $FF, $FF, $FF, $FF, $FF, $FF
DATA_0BF8DF:         db $FF, $FF, $FF, $FF, $FF, $FF, $FF, $FF
DATA_0BF8E7:         db $FF, $FF, $FF, $FF, $FF, $FF, $FF, $FF
DATA_0BF8EF:         db $FF, $FF, $FF, $FF, $FF, $FF, $FF, $FF
DATA_0BF8F7:         db $FF, $FF, $FF, $FF, $FF, $FF, $FF, $FF
DATA_0BF8FF:         db $FF, $FF, $FF, $FF, $FF, $FF, $FF, $FF
DATA_0BF907:         db $FF, $FF, $FF, $FF, $FF, $FF, $FF, $FF
DATA_0BF90F:         db $FF, $FF, $FF, $FF, $FF, $FF, $FF, $FF
DATA_0BF917:         db $FF, $FF, $FF, $FF, $FF, $FF, $FF, $FF
DATA_0BF91F:         db $FF, $FF, $FF, $FF, $FF, $FF, $FF, $FF
DATA_0BF927:         db $FF, $FF, $FF, $FF, $FF, $FF, $FF, $FF
DATA_0BF92F:         db $FF, $FF, $FF, $FF, $FF, $FF, $FF, $FF
DATA_0BF937:         db $FF, $FF, $FF, $FF, $FF, $FF, $FF, $FF
DATA_0BF93F:         db $FF, $FF, $FF, $FF, $FF, $FF, $FF, $FF
DATA_0BF947:         db $FF, $FF, $FF, $FF, $FF, $FF, $FF, $FF
DATA_0BF94F:         db $FF, $FF, $FF, $FF, $FF, $FF, $FF, $FF
DATA_0BF957:         db $FF, $FF, $FF, $FF, $FF, $FF, $FF, $FF
DATA_0BF95F:         db $FF, $FF, $FF, $FF, $FF, $FF, $FF, $FF
DATA_0BF967:         db $FF, $FF, $FF, $FF, $FF, $FF, $FF, $FF
DATA_0BF96F:         db $FF, $FF, $FF, $FF, $FF, $FF, $FF, $FF
DATA_0BF977:         db $FF, $FF, $FF, $FF, $FF, $FF, $FF, $FF
DATA_0BF97F:         db $FF, $FF, $FF, $FF, $FF, $FF, $FF, $FF
DATA_0BF987:         db $FF, $FF, $FF, $FF, $FF, $FF, $FF, $FF
DATA_0BF98F:         db $FF, $FF, $FF, $FF, $FF, $FF, $FF, $FF
DATA_0BF997:         db $FF, $FF, $FF, $FF, $FF, $FF, $FF, $FF
DATA_0BF99F:         db $FF, $FF, $FF, $FF, $FF, $FF, $FF, $FF
DATA_0BF9A7:         db $FF, $FF, $FF, $FF, $FF, $FF, $FF, $FF
DATA_0BF9AF:         db $FF, $FF, $FF, $FF, $FF, $FF, $FF, $FF
DATA_0BF9B7:         db $FF, $FF, $FF, $FF, $FF, $FF, $FF, $FF
DATA_0BF9BF:         db $FF, $FF, $FF, $FF, $FF, $FF, $FF, $FF
DATA_0BF9C7:         db $FF, $FF, $FF, $FF, $FF, $FF, $FF, $FF
DATA_0BF9CF:         db $FF, $FF, $FF, $FF, $FF, $FF, $FF, $FF
DATA_0BF9D7:         db $FF, $FF, $FF, $FF, $FF, $FF, $FF, $FF
DATA_0BF9DF:         db $FF, $FF, $FF, $FF, $FF, $FF, $FF, $FF
DATA_0BF9E7:         db $FF, $FF, $FF, $FF, $FF, $FF, $FF, $FF
DATA_0BF9EF:         db $FF, $FF, $FF, $FF, $FF, $FF, $FF, $FF
DATA_0BF9F7:         db $FF, $FF, $FF, $FF, $FF, $FF, $FF, $FF
DATA_0BF9FF:         db $FF, $FF, $FF, $FF, $FF, $FF, $FF, $FF
DATA_0BFA07:         db $FF, $FF, $FF, $FF, $FF, $FF, $FF, $FF
DATA_0BFA0F:         db $FF, $FF, $FF, $FF, $FF, $FF, $FF, $FF
DATA_0BFA17:         db $FF, $FF, $FF, $FF, $FF, $FF, $FF, $FF
DATA_0BFA1F:         db $FF, $FF, $FF, $FF, $FF, $FF, $FF, $FF
DATA_0BFA27:         db $FF, $FF, $FF, $FF, $FF, $FF, $FF, $FF
DATA_0BFA2F:         db $FF, $FF, $FF, $FF, $FF, $FF, $FF, $FF
DATA_0BFA37:         db $FF, $FF, $FF, $FF, $FF, $FF, $FF, $FF
DATA_0BFA3F:         db $FF, $FF, $FF, $FF, $FF, $FF, $FF, $FF
DATA_0BFA47:         db $FF, $FF, $FF, $FF, $FF, $FF, $FF, $FF
DATA_0BFA4F:         db $FF, $FF, $FF, $FF, $FF, $FF, $FF, $FF
DATA_0BFA57:         db $FF, $FF, $FF, $FF, $FF, $FF, $FF, $FF
DATA_0BFA5F:         db $FF, $FF, $FF, $FF, $FF, $FF, $FF, $FF
DATA_0BFA67:         db $FF, $FF, $FF, $FF, $FF, $FF, $FF, $FF
DATA_0BFA6F:         db $FF, $FF, $FF, $FF, $FF, $FF, $FF, $FF
DATA_0BFA77:         db $FF, $FF, $FF, $FF, $FF, $FF, $FF, $FF
DATA_0BFA7F:         db $FF, $FF, $FF, $FF, $FF, $FF, $FF, $FF
DATA_0BFA87:         db $FF, $FF, $FF, $FF, $FF, $FF, $FF, $FF
DATA_0BFA8F:         db $FF, $FF, $FF, $FF, $FF, $FF, $FF, $FF
DATA_0BFA97:         db $FF, $FF, $FF, $FF, $FF, $FF, $FF, $FF
DATA_0BFA9F:         db $FF, $FF, $FF, $FF, $FF, $FF, $FF, $FF
DATA_0BFAA7:         db $FF, $FF, $FF, $FF, $FF, $FF, $FF, $FF
DATA_0BFAAF:         db $FF, $FF, $FF, $FF, $FF, $FF, $FF, $FF
DATA_0BFAB7:         db $FF, $FF, $FF, $FF, $FF, $FF, $FF, $FF
DATA_0BFABF:         db $FF, $FF, $FF, $FF, $FF, $FF, $FF, $FF
DATA_0BFAC7:         db $FF, $FF, $FF, $FF, $FF, $FF, $FF, $FF
DATA_0BFACF:         db $FF, $FF, $FF, $FF, $FF, $FF, $FF, $FF
DATA_0BFAD7:         db $FF, $FF, $FF, $FF, $FF, $FF, $FF, $FF
DATA_0BFADF:         db $FF, $FF, $FF, $FF, $FF, $FF, $FF, $FF
DATA_0BFAE7:         db $FF, $FF, $FF, $FF, $FF, $FF, $FF, $FF
DATA_0BFAEF:         db $FF, $FF, $FF, $FF, $FF, $FF, $FF, $FF
DATA_0BFAF7:         db $FF, $FF, $FF, $FF, $FF, $FF, $FF, $FF
DATA_0BFAFF:         db $FF, $FF, $FF, $FF, $FF, $FF, $FF, $FF
DATA_0BFB07:         db $FF, $FF, $FF, $FF, $FF, $FF, $FF, $FF
DATA_0BFB0F:         db $FF, $FF, $FF, $FF, $FF, $FF, $FF, $FF
DATA_0BFB17:         db $FF, $FF, $FF, $FF, $FF, $FF, $FF, $FF
DATA_0BFB1F:         db $FF, $FF, $FF, $FF, $FF, $FF, $FF, $FF
DATA_0BFB27:         db $FF, $FF, $FF, $FF, $FF, $FF, $FF, $FF
DATA_0BFB2F:         db $FF, $FF, $FF, $FF, $FF, $FF, $FF, $FF
DATA_0BFB37:         db $FF, $FF, $FF, $FF, $FF, $FF, $FF, $FF
DATA_0BFB3F:         db $FF, $FF, $FF, $FF, $FF, $FF, $FF, $FF
DATA_0BFB47:         db $FF, $FF, $FF, $FF, $FF, $FF, $FF, $FF
DATA_0BFB4F:         db $FF, $FF, $FF, $FF, $FF, $FF, $FF, $FF
DATA_0BFB57:         db $FF, $FF, $FF, $FF, $FF, $FF, $FF, $FF
DATA_0BFB5F:         db $FF, $FF, $FF, $FF, $FF, $FF, $FF, $FF
DATA_0BFB67:         db $FF, $FF, $FF, $FF, $FF, $FF, $FF, $FF
DATA_0BFB6F:         db $FF, $FF, $FF, $FF, $FF, $FF, $FF, $FF
DATA_0BFB77:         db $FF, $FF, $FF, $FF, $FF, $FF, $FF, $FF
DATA_0BFB7F:         db $FF, $FF, $FF, $FF, $FF, $FF, $FF, $FF
DATA_0BFB87:         db $FF, $FF, $FF, $FF, $FF, $FF, $FF, $FF
DATA_0BFB8F:         db $FF, $FF, $FF, $FF, $FF, $FF, $FF, $FF
DATA_0BFB97:         db $FF, $FF, $FF, $FF, $FF, $FF, $FF, $FF
DATA_0BFB9F:         db $FF, $FF, $FF, $FF, $FF, $FF, $FF, $FF
DATA_0BFBA7:         db $FF, $FF, $FF, $FF, $FF, $FF, $FF, $FF
DATA_0BFBAF:         db $FF, $FF, $FF, $FF, $FF, $FF, $FF, $FF
DATA_0BFBB7:         db $FF, $FF, $FF, $FF, $FF, $FF, $FF, $FF
DATA_0BFBBF:         db $FF, $FF, $FF, $FF, $FF, $FF, $FF, $FF
DATA_0BFBC7:         db $FF, $FF, $FF, $FF, $FF, $FF, $FF, $FF
DATA_0BFBCF:         db $FF, $FF, $FF, $FF, $FF, $FF, $FF, $FF
DATA_0BFBD7:         db $FF, $FF, $FF, $FF, $FF, $FF, $FF, $FF
DATA_0BFBDF:         db $FF, $FF, $FF, $FF, $FF, $FF, $FF, $FF
DATA_0BFBE7:         db $FF, $FF, $FF, $FF, $FF, $FF, $FF, $FF
DATA_0BFBEF:         db $FF, $FF, $FF, $FF, $FF, $FF, $FF, $FF
DATA_0BFBF7:         db $FF, $FF, $FF, $FF, $FF, $FF, $FF, $FF
DATA_0BFBFF:         db $FF, $FF, $FF, $FF, $FF, $FF, $FF, $FF
DATA_0BFC07:         db $FF, $FF, $FF, $FF, $FF, $FF, $FF, $FF
DATA_0BFC0F:         db $FF, $FF, $FF, $FF, $FF, $FF, $FF, $FF
DATA_0BFC17:         db $FF, $FF, $FF, $FF, $FF, $FF, $FF, $FF
DATA_0BFC1F:         db $FF, $FF, $FF, $FF, $FF, $FF, $FF, $FF
DATA_0BFC27:         db $FF, $FF, $FF, $FF, $FF, $FF, $FF, $FF
DATA_0BFC2F:         db $FF, $FF, $FF, $FF, $FF, $FF, $FF, $FF
DATA_0BFC37:         db $FF, $FF, $FF, $FF, $FF, $FF, $FF, $FF
DATA_0BFC3F:         db $FF, $FF, $FF, $FF, $FF, $FF, $FF, $FF
DATA_0BFC47:         db $FF, $FF, $FF, $FF, $FF, $FF, $FF, $FF
DATA_0BFC4F:         db $FF, $FF, $FF, $FF, $FF, $FF, $FF, $FF
DATA_0BFC57:         db $FF, $FF, $FF, $FF, $FF, $FF, $FF, $FF
DATA_0BFC5F:         db $FF, $FF, $FF, $FF, $FF, $FF, $FF, $FF
DATA_0BFC67:         db $FF, $FF, $FF, $FF, $FF, $FF, $FF, $FF
DATA_0BFC6F:         db $FF, $FF, $FF, $FF, $FF, $FF, $FF, $FF
DATA_0BFC77:         db $FF, $FF, $FF, $FF, $FF, $FF, $FF, $FF
DATA_0BFC7F:         db $FF, $FF, $FF, $FF, $FF, $FF, $FF, $FF
DATA_0BFC87:         db $FF, $FF, $FF, $FF, $FF, $FF, $FF, $FF
DATA_0BFC8F:         db $FF, $FF, $FF, $FF, $FF, $FF, $FF, $FF
DATA_0BFC97:         db $FF, $FF, $FF, $FF, $FF, $FF, $FF, $FF
DATA_0BFC9F:         db $FF, $FF, $FF, $FF, $FF, $FF, $FF, $FF
DATA_0BFCA7:         db $FF, $FF, $FF, $FF, $FF, $FF, $FF, $FF
DATA_0BFCAF:         db $FF, $FF, $FF, $FF, $FF, $FF, $FF, $FF
DATA_0BFCB7:         db $FF, $FF, $FF, $FF, $FF, $FF, $FF, $FF
DATA_0BFCBF:         db $FF, $FF, $FF, $FF, $FF, $FF, $FF, $FF
DATA_0BFCC7:         db $FF, $FF, $FF, $FF, $FF, $FF, $FF, $FF
DATA_0BFCCF:         db $FF, $FF, $FF, $FF, $FF, $FF, $FF, $FF
DATA_0BFCD7:         db $FF, $FF, $FF, $FF, $FF, $FF, $FF, $FF
DATA_0BFCDF:         db $FF, $FF, $FF, $FF, $FF, $FF, $FF, $FF
DATA_0BFCE7:         db $FF, $FF, $FF, $FF, $FF, $FF, $FF, $FF
DATA_0BFCEF:         db $FF, $FF, $FF, $FF, $FF, $FF, $FF, $FF
DATA_0BFCF7:         db $FF, $FF, $FF, $FF, $FF, $FF, $FF, $FF
DATA_0BFCFF:         db $FF, $FF, $FF, $FF, $FF, $FF, $FF, $FF
DATA_0BFD07:         db $FF, $FF, $FF, $FF, $FF, $FF, $FF, $FF
DATA_0BFD0F:         db $FF, $FF, $FF, $FF, $FF, $FF, $FF, $FF
DATA_0BFD17:         db $FF, $FF, $FF, $FF, $FF, $FF, $FF, $FF
DATA_0BFD1F:         db $FF, $FF, $FF, $FF, $FF, $FF, $FF, $FF
DATA_0BFD27:         db $FF, $FF, $FF, $FF, $FF, $FF, $FF, $FF
DATA_0BFD2F:         db $FF, $FF, $FF, $FF, $FF, $FF, $FF, $FF
DATA_0BFD37:         db $FF, $FF, $FF, $FF, $FF, $FF, $FF, $FF
DATA_0BFD3F:         db $FF, $FF, $FF, $FF, $FF, $FF, $FF, $FF
DATA_0BFD47:         db $FF, $FF, $FF, $FF, $FF, $FF, $FF, $FF
DATA_0BFD4F:         db $FF, $FF, $FF, $FF, $FF, $FF, $FF, $FF
DATA_0BFD57:         db $FF, $FF, $FF, $FF, $FF, $FF, $FF, $FF
DATA_0BFD5F:         db $FF, $FF, $FF, $FF, $FF, $FF, $FF, $FF
DATA_0BFD67:         db $FF, $FF, $FF, $FF, $FF, $FF, $FF, $FF
DATA_0BFD6F:         db $FF, $FF, $FF, $FF, $FF, $FF, $FF, $FF
DATA_0BFD77:         db $FF, $FF, $FF, $FF, $FF, $FF, $FF, $FF
DATA_0BFD7F:         db $FF, $FF, $FF, $FF, $FF, $FF, $FF, $FF
DATA_0BFD87:         db $FF, $FF, $FF, $FF, $FF, $FF, $FF, $FF
DATA_0BFD8F:         db $FF, $FF, $FF, $FF, $FF, $FF, $FF, $FF
DATA_0BFD97:         db $FF, $FF, $FF, $FF, $FF, $FF, $FF, $FF
DATA_0BFD9F:         db $FF, $FF, $FF, $FF, $FF, $FF, $FF, $FF
DATA_0BFDA7:         db $FF, $FF, $FF, $FF, $FF, $FF, $FF, $FF
DATA_0BFDAF:         db $FF, $FF, $FF, $FF, $FF, $FF, $FF, $FF
DATA_0BFDB7:         db $FF, $FF, $FF, $FF, $FF, $FF, $FF, $FF
DATA_0BFDBF:         db $FF, $FF, $FF, $FF, $FF, $FF, $FF, $FF
DATA_0BFDC7:         db $FF, $FF, $FF, $FF, $FF, $FF, $FF, $FF
DATA_0BFDCF:         db $FF, $FF, $FF, $FF, $FF, $FF, $FF, $FF
DATA_0BFDD7:         db $FF, $FF, $FF, $FF, $FF, $FF, $FF, $FF
DATA_0BFDDF:         db $FF, $FF, $FF, $FF, $FF, $FF, $FF, $FF
DATA_0BFDE7:         db $FF, $FF, $FF, $FF, $FF, $FF, $FF, $FF
DATA_0BFDEF:         db $FF, $FF, $FF, $FF, $FF, $FF, $FF, $FF
DATA_0BFDF7:         db $FF, $FF, $FF, $FF, $FF, $FF, $FF, $FF
DATA_0BFDFF:         db $FF, $FF, $FF, $FF, $FF, $FF, $FF, $FF
DATA_0BFE07:         db $FF, $FF, $FF, $FF, $FF, $FF, $FF, $FF
DATA_0BFE0F:         db $FF, $FF, $FF, $FF, $FF, $FF, $FF, $FF
DATA_0BFE17:         db $FF, $FF, $FF, $FF, $FF, $FF, $FF, $FF
DATA_0BFE1F:         db $FF, $FF, $FF, $FF, $FF, $FF, $FF, $FF
DATA_0BFE27:         db $FF, $FF, $FF, $FF, $FF, $FF, $FF, $FF
DATA_0BFE2F:         db $FF, $FF, $FF, $FF, $FF, $FF, $FF, $FF
DATA_0BFE37:         db $FF, $FF, $FF, $FF, $FF, $FF, $FF, $FF
DATA_0BFE3F:         db $FF, $FF, $FF, $FF, $FF, $FF, $FF, $FF
DATA_0BFE47:         db $FF, $FF, $FF, $FF, $FF, $FF, $FF, $FF
DATA_0BFE4F:         db $FF, $FF, $FF, $FF, $FF, $FF, $FF, $FF
DATA_0BFE57:         db $FF, $FF, $FF, $FF, $FF, $FF, $FF, $FF
DATA_0BFE5F:         db $FF, $FF, $FF, $FF, $FF, $FF, $FF, $FF
DATA_0BFE67:         db $FF, $FF, $FF, $FF, $FF, $FF, $FF, $FF
DATA_0BFE6F:         db $FF, $FF, $FF, $FF, $FF, $FF, $FF, $FF
DATA_0BFE77:         db $FF, $FF, $FF, $FF, $FF, $FF, $FF, $FF
DATA_0BFE7F:         db $FF, $FF, $FF, $FF, $FF, $FF, $FF, $FF
DATA_0BFE87:         db $FF, $FF, $FF, $FF, $FF, $FF, $FF, $FF
DATA_0BFE8F:         db $FF, $FF, $FF, $FF, $FF, $FF, $FF, $FF
DATA_0BFE97:         db $FF, $FF, $FF, $FF, $FF, $FF, $FF, $FF
DATA_0BFE9F:         db $FF, $FF, $FF, $FF, $FF, $FF, $FF, $FF
DATA_0BFEA7:         db $FF, $FF, $FF, $FF, $FF, $FF, $FF, $FF
DATA_0BFEAF:         db $FF, $FF, $FF, $FF, $FF, $FF, $FF, $FF
DATA_0BFEB7:         db $FF, $FF, $FF, $FF, $FF, $FF, $FF, $FF
DATA_0BFEBF:         db $FF, $FF, $FF, $FF, $FF, $FF, $FF, $FF
DATA_0BFEC7:         db $FF, $FF, $FF, $FF, $FF, $FF, $FF, $FF
DATA_0BFECF:         db $FF, $FF, $FF, $FF, $FF, $FF, $FF, $FF
DATA_0BFED7:         db $FF, $FF, $FF, $FF, $FF, $FF, $FF, $FF
DATA_0BFEDF:         db $FF, $FF, $FF, $FF, $FF, $FF, $FF, $FF
DATA_0BFEE7:         db $FF, $FF, $FF, $FF, $FF, $FF, $FF, $FF
DATA_0BFEEF:         db $FF, $FF, $FF, $FF, $FF, $FF, $FF, $FF
DATA_0BFEF7:         db $FF, $FF, $FF, $FF, $FF, $FF, $FF, $FF
DATA_0BFEFF:         db $FF, $FF, $FF, $FF, $FF, $FF, $FF, $FF
DATA_0BFF07:         db $FF, $FF, $FF, $FF, $FF, $FF, $FF, $FF
DATA_0BFF0F:         db $FF, $FF, $FF, $FF, $FF, $FF, $FF, $FF
DATA_0BFF17:         db $FF, $FF, $FF, $FF, $FF, $FF, $FF, $FF
DATA_0BFF1F:         db $FF, $FF, $FF, $FF, $FF, $FF, $FF, $FF
DATA_0BFF27:         db $FF, $FF, $FF, $FF, $FF, $FF, $FF, $FF
DATA_0BFF2F:         db $FF, $FF, $FF, $FF, $FF, $FF, $FF, $FF
DATA_0BFF37:         db $FF, $FF, $FF, $FF, $FF, $FF, $FF, $FF
DATA_0BFF3F:         db $FF, $FF, $FF, $FF, $FF, $FF, $FF, $FF
DATA_0BFF47:         db $FF, $FF, $FF, $FF, $FF, $FF, $FF, $FF
DATA_0BFF4F:         db $FF, $FF, $FF, $FF, $FF, $FF, $FF, $FF
DATA_0BFF57:         db $FF, $FF, $FF, $FF, $FF, $FF, $FF, $FF
DATA_0BFF5F:         db $FF, $FF, $FF, $FF, $FF, $FF, $FF, $FF
DATA_0BFF67:         db $FF, $FF, $FF, $FF, $FF, $FF, $FF, $FF
DATA_0BFF6F:         db $FF, $FF, $FF, $FF, $FF, $FF, $FF, $FF
DATA_0BFF77:         db $FF, $FF, $FF, $FF, $FF, $FF, $FF, $FF
DATA_0BFF7F:         db $FF, $FF, $FF, $FF, $FF, $FF, $FF, $FF
DATA_0BFF87:         db $FF, $FF, $FF, $FF, $FF, $FF, $FF, $FF
DATA_0BFF8F:         db $FF, $FF, $FF, $FF, $FF, $FF, $FF, $FF
DATA_0BFF97:         db $FF, $FF, $FF, $FF, $FF, $FF, $FF, $FF
DATA_0BFF9F:         db $FF, $FF, $FF, $FF, $FF, $FF, $FF, $FF
DATA_0BFFA7:         db $FF, $FF, $FF, $FF, $FF, $FF, $FF, $FF
DATA_0BFFAF:         db $FF, $FF, $FF, $FF, $FF, $FF, $FF, $FF
DATA_0BFFB7:         db $FF, $FF, $FF, $FF, $FF, $FF, $FF, $FF
DATA_0BFFBF:         db $FF, $FF, $FF, $FF, $FF, $FF, $FF, $FF
DATA_0BFFC7:         db $FF, $FF, $FF, $FF, $FF, $FF, $FF, $FF
DATA_0BFFCF:         db $FF, $FF, $FF, $FF, $FF, $FF, $FF, $FF
DATA_0BFFD7:         db $FF, $FF, $FF, $FF, $FF, $FF, $FF, $FF
DATA_0BFFDF:         db $FF, $FF, $FF, $FF, $FF, $FF, $FF, $FF
DATA_0BFFE7:         db $FF, $FF, $FF, $FF, $FF, $FF, $FF, $FF
DATA_0BFFEF:         db $FF, $FF, $FF, $FF, $FF, $FF, $FF, $FF
DATA_0BFFF7:         db $FF, $FF, $FF, $FF, $FF, $FF, $FF, $FF
DATA_0BFFFF:         db $FF